
CH32V103C8T6_USB.elf:     file format elf32-littleriscv
CH32V103C8T6_USB.elf
architecture: riscv:rv32, flags 0x00000112:
EXEC_P, HAS_SYMS, D_PAGED
start address 0x00000000

Program Header:
0x70000003 off    0x0006a05c vaddr 0x00000000 paddr 0x00000000 align 2**0
         filesz 0x00000034 memsz 0x00000000 flags r--
    LOAD off    0x00001000 vaddr 0x00000000 paddr 0x00000000 align 2**12
         filesz 0x0000c26c memsz 0x0000c26c flags r-x
    LOAD off    0x0000e000 vaddr 0x20000000 paddr 0x0000c26c align 2**12
         filesz 0x0000192c memsz 0x0000192c flags rw-
    LOAD off    0x00000930 vaddr 0x20001930 paddr 0x0000db98 align 2**12
         filesz 0x00000000 memsz 0x000027d0 flags rw-
    LOAD off    0x00000800 vaddr 0x20004800 paddr 0x20004800 align 2**12
         filesz 0x00000000 memsz 0x00000800 flags rw-

Sections:
Idx Name          Size      VMA       LMA       File off  Algn
  0 .init         00000038  00000000  00000000  00001000  2**1
                  CONTENTS, ALLOC, LOAD, READONLY, CODE
  1 .vector       00000108  00000038  00000038  00001038  2**1
                  CONTENTS, ALLOC, LOAD, READONLY, CODE
  2 .text         0000c12c  00000140  00000140  00001140  2**2
                  CONTENTS, ALLOC, LOAD, READONLY, CODE
  3 .fini         00000000  0000c26c  0000c26c  0000f92c  2**0
                  CONTENTS, ALLOC, LOAD, CODE
  4 .dalign       00000000  20000000  20000000  0000f92c  2**0
                  CONTENTS
  5 .dlalign      00000000  0000c26c  0000c26c  0000f92c  2**0
                  CONTENTS
  6 .data         0000192c  20000000  0000c26c  0000e000  2**3
                  CONTENTS, ALLOC, LOAD, DATA
  7 .bss          000027d0  20001930  0000db98  0000f930  2**3
                  ALLOC
  8 .stack        00000800  20004800  20004800  00010800  2**0
                  ALLOC
  9 .debug_info   0002c173  00000000  00000000  0000f92c  2**0
                  CONTENTS, READONLY, DEBUGGING, OCTETS
 10 .debug_abbrev 00007b7b  00000000  00000000  0003ba9f  2**0
                  CONTENTS, READONLY, DEBUGGING, OCTETS
 11 .debug_aranges 000014e8  00000000  00000000  00043620  2**3
                  CONTENTS, READONLY, DEBUGGING, OCTETS
 12 .debug_ranges 00000ec0  00000000  00000000  00044b08  2**3
                  CONTENTS, READONLY, DEBUGGING, OCTETS
 13 .debug_line   0001d934  00000000  00000000  000459c8  2**0
                  CONTENTS, READONLY, DEBUGGING, OCTETS
 14 .debug_str    00006cfc  00000000  00000000  000632fc  2**0
                  CONTENTS, READONLY, DEBUGGING, OCTETS
 15 .comment      00000064  00000000  00000000  00069ff8  2**0
                  CONTENTS, READONLY
 16 .riscv.attributes 00000034  00000000  00000000  0006a05c  2**0
                  CONTENTS, READONLY
 17 .debug_frame  00003540  00000000  00000000  0006a090  2**2
                  CONTENTS, READONLY, DEBUGGING, OCTETS
 18 .debug_loc    0000646d  00000000  00000000  0006d5d0  2**0
                  CONTENTS, READONLY, DEBUGGING, OCTETS
 19 .debug_loclists 0000284f  00000000  00000000  00073a3d  2**0
                  CONTENTS, READONLY, DEBUGGING, OCTETS
 20 .debug_rnglists 00000ae4  00000000  00000000  0007628c  2**0
                  CONTENTS, READONLY, DEBUGGING, OCTETS
 21 .debug_line_str 00000516  00000000  00000000  00076d70  2**0
                  CONTENTS, READONLY, DEBUGGING, OCTETS
SYMBOL TABLE:
00000000 l    d  .init	00000000 .init
00000038 l    d  .vector	00000000 .vector
00000140 l    d  .text	00000000 .text
0000c26c l    d  .fini	00000000 .fini
20000000 l    d  .dalign	00000000 .dalign
0000c26c l    d  .dlalign	00000000 .dlalign
20000000 l    d  .data	00000000 .data
20001930 l    d  .bss	00000000 .bss
20004800 l    d  .stack	00000000 .stack
00000000 l    d  .debug_info	00000000 .debug_info
00000000 l    d  .debug_abbrev	00000000 .debug_abbrev
00000000 l    d  .debug_aranges	00000000 .debug_aranges
00000000 l    d  .debug_ranges	00000000 .debug_ranges
00000000 l    d  .debug_line	00000000 .debug_line
00000000 l    d  .debug_str	00000000 .debug_str
00000000 l    d  .comment	00000000 .comment
00000000 l    d  .riscv.attributes	00000000 .riscv.attributes
00000000 l    d  .debug_frame	00000000 .debug_frame
00000000 l    d  .debug_loc	00000000 .debug_loc
00000000 l    d  .debug_loclists	00000000 .debug_loclists
00000000 l    d  .debug_rnglists	00000000 .debug_rnglists
00000000 l    d  .debug_line_str	00000000 .debug_line_str
00000000 l    df *ABS*	00000000 startup_ch32v10x.o
00000038 l       .vector	00000000 _vector_base
00000000 l    df *ABS*	00000000 save-restore.o
00000000 l    df *ABS*	00000000 lib_a-memcpy-asm.o
00000000 l    df *ABS*	00000000 lib_a-memset.o
00000000 l    df *ABS*	00000000 ch32v10x_it.c
00000000 l    df *ABS*	00000000 ch32v10x_usbfs_device.c
00000000 l    df *ABS*	00000000 conf.c
2000194c l     O .bss	00000004 fac
00000000 l    df *ABS*	00000000 flash.c
200024a0 l     O .bss	00000080 flash_buf
00000000 l    df *ABS*	00000000 global_api.c
00000000 l    df *ABS*	00000000 gpio_adc.c
00000000 l    df *ABS*	00000000 gpio_digit.c
00000000 l    df *ABS*	00000000 hd_rumble.c
00000000 l    df *ABS*	00000000 hd_rumble2.c
00000000 l    df *ABS*	00000000 hd_rumble_high_accuracy.c
20001970 l     O .bss	00000004 tim3_counter
20001980 l     O .bss	00000004 left_high_tick
2000197c l     O .bss	00000004 left_low_tick
20001978 l     O .bss	00000004 right_high_tick
20001974 l     O .bss	00000004 right_low_tick
20001984 l     O .bss	00000004 tim3_irq_tmp
00000000 l    df *ABS*	00000000 i2c.c
200019ec l     O .bss	00000004 last_reset.4621
00000000 l    df *ABS*	00000000 imu.c
200019f4 l     O .bss	00000001 status.1
200019f8 l     O .bss	00000004 rep
20001a00 l     O .bss	00000004 last_imu_upd
20002c2c l     O .bss	00000018 imu_sum
200019fd l     O .bss	00000001 imu_sample_cnt
200019f0 l     O .bss	00000004 last_upd.0
00000000 l    df *ABS*	00000000 imu_quaternion.c
20001a18 l     O .bss	00000004 prev_timestamp.5
20002c50 l     O .bss	00000012 gyo_samples.3
20001a13 l     O .bss	00000001 pos.2
20001a14 l     O .bss	00000004 timestamp.4
20002c44 l     O .bss	0000000c quaternion_30bit_components.0
00000000 l    df *ABS*	00000000 main.c
20001a60 l     O .bss	00000001 top_trigger
20001a58 l     O .bss	00000004 sts_ljoy
20001a54 l     O .bss	00000004 sts_rjoy
20001a28 l     O .bss	00000001 set.11
20001a4c l     O .bss	00000006 pkt
20001a24 l     O .bss	00000004 last_tick.10
20001a23 l     O .bss	00000001 id.9
20001a22 l     O .bss	00000001 save.7
20001a21 l     O .bss	00000001 upd.6
20001a20 l     O .bss	00000001 f1.5
20001a1f l     O .bss	00000001 f2.4
20001a1e l     O .bss	00000001 f3.3
20001a1d l     O .bss	00000001 f4.2
20001a44 l     O .bss	00000004 top_tick
20001a3c l     O .bss	00000006 test_uart_pkt
20001a38 l     O .bss	00000004 routine_tick
20002c64 l     O .bss	0000000c GPIO_InitStructure.1
20001a34 l     O .bss	00000001 stop_flag
20001a1c l     O .bss	00000001 sts.0
20001a2c l     O .bss	00000008 uart_rumble_buf
20001a48 l     O .bss	00000004 input_update_tick
00000000 l    df *ABS*	00000000 ns_com.c
20002cb0 l     O .bss	00000034 pkt
00000000 l    df *ABS*	00000000 ns_com_mux.c
20003138 l     O .bss	00000040 usb_handshake_buf
200030e0 l     O .bss	00000018 calibrate_imu_raw_buf
200030f8 l     O .bss	00000040 fw_buf_raw
20001a6a l     O .bss	00000001 fw_red_cnt
00000000 l    df *ABS*	00000000 pwr.c
00000000 l    df *ABS*	00000000 ring_buffer.c
00000000 l    df *ABS*	00000000 spi.c
20001a74 l     O .bss	00000003 p.1
00000000 l    df *ABS*	00000000 system_ch32v10x.c
000057be l     F .text	000000ca SetSysClockTo72_HSE
00000000 l    df *ABS*	00000000 tick.c
20001a7c l     O .bss	00000004 inited.4594
20001a80 l     O .bss	00000001 p_us
00000000 l    df *ABS*	00000000 uart_com.c
20001a84 l     O .bss	00000006 send_buf
00000000 l    df *ABS*	00000000 usbd_compatibility_hid.c
20001ab8 l     O .bss	00000001 ns_hid_pkt_cnt
20001aa8 l     O .bss	00000004 rep
20004074 l     O .bss	00000040 usb_rx_buf
20001aa0 l     O .bss	00000008 pkt.0
00000000 l    df *ABS*	00000000 ch32v10x_adc.c
00000000 l    df *ABS*	00000000 ch32v10x_dma.c
00000000 l    df *ABS*	00000000 ch32v10x_exti.c
00000000 l    df *ABS*	00000000 ch32v10x_flash.c
000068b8 l     F .text	0000006e ROM_ERASE
00000000 l    df *ABS*	00000000 ch32v10x_gpio.c
00000000 l    df *ABS*	00000000 ch32v10x_i2c.c
00000000 l    df *ABS*	00000000 ch32v10x_misc.c
00000000 l    df *ABS*	00000000 ch32v10x_pwr.c
00000000 l    df *ABS*	00000000 ch32v10x_rcc.c
20001834 l     O .data	00000010 APBAHBPrescTable
200018c0 l     O .data	00000004 ADCPrescTable
00000000 l    df *ABS*	00000000 ch32v10x_spi.c
00000000 l    df *ABS*	00000000 ch32v10x_tim.c
00000000 l    df *ABS*	00000000 ch32v10x_usart.c
00000000 l    df *ABS*	00000000 debug.c
00000000 l    df *ABS*	00000000 lib_a-wf_sqrt.o
00000000 l    df *ABS*	00000000 lib_a-ef_sqrt.o
200018c8 l     O .data	00000004 one
200018c4 l     O .data	00000004 tiny
00000000 l    df *ABS*	00000000 printfloat.c
00000000 l    df *ABS*	00000000 _udivdi3.o
00000000 l    df *ABS*	00000000 _umoddi3.o
00000000 l    df *ABS*	00000000 adddf3.o
00000000 l    df *ABS*	00000000 divdf3.o
00000000 l    df *ABS*	00000000 ledf2.o
00000000 l    df *ABS*	00000000 muldf3.o
00000000 l    df *ABS*	00000000 subdf3.o
00000000 l    df *ABS*	00000000 floatsidf.o
00000000 l    df *ABS*	00000000 floatunsidf.o
00000000 l    df *ABS*	00000000 fixdfdi.o
00000000 l    df *ABS*	00000000 floatdidf.o
00000000 l    df *ABS*	00000000 addsf3.o
00000000 l    df *ABS*	00000000 divsf3.o
00000000 l    df *ABS*	00000000 gesf2.o
00000000 l    df *ABS*	00000000 lesf2.o
00000000 l    df *ABS*	00000000 mulsf3.o
00000000 l    df *ABS*	00000000 subsf3.o
00000000 l    df *ABS*	00000000 unordsf2.o
00000000 l    df *ABS*	00000000 fixsfsi.o
00000000 l    df *ABS*	00000000 floatsisf.o
00000000 l    df *ABS*	00000000 floatdisf.o
00000000 l    df *ABS*	00000000 truncdfsf2.o
00000000 l    df *ABS*	00000000 _clzsi2.o
00000000 l    df *ABS*	00000000 lib_a-errno.o
00000000 l    df *ABS*	00000000 usb_desc.c
00000000 l    df *ABS*	00000000 lib_a-impure.o
20001844 l     O .data	00000060 impure_data
00000000 l    df *ABS*	00000000 ch32v10x_usb.c
00007b48  w    F .text	00000100 printDouble
00006332  w      .text	00000000 EXTI2_IRQHandler
00000fe8 g     F .text	00000040 flash_write
200037b4 g     O .bss	000000c0 uart_rx_rb_buf
00004496 g     F .text	000000b2 ns_subcommand_spi_read
0000c030 g     O .text	00000016 MySerNumInfo
200040b4 g     O .bss	00000009 global_input_data
00004dfe g     F .text	00000020 fw_snd_pkt
0000448a g     F .text	00000004 ns_subcommand_spi_erase
20001946 g     O .bss	00000002 USBFS_SetupReqValue
20001a9a g     O .bss	00000002 UART1_RX_CurCnt
00005464 g     F .text	00000076 SPI_FullDuplex_Init
00007566 g     F .text	00000006 TIM_SetCompare2
000067e0 g     F .text	00000014 DMA_Cmd
000042d8 g     F .text	0000009e ns_subcommand_get_device_info
20001a8c g     O .bss	00000006 rx_filter_buf
000033e6 g     F .text	00000044 imu_upd2
00001070 g     F .text	00000018 fetch_uint32
00007c48  w    F .text	00000356 print
000060f2 g     F .text	0000010c hid_tx_service
0000a2ce g     F .text	000001ae .hidden __floatdidf
00002798 g     F .text	000000c4 i2c_read_continuous
00007f9e  w    F .text	00000024 printf
200020a8 g       .data	00000000 __global_pointer$
00000148 g     F .text	00000028 .hidden __riscv_save_8
00006836 g     F .text	0000000c DMA_GetITStatus
00006332  w      .text	00000000 TIM1_CC_IRQHandler
00006e14 g     F .text	0000000a I2C_ReceiveData
200018a8 g     O .data	00000001 rumble_state
0000461e g     F .text	00000030 ns_subcommand_attachment_state
000001c8 g     F .text	00000002 HardFault_Handler
00000a56 g     F .text	0000003c conf_read
000045e4 g     F .text	00000004 ns_subcommand_write_charge_setting
00003134 g     F .text	000002b2 switch_motion_pack_quat
00000d82 g     F .text	0000001a fac_conf_read
00007930  w    F .text	000000f4 printInt
0000643c g     F .text	00000012 ADC_DMACmd
00003ee0 g     F .text	0000002e recv_esp32_pkg
0000102e g     F .text	00000002 raw_flash_write
00000194 g     F .text	0000000c .hidden __riscv_restore_3
0000a7e4 g     F .text	000002ea .hidden __divsf3
00007508 g     F .text	00000012 TIM_OC1PreloadConfig
200019a5 g     O .bss	00000001 right_high_buf_rdy
00006332  w      .text	00000000 SysTick_Handler
00006460 g     F .text	0000000a ADC_StartCalibration
000050b4 g     F .text	00000096 fw_subcommand_dispatcher
00006eca g     F .text	0000006e NVIC_Init
00006332  w      .text	00000000 PVD_IRQHandler
00004da0 g     F .text	0000003c ns_mux_init
00004dee g     F .text	00000010 hid_send_full64byte_report
00000d9c g     F .text	0000004e conf_flush
20001a70 g     O .bss	00000001 is_rumble_start
00003892 g     F .text	0000013e func_switch_task
00000180 g     F .text	00000020 .hidden __riscv_restore_10
200019c8 g     O .bss	00000008 right_low
000001c6 g     F .text	00000002 NMI_Handler
200034b8 g     O .bss	00000123 spi_tx_buf
0000b2a0 g     F .text	00000060 .hidden __fixsfsi
00006332  w      .text	00000000 EXTI3_IRQHandler
20003874 g     O .bss	00000800 UART1_RxBuffer
20002520 g     O .bss	00000060 hid_num_to_gpio
20002898 g     O .bss	00000100 left_high_rb_buf
00000148 g     F .text	00000028 .hidden __riscv_save_11
200007c0 g     O .data	00001000 ccr_lookup_tb
00003b1e g     F .text	00000092 set_peripherals_state
0000b6ec g     F .text	00000006 __errno
00002b5c g     F .text	00000002 imu_init
00001f36 g     F .text	00000040 step_forward
000013e0 g     F .text	00000054 gpio_read
000001ca g     F .text	0000004a USBFS_RCC_Init
00006fd0 g     F .text	00000046 PWR_VDD_SupplyVoltage
20001aac g     O .bss	00000004 rpt
200018b8 g     O .data	00000002 spi_rgb_trans
00004750 g     F .text	0000007e ns_subcommand_set_imu_conf
20001a5c g     O .bss	00000004 sts_button
200018b0 g     O .data	00000001 input_mode
00007688 g     F .text	0000000c USART_GetFlagStatus
00002250 g     F .text	00000028 i2c2_check_event
000052ba g     F .text	00000046 ring_buffer_init
20001930 g       .bss	00000000 _sbss
00000800 g       *ABS*	00000000 __stack_size
20001942 g     O .bss	00000002 USBFS_SetupReqLen
000076a2 g     F .text	00000002 USART_Printf_Init
00000aaa g     F .text	00000068 pack_fac_conf
000067a8 g     F .text	00000038 DMA_Init
200023ec g     O .bss	000000b1 factory_configuration
2000199c g     O .bss	00000002 left_low_pos
0000aed8 g     F .text	0000038c .hidden __subsf3
00001846 g     F .text	000000b8 decode_hd_rumble_format2
00000250 g     F .text	00000772 USBFS_IRQHandler
000067f4 g     F .text	00000008 DMA_GetCurrDataCounter
00004a06 g     F .text	00000050 ns_rumble_handler
20002a24 g     O .bss	0000008c right_high_rb
20002bc8 g     O .bss	0000004a imu_pack_buf
000076a8 g     F .text	00000048 sqrtf
00000194 g     F .text	0000000c .hidden __riscv_restore_2
20002580 g     O .bss	00000018 linear_samples
00003456 g     F .text	00000018 button_upd_all
00005416 g     F .text	0000004e ring_buffer_pop
000056f2 g     F .text	00000040 flush_rgb
0000bf04 g     O .text	00000012 MyDevDescr
0000416c g     F .text	00000002 ns_subcommand_set_hci_state
00005238 g     F .text	0000002e top_init
000074be g     F .text	00000016 TIM_CtrlPWMOutputs
00003e10 g     F .text	0000007e recv_rumble_frame
000001a0 g     F .text	00000016 memcpy
0000642c g     F .text	00000010 ADC_Cmd
0000298e g     F .text	00000034 imu_set_reg
0000a132 g     F .text	00000070 .hidden __floatsidf
2000193d g     O .bss	00000001 USBFS_HidProtocol
00007a24  w    F .text	00000124 printLongLongInt
0000598e g     F .text	00000070 _systick_init
000093f6 g     F .text	000000bc .hidden __ltdf2
00006332  w      .text	00000000 EXTI0_IRQHandler
00006332  w      .text	00000000 I2C2_EV_IRQHandler
000039d0 g     F .text	00000106 top_timer
20001950 g     O .bss	00000002 Calibrattion_Val
000074a2 g     F .text	0000001c TIM_Cmd
00007fc2  w    F .text	00000054 puts
00007546 g     F .text	0000001a TIM_OC4PreloadConfig
0000158e g     F .text	0000003e ApplyCommand
200018bc g     O .data	00000004 SystemCoreClock
200019a1 g     O .bss	00000001 right_high_buf_stdby
200040c0 g     O .bss	00000040 HID_Report_Buffer
00004198 g     F .text	00000002 ns_subcommand_reset_mcu
00005732 g     F .text	0000005e spi_init
20002128 g     O .bss	00000200 ep1_data_buffer
00000038 g       .init	00000000 _einit
200017dc g     O .data	0000000e default_et
000075a0 g     F .text	0000000e TIM_ClearITPendingBit
0000ab64 g     F .text	00000098 .hidden __lesf2
0000713a g     F .text	0000001e RCC_APB2PeriphClockCmd
00000140 g     F .text	00000030 .hidden __riscv_save_12
00006332  w      .text	00000000 ADC1_2_IRQHandler
00006b48 g     F .text	000000c2 GPIO_Init
0000703a g     F .text	00000012 RCC_ADCCLKConfig
00000180 g     F .text	00000020 .hidden __riscv_restore_11
20001ac4 g     O .bss	00000004 NVIC_Priority_Group
00006332  w      .text	00000000 SPI1_IRQHandler
0000644e g     F .text	0000000a ADC_ResetCalibration
2000199a g     O .bss	00000002 right_high_pos
00007656 g     F .text	0000001c USART_Cmd
00004e1e g     F .text	0000009a fw_subcommand_read_setting
20002998 g     O .bss	0000008c right_low_rb
00006332  w      .text	00000000 TAMPER_IRQHandler
00000170 g     F .text	0000000c .hidden __riscv_save_1
200018d0 g     O .data	00000004 MyLangDescr
00000194 g     F .text	0000000c .hidden __riscv_restore_0
0000736e g     F .text	000000b2 TIM_OC3Init
20002c20 g     O .bss	0000000c imu_raw_buf
00000156 g     F .text	0000001a .hidden __riscv_save_7
2000196d g     O .bss	00000001 decoded_cnt
2000199e g     O .bss	00000002 left_high_pos
00006842 g     F .text	0000000c DMA_ClearITPendingBit
00007158 g     F .text	0000001e RCC_APB1PeriphClockCmd
00005586 g     F .text	0000007e set_led_rgb
00008760 g     F .text	000006e8 .hidden __adddf3
00005b40 g     F .text	000000b2 UART1_DMA_Init
20001808 g     O .data	00000029 MyCfgDescr
20004800 g       .stack	00000000 _heap_end
00002f36 g     F .text	000001fe _imu_update_quaternion
000083c6 g     F .text	0000039a .hidden __umoddi3
0000416e g     F .text	0000002a ns_subcommand_set_imu_register
20001994 g     O .bss	00000004 left_high_sum
00005ab6 g     F .text	0000004a Delay_Us
00004882 g     F .text	0000003a ns_subcommand_get_battery_voltage
0000018a g     F .text	00000016 .hidden __riscv_restore_5
00007578 g     F .text	0000000c TIM_GetFlagStatus
20002ab0 g     O .bss	0000008c left_low_rb
0000711c g     F .text	0000001e RCC_AHBPeriphClockCmd
00008016 g     F .text	000003b0 .hidden __udivdi3
00006332  w      .text	00000000 DMA1_Channel4_IRQHandler
0000648a g     F .text	000000b8 ADC_RegularChannelConfig
00006e0e g     F .text	00000006 I2C_SendData
0000a1a2 g     F .text	00000070 .hidden __floatunsidf
20002ca0 g     O .bss	00000010 adc_debounce
0000bff8 g     O .text	0000000a MyManuInfo
00000b24 g     F .text	0000004e conf_write
20001a69 g     O .bss	00000001 indicate_led_status
00004844 g     F .text	0000003e ns_subcommand_set_rumble_state
00001030 g     F .text	00000040 flash_read
00006c84 g     F .text	00000114 I2C_Init
000067fc g     F .text	00000020 DMA_GetFlagStatus
0000422c g     F .text	000000ac ns_subcommand_pair_by_wire
0000018a g     F .text	00000016 .hidden __riscv_restore_6
00006332  w      .text	00000000 USART3_IRQHandler
00006332  w      .text	00000000 RTC_IRQHandler
0000646a g     F .text	00000008 ADC_GetCalibrationStatus
20001931 g     O .bss	00000001 USBFS_DevConfig
20004100 g       .bss	00000000 _ebss
000041b4 g     F .text	00000040 ns_subcommand_set_mcu_conf
00006332  w      .text	00000000 DMA1_Channel7_IRQHandler
000072e6 g     F .text	00000088 TIM_OC1Init
000041f4 g     F .text	00000038 ns_subcommand_default
00006472 g     F .text	00000018 ADC_SoftwareStartConvCmd
00007534 g     F .text	00000012 TIM_OC3PreloadConfig
00006458 g     F .text	00000008 ADC_GetResetCalibrationStatus
000071b2 g     F .text	0000002e RCC_GetFlagStatus
0000162e g     F .text	00000060 deocde_hd_rumble_format1
0000b3cc g     F .text	00000146 .hidden __floatdisf
20001a0c g     O .bss	00000004 imu_ratio_xf
00001618 g     F .text	00000016 get_hd_rumble_pack
20003378 g     O .bss	0000008c ns_usb_recv_rb
20002328 g     O .bss	0000007b user_config
00004d7e g     F .text	00000022 fw_subcommand_reboot
20001ab0 g     O .bss	00000001 pkg_typ
20001988 g     O .bss	00000004 right_low_sum
0000120e g     F .text	00000080 gpio_tb_init
0000519a g     F .text	0000009e setup_exti
200018b4 g     O .data	00000004 rts_tcnt
0000aace g     F .text	00000096 .hidden __gtsf2
00006c14 g     F .text	00000004 GPIO_SetBits
200023a4 g     O .bss	00000048 user_calibration
20001940 g     O .bss	00000002 USBFS_SetupReqIndex
00005dc6 g     F .text	00000002 ck_uart_cap
00006332  w      .text	00000000 TIM4_IRQHandler
000093f6 g     F .text	000000bc .hidden __ledf2
000074ea g     F .text	0000001e TIM_ARRPreloadConfig
00000148 g     F .text	00000028 .hidden __riscv_save_9
00006c1c g     F .text	0000000a GPIO_WriteBit
00003bee g     F .text	0000011e init_all
20002ce4 g     O .bss	000003fc ns_cmd_subcommand_cb_tb
2000196c g     O .bss	00000001 global_sample_channel
200002c0 g     O .data	00000500 exp2_lookup_tb
00006db4 g     F .text	0000001e I2C_GenerateSTART
20001944 g     O .bss	00000001 USBFS_SetupReqType
00000156 g     F .text	0000001a .hidden __riscv_save_4
0000342a g     F .text	0000002c Var_Init
00004492 g     F .text	00000004 ns_subcommand_disable_mcu_polling
00006332  w      .text	00000000 I2C1_EV_IRQHandler
00003788 g     F .text	000000bc send_input_with_uart
00005ea4 g     F .text	0000014c UART1_Rx_Service
000025d0 g     F .text	0000014a i2c_read_start
000054da g     F .text	00000058 spi_DMA_Tx_Init
00007584 g     F .text	0000001c TIM_GetITStatus
200035dc g     O .bss	0000008c uart_tx_rb
00002a0e g     F .text	0000012a set_imu_awake
000015f0 g     F .text	00000028 ApplyFmCommand
20001934 g     O .bss	00000008 USBFS_Endp_Busy
00007060 g     F .text	000000bc RCC_GetClocksFreq
20001ab1 g     O .bss	00000001 pkg_len
200019ea g     O .bss	00000001 i2c_status
000045ac g     F .text	00000034 ns_subcommand_set_mcu_state
00006332  w      .text	00000000 DMA1_Channel6_IRQHandler
0000b67e g     F .text	0000006e .hidden __clzsi2
00006e48 g     F .text	00000026 I2C_NACKPositionConfig
20002598 g     O .bss	00000100 right_low_rb_buf
000075ae g     F .text	000000a8 USART_Init
200019fc g     O .bss	00000001 imu_buf_pos
00001fd2 g     F .text	00000224 TIM3_IRQHandler
00006332  w      .text	00000000 RCC_IRQHandler
0000419e g     F .text	00000016 pkt_clr
00000170 g     F .text	0000000c .hidden __riscv_save_3
000045e8 g     F .text	00000036 ns_subcommand_attachmend_read
00006332  w      .text	00000000 TIM1_TRG_COM_IRQHandler
0000419c g     F .text	00000002 ns_subcommand_reset_pairing_info
200019a3 g     O .bss	00000001 left_high_buf_stdby
20001a64 g     O .bss	00000005 imu_conf
00006332  w      .text	00000000 DMA1_Channel1_IRQHandler
00004ddc g     F .text	00000012 ns_send_report
00000000 g       .init	00000000 _start
200017f8 g     O .data	00000010 AHBPrescTable
20001a12 g     O .bss	00000001 imu_upd_cnt
00006e88 g     F .text	00000032 I2C_GetFlagStatus
0000751a g     F .text	0000001a TIM_OC2PreloadConfig
0000b300 g     F .text	000000cc .hidden __floatsisf
00007850  w    F .text	000000e0 prints
20001abc g     O .bss	00000004 get_peripheral_data
200019c0 g     O .bss	00000008 left_high_buf
00006332  w      .text	00000000 EXTI15_10_IRQHandler
000074d4 g     F .text	00000016 TIM_ITConfig
0000136e g     F .text	00000072 gpio_read_all
20003278 g     O .bss	00000100 ns_usb_send_buf
00004376 g     F .text	0000005c ns_subcommand_set_input_mode
0000684e g     F .text	0000006a EXTI_Init
2000193e g     O .bss	00000001 USBFS_SetupReqCode
200019d0 g     O .bss	00000008 right_high
0000448e g     F .text	00000004 ns_subcommand_enable_mcu_polling
00003844 g     F .text	0000004e imu_read_test
00005d08 g     F .text	000000be UART1_Tx_Service
000022a2 g     F .text	0000012c i2c_software_recovery
20001a92 g     O .bss	00000001 rx_ptr
00006078 g     F .text	00000066 rpt_warpper
00005ff0 g     F .text	00000048 send_uart_pkt
20001a96 g     O .bss	00000002 UART1_Rx_RemainLen
20001a98 g     O .bss	00000002 UART1_RX_LastCnt
00004682 g     F .text	00000046 ns_subcommand_set_indicate_led
00006c52 g     F .text	00000032 I2C_DeInit
00006d98 g     F .text	0000001c I2C_Cmd
00006c18 g     F .text	00000004 GPIO_ResetBits
20001932 g     O .bss	00000001 USBFS_DevEnumStatus
20000000 g       .dalign	00000000 _data_vma
000060e4 g     F .text	0000000e hid_init
200017ec g     O .data	0000000c default_device_info
0000756c g     F .text	00000006 TIM_SetCompare3
0000595a g     F .text	0000000c SetSysClock
00007420 g     F .text	00000082 TIM_OC4Init
00006332  w      .text	00000000 EXTI9_5_IRQHandler
00008e48 g     F .text	000005ae .hidden __divdf3
00005604 g     F .text	000000ee flush_spi_tx_seq
200019a6 g     O .bss	00000001 left_low_buf_rdy
00006c26 g     F .text	0000002c GPIO_EXTILineConfig
20001930 g     O .bss	00000001 USBFS_DevAddr
000094b2 g     F .text	0000054a .hidden __muldf3
00000148 g     F .text	00000028 .hidden __riscv_save_10
00006e1e g     F .text	00000014 I2C_Send7bitAddress
200036f4 g     O .bss	000000c0 uart_tx_rb_buf
000046c8 g     F .text	0000003c ns_subcommand_get_indicate_led
0000346e g     F .text	00000056 get_peripheral_data_handler
0000018a g     F .text	00000016 .hidden __riscv_restore_4
00000180 g     F .text	00000020 .hidden __riscv_restore_8
200019a7 g     O .bss	00000001 left_high_buf_rdy
00000156 g     F .text	0000001a .hidden __riscv_save_6
00006332  w      .text	00000000 SPI2_IRQHandler
00003bb0 g     F .text	0000003e wake_esp32
00006f5c g     F .text	00000066 PWR_EnterSTOPMode
2000198c g     O .bss	00000004 right_high_sum
00001e32 g     F .text	00000104 push_waveform_into_buffer_task
000001b6 g     F .text	00000010 memset
000076f0 g     F .text	00000114 __ieee754_sqrtf
0000113a g     F .text	00000058 DMA_Tx_Init
00000180 g     F .text	00000020 .hidden __riscv_restore_9
0000018a g     F .text	00000016 .hidden __riscv_restore_7
00004048 g     F .text	00000124 main
000018fe g     F .text	000000fa decode_hd_rumble_format2long
200019a8 g     O .bss	00000008 right_low_buf
00004548 g     F .text	00000064 ns_subcommand_spi_write
20001954 g     O .bss	00000008 adc_data
000059fe g     F .text	00000024 SysTick_Init
00005532 g     F .text	00000054 rgb_spi_pkg_gen
200001c0 g     O .data	00000100 amp_exp2_index_lookup_tb
20001964 g     O .bss	00000008 m_state
0000ab64 g     F .text	00000098 .hidden __ltsf2
00006038 g     F .text	00000006 ns_set_peripheral_data_getter
000061fe g     F .text	00000134 hid_rx_service
20002b3c g     O .bss	0000008c left_high_rb
200019a4 g     O .bss	00000001 right_low_buf_rdy
0000b512 g     F .text	0000016c .hidden __truncdfsf2
00007258 g     F .text	00000016 SPI_I2S_DMACmd
00005062 g     F .text	0000003c fw_subcommand_get_status
00003708 g     F .text	00000080 joystick_debounce_task
20001a9e g     O .bss	00000002 UART1_TimeOut
200019a2 g     O .bss	00000001 left_low_buf_stdby
20001933 g     O .bss	00000001 USBFS_DevSleepStatus
200019e8 g     O .bss	00000001 i2c_error_code
00006542 g     F .text	0000016c Get_CalibrationValue
00006332  w      .text	00000000 DMA1_Channel5_IRQHandler
00007016 g     F .text	00000024 RCC_USBCLKConfig
0000bf18 g     O .text	000000df MyHIDReportDesc
00006332  w      .text	00000000 EXTI4_IRQHandler
00005b00 g     F .text	00000040 Delay_Ms
000009c2 g     F .text	00000094 USBFS_Device_Init
0000c004 g     O .text	0000002a MyProdInfo
0000abfc g     F .text	000002dc .hidden __mulsf3
00007572 g     F .text	00000006 TIM_SetCompare4
200019e9 g     O .bss	00000001 i2c_intr_error
00005300 g     F .text	00000116 ring_buffer_push
00002d7e g     F .text	00000090 _imu_quat_normalize
0000168e g     F .text	00000094 decode_hd_rumble_format1long
0000723a g     F .text	0000001e SPI_Cmd
000047ce g     F .text	00000076 ns_subcommand_read_imu_register
000029c2 g     F .text	0000004c imu_read
00002228 g     F .text	00000028 i2c2_check_flag
20001ac0 g     O .bss	00000001 HID_Set_Report_Flag
00007694 g     F .text	0000000e USART_ClearFlag
00000214 g     F .text	0000003c USBFS_Device_Endp_Init
20001a04 g     O .bss	00000004 imu_ratio_zf
00006e32 g     F .text	00000016 I2C_SoftwareResetCmd
00005888 g     F .text	0000004c SystemInit
00002b38 g     F .text	00000024 set_imu_sleep
20001ab4 g     O .bss	00000004 pkg_ptr
200000c0 g     O .data	00000100 freq_exp2_index_lookup_tb
00004704 g     F .text	0000004c ns_subcommand_set_imu_state
00007804  w    F .text	0000004c printchar
00004f64 g     F .text	0000004c fw_subcommand_read_emulate_rom
0000c16c g     O .text	00000100 .hidden __clz_tab
00000000 g       .init	00000000 _sinit
0000a212 g     F .text	000000bc .hidden __fixdfdi
20001990 g     O .bss	00000004 left_low_sum
20001a71 g     O .bss	00000001 force_esp32_active
0000aace g     F .text	00000096 .hidden __gesf2
0000271a g     F .text	0000007e i2c_read_byte
00005790 g     F .text	0000002e DMA1_Channel3_IRQHandler
200019b8 g     O .bss	00000008 left_low_buf
000021f6 g     F .text	00000032 i2c2_check_error
200018cc g     O .data	00000004 _impure_ptr
00001088 g     F .text	000000b2 ADC_Function_Init
00006332  w      .text	00000000 TIM1_UP_IRQHandler
00001192 g     F .text	0000007c adc_init
00003ad6 g     F .text	00000048 routine_service
00001d54 g     F .text	00000076 hd_rumble_high_accurary_init
20002798 g     O .bss	00000100 left_low_rb_buf
00002976 g     F .text	00000018 i2c_init
20002c70 g     O .bss	00000030 js_snapback_samples
00006332  w      .text	00000000 WWDG_IRQHandler
200020cc g     O .bss	0000001c RingBuffer_Comm
00007194 g     F .text	0000001e RCC_APB1PeriphResetCmd
00000a92 g     F .text	0000000c custom_conf_read
20003404 g     O .bss	0000008c ns_usb_send_rb
00005a40 g     F .text	00000016 HighPrecisionTimer_Init
00005a22 g     F .text	00000018 Get_Systick_US
00000b72 g     F .text	00000210 unpack_fac_conf
00005966 g     F .text	00000028 TIM2_IRQHandler
20005000 g       .stack	00000000 _eusrstack
20001a08 g     O .bss	00000004 imu_ratio_yf
00001434 g     F .text	0000014c hd_rumble_init
00000170 g     F .text	0000000c .hidden __riscv_save_2
00006332  w      .text	00000000 SW_Handler
20003668 g     O .bss	0000008c uart_rx_rb
000015cc g     F .text	00000024 ApplyAmCommand
00001b20 g     F .text	00000234 decode_hd_rumble_multiformat_high_acc
00004a56 g     F .text	00000050 ns_cmd_subcommand_dispatcher
00001f76 g     F .text	0000005c rumble_pattern_check
200019b0 g     O .bss	00000008 right_high_buf
00005a3a g     F .text	00000006 Get_Systick_MS
2000193c g     O .bss	00000001 USBFS_HidIdle
000063b2 g     F .text	0000002a ADC_DeInit
00004418 g     F .text	0000003a ns_subcommand_get_page_list_state
0000514a g     F .text	00000050 hid_dispatch
00002b5e g     F .text	00000220 imu_upd
00003e8e g     F .text	00000052 recv_pwr_control
00006332  w      .text	00000000 TIM1_BRK_IRQHandler
000063dc g     F .text	00000050 ADC_Init
20001a9c g     O .bss	00000001 UART1_Tx_Flag
00006332  w      .text	00000000 EXTI1_IRQHandler
200017c0 g     O .data	0000001c _imu_quat_state
20002c14 g     O .bss	0000000c imu_res
00005266 g     F .text	00000054 set_pwr_mode_stop
00000156 g     F .text	0000001a .hidden __riscv_save_5
00002496 g     F .text	0000013a i2c_hardware_init
200019e0 g     O .bss	00000008 left_high
000076a4 g     F .text	00000004 _write
000045e0 g     F .text	00000004 ns_subcommand_attachmend_write
200020e8 g     O .bss	00000040 USBFS_EP0_Buf
2000192c g       .data	00000000 _edata
000048bc g     F .text	00000038 ns_subcommand_read_charge_setting
20001948 g     O .bss	00000004 pUSBFS_Descr
20004100 g       .bss	00000000 _end
20001a78 g     O .bss	00000004 Systick_MS
0000b264 g     F .text	0000003c .hidden __unordsf2
20001998 g     O .bss	00000002 right_low_pos
00002e0e g     F .text	00000128 _imu_rotate_quaternion
200019d8 g     O .bss	00000008 left_low
0000726e g     F .text	00000078 TIM_TimeBaseInit
00006332  w      .text	00000000 RTCAlarm_IRQHandler
00006fc2 g     F .text	0000000e PWR_GetFlagStatus
0000c26c g       .dlalign	00000000 _data_lma
000048f4 g     F .text	00000112 ns_subcommand_callback_init
00005a56 g     F .text	00000060 execute_blocking_us
0000464e g     F .text	00000034 ns_subcommand_get_attachment_info
00000b12 g     F .text	00000012 fac_conf_write
00006332  w      .text	00000000 USART2_IRQHandler
00006f4c g     F .text	00000010 PWR_PVDLevelConfig
20003490 g     O .bss	00000025 connection_state
00000a9e g     F .text	0000000c custom_conf_write
00001722 g     F .text	00000124 decode_hd_rumble_format1full
000058d4 g     F .text	00000086 SystemCoreClockUpdate
20001a6c g     O .bss	00000004 rts_cnt
000019f8 g     F .text	00000128 decode_hd_rumble_format3
20003178 g     O .bss	00000100 ns_usb_recv_buf
00002278 g     F .text	0000002a I2C2_ER_IRQHandler
00006a30 g     F .text	00000118 FLASH_ROM_WRITE
00006332  w      .text	00000000 DMA1_Channel2_IRQHandler
200018ac g     O .data	00000004 hliner
0000017c g     F .text	00000024 .hidden __riscv_restore_12
0000681c g     F .text	0000001a DMA_ClearFlag
00001028 g     F .text	00000006 get_raw_flash_buf
00006334  w      .text	00000000 handle_reset
0000509e g     F .text	00000016 fw_subcommand_get_version
000060de g     F .text	00000006 set_imu_available
20001a10 g     O .bss	00000001 imu_mode
00004fde g     F .text	0000001e fw_subcommand_calibrate_imu
00006332  w      .text	00000000 FLASH_IRQHandler
00000170 g     F .text	0000000c .hidden __riscv_save_0
00003f0e g     F .text	0000013a connection_state_handler
20001acc g     O .bss	00000600 Data_Buffer
00006332  w      .text	00000000 USART1_IRQHandler
000034c4 g     F .text	00000244 joystick_snapback_filter
00004b44 g     F .text	000000c0 _calibrate_imu_raw
00004ffc g     F .text	00000066 fw_subcommand_calibrate_js_offset
0000704c g     F .text	00000014 RCC_LSICmd
00006df0 g     F .text	0000001e I2C_AcknowledgeConfig
00004fb0 g     F .text	0000002e fw_subcommand_write_emulate_rom
200019a0 g     O .bss	00000001 right_low_buf_stdby
00005e70 g     F .text	00000034 check_uart_pkt
00006e6e g     F .text	0000001a I2C_CheckEvent
00005dc8 g     F .text	00000064 encode_uart_pkt
00007176 g     F .text	0000001e RCC_APB2PeriphResetCmd
20001a11 g     O .bss	00000001 imu_rdy
00006dd2 g     F .text	0000001e I2C_GenerateSTOP
0000419a g     F .text	00000002 ns_subcommand_set_home_led
00006332  w      .text	00000000 I2C1_ER_IRQHandler
000071e0 g     F .text	0000005a SPI_Init
00006eba g     F .text	00000010 NVIC_PriorityGroupConfig
000066ae g     F .text	000000fa DMA_DeInit
0000128e g     F .text	000000e0 gpio_init
00004aa6 g     F .text	0000009e ns_mux_usb_handshake_handler
00004c04 g     F .text	0000017a calibrate_imu
00003d0c g     F .text	00000104 recv_esp32_connect_control
00000194 g     F .text	0000000c .hidden __riscv_restore_1
2000195c g     O .bss	00000008 sample
0000603e g     F .text	0000003a ns_hid_get_packet_timer
00006926 g     F .text	0000010a FLASH_ROM_ERASE
20001a94 g     O .bss	00000002 UART1_Rx_Deal_Ptr
000099fc g     F .text	00000736 .hidden __subdf3
00007560 g     F .text	00000006 TIM_SetCompare1
000043d2 g     F .text	00000046 ns_subcommand_trigger_buttons_elapsed_time
20001ac8 g     O .bss	00000004 pEP1_RAM_Addr
00006c0a g     F .text	0000000a GPIO_ReadInputDataBit
00005e2c g     F .text	00000044 decode_uart_pkt
00005bf2 g     F .text	000000ce UART1_Init
00000f9a g     F .text	0000004e _flash_write
00007672 g     F .text	00000016 USART_DMACmd
00005cc0 g     F .text	00000048 UART1_DMA_Tx
20002698 g     O .bss	00000100 right_high_rb_buf
00004eb8 g     F .text	000000ac fw_subcommand_write_setting
0000a47c g     F .text	00000368 .hidden __addsf3
00000dea g     F .text	000001b0 conf_init
00004452 g     F .text	00000038 ns_subcommand_set_shipping_mode
00006332  w      .text	00000000 USBWakeUp_IRQHandler
00006f38 g     F .text	00000014 PWR_PVDCmd
00001dca g     F .text	00000068 push_waveform
20000000 g     O .data	000000c0 CommandTable
0000285c g     F .text	0000011a i2c_write_byte
000023ce g     F .text	000000c8 i2c2_reset
00001580 g     F .text	0000000e hd_rumble_set_status



Disassembly of section .init:

00000000 <_sinit>:
   0:	3340606f          	j	6334 <handle_reset>
   4:	00000013          	nop
   8:	00000013          	nop
   c:	00000013          	nop
  10:	00000013          	nop
  14:	00000013          	nop
  18:	00000013          	nop
  1c:	00000013          	nop
  20:	00000013          	nop
  24:	00000013          	nop
  28:	00000013          	nop
  2c:	00000013          	nop
  30:	00000013          	nop
  34:	00100073          	ebreak

Disassembly of section .vector:

00000038 <_vector_base>:
  38:	fc9ff06f          	j	0 <_sinit>
  3c:	0000                	unimp
  3e:	0000                	unimp
  40:	1860006f          	j	1c6 <NMI_Handler>
  44:	1840006f          	j	1c8 <HardFault_Handler>
	...
  68:	2ca0606f          	j	6332 <ADC1_2_IRQHandler>
  6c:	0000                	unimp
  6e:	0000                	unimp
  70:	2c20606f          	j	6332 <ADC1_2_IRQHandler>
  74:	0000                	unimp
  76:	0000                	unimp
  78:	2ba0606f          	j	6332 <ADC1_2_IRQHandler>
  7c:	2b60606f          	j	6332 <ADC1_2_IRQHandler>
  80:	2b20606f          	j	6332 <ADC1_2_IRQHandler>
  84:	2ae0606f          	j	6332 <ADC1_2_IRQHandler>
  88:	2aa0606f          	j	6332 <ADC1_2_IRQHandler>
  8c:	2a60606f          	j	6332 <ADC1_2_IRQHandler>
  90:	2a20606f          	j	6332 <ADC1_2_IRQHandler>
  94:	29e0606f          	j	6332 <ADC1_2_IRQHandler>
  98:	29a0606f          	j	6332 <ADC1_2_IRQHandler>
  9c:	2960606f          	j	6332 <ADC1_2_IRQHandler>
  a0:	2920606f          	j	6332 <ADC1_2_IRQHandler>
  a4:	28e0606f          	j	6332 <ADC1_2_IRQHandler>
  a8:	28a0606f          	j	6332 <ADC1_2_IRQHandler>
  ac:	6e40506f          	j	5790 <DMA1_Channel3_IRQHandler>
  b0:	2820606f          	j	6332 <ADC1_2_IRQHandler>
  b4:	27e0606f          	j	6332 <ADC1_2_IRQHandler>
  b8:	27a0606f          	j	6332 <ADC1_2_IRQHandler>
  bc:	2760606f          	j	6332 <ADC1_2_IRQHandler>
  c0:	2720606f          	j	6332 <ADC1_2_IRQHandler>
	...
  d4:	25e0606f          	j	6332 <ADC1_2_IRQHandler>
  d8:	25a0606f          	j	6332 <ADC1_2_IRQHandler>
  dc:	2560606f          	j	6332 <ADC1_2_IRQHandler>
  e0:	2520606f          	j	6332 <ADC1_2_IRQHandler>
  e4:	24e0606f          	j	6332 <ADC1_2_IRQHandler>
  e8:	07f0506f          	j	5966 <TIM2_IRQHandler>
  ec:	6e70106f          	j	1fd2 <TIM3_IRQHandler>
  f0:	2420606f          	j	6332 <ADC1_2_IRQHandler>
  f4:	23e0606f          	j	6332 <ADC1_2_IRQHandler>
  f8:	23a0606f          	j	6332 <ADC1_2_IRQHandler>
  fc:	2360606f          	j	6332 <ADC1_2_IRQHandler>
 100:	1780206f          	j	2278 <I2C2_ER_IRQHandler>
 104:	22e0606f          	j	6332 <ADC1_2_IRQHandler>
 108:	22a0606f          	j	6332 <ADC1_2_IRQHandler>
 10c:	2260606f          	j	6332 <ADC1_2_IRQHandler>
 110:	2220606f          	j	6332 <ADC1_2_IRQHandler>
 114:	21e0606f          	j	6332 <ADC1_2_IRQHandler>
 118:	21a0606f          	j	6332 <ADC1_2_IRQHandler>
 11c:	2160606f          	j	6332 <ADC1_2_IRQHandler>
 120:	2120606f          	j	6332 <ADC1_2_IRQHandler>
 124:	12c0006f          	j	250 <USBFS_IRQHandler>
	...

Disassembly of section .text:

00000140 <__riscv_save_12>:
     140:	7139                	addi	sp,sp,-64
     142:	4301                	li	t1,0
     144:	c66e                	sw	s11,12(sp)
     146:	a019                	j	14c <__riscv_save_10+0x4>

00000148 <__riscv_save_10>:
     148:	7139                	addi	sp,sp,-64
     14a:	5341                	li	t1,-16
     14c:	c86a                	sw	s10,16(sp)
     14e:	ca66                	sw	s9,20(sp)
     150:	cc62                	sw	s8,24(sp)
     152:	ce5e                	sw	s7,28(sp)
     154:	a019                	j	15a <__riscv_save_4+0x4>

00000156 <__riscv_save_4>:
     156:	7139                	addi	sp,sp,-64
     158:	5301                	li	t1,-32
     15a:	d05a                	sw	s6,32(sp)
     15c:	d256                	sw	s5,36(sp)
     15e:	d452                	sw	s4,40(sp)
     160:	d64e                	sw	s3,44(sp)
     162:	d84a                	sw	s2,48(sp)
     164:	da26                	sw	s1,52(sp)
     166:	dc22                	sw	s0,56(sp)
     168:	de06                	sw	ra,60(sp)
     16a:	40610133          	sub	sp,sp,t1
     16e:	8282                	jr	t0

00000170 <__riscv_save_0>:
     170:	1141                	addi	sp,sp,-16
     172:	c04a                	sw	s2,0(sp)
     174:	c226                	sw	s1,4(sp)
     176:	c422                	sw	s0,8(sp)
     178:	c606                	sw	ra,12(sp)
     17a:	8282                	jr	t0

0000017c <__riscv_restore_12>:
     17c:	4db2                	lw	s11,12(sp)
     17e:	0141                	addi	sp,sp,16

00000180 <__riscv_restore_10>:
     180:	4d02                	lw	s10,0(sp)
     182:	4c92                	lw	s9,4(sp)
     184:	4c22                	lw	s8,8(sp)
     186:	4bb2                	lw	s7,12(sp)
     188:	0141                	addi	sp,sp,16

0000018a <__riscv_restore_4>:
     18a:	4b02                	lw	s6,0(sp)
     18c:	4a92                	lw	s5,4(sp)
     18e:	4a22                	lw	s4,8(sp)
     190:	49b2                	lw	s3,12(sp)
     192:	0141                	addi	sp,sp,16

00000194 <__riscv_restore_0>:
     194:	4902                	lw	s2,0(sp)
     196:	4492                	lw	s1,4(sp)
     198:	4422                	lw	s0,8(sp)
     19a:	40b2                	lw	ra,12(sp)
     19c:	0141                	addi	sp,sp,16
     19e:	8082                	ret

000001a0 <memcpy>:
     1a0:	832a                	mv	t1,a0
     1a2:	ca09                	beqz	a2,1b4 <memcpy+0x14>
     1a4:	00058383          	lb	t2,0(a1)
     1a8:	00730023          	sb	t2,0(t1)
     1ac:	167d                	addi	a2,a2,-1
     1ae:	0305                	addi	t1,t1,1
     1b0:	0585                	addi	a1,a1,1
     1b2:	fa6d                	bnez	a2,1a4 <memcpy+0x4>
     1b4:	8082                	ret

000001b6 <memset>:
     1b6:	832a                	mv	t1,a0
     1b8:	c611                	beqz	a2,1c4 <memset+0xe>
     1ba:	00b30023          	sb	a1,0(t1)
     1be:	167d                	addi	a2,a2,-1
     1c0:	0305                	addi	t1,t1,1
     1c2:	fe65                	bnez	a2,1ba <memset+0x4>
     1c4:	8082                	ret

000001c6 <NMI_Handler>:
     1c6:	a001                	j	1c6 <NMI_Handler>

000001c8 <HardFault_Handler>:
     1c8:	a001                	j	1c8 <HardFault_Handler>

000001ca <USBFS_RCC_Init>:
     1ca:	fa7ff2ef          	jal	t0,170 <__riscv_save_0>
     1ce:	4511                	li	a0,4
     1d0:	4585                	li	a1,1
     1d2:	769060ef          	jal	ra,713a <RCC_APB2PeriphClockCmd>
     1d6:	40024737          	lui	a4,0x40024
     1da:	80072783          	lw	a5,-2048(a4) # 40023800 <_eusrstack+0x2001e800>
     1de:	4501                	li	a0,0
     1e0:	0047e793          	ori	a5,a5,4
     1e4:	80f72023          	sw	a5,-2048(a4)
     1e8:	8141a703          	lw	a4,-2028(gp) # 200018bc <SystemCoreClock>
     1ec:	044aa7b7          	lui	a5,0x44aa
     1f0:	20078793          	addi	a5,a5,512 # 44aa200 <_data_lma+0x449df94>
     1f4:	00f70963          	beq	a4,a5,206 <USBFS_RCC_Init+0x3c>
     1f8:	02dc77b7          	lui	a5,0x2dc7
     1fc:	c0078793          	addi	a5,a5,-1024 # 2dc6c00 <_data_lma+0x2dba994>
     200:	00f71563          	bne	a4,a5,20a <USBFS_RCC_Init+0x40>
     204:	4505                	li	a0,1
     206:	611060ef          	jal	ra,7016 <RCC_USBCLKConfig>
     20a:	4585                	li	a1,1
     20c:	6505                	lui	a0,0x1
     20e:	70f060ef          	jal	ra,711c <RCC_AHBPeriphClockCmd>
     212:	b749                	j	194 <__riscv_restore_0>

00000214 <USBFS_Device_Endp_Init>:
     214:	40023737          	lui	a4,0x40023
     218:	fc000793          	li	a5,-64
     21c:	40f70623          	sb	a5,1036(a4) # 4002340c <_eusrstack+0x2001e40c>
     220:	04018793          	addi	a5,gp,64 # 200020e8 <USBFS_EP0_Buf>
     224:	07c2                	slli	a5,a5,0x10
     226:	83c1                	srli	a5,a5,0x10
     228:	40f71823          	sh	a5,1040(a4)
     22c:	08018793          	addi	a5,gp,128 # 20002128 <ep1_data_buffer>
     230:	a2f1a023          	sw	a5,-1504(gp) # 20001ac8 <pEP1_RAM_Addr>
     234:	07c2                	slli	a5,a5,0x10
     236:	83c1                	srli	a5,a5,0x10
     238:	40f71a23          	sh	a5,1044(a4)
     23c:	4789                	li	a5,2
     23e:	42f70923          	sb	a5,1074(a4)
     242:	42f70b23          	sb	a5,1078(a4)
     246:	88c18793          	addi	a5,gp,-1908 # 20001934 <USBFS_Endp_Busy>
     24a:	000780a3          	sb	zero,1(a5)
     24e:	8082                	ret

00000250 <USBFS_IRQHandler>:
     250:	1101                	addi	sp,sp,-32
     252:	ce22                	sw	s0,28(sp)
     254:	cc26                	sw	s1,24(sp)
     256:	ca4a                	sw	s2,20(sp)
     258:	c84e                	sw	s3,16(sp)
     25a:	c652                	sw	s4,12(sp)
     25c:	c456                	sw	s5,8(sp)
     25e:	40023437          	lui	s0,0x40023
     262:	40644703          	lbu	a4,1030(s0) # 40023406 <_eusrstack+0x2001e406>
     266:	40744783          	lbu	a5,1031(s0)
     26a:	0ff77713          	zext.b	a4,a4
     26e:	00277693          	andi	a3,a4,2
     272:	6c068f63          	beqz	a3,950 <__stack_size+0x150>
     276:	0ff7f793          	zext.b	a5,a5
     27a:	0307f713          	andi	a4,a5,48
     27e:	02000593          	li	a1,32
     282:	0ab70963          	beq	a4,a1,334 <USBFS_IRQHandler+0xe4>
     286:	03000693          	li	a3,48
     28a:	20d70063          	beq	a4,a3,48a <USBFS_IRQHandler+0x23a>
     28e:	eb5d                	bnez	a4,344 <USBFS_IRQHandler+0xf4>
     290:	03f7f713          	andi	a4,a5,63
     294:	18070f63          	beqz	a4,432 <USBFS_IRQHandler+0x1e2>
     298:	4685                	li	a3,1
     29a:	0ad71563          	bne	a4,a3,344 <USBFS_IRQHandler+0xf4>
     29e:	0407f793          	andi	a5,a5,64
     2a2:	c3cd                	beqz	a5,344 <USBFS_IRQHandler+0xf4>
     2a4:	43644783          	lbu	a5,1078(s0)
     2a8:	02418913          	addi	s2,gp,36 # 200020cc <RingBuffer_Comm>
     2ac:	0807c793          	xori	a5,a5,128
     2b0:	42f40b23          	sb	a5,1078(s0)
     2b4:	40845703          	lhu	a4,1032(s0)
     2b8:	00094783          	lbu	a5,0(s2)
     2bc:	0ff77713          	zext.b	a4,a4
     2c0:	97ca                	add	a5,a5,s2
     2c2:	00e781a3          	sb	a4,3(a5)
     2c6:	00094783          	lbu	a5,0(s2)
     2ca:	40845603          	lhu	a2,1032(s0)
     2ce:	a201a583          	lw	a1,-1504(gp) # 20001ac8 <pEP1_RAM_Addr>
     2d2:	079a                	slli	a5,a5,0x6
     2d4:	a2418513          	addi	a0,gp,-1500 # 20001acc <Data_Buffer>
     2d8:	953e                	add	a0,a0,a5
     2da:	3ff67613          	andi	a2,a2,1023
     2de:	35c9                	jal	1a0 <memcpy>
     2e0:	00094783          	lbu	a5,0(s2)
     2e4:	46e1                	li	a3,24
     2e6:	0785                	addi	a5,a5,1
     2e8:	0ff7f793          	zext.b	a5,a5
     2ec:	00f90023          	sb	a5,0(s2)
     2f0:	00094703          	lbu	a4,0(s2)
     2f4:	02418793          	addi	a5,gp,36 # 200020cc <RingBuffer_Comm>
     2f8:	00e69463          	bne	a3,a4,300 <USBFS_IRQHandler+0xb0>
     2fc:	00078023          	sb	zero,0(a5)
     300:	0027c703          	lbu	a4,2(a5)
     304:	46cd                	li	a3,19
     306:	0705                	addi	a4,a4,1
     308:	0ff77713          	zext.b	a4,a4
     30c:	00e78123          	sb	a4,2(a5)
     310:	0027c703          	lbu	a4,2(a5)
     314:	02e6f863          	bgeu	a3,a4,344 <USBFS_IRQHandler+0xf4>
     318:	400236b7          	lui	a3,0x40023
     31c:	4366c703          	lbu	a4,1078(a3) # 40023436 <_eusrstack+0x2001e436>
     320:	0f377713          	andi	a4,a4,243
     324:	00876713          	ori	a4,a4,8
     328:	42e68b23          	sb	a4,1078(a3)
     32c:	4705                	li	a4,1
     32e:	00e78da3          	sb	a4,27(a5)
     332:	a809                	j	344 <USBFS_IRQHandler+0xf4>
     334:	03f7f793          	andi	a5,a5,63
     338:	02e78463          	beq	a5,a4,360 <USBFS_IRQHandler+0x110>
     33c:	02100713          	li	a4,33
     340:	0ce78663          	beq	a5,a4,40c <USBFS_IRQHandler+0x1bc>
     344:	400237b7          	lui	a5,0x40023
     348:	4709                	li	a4,2
     34a:	40e78323          	sb	a4,1030(a5) # 40023406 <_eusrstack+0x2001e406>
     34e:	4472                	lw	s0,28(sp)
     350:	44e2                	lw	s1,24(sp)
     352:	4952                	lw	s2,20(sp)
     354:	49c2                	lw	s3,16(sp)
     356:	4a32                	lw	s4,12(sp)
     358:	4aa2                	lw	s5,8(sp)
     35a:	6105                	addi	sp,sp,32
     35c:	30200073          	mret
     360:	89a18793          	addi	a5,gp,-1894 # 20001942 <USBFS_SetupReqLen>
     364:	0007d783          	lhu	a5,0(a5)
     368:	89a18493          	addi	s1,gp,-1894 # 20001942 <USBFS_SetupReqLen>
     36c:	07c2                	slli	a5,a5,0x10
     36e:	83c1                	srli	a5,a5,0x10
     370:	e799                	bnez	a5,37e <USBFS_IRQHandler+0x12e>
     372:	43244783          	lbu	a5,1074(s0)
     376:	0f37f793          	andi	a5,a5,243
     37a:	42f40923          	sb	a5,1074(s0)
     37e:	89c1c783          	lbu	a5,-1892(gp) # 20001944 <USBFS_SetupReqType>
     382:	0607f793          	andi	a5,a5,96
     386:	ffdd                	bnez	a5,344 <USBFS_IRQHandler+0xf4>
     388:	8961c783          	lbu	a5,-1898(gp) # 2000193e <USBFS_SetupReqCode>
     38c:	4715                	li	a4,5
     38e:	0ff7f793          	zext.b	a5,a5
     392:	06e78163          	beq	a5,a4,3f4 <USBFS_IRQHandler+0x1a4>
     396:	4719                	li	a4,6
     398:	fae796e3          	bne	a5,a4,344 <USBFS_IRQHandler+0xf4>
     39c:	0004d783          	lhu	a5,0(s1)
     3a0:	03f00713          	li	a4,63
     3a4:	04000413          	li	s0,64
     3a8:	00f76663          	bltu	a4,a5,3b4 <USBFS_IRQHandler+0x164>
     3ac:	0004d403          	lhu	s0,0(s1)
     3b0:	0442                	slli	s0,s0,0x10
     3b2:	8041                	srli	s0,s0,0x10
     3b4:	8a018913          	addi	s2,gp,-1888 # 20001948 <pUSBFS_Descr>
     3b8:	00092983          	lw	s3,0(s2)
     3bc:	8622                	mv	a2,s0
     3be:	85ce                	mv	a1,s3
     3c0:	04018513          	addi	a0,gp,64 # 200020e8 <USBFS_EP0_Buf>
     3c4:	3bf1                	jal	1a0 <memcpy>
     3c6:	0004d783          	lhu	a5,0(s1)
     3ca:	99a2                	add	s3,s3,s0
     3cc:	01392023          	sw	s3,0(s2)
     3d0:	8f81                	sub	a5,a5,s0
     3d2:	07c2                	slli	a5,a5,0x10
     3d4:	83c1                	srli	a5,a5,0x10
     3d6:	00f49023          	sh	a5,0(s1)
     3da:	0ff47413          	zext.b	s0,s0
     3de:	400237b7          	lui	a5,0x40023
     3e2:	42878823          	sb	s0,1072(a5) # 40023430 <_eusrstack+0x2001e430>
     3e6:	4327c703          	lbu	a4,1074(a5)
     3ea:	04074713          	xori	a4,a4,64
     3ee:	42e78923          	sb	a4,1074(a5)
     3f2:	bf89                	j	344 <USBFS_IRQHandler+0xf4>
     3f4:	40023737          	lui	a4,0x40023
     3f8:	40374783          	lbu	a5,1027(a4) # 40023403 <_eusrstack+0x2001e403>
     3fc:	8881c683          	lbu	a3,-1912(gp) # 20001930 <USBFS_DevAddr>
     400:	0807f793          	andi	a5,a5,128
     404:	8fd5                	or	a5,a5,a3
     406:	40f701a3          	sb	a5,1027(a4)
     40a:	bf2d                	j	344 <USBFS_IRQHandler+0xf4>
     40c:	43644783          	lbu	a5,1078(s0)
     410:	0fc7f793          	andi	a5,a5,252
     414:	0027e793          	ori	a5,a5,2
     418:	42f40b23          	sb	a5,1078(s0)
     41c:	43644783          	lbu	a5,1078(s0)
     420:	0407c793          	xori	a5,a5,64
     424:	42f40b23          	sb	a5,1078(s0)
     428:	88c18793          	addi	a5,gp,-1908 # 20001934 <USBFS_Endp_Busy>
     42c:	000780a3          	sb	zero,1(a5)
     430:	bf11                	j	344 <USBFS_IRQHandler+0xf4>
     432:	0407f793          	andi	a5,a5,64
     436:	f00787e3          	beqz	a5,344 <USBFS_IRQHandler+0xf4>
     43a:	89c18793          	addi	a5,gp,-1892 # 20001944 <USBFS_SetupReqType>
     43e:	0007c703          	lbu	a4,0(a5)
     442:	06077713          	andi	a4,a4,96
     446:	ee070fe3          	beqz	a4,344 <USBFS_IRQHandler+0xf4>
     44a:	0007c783          	lbu	a5,0(a5)
     44e:	0607f793          	andi	a5,a5,96
     452:	eeb799e3          	bne	a5,a1,344 <USBFS_IRQHandler+0xf4>
     456:	8961c783          	lbu	a5,-1898(gp) # 2000193e <USBFS_SetupReqCode>
     45a:	4725                	li	a4,9
     45c:	eef714e3          	bne	a4,a5,344 <USBFS_IRQHandler+0xf4>
     460:	20004537          	lui	a0,0x20004
     464:	04000613          	li	a2,64
     468:	04018593          	addi	a1,gp,64 # 200020e8 <USBFS_EP0_Buf>
     46c:	0c050513          	addi	a0,a0,192 # 200040c0 <HID_Report_Buffer>
     470:	3b05                	jal	1a0 <memcpy>
     472:	4705                	li	a4,1
     474:	a0e18c23          	sb	a4,-1512(gp) # 20001ac0 <HID_Set_Report_Flag>
     478:	43244783          	lbu	a5,1074(s0)
     47c:	0fc7f793          	andi	a5,a5,252
     480:	0027e793          	ori	a5,a5,2
     484:	42f40923          	sb	a5,1074(s0)
     488:	bd75                	j	344 <USBFS_IRQHandler+0xf4>
     48a:	fca00793          	li	a5,-54
     48e:	42f40923          	sb	a5,1074(s0)
     492:	04018793          	addi	a5,gp,64 # 200020e8 <USBFS_EP0_Buf>
     496:	0007c703          	lbu	a4,0(a5)
     49a:	89c18693          	addi	a3,gp,-1892 # 20001944 <USBFS_SetupReqType>
     49e:	00e68023          	sb	a4,0(a3)
     4a2:	0017c703          	lbu	a4,1(a5)
     4a6:	0067d803          	lhu	a6,6(a5)
     4aa:	89618613          	addi	a2,gp,-1898 # 2000193e <USBFS_SetupReqCode>
     4ae:	00e60023          	sb	a4,0(a2)
     4b2:	0027d883          	lhu	a7,2(a5)
     4b6:	89a18713          	addi	a4,gp,-1894 # 20001942 <USBFS_SetupReqLen>
     4ba:	01071023          	sh	a6,0(a4)
     4be:	89e18813          	addi	a6,gp,-1890 # 20001946 <USBFS_SetupReqValue>
     4c2:	01181023          	sh	a7,0(a6)
     4c6:	0047d883          	lhu	a7,4(a5)
     4ca:	89818813          	addi	a6,gp,-1896 # 20001940 <USBFS_SetupReqIndex>
     4ce:	01181023          	sh	a7,0(a6)
     4d2:	0006c803          	lbu	a6,0(a3)
     4d6:	89a18413          	addi	s0,gp,-1894 # 20001942 <USBFS_SetupReqLen>
     4da:	89c18993          	addi	s3,gp,-1892 # 20001944 <USBFS_SetupReqType>
     4de:	06087813          	andi	a6,a6,96
     4e2:	04018693          	addi	a3,gp,64 # 200020e8 <USBFS_EP0_Buf>
     4e6:	89e18713          	addi	a4,gp,-1890 # 20001946 <USBFS_SetupReqValue>
     4ea:	89818793          	addi	a5,gp,-1896 # 20001940 <USBFS_SetupReqIndex>
     4ee:	0e080463          	beqz	a6,5d6 <USBFS_IRQHandler+0x386>
     4f2:	0009c703          	lbu	a4,0(s3)
     4f6:	06077713          	andi	a4,a4,96
     4fa:	04b71063          	bne	a4,a1,53a <USBFS_IRQHandler+0x2ea>
     4fe:	00064703          	lbu	a4,0(a2)
     502:	4629                	li	a2,10
     504:	177d                	addi	a4,a4,-1
     506:	0ff77713          	zext.b	a4,a4
     50a:	2ae66f63          	bltu	a2,a4,7c8 <USBFS_IRQHandler+0x578>
     50e:	662d                	lui	a2,0xb
     510:	070a                	slli	a4,a4,0x2
     512:	70c60613          	addi	a2,a2,1804 # b70c <__errno+0x20>
     516:	9732                	add	a4,a4,a2
     518:	4318                	lw	a4,0(a4)
     51a:	8702                	jr	a4
     51c:	0007d783          	lhu	a5,0(a5)
     520:	07c2                	slli	a5,a5,0x10
     522:	83c1                	srli	a5,a5,0x10
     524:	2a079263          	bnez	a5,7c8 <USBFS_IRQHandler+0x578>
     528:	200045b7          	lui	a1,0x20004
     52c:	04000613          	li	a2,64
     530:	0c058593          	addi	a1,a1,192 # 200040c0 <HID_Report_Buffer>
     534:	04018513          	addi	a0,gp,64 # 200020e8 <USBFS_EP0_Buf>
     538:	31a5                	jal	1a0 <memcpy>
     53a:	0009c783          	lbu	a5,0(s3)
     53e:	07e2                	slli	a5,a5,0x18
     540:	87e1                	srai	a5,a5,0x18
     542:	3e07d263          	bgez	a5,926 <__stack_size+0x126>
     546:	00045703          	lhu	a4,0(s0)
     54a:	04000793          	li	a5,64
     54e:	00e7e663          	bltu	a5,a4,55a <USBFS_IRQHandler+0x30a>
     552:	00045783          	lhu	a5,0(s0)
     556:	07c2                	slli	a5,a5,0x10
     558:	83c1                	srli	a5,a5,0x10
     55a:	00045703          	lhu	a4,0(s0)
     55e:	8f1d                	sub	a4,a4,a5
     560:	0742                	slli	a4,a4,0x10
     562:	8341                	srli	a4,a4,0x10
     564:	00e41023          	sh	a4,0(s0)
     568:	0ff7f793          	zext.b	a5,a5
     56c:	40023737          	lui	a4,0x40023
     570:	42f70823          	sb	a5,1072(a4) # 40023430 <_eusrstack+0x2001e430>
     574:	43274783          	lbu	a5,1074(a4)
     578:	0fc7f793          	andi	a5,a5,252
     57c:	42f70923          	sb	a5,1074(a4)
     580:	b3d1                	j	344 <USBFS_IRQHandler+0xf4>
     582:	0007d783          	lhu	a5,0(a5)
     586:	07c2                	slli	a5,a5,0x10
     588:	83c1                	srli	a5,a5,0x10
     58a:	22079f63          	bnez	a5,7c8 <USBFS_IRQHandler+0x578>
     58e:	0036c703          	lbu	a4,3(a3)
     592:	88e18a23          	sb	a4,-1900(gp) # 2000193c <USBFS_HidIdle>
     596:	b755                	j	53a <USBFS_IRQHandler+0x2ea>
     598:	0007d783          	lhu	a5,0(a5)
     59c:	07c2                	slli	a5,a5,0x10
     59e:	83c1                	srli	a5,a5,0x10
     5a0:	22079463          	bnez	a5,7c8 <USBFS_IRQHandler+0x578>
     5a4:	0026c703          	lbu	a4,2(a3)
     5a8:	88e18aa3          	sb	a4,-1899(gp) # 2000193d <USBFS_HidProtocol>
     5ac:	b779                	j	53a <USBFS_IRQHandler+0x2ea>
     5ae:	0007d783          	lhu	a5,0(a5)
     5b2:	07c2                	slli	a5,a5,0x10
     5b4:	83c1                	srli	a5,a5,0x10
     5b6:	20079963          	bnez	a5,7c8 <USBFS_IRQHandler+0x578>
     5ba:	8941c783          	lbu	a5,-1900(gp) # 2000193c <USBFS_HidIdle>
     5be:	00f68023          	sb	a5,0(a3)
     5c2:	bfa5                	j	53a <USBFS_IRQHandler+0x2ea>
     5c4:	0007d783          	lhu	a5,0(a5)
     5c8:	07c2                	slli	a5,a5,0x10
     5ca:	83c1                	srli	a5,a5,0x10
     5cc:	1e079e63          	bnez	a5,7c8 <USBFS_IRQHandler+0x578>
     5d0:	8951c783          	lbu	a5,-1899(gp) # 2000193d <USBFS_HidProtocol>
     5d4:	b7ed                	j	5be <USBFS_IRQHandler+0x36e>
     5d6:	00064603          	lbu	a2,0(a2)
     5da:	45ad                	li	a1,11
     5dc:	0ff67613          	zext.b	a2,a2
     5e0:	1ec5e463          	bltu	a1,a2,7c8 <USBFS_IRQHandler+0x578>
     5e4:	65ad                	lui	a1,0xb
     5e6:	060a                	slli	a2,a2,0x2
     5e8:	73858593          	addi	a1,a1,1848 # b738 <__errno+0x4c>
     5ec:	962e                	add	a2,a2,a1
     5ee:	4210                	lw	a2,0(a2)
     5f0:	8602                	jr	a2
     5f2:	00075683          	lhu	a3,0(a4)
     5f6:	460d                	li	a2,3
     5f8:	82a1                	srli	a3,a3,0x8
     5fa:	8a018913          	addi	s2,gp,-1888 # 20001948 <pUSBFS_Descr>
     5fe:	0cc68963          	beq	a3,a2,6d0 <USBFS_IRQHandler+0x480>
     602:	00d66c63          	bltu	a2,a3,61a <USBFS_IRQHandler+0x3ca>
     606:	4785                	li	a5,1
     608:	02f68e63          	beq	a3,a5,644 <USBFS_IRQHandler+0x3f4>
     60c:	4789                	li	a5,2
     60e:	08f68563          	beq	a3,a5,698 <USBFS_IRQHandler+0x448>
     612:	4781                	li	a5,0
     614:	0ff00493          	li	s1,255
     618:	a835                	j	654 <USBFS_IRQHandler+0x404>
     61a:	02100713          	li	a4,33
     61e:	08e68c63          	beq	a3,a4,6b6 <USBFS_IRQHandler+0x466>
     622:	02200713          	li	a4,34
     626:	fee696e3          	bne	a3,a4,612 <USBFS_IRQHandler+0x3c2>
     62a:	0007d783          	lhu	a5,0(a5)
     62e:	07c2                	slli	a5,a5,0x10
     630:	83c1                	srli	a5,a5,0x10
     632:	f3e5                	bnez	a5,612 <USBFS_IRQHandler+0x3c2>
     634:	67b1                	lui	a5,0xc
     636:	f1878793          	addi	a5,a5,-232 # bf18 <MyHIDReportDesc>
     63a:	00f92023          	sw	a5,0(s2)
     63e:	0df00793          	li	a5,223
     642:	a801                	j	652 <USBFS_IRQHandler+0x402>
     644:	67b1                	lui	a5,0xc
     646:	f0478713          	addi	a4,a5,-252 # bf04 <MyDevDescr>
     64a:	f047c783          	lbu	a5,-252(a5)
     64e:	00e92023          	sw	a4,0(s2)
     652:	4481                	li	s1,0
     654:	00045703          	lhu	a4,0(s0)
     658:	00e7f463          	bgeu	a5,a4,660 <USBFS_IRQHandler+0x410>
     65c:	00f41023          	sh	a5,0(s0)
     660:	00045783          	lhu	a5,0(s0)
     664:	03f00713          	li	a4,63
     668:	04000a13          	li	s4,64
     66c:	00f76763          	bltu	a4,a5,67a <USBFS_IRQHandler+0x42a>
     670:	00045a03          	lhu	s4,0(s0)
     674:	0a42                	slli	s4,s4,0x10
     676:	010a5a13          	srli	s4,s4,0x10
     67a:	00092a83          	lw	s5,0(s2)
     67e:	8652                	mv	a2,s4
     680:	04018513          	addi	a0,gp,64 # 200020e8 <USBFS_EP0_Buf>
     684:	85d6                	mv	a1,s5
     686:	9a56                	add	s4,s4,s5
     688:	3e21                	jal	1a0 <memcpy>
     68a:	01492023          	sw	s4,0(s2)
     68e:	0ff00793          	li	a5,255
     692:	eaf494e3          	bne	s1,a5,53a <USBFS_IRQHandler+0x2ea>
     696:	aa0d                	j	7c8 <USBFS_IRQHandler+0x578>
     698:	20002737          	lui	a4,0x20002
     69c:	80870713          	addi	a4,a4,-2040 # 20001808 <MyCfgDescr>
     6a0:	00374783          	lbu	a5,3(a4)
     6a4:	00e92023          	sw	a4,0(s2)
     6a8:	00274703          	lbu	a4,2(a4)
     6ac:	07a2                	slli	a5,a5,0x8
     6ae:	97ba                	add	a5,a5,a4
     6b0:	07c2                	slli	a5,a5,0x10
     6b2:	83c1                	srli	a5,a5,0x10
     6b4:	bf79                	j	652 <USBFS_IRQHandler+0x402>
     6b6:	0007d783          	lhu	a5,0(a5)
     6ba:	07c2                	slli	a5,a5,0x10
     6bc:	83c1                	srli	a5,a5,0x10
     6be:	fbb1                	bnez	a5,612 <USBFS_IRQHandler+0x3c2>
     6c0:	200027b7          	lui	a5,0x20002
     6c4:	81a78793          	addi	a5,a5,-2022 # 2000181a <MyCfgDescr+0x12>
     6c8:	00f92023          	sw	a5,0(s2)
     6cc:	47a5                	li	a5,9
     6ce:	b751                	j	652 <USBFS_IRQHandler+0x402>
     6d0:	00075783          	lhu	a5,0(a4)
     6d4:	4705                	li	a4,1
     6d6:	0ff7f793          	zext.b	a5,a5
     6da:	02e78763          	beq	a5,a4,708 <USBFS_IRQHandler+0x4b8>
     6de:	cf91                	beqz	a5,6fa <USBFS_IRQHandler+0x4aa>
     6e0:	4709                	li	a4,2
     6e2:	02e78b63          	beq	a5,a4,718 <USBFS_IRQHandler+0x4c8>
     6e6:	f2d796e3          	bne	a5,a3,612 <USBFS_IRQHandler+0x3c2>
     6ea:	67b1                	lui	a5,0xc
     6ec:	03078713          	addi	a4,a5,48 # c030 <MySerNumInfo>
     6f0:	00e92023          	sw	a4,0(s2)
     6f4:	0307c783          	lbu	a5,48(a5)
     6f8:	bfa9                	j	652 <USBFS_IRQHandler+0x402>
     6fa:	82818713          	addi	a4,gp,-2008 # 200018d0 <MyLangDescr>
     6fe:	00e92023          	sw	a4,0(s2)
     702:	8281c783          	lbu	a5,-2008(gp) # 200018d0 <MyLangDescr>
     706:	b7b1                	j	652 <USBFS_IRQHandler+0x402>
     708:	67b1                	lui	a5,0xc
     70a:	ff878713          	addi	a4,a5,-8 # bff8 <MyManuInfo>
     70e:	00e92023          	sw	a4,0(s2)
     712:	ff87c783          	lbu	a5,-8(a5)
     716:	bf35                	j	652 <USBFS_IRQHandler+0x402>
     718:	67b1                	lui	a5,0xc
     71a:	00478713          	addi	a4,a5,4 # c004 <MyProdInfo>
     71e:	00e92023          	sw	a4,0(s2)
     722:	0047c783          	lbu	a5,4(a5)
     726:	b735                	j	652 <USBFS_IRQHandler+0x402>
     728:	00075703          	lhu	a4,0(a4)
     72c:	88818793          	addi	a5,gp,-1912 # 20001930 <USBFS_DevAddr>
     730:	0ff77713          	zext.b	a4,a4
     734:	00e78023          	sb	a4,0(a5)
     738:	0007c583          	lbu	a1,0(a5)
     73c:	652d                	lui	a0,0xb
     73e:	76850513          	addi	a0,a0,1896 # b768 <__errno+0x7c>
     742:	05d070ef          	jal	ra,7f9e <printf>
     746:	bbd5                	j	53a <USBFS_IRQHandler+0x2ea>
     748:	8891c783          	lbu	a5,-1911(gp) # 20001931 <USBFS_DevConfig>
     74c:	00f68023          	sb	a5,0(a3)
     750:	00045703          	lhu	a4,0(s0)
     754:	4785                	li	a5,1
     756:	dee7f2e3          	bgeu	a5,a4,53a <USBFS_IRQHandler+0x2ea>
     75a:	00f41023          	sh	a5,0(s0)
     75e:	bbf1                	j	53a <USBFS_IRQHandler+0x2ea>
     760:	00075783          	lhu	a5,0(a4)
     764:	0ff7f793          	zext.b	a5,a5
     768:	88f184a3          	sb	a5,-1911(gp) # 20001931 <USBFS_DevConfig>
     76c:	4705                	li	a4,1
     76e:	88e18523          	sb	a4,-1910(gp) # 20001932 <USBFS_DevEnumStatus>
     772:	b3e1                	j	53a <USBFS_IRQHandler+0x2ea>
     774:	0009c683          	lbu	a3,0(s3)
     778:	8afd                	andi	a3,a3,31
     77a:	e28d                	bnez	a3,79c <USBFS_IRQHandler+0x54c>
     77c:	00075783          	lhu	a5,0(a4)
     780:	4705                	li	a4,1
     782:	0ff7f793          	zext.b	a5,a5
     786:	dae79ae3          	bne	a5,a4,53a <USBFS_IRQHandler+0x2ea>
     78a:	88b18793          	addi	a5,gp,-1909 # 20001933 <USBFS_DevSleepStatus>
     78e:	0007c703          	lbu	a4,0(a5)
     792:	0fe77713          	andi	a4,a4,254
     796:	00e78023          	sb	a4,0(a5)
     79a:	b345                	j	53a <USBFS_IRQHandler+0x2ea>
     79c:	0009c683          	lbu	a3,0(s3)
     7a0:	4609                	li	a2,2
     7a2:	8afd                	andi	a3,a3,31
     7a4:	02c69263          	bne	a3,a2,7c8 <USBFS_IRQHandler+0x578>
     7a8:	00075703          	lhu	a4,0(a4)
     7ac:	0ff77713          	zext.b	a4,a4
     7b0:	ef01                	bnez	a4,7c8 <USBFS_IRQHandler+0x578>
     7b2:	0007d783          	lhu	a5,0(a5)
     7b6:	4705                	li	a4,1
     7b8:	0ff7f793          	zext.b	a5,a5
     7bc:	00e78b63          	beq	a5,a4,7d2 <USBFS_IRQHandler+0x582>
     7c0:	08200713          	li	a4,130
     7c4:	02e78863          	beq	a5,a4,7f4 <USBFS_IRQHandler+0x5a4>
     7c8:	400237b7          	lui	a5,0x40023
     7cc:	fcf00713          	li	a4,-49
     7d0:	b939                	j	3ee <USBFS_IRQHandler+0x19e>
     7d2:	40023737          	lui	a4,0x40023
     7d6:	43674783          	lbu	a5,1078(a4) # 40023436 <_eusrstack+0x2001e436>
     7da:	0737f793          	andi	a5,a5,115
     7de:	42f70b23          	sb	a5,1078(a4)
     7e2:	43674783          	lbu	a5,1078(a4)
     7e6:	0bc7f793          	andi	a5,a5,188
     7ea:	0027e793          	ori	a5,a5,2
     7ee:	42f70b23          	sb	a5,1078(a4)
     7f2:	b3a1                	j	53a <USBFS_IRQHandler+0x2ea>
     7f4:	40023737          	lui	a4,0x40023
     7f8:	43a74783          	lbu	a5,1082(a4) # 4002343a <_eusrstack+0x2001e43a>
     7fc:	0bc7f793          	andi	a5,a5,188
     800:	0027e793          	ori	a5,a5,2
     804:	42f70d23          	sb	a5,1082(a4)
     808:	bb0d                	j	53a <USBFS_IRQHandler+0x2ea>
     80a:	0009c683          	lbu	a3,0(s3)
     80e:	8afd                	andi	a3,a3,31
     810:	e695                	bnez	a3,83c <__stack_size+0x3c>
     812:	00075783          	lhu	a5,0(a4)
     816:	4705                	li	a4,1
     818:	0ff7f793          	zext.b	a5,a5
     81c:	fae796e3          	bne	a5,a4,7c8 <USBFS_IRQHandler+0x578>
     820:	200027b7          	lui	a5,0x20002
     824:	80f7c783          	lbu	a5,-2033(a5) # 2000180f <MyCfgDescr+0x7>
     828:	0207f793          	andi	a5,a5,32
     82c:	dfd1                	beqz	a5,7c8 <USBFS_IRQHandler+0x578>
     82e:	88b18793          	addi	a5,gp,-1909 # 20001933 <USBFS_DevSleepStatus>
     832:	0007c703          	lbu	a4,0(a5)
     836:	00176713          	ori	a4,a4,1
     83a:	bfb1                	j	796 <USBFS_IRQHandler+0x546>
     83c:	0009c683          	lbu	a3,0(s3)
     840:	4609                	li	a2,2
     842:	8afd                	andi	a3,a3,31
     844:	f8c692e3          	bne	a3,a2,7c8 <USBFS_IRQHandler+0x578>
     848:	00075703          	lhu	a4,0(a4)
     84c:	0ff77713          	zext.b	a4,a4
     850:	ff25                	bnez	a4,7c8 <USBFS_IRQHandler+0x578>
     852:	0007d783          	lhu	a5,0(a5)
     856:	08100713          	li	a4,129
     85a:	0ff7f793          	zext.b	a5,a5
     85e:	00e78f63          	beq	a5,a4,87c <__stack_size+0x7c>
     862:	08200713          	li	a4,130
     866:	f6e791e3          	bne	a5,a4,7c8 <USBFS_IRQHandler+0x578>
     86a:	40023737          	lui	a4,0x40023
     86e:	43a74783          	lbu	a5,1082(a4) # 4002343a <_eusrstack+0x2001e43a>
     872:	0bc7f793          	andi	a5,a5,188
     876:	0037e793          	ori	a5,a5,3
     87a:	b769                	j	804 <__stack_size+0x4>
     87c:	40023737          	lui	a4,0x40023
     880:	43674783          	lbu	a5,1078(a4) # 40023436 <_eusrstack+0x2001e436>
     884:	0737f793          	andi	a5,a5,115
     888:	00c7e793          	ori	a5,a5,12
     88c:	42f70b23          	sb	a5,1078(a4)
     890:	43674783          	lbu	a5,1078(a4)
     894:	0bc7f793          	andi	a5,a5,188
     898:	0037e793          	ori	a5,a5,3
     89c:	bf89                	j	7ee <USBFS_IRQHandler+0x59e>
     89e:	00068023          	sb	zero,0(a3)
     8a2:	b57d                	j	750 <USBFS_IRQHandler+0x500>
     8a4:	0009c703          	lbu	a4,0(s3)
     8a8:	00069023          	sh	zero,0(a3)
     8ac:	8b7d                	andi	a4,a4,31
     8ae:	e30d                	bnez	a4,8d0 <__stack_size+0xd0>
     8b0:	88b1c783          	lbu	a5,-1909(gp) # 20001933 <USBFS_DevSleepStatus>
     8b4:	4481                	li	s1,0
     8b6:	8b85                	andi	a5,a5,1
     8b8:	c781                	beqz	a5,8c0 <__stack_size+0xc0>
     8ba:	4789                	li	a5,2
     8bc:	00f68023          	sb	a5,0(a3)
     8c0:	00045703          	lhu	a4,0(s0)
     8c4:	4789                	li	a5,2
     8c6:	dce7f4e3          	bgeu	a5,a4,68e <USBFS_IRQHandler+0x43e>
     8ca:	00f41023          	sh	a5,0(s0)
     8ce:	b3c1                	j	68e <USBFS_IRQHandler+0x43e>
     8d0:	0009c703          	lbu	a4,0(s3)
     8d4:	4609                	li	a2,2
     8d6:	0ff00493          	li	s1,255
     8da:	8b7d                	andi	a4,a4,31
     8dc:	fec712e3          	bne	a4,a2,8c0 <__stack_size+0xc0>
     8e0:	0007d783          	lhu	a5,0(a5)
     8e4:	08100713          	li	a4,129
     8e8:	0ff7f793          	zext.b	a5,a5
     8ec:	00e78f63          	beq	a5,a4,90a <__stack_size+0x10a>
     8f0:	08200713          	li	a4,130
     8f4:	fce796e3          	bne	a5,a4,8c0 <__stack_size+0xc0>
     8f8:	400237b7          	lui	a5,0x40023
     8fc:	43a7c783          	lbu	a5,1082(a5) # 4002343a <_eusrstack+0x2001e43a>
     900:	470d                	li	a4,3
     902:	8b8d                	andi	a5,a5,3
     904:	00e79f63          	bne	a5,a4,922 <__stack_size+0x122>
     908:	a811                	j	91c <__stack_size+0x11c>
     90a:	400237b7          	lui	a5,0x40023
     90e:	4367c783          	lbu	a5,1078(a5) # 40023436 <_eusrstack+0x2001e436>
     912:	4731                	li	a4,12
     914:	4481                	li	s1,0
     916:	8bb1                	andi	a5,a5,12
     918:	fae794e3          	bne	a5,a4,8c0 <__stack_size+0xc0>
     91c:	4785                	li	a5,1
     91e:	00f68023          	sb	a5,0(a3)
     922:	4481                	li	s1,0
     924:	bf71                	j	8c0 <__stack_size+0xc0>
     926:	00045783          	lhu	a5,0(s0)
     92a:	07c2                	slli	a5,a5,0x10
     92c:	83c1                	srli	a5,a5,0x10
     92e:	eb91                	bnez	a5,942 <__stack_size+0x142>
     930:	400237b7          	lui	a5,0x40023
     934:	42078823          	sb	zero,1072(a5) # 40023430 <_eusrstack+0x2001e430>
     938:	4327c703          	lbu	a4,1074(a5)
     93c:	0fc77713          	andi	a4,a4,252
     940:	b47d                	j	3ee <USBFS_IRQHandler+0x19e>
     942:	40023737          	lui	a4,0x40023
     946:	43274783          	lbu	a5,1074(a4) # 40023432 <_eusrstack+0x2001e432>
     94a:	0f37f793          	andi	a5,a5,243
     94e:	b13d                	j	57c <USBFS_IRQHandler+0x32c>
     950:	00177793          	andi	a5,a4,1
     954:	c39d                	beqz	a5,97a <__stack_size+0x17a>
     956:	880184a3          	sb	zero,-1911(gp) # 20001931 <USBFS_DevConfig>
     95a:	88018423          	sb	zero,-1912(gp) # 20001930 <USBFS_DevAddr>
     95e:	880185a3          	sb	zero,-1909(gp) # 20001933 <USBFS_DevSleepStatus>
     962:	88018523          	sb	zero,-1910(gp) # 20001932 <USBFS_DevEnumStatus>
     966:	400401a3          	sb	zero,1027(s0)
     96a:	306d                	jal	214 <USBFS_Device_Endp_Init>
     96c:	40644783          	lbu	a5,1030(s0)
     970:	0017e793          	ori	a5,a5,1
     974:	40f40323          	sb	a5,1030(s0)
     978:	bad9                	j	34e <USBFS_IRQHandler+0xfe>
     97a:	00477793          	andi	a5,a4,4
     97e:	cf9d                	beqz	a5,9bc <__stack_size+0x1bc>
     980:	4791                	li	a5,4
     982:	652d                	lui	a0,0xb
     984:	40f40323          	sb	a5,1030(s0)
     988:	77850513          	addi	a0,a0,1912 # b778 <__errno+0x8c>
     98c:	636070ef          	jal	ra,7fc2 <puts>
     990:	40544703          	lbu	a4,1029(s0)
     994:	88b18793          	addi	a5,gp,-1909 # 20001933 <USBFS_DevSleepStatus>
     998:	8b11                	andi	a4,a4,4
     99a:	cb11                	beqz	a4,9ae <__stack_size+0x1ae>
     99c:	0007c703          	lbu	a4,0(a5)
     9a0:	00276713          	ori	a4,a4,2
     9a4:	00e78023          	sb	a4,0(a5)
     9a8:	0007c783          	lbu	a5,0(a5)
     9ac:	b24d                	j	34e <USBFS_IRQHandler+0xfe>
     9ae:	0007c703          	lbu	a4,0(a5)
     9b2:	0fd77713          	andi	a4,a4,253
     9b6:	00e78023          	sb	a4,0(a5)
     9ba:	ba51                	j	34e <USBFS_IRQHandler+0xfe>
     9bc:	40e40323          	sb	a4,1030(s0)
     9c0:	b279                	j	34e <USBFS_IRQHandler+0xfe>

000009c2 <USBFS_Device_Init>:
     9c2:	faeff2ef          	jal	t0,170 <__riscv_save_0>
     9c6:	40024737          	lui	a4,0x40024
     9ca:	80072783          	lw	a5,-2048(a4) # 40023800 <_eusrstack+0x2001e800>
     9ce:	e1b5                	bnez	a1,a32 <USBFS_Device_Init+0x70>
     9d0:	0087e793          	ori	a5,a5,8
     9d4:	80f72023          	sw	a5,-2048(a4)
     9d8:	40023437          	lui	s0,0x40023
     9dc:	4799                	li	a5,6
     9de:	40f40023          	sb	a5,1024(s0) # 40023400 <_eusrstack+0x2001e400>
     9e2:	c931                	beqz	a0,a36 <USBFS_Device_Init+0x74>
     9e4:	4529                	li	a0,10
     9e6:	0d0050ef          	jal	ra,5ab6 <Delay_Us>
     9ea:	479d                	li	a5,7
     9ec:	40040023          	sb	zero,1024(s0)
     9f0:	40f40123          	sb	a5,1026(s0)
     9f4:	02900793          	li	a5,41
     9f8:	40f40023          	sb	a5,1024(s0)
     9fc:	819ff0ef          	jal	ra,214 <USBFS_Device_Endp_Init>
     a00:	f8100793          	li	a5,-127
     a04:	40f400a3          	sb	a5,1025(s0)
     a08:	08000737          	lui	a4,0x8000
     a0c:	e000e7b7          	lui	a5,0xe000e
     a10:	10e7a223          	sw	a4,260(a5) # e000e104 <_eusrstack+0xc0009104>
     a14:	e000e737          	lui	a4,0xe000e
     a18:	42070da3          	sb	zero,1083(a4) # e000e43b <_eusrstack+0xc000943b>
     a1c:	25000793          	li	a5,592
     a20:	c37c                	sw	a5,68(a4)
     a22:	07b2                	slli	a5,a5,0xc
     a24:	3b0006b7          	lui	a3,0x3b000
     a28:	83b1                	srli	a5,a5,0xc
     a2a:	8fd5                	or	a5,a5,a3
     a2c:	d33c                	sw	a5,96(a4)
     a2e:	f66ff06f          	j	194 <__riscv_restore_0>
     a32:	9bdd                	andi	a5,a5,-9
     a34:	b745                	j	9d4 <USBFS_Device_Init+0x12>
     a36:	4529                	li	a0,10
     a38:	07e050ef          	jal	ra,5ab6 <Delay_Us>
     a3c:	e000e7b7          	lui	a5,0xe000e
     a40:	40040023          	sb	zero,1024(s0)
     a44:	43b8                	lw	a4,64(a5)
     a46:	46c1                	li	a3,16
     a48:	c3b4                	sw	a3,64(a5)
     a4a:	080006b7          	lui	a3,0x8000
     a4e:	18d7a223          	sw	a3,388(a5) # e000e184 <_eusrstack+0xc0009184>
     a52:	c3b8                	sw	a4,64(a5)
     a54:	b7c1                	j	a14 <USBFS_Device_Init+0x52>

00000a56 <conf_read>:
     a56:	f1aff2ef          	jal	t0,170 <__riscv_save_0>
     a5a:	01000737          	lui	a4,0x1000
     a5e:	87aa                	mv	a5,a0
     a60:	f0070713          	addi	a4,a4,-256 # ffff00 <_data_lma+0xff3c94>
     a64:	8f7d                	and	a4,a4,a5
     a66:	6699                	lui	a3,0x6
     a68:	852e                	mv	a0,a1
     a6a:	00d70763          	beq	a4,a3,a78 <conf_read+0x22>
     a6e:	66a1                	lui	a3,0x8
     a70:	00d70c63          	beq	a4,a3,a88 <conf_read+0x32>
     a74:	f20ff06f          	j	194 <__riscv_restore_0>
     a78:	0ff7f793          	zext.b	a5,a5
     a7c:	34418593          	addi	a1,gp,836 # 200023ec <factory_configuration>
     a80:	95be                	add	a1,a1,a5
     a82:	f1eff0ef          	jal	ra,1a0 <memcpy>
     a86:	b7fd                	j	a74 <conf_read+0x1e>
     a88:	0ff7f793          	zext.b	a5,a5
     a8c:	2fc18593          	addi	a1,gp,764 # 200023a4 <user_calibration>
     a90:	bfc5                	j	a80 <conf_read+0x2a>

00000a92 <custom_conf_read>:
     a92:	07b00613          	li	a2,123
     a96:	28018593          	addi	a1,gp,640 # 20002328 <user_config>
     a9a:	4505                	li	a0,1
     a9c:	ab51                	j	1030 <flash_read>

00000a9e <custom_conf_write>:
     a9e:	07b00613          	li	a2,123
     aa2:	28018593          	addi	a1,gp,640 # 20002328 <user_config>
     aa6:	4505                	li	a0,1
     aa8:	a381                	j	fe8 <flash_write>

00000aaa <pack_fac_conf>:
     aaa:	ec6ff2ef          	jal	t0,170 <__riscv_save_0>
     aae:	8a41a403          	lw	s0,-1884(gp) # 2000194c <fac>
     ab2:	cc31                	beqz	s0,b0e <pack_fac_conf+0x64>
     ab4:	08000613          	li	a2,128
     ab8:	55fd                	li	a1,-1
     aba:	8522                	mv	a0,s0
     abc:	34418493          	addi	s1,gp,836 # 200023ec <factory_configuration>
     ac0:	ef6ff0ef          	jal	ra,1b6 <memset>
     ac4:	4661                	li	a2,24
     ac6:	02048593          	addi	a1,s1,32
     aca:	00440513          	addi	a0,s0,4
     ace:	ed2ff0ef          	jal	ra,1a0 <memcpy>
     ad2:	4649                	li	a2,18
     ad4:	03d48593          	addi	a1,s1,61
     ad8:	01c40513          	addi	a0,s0,28
     adc:	ec4ff0ef          	jal	ra,1a0 <memcpy>
     ae0:	4635                	li	a2,13
     ae2:	05048593          	addi	a1,s1,80
     ae6:	02e40513          	addi	a0,s0,46
     aea:	eb6ff0ef          	jal	ra,1a0 <memcpy>
     aee:	4661                	li	a2,24
     af0:	08048593          	addi	a1,s1,128
     af4:	03b40513          	addi	a0,s0,59
     af8:	ea8ff0ef          	jal	ra,1a0 <memcpy>
     afc:	4649                	li	a2,18
     afe:	09848593          	addi	a1,s1,152
     b02:	05340513          	addi	a0,s0,83
     b06:	e9aff0ef          	jal	ra,1a0 <memcpy>
     b0a:	00040023          	sb	zero,0(s0)
     b0e:	e86ff06f          	j	194 <__riscv_restore_0>

00000b12 <fac_conf_write>:
     b12:	e5eff2ef          	jal	t0,170 <__riscv_save_0>
     b16:	8a41a503          	lw	a0,-1884(gp) # 2000194c <fac>
     b1a:	3f41                	jal	aaa <pack_fac_conf>
     b1c:	4509                	li	a0,2
     b1e:	2b01                	jal	102e <raw_flash_write>
     b20:	e74ff06f          	j	194 <__riscv_restore_0>

00000b24 <conf_write>:
     b24:	e4cff2ef          	jal	t0,170 <__riscv_save_0>
     b28:	010007b7          	lui	a5,0x1000
     b2c:	f0078793          	addi	a5,a5,-256 # ffff00 <_data_lma+0xff3c94>
     b30:	8fe9                	and	a5,a5,a0
     b32:	6719                	lui	a4,0x6
     b34:	00e78863          	beq	a5,a4,b44 <conf_write+0x20>
     b38:	6721                	lui	a4,0x8
     b3a:	00e78e63          	beq	a5,a4,b56 <conf_write+0x32>
     b3e:	4501                	li	a0,0
     b40:	e54ff06f          	j	194 <__riscv_restore_0>
     b44:	34418793          	addi	a5,gp,836 # 200023ec <factory_configuration>
     b48:	0ff57513          	zext.b	a0,a0
     b4c:	953e                	add	a0,a0,a5
     b4e:	e52ff0ef          	jal	ra,1a0 <memcpy>
     b52:	37c1                	jal	b12 <fac_conf_write>
     b54:	b7f5                	j	b40 <conf_write+0x1c>
     b56:	2fc18793          	addi	a5,gp,764 # 200023a4 <user_calibration>
     b5a:	0ff57513          	zext.b	a0,a0
     b5e:	953e                	add	a0,a0,a5
     b60:	e40ff0ef          	jal	ra,1a0 <memcpy>
     b64:	04800613          	li	a2,72
     b68:	2fc18593          	addi	a1,gp,764 # 200023a4 <user_calibration>
     b6c:	4501                	li	a0,0
     b6e:	29ad                	jal	fe8 <flash_write>
     b70:	bfc1                	j	b40 <conf_write+0x1c>

00000b72 <unpack_fac_conf>:
     b72:	de4ff2ef          	jal	t0,156 <__riscv_save_4>
     b76:	8a41a403          	lw	s0,-1884(gp) # 2000194c <fac>
     b7a:	20040263          	beqz	s0,d7e <unpack_fac_conf+0x20c>
     b7e:	00044783          	lbu	a5,0(s0)
     b82:	01c40993          	addi	s3,s0,28
     b86:	05340913          	addi	s2,s0,83
     b8a:	1a078163          	beqz	a5,d2c <unpack_fac_conf+0x1ba>
     b8e:	fc400793          	li	a5,-60
     b92:	00f40ea3          	sb	a5,29(s0)
     b96:	04c00793          	li	a5,76
     b9a:	fcc00713          	li	a4,-52
     b9e:	00f40f23          	sb	a5,30(s0)
     ba2:	02f40223          	sb	a5,36(s0)
     ba6:	f8000793          	li	a5,-128
     baa:	00e40e23          	sb	a4,28(s0)
     bae:	02e40123          	sb	a4,34(s0)
     bb2:	02f400a3          	sb	a5,33(s0)
     bb6:	fc400713          	li	a4,-60
     bba:	47a1                	li	a5,8
     bbc:	02e401a3          	sb	a4,35(s0)
     bc0:	02f40023          	sb	a5,32(s0)
     bc4:	4625                	li	a2,9
     bc6:	85ce                	mv	a1,s3
     bc8:	00040fa3          	sb	zero,31(s0)
     bcc:	02540513          	addi	a0,s0,37
     bd0:	dd0ff0ef          	jal	ra,1a0 <memcpy>
     bd4:	03200793          	li	a5,50
     bd8:	02f40823          	sb	a5,48(s0)
     bdc:	02f40723          	sb	a5,46(s0)
     be0:	03000793          	li	a5,48
     be4:	04f40123          	sb	a5,66(s0)
     be8:	06100793          	li	a5,97
     bec:	04f401a3          	sb	a5,67(s0)
     bf0:	fae00793          	li	a5,-82
     bf4:	04f40223          	sb	a5,68(s0)
     bf8:	f9000793          	li	a5,-112
     bfc:	04f402a3          	sb	a5,69(s0)
     c00:	fd900793          	li	a5,-39
     c04:	04f40323          	sb	a5,70(s0)
     c08:	fd400793          	li	a5,-44
     c0c:	04f403a3          	sb	a5,71(s0)
     c10:	47d1                	li	a5,20
     c12:	04f40423          	sb	a5,72(s0)
     c16:	05400793          	li	a5,84
     c1a:	04f404a3          	sb	a5,73(s0)
     c1e:	04f40623          	sb	a5,76(s0)
     c22:	fc700793          	li	a5,-57
     c26:	04f406a3          	sb	a5,77(s0)
     c2a:	07900793          	li	a5,121
     c2e:	04f40723          	sb	a5,78(s0)
     c32:	f9c00793          	li	a5,-100
     c36:	03100713          	li	a4,49
     c3a:	04f407a3          	sb	a5,79(s0)
     c3e:	03300793          	li	a5,51
     c42:	02e407a3          	sb	a4,47(s0)
     c46:	04f40823          	sb	a5,80(s0)
     c4a:	04100713          	li	a4,65
     c4e:	03600793          	li	a5,54
     c52:	54fd                	li	s1,-1
     c54:	4a3d                	li	s4,15
     c56:	04e40523          	sb	a4,74(s0)
     c5a:	04f408a3          	sb	a5,81(s0)
     c5e:	4755                	li	a4,21
     c60:	06300793          	li	a5,99
     c64:	04e405a3          	sb	a4,75(s0)
     c68:	04f40923          	sb	a5,82(s0)
     c6c:	029409a3          	sb	s1,51(s0)
     c70:	02940923          	sb	s1,50(s0)
     c74:	029408a3          	sb	s1,49(s0)
     c78:	054400a3          	sb	s4,65(s0)
     c7c:	4649                	li	a2,18
     c7e:	04140593          	addi	a1,s0,65
     c82:	854a                	mv	a0,s2
     c84:	d1cff0ef          	jal	ra,1a0 <memcpy>
     c88:	05b00793          	li	a5,91
     c8c:	00f40223          	sb	a5,4(s0)
     c90:	f8b00793          	li	a5,-117
     c94:	00f40323          	sb	a5,6(s0)
     c98:	f9600793          	li	a5,-106
     c9c:	00f40423          	sb	a5,8(s0)
     ca0:	4785                	li	a5,1
     ca2:	00f404a3          	sb	a5,9(s0)
     ca6:	04000793          	li	a5,64
     caa:	00f405a3          	sb	a5,11(s0)
     cae:	00f406a3          	sb	a5,13(s0)
     cb2:	00f407a3          	sb	a5,15(s0)
     cb6:	47f5                	li	a5,29
     cb8:	00f40823          	sb	a5,16(s0)
     cbc:	fbe00793          	li	a5,-66
     cc0:	00f40923          	sb	a5,18(s0)
     cc4:	57b9                	li	a5,-18
     cc6:	00f40a23          	sb	a5,20(s0)
     cca:	03400793          	li	a5,52
     cce:	00f40ba3          	sb	a5,23(s0)
     cd2:	00f40ca3          	sb	a5,25(s0)
     cd6:	00f40da3          	sb	a5,27(s0)
     cda:	05000793          	li	a5,80
     cde:	02f40da3          	sb	a5,59(s0)
     ce2:	57f5                	li	a5,-3
     ce4:	03b00713          	li	a4,59
     ce8:	02f40e23          	sb	a5,60(s0)
     cec:	fc600793          	li	a5,-58
     cf0:	000402a3          	sb	zero,5(s0)
     cf4:	009403a3          	sb	s1,7(s0)
     cf8:	00040523          	sb	zero,10(s0)
     cfc:	00040623          	sb	zero,12(s0)
     d00:	00040723          	sb	zero,14(s0)
     d04:	000408a3          	sb	zero,17(s0)
     d08:	009409a3          	sb	s1,19(s0)
     d0c:	00940aa3          	sb	s1,21(s0)
     d10:	00e40b23          	sb	a4,22(s0)
     d14:	00e40c23          	sb	a4,24(s0)
     d18:	00e40d23          	sb	a4,26(s0)
     d1c:	02040ea3          	sb	zero,61(s0)
     d20:	02040f23          	sb	zero,62(s0)
     d24:	02f40fa3          	sb	a5,63(s0)
     d28:	05440023          	sb	s4,64(s0)
     d2c:	34418493          	addi	s1,gp,836 # 200023ec <factory_configuration>
     d30:	4661                	li	a2,24
     d32:	00440593          	addi	a1,s0,4
     d36:	02048513          	addi	a0,s1,32
     d3a:	c66ff0ef          	jal	ra,1a0 <memcpy>
     d3e:	4649                	li	a2,18
     d40:	85ce                	mv	a1,s3
     d42:	03d48513          	addi	a0,s1,61
     d46:	c5aff0ef          	jal	ra,1a0 <memcpy>
     d4a:	4635                	li	a2,13
     d4c:	02e40593          	addi	a1,s0,46
     d50:	05048513          	addi	a0,s1,80
     d54:	c4cff0ef          	jal	ra,1a0 <memcpy>
     d58:	4661                	li	a2,24
     d5a:	03b40593          	addi	a1,s0,59
     d5e:	08048513          	addi	a0,s1,128
     d62:	c3eff0ef          	jal	ra,1a0 <memcpy>
     d66:	4649                	li	a2,18
     d68:	85ca                	mv	a1,s2
     d6a:	09848513          	addi	a0,s1,152
     d6e:	c32ff0ef          	jal	ra,1a0 <memcpy>
     d72:	00044783          	lbu	a5,0(s0)
     d76:	c781                	beqz	a5,d7e <unpack_fac_conf+0x20c>
     d78:	00040023          	sb	zero,0(s0)
     d7c:	3b59                	jal	b12 <fac_conf_write>
     d7e:	c0cff06f          	j	18a <__riscv_restore_4>

00000d82 <fac_conf_read>:
     d82:	beeff2ef          	jal	t0,170 <__riscv_save_0>
     d86:	8a41a583          	lw	a1,-1884(gp) # 2000194c <fac>
     d8a:	06500613          	li	a2,101
     d8e:	4509                	li	a0,2
     d90:	2445                	jal	1030 <flash_read>
     d92:	8a41a503          	lw	a0,-1884(gp) # 2000194c <fac>
     d96:	3bf1                	jal	b72 <unpack_fac_conf>
     d98:	bfcff06f          	j	194 <__riscv_restore_0>

00000d9c <conf_flush>:
     d9c:	bd4ff2ef          	jal	t0,170 <__riscv_save_0>
     da0:	4505                	li	a0,1
     da2:	151040ef          	jal	ra,56f2 <flush_rgb>
     da6:	28018413          	addi	s0,gp,640 # 20002328 <user_config>
     daa:	01944503          	lbu	a0,25(s0)
     dae:	5520a0ef          	jal	ra,b300 <__floatsisf>
     db2:	8681a583          	lw	a1,-1944(gp) # 20001910 <MyLangDescr+0x40>
     db6:	22f090ef          	jal	ra,a7e4 <__divsf3>
     dba:	96a1a223          	sw	a0,-1692(gp) # 20001a0c <imu_ratio_xf>
     dbe:	01a44503          	lbu	a0,26(s0)
     dc2:	53e0a0ef          	jal	ra,b300 <__floatsisf>
     dc6:	8681a583          	lw	a1,-1944(gp) # 20001910 <MyLangDescr+0x40>
     dca:	21b090ef          	jal	ra,a7e4 <__divsf3>
     dce:	96a1a023          	sw	a0,-1696(gp) # 20001a08 <imu_ratio_yf>
     dd2:	01b44503          	lbu	a0,27(s0)
     dd6:	52a0a0ef          	jal	ra,b300 <__floatsisf>
     dda:	8681a583          	lw	a1,-1944(gp) # 20001910 <MyLangDescr+0x40>
     dde:	207090ef          	jal	ra,a7e4 <__divsf3>
     de2:	94a1ae23          	sw	a0,-1700(gp) # 20001a04 <imu_ratio_zf>
     de6:	baeff06f          	j	194 <__riscv_restore_0>

00000dea <conf_init>:
     dea:	b86ff2ef          	jal	t0,170 <__riscv_save_0>
     dee:	0b100613          	li	a2,177
     df2:	55fd                	li	a1,-1
     df4:	34418513          	addi	a0,gp,836 # 200023ec <factory_configuration>
     df8:	bbeff0ef          	jal	ra,1b6 <memset>
     dfc:	2435                	jal	1028 <get_raw_flash_buf>
     dfe:	8aa1a223          	sw	a0,-1884(gp) # 2000194c <fac>
     e02:	3741                	jal	d82 <fac_conf_read>
     e04:	34418793          	addi	a5,gp,836 # 200023ec <factory_configuration>
     e08:	f8000713          	li	a4,-128
     e0c:	00e78023          	sb	a4,0(a5)
     e10:	7769                	lui	a4,0xffffa
     e12:	070d                	addi	a4,a4,3 # ffffa003 <_eusrstack+0xdfff5003>
     e14:	00e79923          	sh	a4,18(a5)
     e18:	04800613          	li	a2,72
     e1c:	4705                	li	a4,1
     e1e:	2fc18593          	addi	a1,gp,764 # 200023a4 <user_calibration>
     e22:	4501                	li	a0,0
     e24:	00e78da3          	sb	a4,27(a5)
     e28:	2421                	jal	1030 <flash_read>
     e2a:	2fc18793          	addi	a5,gp,764 # 200023a4 <user_calibration>
     e2e:	0007c703          	lbu	a4,0(a5)
     e32:	c315                	beqz	a4,e56 <conf_init+0x6c>
     e34:	4721                	li	a4,8
     e36:	000780a3          	sb	zero,1(a5)
     e3a:	00e78123          	sb	a4,2(a5)
     e3e:	000781a3          	sb	zero,3(a5)
     e42:	00e78223          	sb	a4,4(a5)
     e46:	000782a3          	sb	zero,5(a5)
     e4a:	00e78323          	sb	a4,6(a5)
     e4e:	000783a3          	sb	zero,7(a5)
     e52:	00e78423          	sb	a4,8(a5)
     e56:	07b00613          	li	a2,123
     e5a:	55fd                	li	a1,-1
     e5c:	28018513          	addi	a0,gp,640 # 20002328 <user_config>
     e60:	b56ff0ef          	jal	ra,1b6 <memset>
     e64:	313d                	jal	a92 <custom_conf_read>
     e66:	2801c783          	lbu	a5,640(gp) # 20002328 <user_config>
     e6a:	28018413          	addi	s0,gp,640 # 20002328 <user_config>
     e6e:	8b85                	andi	a5,a5,1
     e70:	c3c5                	beqz	a5,f10 <conf_init+0x126>
     e72:	07b00613          	li	a2,123
     e76:	4581                	li	a1,0
     e78:	28018513          	addi	a0,gp,640 # 20002328 <user_config>
     e7c:	b3aff0ef          	jal	ra,1b6 <memset>
     e80:	47a1                	li	a5,8
     e82:	4611                	li	a2,4
     e84:	03000593          	li	a1,48
     e88:	28718513          	addi	a0,gp,647 # 2000232f <user_config+0x7>
     e8c:	00f400a3          	sb	a5,1(s0)
     e90:	00f40123          	sb	a5,2(s0)
     e94:	b22ff0ef          	jal	ra,1b6 <memset>
     e98:	4611                	li	a2,4
     e9a:	08000593          	li	a1,128
     e9e:	28318513          	addi	a0,gp,643 # 2000232b <user_config+0x3>
     ea2:	b14ff0ef          	jal	ra,1b6 <memset>
     ea6:	7761                	lui	a4,0xffff8
     ea8:	29e18793          	addi	a5,gp,670 # 20002346 <user_config+0x1e>
     eac:	f7f74713          	xori	a4,a4,-129
     eb0:	4619                	li	a2,6
     eb2:	4581                	li	a1,0
     eb4:	28b18513          	addi	a0,gp,651 # 20002333 <user_config+0xb>
     eb8:	00e79023          	sh	a4,0(a5)
     ebc:	00e79123          	sh	a4,2(a5)
     ec0:	af6ff0ef          	jal	ra,1b6 <memset>
     ec4:	6789                	lui	a5,0x2
     ec6:	b0178793          	addi	a5,a5,-1279 # 1b01 <decode_hd_rumble_format3+0x109>
     eca:	02f41123          	sh	a5,34(s0)
     ece:	4701                	li	a4,0
     ed0:	458d                	li	a1,3
     ed2:	56fd                	li	a3,-1
     ed4:	466d                	li	a2,27
     ed6:	02b707b3          	mul	a5,a4,a1
     eda:	0705                	addi	a4,a4,1 # ffff8001 <_eusrstack+0xdfff3001>
     edc:	97a2                	add	a5,a5,s0
     ede:	02d78223          	sb	a3,36(a5)
     ee2:	02d782a3          	sb	a3,37(a5)
     ee6:	02d78323          	sb	a3,38(a5)
     eea:	fec716e3          	bne	a4,a2,ed6 <conf_init+0xec>
     eee:	07f00793          	li	a5,127
     ef2:	00f40ca3          	sb	a5,25(s0)
     ef6:	77e1                	lui	a5,0xffff8
     ef8:	f7f7c793          	xori	a5,a5,-129
     efc:	00f41d23          	sh	a5,26(s0)
     f00:	47c1                	li	a5,16
     f02:	00f408a3          	sb	a5,17(s0)
     f06:	02700793          	li	a5,39
     f0a:	00f40923          	sb	a5,18(s0)
     f0e:	3e41                	jal	a9e <custom_conf_write>
     f10:	01d44703          	lbu	a4,29(s0)
     f14:	4789                	li	a5,2
     f16:	00e7f463          	bgeu	a5,a4,f1e <conf_init+0x134>
     f1a:	00040ea3          	sb	zero,29(s0)
     f1e:	01c44703          	lbu	a4,28(s0)
     f22:	4785                	li	a5,1
     f24:	00e7f463          	bgeu	a5,a4,f2c <conf_init+0x142>
     f28:	00f40e23          	sb	a5,28(s0)
     f2c:	3d85                	jal	d9c <conf_flush>
     f2e:	00244583          	lbu	a1,2(s0)
     f32:	200027b7          	lui	a5,0x20002
     f36:	80878793          	addi	a5,a5,-2040 # 20001808 <MyCfgDescr>
     f3a:	02b780a3          	sb	a1,33(a5)
     f3e:	00144603          	lbu	a2,1(s0)
     f42:	652d                	lui	a0,0xb
     f44:	79c50513          	addi	a0,a0,1948 # b79c <__errno+0xb0>
     f48:	02c78423          	sb	a2,40(a5)
     f4c:	052070ef          	jal	ra,7f9e <printf>
     f50:	00a40703          	lb	a4,10(s0)
     f54:	00940683          	lb	a3,9(s0)
     f58:	00840603          	lb	a2,8(s0)
     f5c:	00740583          	lb	a1,7(s0)
     f60:	652d                	lui	a0,0xb
     f62:	7b050513          	addi	a0,a0,1968 # b7b0 <__errno+0xc4>
     f66:	038070ef          	jal	ra,7f9e <printf>
     f6a:	00644703          	lbu	a4,6(s0)
     f6e:	00544683          	lbu	a3,5(s0)
     f72:	00444603          	lbu	a2,4(s0)
     f76:	00344583          	lbu	a1,3(s0)
     f7a:	652d                	lui	a0,0xb
     f7c:	7c850513          	addi	a0,a0,1992 # b7c8 <__errno+0xdc>
     f80:	01e070ef          	jal	ra,7f9e <printf>
     f84:	20003537          	lui	a0,0x20003
     f88:	4619                	li	a2,6
     f8a:	01340593          	addi	a1,s0,19
     f8e:	49650513          	addi	a0,a0,1174 # 20003496 <connection_state+0x6>
     f92:	a0eff0ef          	jal	ra,1a0 <memcpy>
     f96:	9feff06f          	j	194 <__riscv_restore_0>

00000f9a <_flash_write>:
     f9a:	478d                	li	a5,3
     f9c:	04a7e363          	bltu	a5,a0,fe2 <_flash_write+0x48>
     fa0:	9d0ff2ef          	jal	t0,170 <__riscv_save_0>
     fa4:	001007b7          	lui	a5,0x100
     fa8:	1e078793          	addi	a5,a5,480 # 1001e0 <_data_lma+0xf3f74>
     fac:	953e                	add	a0,a0,a5
     fae:	00751413          	slli	s0,a0,0x7
     fb2:	08000593          	li	a1,128
     fb6:	8522                	mv	a0,s0
     fb8:	16f050ef          	jal	ra,6926 <FLASH_ROM_ERASE>
     fbc:	4711                	li	a4,4
     fbe:	84aa                	mv	s1,a0
     fc0:	4789                	li	a5,2
     fc2:	00e51d63          	bne	a0,a4,fdc <_flash_write+0x42>
     fc6:	08000613          	li	a2,128
     fca:	3f818593          	addi	a1,gp,1016 # 200024a0 <flash_buf>
     fce:	8522                	mv	a0,s0
     fd0:	261050ef          	jal	ra,6a30 <FLASH_ROM_WRITE>
     fd4:	478d                	li	a5,3
     fd6:	00951363          	bne	a0,s1,fdc <_flash_write+0x42>
     fda:	4781                	li	a5,0
     fdc:	853e                	mv	a0,a5
     fde:	9b6ff06f          	j	194 <__riscv_restore_0>
     fe2:	4785                	li	a5,1
     fe4:	853e                	mv	a0,a5
     fe6:	8082                	ret

00000fe8 <flash_write>:
     fe8:	cd8d                	beqz	a1,1022 <flash_write+0x3a>
     fea:	96cff2ef          	jal	t0,156 <__riscv_save_4>
     fee:	08000793          	li	a5,128
     ff2:	892a                	mv	s2,a0
     ff4:	84b2                	mv	s1,a2
     ff6:	0fe00513          	li	a0,254
     ffa:	02c7e263          	bltu	a5,a2,101e <flash_write+0x36>
     ffe:	842e                	mv	s0,a1
    1000:	08000613          	li	a2,128
    1004:	4581                	li	a1,0
    1006:	3f818513          	addi	a0,gp,1016 # 200024a0 <flash_buf>
    100a:	9acff0ef          	jal	ra,1b6 <memset>
    100e:	8626                	mv	a2,s1
    1010:	85a2                	mv	a1,s0
    1012:	3f818513          	addi	a0,gp,1016 # 200024a0 <flash_buf>
    1016:	98aff0ef          	jal	ra,1a0 <memcpy>
    101a:	854a                	mv	a0,s2
    101c:	3fbd                	jal	f9a <_flash_write>
    101e:	96cff06f          	j	18a <__riscv_restore_4>
    1022:	0ff00513          	li	a0,255
    1026:	8082                	ret

00001028 <get_raw_flash_buf>:
    1028:	3f818513          	addi	a0,gp,1016 # 200024a0 <flash_buf>
    102c:	8082                	ret

0000102e <raw_flash_write>:
    102e:	b7b5                	j	f9a <_flash_write>

00001030 <flash_read>:
    1030:	470d                	li	a4,3
    1032:	87aa                	mv	a5,a0
    1034:	02a76b63          	bltu	a4,a0,106a <flash_read+0x3a>
    1038:	852e                	mv	a0,a1
    103a:	0ff00713          	li	a4,255
    103e:	c59d                	beqz	a1,106c <flash_read+0x3c>
    1040:	08000593          	li	a1,128
    1044:	0fe00713          	li	a4,254
    1048:	02c5e263          	bltu	a1,a2,106c <flash_read+0x3c>
    104c:	924ff2ef          	jal	t0,170 <__riscv_save_0>
    1050:	00100737          	lui	a4,0x100
    1054:	1e070713          	addi	a4,a4,480 # 1001e0 <_data_lma+0xf3f74>
    1058:	97ba                	add	a5,a5,a4
    105a:	00779593          	slli	a1,a5,0x7
    105e:	942ff0ef          	jal	ra,1a0 <memcpy>
    1062:	4701                	li	a4,0
    1064:	853a                	mv	a0,a4
    1066:	92eff06f          	j	194 <__riscv_restore_0>
    106a:	4705                	li	a4,1
    106c:	853a                	mv	a0,a4
    106e:	8082                	ret

00001070 <fetch_uint32>:
    1070:	900ff2ef          	jal	t0,170 <__riscv_save_0>
    1074:	1141                	addi	sp,sp,-16
    1076:	85aa                	mv	a1,a0
    1078:	4611                	li	a2,4
    107a:	0068                	addi	a0,sp,12
    107c:	924ff0ef          	jal	ra,1a0 <memcpy>
    1080:	4532                	lw	a0,12(sp)
    1082:	0141                	addi	sp,sp,16
    1084:	910ff06f          	j	194 <__riscv_restore_0>

00001088 <ADC_Function_Init>:
    1088:	8e8ff2ef          	jal	t0,170 <__riscv_save_0>
    108c:	7179                	addi	sp,sp,-48
    108e:	4661                	li	a2,24
    1090:	4581                	li	a1,0
    1092:	0828                	addi	a0,sp,24
    1094:	922ff0ef          	jal	ra,1b6 <memset>
    1098:	4501                	li	a0,0
    109a:	c602                	sw	zero,12(sp)
    109c:	c802                	sw	zero,16(sp)
    109e:	ca02                	sw	zero,20(sp)
    10a0:	79b050ef          	jal	ra,703a <RCC_ADCCLKConfig>
    10a4:	40011537          	lui	a0,0x40011
    10a8:	03a00793          	li	a5,58
    10ac:	006c                	addi	a1,sp,12
    10ae:	80050513          	addi	a0,a0,-2048 # 40010800 <_eusrstack+0x2000b800>
    10b2:	40012437          	lui	s0,0x40012
    10b6:	00f11623          	sh	a5,12(sp)
    10ba:	ca02                	sw	zero,20(sp)
    10bc:	28d050ef          	jal	ra,6b48 <GPIO_Init>
    10c0:	40040513          	addi	a0,s0,1024 # 40012400 <_eusrstack+0x2000d400>
    10c4:	2ee050ef          	jal	ra,63b2 <ADC_DeInit>
    10c8:	4785                	li	a5,1
    10ca:	ce3e                	sw	a5,28(sp)
    10cc:	d03e                	sw	a5,32(sp)
    10ce:	000e07b7          	lui	a5,0xe0
    10d2:	d23e                	sw	a5,36(sp)
    10d4:	082c                	addi	a1,sp,24
    10d6:	4791                	li	a5,4
    10d8:	40040513          	addi	a0,s0,1024
    10dc:	02f10623          	sb	a5,44(sp)
    10e0:	cc02                	sw	zero,24(sp)
    10e2:	d402                	sw	zero,40(sp)
    10e4:	2f8050ef          	jal	ra,63dc <ADC_Init>
    10e8:	4585                	li	a1,1
    10ea:	40040513          	addi	a0,s0,1024
    10ee:	34e050ef          	jal	ra,643c <ADC_DMACmd>
    10f2:	4585                	li	a1,1
    10f4:	40040513          	addi	a0,s0,1024
    10f8:	334050ef          	jal	ra,642c <ADC_Cmd>
    10fc:	40040513          	addi	a0,s0,1024
    1100:	34e050ef          	jal	ra,644e <ADC_ResetCalibration>
    1104:	40040493          	addi	s1,s0,1024
    1108:	8526                	mv	a0,s1
    110a:	34e050ef          	jal	ra,6458 <ADC_GetResetCalibrationStatus>
    110e:	fd6d                	bnez	a0,1108 <ADC_Function_Init+0x80>
    1110:	40040513          	addi	a0,s0,1024
    1114:	40012437          	lui	s0,0x40012
    1118:	348050ef          	jal	ra,6460 <ADC_StartCalibration>
    111c:	40040493          	addi	s1,s0,1024 # 40012400 <_eusrstack+0x2000d400>
    1120:	8526                	mv	a0,s1
    1122:	348050ef          	jal	ra,646a <ADC_GetCalibrationStatus>
    1126:	fd6d                	bnez	a0,1120 <ADC_Function_Init+0x98>
    1128:	40040513          	addi	a0,s0,1024
    112c:	416050ef          	jal	ra,6542 <Get_CalibrationValue>
    1130:	8aa19423          	sh	a0,-1880(gp) # 20001950 <Calibrattion_Val>
    1134:	6145                	addi	sp,sp,48
    1136:	85eff06f          	j	194 <__riscv_restore_0>

0000113a <DMA_Tx_Init>:
    113a:	836ff2ef          	jal	t0,170 <__riscv_save_0>
    113e:	7139                	addi	sp,sp,-64
    1140:	842a                	mv	s0,a0
    1142:	892e                	mv	s2,a1
    1144:	84b2                	mv	s1,a2
    1146:	4581                	li	a1,0
    1148:	02c00613          	li	a2,44
    114c:	0848                	addi	a0,sp,20
    114e:	c636                	sw	a3,12(sp)
    1150:	866ff0ef          	jal	ra,1b6 <memset>
    1154:	8522                	mv	a0,s0
    1156:	558050ef          	jal	ra,66ae <DMA_DeInit>
    115a:	08000793          	li	a5,128
    115e:	d43e                	sw	a5,40(sp)
    1160:	10000793          	li	a5,256
    1164:	46b2                	lw	a3,12(sp)
    1166:	d63e                	sw	a5,44(sp)
    1168:	40000793          	li	a5,1024
    116c:	d83e                	sw	a5,48(sp)
    116e:	02000793          	li	a5,32
    1172:	da3e                	sw	a5,52(sp)
    1174:	084c                	addi	a1,sp,20
    1176:	678d                	lui	a5,0x3
    1178:	8522                	mv	a0,s0
    117a:	ca4a                	sw	s2,20(sp)
    117c:	cc26                	sw	s1,24(sp)
    117e:	d036                	sw	a3,32(sp)
    1180:	dc3e                	sw	a5,56(sp)
    1182:	ce02                	sw	zero,28(sp)
    1184:	d202                	sw	zero,36(sp)
    1186:	de02                	sw	zero,60(sp)
    1188:	620050ef          	jal	ra,67a8 <DMA_Init>
    118c:	6121                	addi	sp,sp,64
    118e:	806ff06f          	j	194 <__riscv_restore_0>

00001192 <adc_init>:
    1192:	fdffe2ef          	jal	t0,170 <__riscv_save_0>
    1196:	3dcd                	jal	1088 <ADC_Function_Init>
    1198:	8a819583          	lh	a1,-1880(gp) # 20001950 <Calibrattion_Val>
    119c:	652d                	lui	a0,0xb
    119e:	7e050513          	addi	a0,a0,2016 # b7e0 <__errno+0xf4>
    11a2:	5fd060ef          	jal	ra,7f9e <printf>
    11a6:	40012437          	lui	s0,0x40012
    11aa:	400204b7          	lui	s1,0x40020
    11ae:	44c40593          	addi	a1,s0,1100 # 4001244c <_eusrstack+0x2000d44c>
    11b2:	00848513          	addi	a0,s1,8 # 40020008 <_eusrstack+0x2001b008>
    11b6:	4691                	li	a3,4
    11b8:	8ac18613          	addi	a2,gp,-1876 # 20001954 <adc_data>
    11bc:	3fbd                	jal	113a <DMA_Tx_Init>
    11be:	40040513          	addi	a0,s0,1024
    11c2:	469d                	li	a3,7
    11c4:	4605                	li	a2,1
    11c6:	4585                	li	a1,1
    11c8:	2c2050ef          	jal	ra,648a <ADC_RegularChannelConfig>
    11cc:	40040513          	addi	a0,s0,1024
    11d0:	469d                	li	a3,7
    11d2:	4609                	li	a2,2
    11d4:	4595                	li	a1,5
    11d6:	2b4050ef          	jal	ra,648a <ADC_RegularChannelConfig>
    11da:	40040513          	addi	a0,s0,1024
    11de:	469d                	li	a3,7
    11e0:	460d                	li	a2,3
    11e2:	458d                	li	a1,3
    11e4:	2a6050ef          	jal	ra,648a <ADC_RegularChannelConfig>
    11e8:	469d                	li	a3,7
    11ea:	4611                	li	a2,4
    11ec:	40040513          	addi	a0,s0,1024
    11f0:	4591                	li	a1,4
    11f2:	298050ef          	jal	ra,648a <ADC_RegularChannelConfig>
    11f6:	00848513          	addi	a0,s1,8
    11fa:	4585                	li	a1,1
    11fc:	5e4050ef          	jal	ra,67e0 <DMA_Cmd>
    1200:	4585                	li	a1,1
    1202:	40040513          	addi	a0,s0,1024
    1206:	26c050ef          	jal	ra,6472 <ADC_SoftwareStartConvCmd>
    120a:	f8bfe06f          	j	194 <__riscv_restore_0>

0000120e <gpio_tb_init>:
    120e:	66c1                	lui	a3,0x10
    1210:	47818793          	addi	a5,gp,1144 # 20002520 <hid_num_to_gpio>
    1214:	10068713          	addi	a4,a3,256 # 10100 <_data_lma+0x3e94>
    1218:	d7d8                	sw	a4,44(a5)
    121a:	00168713          	addi	a4,a3,1
    121e:	d798                	sw	a4,40(a5)
    1220:	00021737          	lui	a4,0x21
    1224:	c3d8                	sw	a4,4(a5)
    1226:	00022737          	lui	a4,0x22
    122a:	c398                	sw	a4,0(a5)
    122c:	00024737          	lui	a4,0x24
    1230:	c7d8                	sw	a4,12(a5)
    1232:	00028737          	lui	a4,0x28
    1236:	c798                	sw	a4,8(a5)
    1238:	00020737          	lui	a4,0x20
    123c:	00870613          	addi	a2,a4,8 # 20008 <_data_lma+0x13d9c>
    1240:	c3f0                	sw	a2,68(a5)
    1242:	02070613          	addi	a2,a4,32
    1246:	c3b0                	sw	a2,64(a5)
    1248:	6661                	lui	a2,0x18
    124a:	c7f0                	sw	a2,76(a5)
    124c:	01070613          	addi	a2,a4,16
    1250:	c7b0                	sw	a2,72(a5)
    1252:	20070613          	addi	a2,a4,512
    1256:	cfb0                	sw	a2,88(a5)
    1258:	00042637          	lui	a2,0x42
    125c:	cf90                	sw	a2,24(a5)
    125e:	10070613          	addi	a2,a4,256
    1262:	cff0                	sw	a2,92(a5)
    1264:	00044637          	lui	a2,0x44
    1268:	cfd0                	sw	a2,28(a5)
    126a:	652d                	lui	a0,0xb
    126c:	04070613          	addi	a2,a4,64
    1270:	d390                	sw	a2,32(a5)
    1272:	04068693          	addi	a3,a3,64
    1276:	00048637          	lui	a2,0x48
    127a:	08070713          	addi	a4,a4,128
    127e:	458d                	li	a1,3
    1280:	7f850513          	addi	a0,a0,2040 # b7f8 <__errno+0x10c>
    1284:	d3d0                	sw	a2,36(a5)
    1286:	db94                	sw	a3,48(a5)
    1288:	dbd8                	sw	a4,52(a5)
    128a:	5150606f          	j	7f9e <printf>

0000128e <gpio_init>:
    128e:	ec9fe2ef          	jal	t0,156 <__riscv_save_4>
    1292:	1141                	addi	sp,sp,-16
    1294:	3fad                	jal	120e <gpio_tb_init>
    1296:	47818493          	addi	s1,gp,1144 # 20002520 <hid_num_to_gpio>
    129a:	04800793          	li	a5,72
    129e:	69c1                	lui	s3,0x10
    12a0:	c202                	sw	zero,4(sp)
    12a2:	c402                	sw	zero,8(sp)
    12a4:	c63e                	sw	a5,12(sp)
    12a6:	06048913          	addi	s2,s1,96
    12aa:	47818413          	addi	s0,gp,1144 # 20002520 <hid_num_to_gpio>
    12ae:	fff98a13          	addi	s4,s3,-1 # ffff <_data_lma+0x3d93>
    12b2:	6ab1                	lui	s5,0xc
    12b4:	400c                	lw	a1,0(s0)
    12b6:	0135f7b3          	and	a5,a1,s3
    12ba:	cf89                	beqz	a5,12d4 <gpio_init+0x46>
    12bc:	0145f5b3          	and	a1,a1,s4
    12c0:	808a8513          	addi	a0,s5,-2040 # b808 <__errno+0x11c>
    12c4:	4db060ef          	jal	ra,7f9e <printf>
    12c8:	00415783          	lhu	a5,4(sp)
    12cc:	4018                	lw	a4,0(s0)
    12ce:	8fd9                	or	a5,a5,a4
    12d0:	00f11223          	sh	a5,4(sp)
    12d4:	0411                	addi	s0,s0,4
    12d6:	fd241fe3          	bne	s0,s2,12b4 <gpio_init+0x26>
    12da:	40011537          	lui	a0,0x40011
    12de:	004c                	addi	a1,sp,4
    12e0:	80050513          	addi	a0,a0,-2048 # 40010800 <_eusrstack+0x2000b800>
    12e4:	69c1                	lui	s3,0x10
    12e6:	063050ef          	jal	ra,6b48 <GPIO_Init>
    12ea:	8426                	mv	s0,s1
    12ec:	00011223          	sh	zero,4(sp)
    12f0:	00020a37          	lui	s4,0x20
    12f4:	19fd                	addi	s3,s3,-1 # ffff <_data_lma+0x3d93>
    12f6:	6ab1                	lui	s5,0xc
    12f8:	400c                	lw	a1,0(s0)
    12fa:	0145f7b3          	and	a5,a1,s4
    12fe:	cf89                	beqz	a5,1318 <gpio_init+0x8a>
    1300:	0135f5b3          	and	a1,a1,s3
    1304:	818a8513          	addi	a0,s5,-2024 # b818 <__errno+0x12c>
    1308:	497060ef          	jal	ra,7f9e <printf>
    130c:	00415783          	lhu	a5,4(sp)
    1310:	4018                	lw	a4,0(s0)
    1312:	8fd9                	or	a5,a5,a4
    1314:	00f11223          	sh	a5,4(sp)
    1318:	0411                	addi	s0,s0,4
    131a:	fd241fe3          	bne	s0,s2,12f8 <gpio_init+0x6a>
    131e:	40011537          	lui	a0,0x40011
    1322:	004c                	addi	a1,sp,4
    1324:	c0050513          	addi	a0,a0,-1024 # 40010c00 <_eusrstack+0x2000bc00>
    1328:	6441                	lui	s0,0x10
    132a:	01f050ef          	jal	ra,6b48 <GPIO_Init>
    132e:	000409b7          	lui	s3,0x40
    1332:	00011223          	sh	zero,4(sp)
    1336:	147d                	addi	s0,s0,-1 # ffff <_data_lma+0x3d93>
    1338:	6a31                	lui	s4,0xc
    133a:	408c                	lw	a1,0(s1)
    133c:	0135f7b3          	and	a5,a1,s3
    1340:	cf81                	beqz	a5,1358 <gpio_init+0xca>
    1342:	8de1                	and	a1,a1,s0
    1344:	828a0513          	addi	a0,s4,-2008 # b828 <__errno+0x13c>
    1348:	457060ef          	jal	ra,7f9e <printf>
    134c:	00415783          	lhu	a5,4(sp)
    1350:	4098                	lw	a4,0(s1)
    1352:	8fd9                	or	a5,a5,a4
    1354:	00f11223          	sh	a5,4(sp)
    1358:	0491                	addi	s1,s1,4
    135a:	ff2490e3          	bne	s1,s2,133a <gpio_init+0xac>
    135e:	004c                	addi	a1,sp,4
    1360:	40011537          	lui	a0,0x40011
    1364:	7e4050ef          	jal	ra,6b48 <GPIO_Init>
    1368:	0141                	addi	sp,sp,16
    136a:	e21fe06f          	j	18a <__riscv_restore_4>

0000136e <gpio_read_all>:
    136e:	ddbfe2ef          	jal	t0,148 <__riscv_save_10>
    1372:	40011937          	lui	s2,0x40011
    1376:	c0090b13          	addi	s6,s2,-1024 # 40010c00 <_eusrstack+0x2000bc00>
    137a:	47818413          	addi	s0,gp,1144 # 20002520 <hid_num_to_gpio>
    137e:	4481                	li	s1,0
    1380:	4981                	li	s3,0
    1382:	00070a37          	lui	s4,0x70
    1386:	00020ab7          	lui	s5,0x20
    138a:	00040bb7          	lui	s7,0x40
    138e:	6c41                	lui	s8,0x10
    1390:	80090913          	addi	s2,s2,-2048
    1394:	400c                	lw	a1,0(s0)
    1396:	0145f7b3          	and	a5,a1,s4
    139a:	03578a63          	beq	a5,s5,13ce <gpio_read_all+0x60>
    139e:	03778c63          	beq	a5,s7,13d6 <gpio_read_all+0x68>
    13a2:	4505                	li	a0,1
    13a4:	01879763          	bne	a5,s8,13b2 <gpio_read_all+0x44>
    13a8:	05c2                	slli	a1,a1,0x10
    13aa:	81c1                	srli	a1,a1,0x10
    13ac:	854a                	mv	a0,s2
    13ae:	05d050ef          	jal	ra,6c0a <GPIO_ReadInputDataBit>
    13b2:	00153513          	seqz	a0,a0
    13b6:	00951533          	sll	a0,a0,s1
    13ba:	47e1                	li	a5,24
    13bc:	0485                	addi	s1,s1,1
    13be:	00a9e9b3          	or	s3,s3,a0
    13c2:	0411                	addi	s0,s0,4
    13c4:	fcf498e3          	bne	s1,a5,1394 <gpio_read_all+0x26>
    13c8:	854e                	mv	a0,s3
    13ca:	db7fe06f          	j	180 <__riscv_restore_10>
    13ce:	05c2                	slli	a1,a1,0x10
    13d0:	81c1                	srli	a1,a1,0x10
    13d2:	855a                	mv	a0,s6
    13d4:	bfe9                	j	13ae <gpio_read_all+0x40>
    13d6:	05c2                	slli	a1,a1,0x10
    13d8:	81c1                	srli	a1,a1,0x10
    13da:	40011537          	lui	a0,0x40011
    13de:	bfc1                	j	13ae <gpio_read_all+0x40>

000013e0 <gpio_read>:
    13e0:	d91fe2ef          	jal	t0,170 <__riscv_save_0>
    13e4:	000707b7          	lui	a5,0x70
    13e8:	8fe9                	and	a5,a5,a0
    13ea:	00020737          	lui	a4,0x20
    13ee:	85aa                	mv	a1,a0
    13f0:	02e78463          	beq	a5,a4,1418 <gpio_read+0x38>
    13f4:	00040737          	lui	a4,0x40
    13f8:	02e78863          	beq	a5,a4,1428 <gpio_read+0x48>
    13fc:	6741                	lui	a4,0x10
    13fe:	4505                	li	a0,1
    1400:	00e79a63          	bne	a5,a4,1414 <gpio_read+0x34>
    1404:	05c2                	slli	a1,a1,0x10
    1406:	40011537          	lui	a0,0x40011
    140a:	81c1                	srli	a1,a1,0x10
    140c:	80050513          	addi	a0,a0,-2048 # 40010800 <_eusrstack+0x2000b800>
    1410:	7fa050ef          	jal	ra,6c0a <GPIO_ReadInputDataBit>
    1414:	d81fe06f          	j	194 <__riscv_restore_0>
    1418:	01051593          	slli	a1,a0,0x10
    141c:	40011537          	lui	a0,0x40011
    1420:	81c1                	srli	a1,a1,0x10
    1422:	c0050513          	addi	a0,a0,-1024 # 40010c00 <_eusrstack+0x2000bc00>
    1426:	b7ed                	j	1410 <gpio_read+0x30>
    1428:	01051593          	slli	a1,a0,0x10
    142c:	81c1                	srli	a1,a1,0x10
    142e:	40011537          	lui	a0,0x40011
    1432:	bff9                	j	1410 <gpio_read+0x30>

00001434 <hd_rumble_init>:
    1434:	d3dfe2ef          	jal	t0,170 <__riscv_save_0>
    1438:	7179                	addi	sp,sp,-48
    143a:	842a                	mv	s0,a0
    143c:	4585                	li	a1,1
    143e:	4531                	li	a0,12
    1440:	ca02                	sw	zero,20(sp)
    1442:	cc02                	sw	zero,24(sp)
    1444:	ce02                	sw	zero,28(sp)
    1446:	d002                	sw	zero,32(sp)
    1448:	d202                	sw	zero,36(sp)
    144a:	d402                	sw	zero,40(sp)
    144c:	d602                	sw	zero,44(sp)
    144e:	c402                	sw	zero,8(sp)
    1450:	c602                	sw	zero,12(sp)
    1452:	00011823          	sh	zero,16(sp)
    1456:	4e5050ef          	jal	ra,713a <RCC_APB2PeriphClockCmd>
    145a:	12041063          	bnez	s0,157a <hd_rumble_init+0x146>
    145e:	4585                	li	a1,1
    1460:	4509                	li	a0,2
    1462:	4f7050ef          	jal	ra,7158 <RCC_APB1PeriphClockCmd>
    1466:	40011537          	lui	a0,0x40011
    146a:	4761                	li	a4,24
    146c:	478d                	li	a5,3
    146e:	084c                	addi	a1,sp,20
    1470:	c0050513          	addi	a0,a0,-1024 # 40010c00 <_eusrstack+0x2000bc00>
    1474:	ce3a                	sw	a4,28(sp)
    1476:	40000437          	lui	s0,0x40000
    147a:	00f11a23          	sh	a5,20(sp)
    147e:	cc3e                	sw	a5,24(sp)
    1480:	6c8050ef          	jal	ra,6b48 <GPIO_Init>
    1484:	5a000793          	li	a5,1440
    1488:	002c                	addi	a1,sp,8
    148a:	40040513          	addi	a0,s0,1024 # 40000400 <_eusrstack+0x1fffb400>
    148e:	c63e                	sw	a5,12(sp)
    1490:	c402                	sw	zero,8(sp)
    1492:	5dd050ef          	jal	ra,726e <TIM_TimeBaseInit>
    1496:	4605                	li	a2,1
    1498:	4585                	li	a1,1
    149a:	40040513          	addi	a0,s0,1024
    149e:	036060ef          	jal	ra,74d4 <TIM_ITConfig>
    14a2:	67c1                	lui	a5,0x10
    14a4:	06078793          	addi	a5,a5,96 # 10060 <_data_lma+0x3df4>
    14a8:	100c                	addi	a1,sp,32
    14aa:	40040513          	addi	a0,s0,1024
    14ae:	d03e                	sw	a5,32(sp)
    14b0:	02011323          	sh	zero,38(sp)
    14b4:	02011423          	sh	zero,40(sp)
    14b8:	62f050ef          	jal	ra,72e6 <TIM_OC1Init>
    14bc:	100c                	addi	a1,sp,32
    14be:	40040513          	addi	a0,s0,1024
    14c2:	6ad050ef          	jal	ra,736e <TIM_OC3Init>
    14c6:	100c                	addi	a1,sp,32
    14c8:	40040513          	addi	a0,s0,1024
    14cc:	755050ef          	jal	ra,7420 <TIM_OC4Init>
    14d0:	4585                	li	a1,1
    14d2:	40040513          	addi	a0,s0,1024
    14d6:	7e9050ef          	jal	ra,74be <TIM_CtrlPWMOutputs>
    14da:	45a1                	li	a1,8
    14dc:	40040513          	addi	a0,s0,1024
    14e0:	028060ef          	jal	ra,7508 <TIM_OC1PreloadConfig>
    14e4:	45a1                	li	a1,8
    14e6:	40040513          	addi	a0,s0,1024
    14ea:	030060ef          	jal	ra,751a <TIM_OC2PreloadConfig>
    14ee:	45a1                	li	a1,8
    14f0:	40040513          	addi	a0,s0,1024
    14f4:	040060ef          	jal	ra,7534 <TIM_OC3PreloadConfig>
    14f8:	45a1                	li	a1,8
    14fa:	40040513          	addi	a0,s0,1024
    14fe:	048060ef          	jal	ra,7546 <TIM_OC4PreloadConfig>
    1502:	4581                	li	a1,0
    1504:	40040513          	addi	a0,s0,1024
    1508:	7e3050ef          	jal	ra,74ea <TIM_ARRPreloadConfig>
    150c:	2d000593          	li	a1,720
    1510:	40040513          	addi	a0,s0,1024
    1514:	04c060ef          	jal	ra,7560 <TIM_SetCompare1>
    1518:	2d000593          	li	a1,720
    151c:	40040513          	addi	a0,s0,1024
    1520:	046060ef          	jal	ra,7566 <TIM_SetCompare2>
    1524:	2d000593          	li	a1,720
    1528:	40040513          	addi	a0,s0,1024
    152c:	040060ef          	jal	ra,756c <TIM_SetCompare3>
    1530:	2d000593          	li	a1,720
    1534:	40040513          	addi	a0,s0,1024
    1538:	03a060ef          	jal	ra,7572 <TIM_SetCompare4>
    153c:	019000ef          	jal	ra,1d54 <hd_rumble_high_accurary_init>
    1540:	12d00793          	li	a5,301
    1544:	00f11023          	sh	a5,0(sp)
    1548:	4799                	li	a5,6
    154a:	00f10123          	sb	a5,2(sp)
    154e:	850a                	mv	a0,sp
    1550:	4785                	li	a5,1
    1552:	c23e                	sw	a5,4(sp)
    1554:	177050ef          	jal	ra,6eca <NVIC_Init>
    1558:	6789                	lui	a5,0x2
    155a:	fd278793          	addi	a5,a5,-46 # 1fd2 <TIM3_IRQHandler>
    155e:	e000e737          	lui	a4,0xe000e
    1562:	c37c                	sw	a5,68(a4)
    1564:	07b2                	slli	a5,a5,0xc
    1566:	83b1                	srli	a5,a5,0xc
    1568:	2d0006b7          	lui	a3,0x2d000
    156c:	8fd5                	or	a5,a5,a3
    156e:	d73c                	sw	a5,104(a4)
    1570:	4585                	li	a1,1
    1572:	40040513          	addi	a0,s0,1024
    1576:	72d050ef          	jal	ra,74a2 <TIM_Cmd>
    157a:	6145                	addi	sp,sp,48
    157c:	c19fe06f          	j	194 <__riscv_restore_0>

00001580 <hd_rumble_set_status>:
    1580:	85aa                	mv	a1,a0
    1582:	40000537          	lui	a0,0x40000
    1586:	40050513          	addi	a0,a0,1024 # 40000400 <_eusrstack+0x1fffb400>
    158a:	7190506f          	j	74a2 <TIM_Cmd>

0000158e <ApplyCommand>:
    158e:	882a                	mv	a6,a0
    1590:	853a                	mv	a0,a4
    1592:	4709                	li	a4,2
    1594:	00e80a63          	beq	a6,a4,15a8 <ApplyCommand+0x1a>
    1598:	470d                	li	a4,3
    159a:	00e80e63          	beq	a6,a4,15b6 <ApplyCommand+0x28>
    159e:	8532                	mv	a0,a2
    15a0:	02080563          	beqz	a6,15ca <ApplyCommand+0x3c>
    15a4:	8536                	mv	a0,a3
    15a6:	8082                	ret
    15a8:	02a5c163          	blt	a1,a0,15ca <ApplyCommand+0x3c>
    15ac:	852e                	mv	a0,a1
    15ae:	00b7dc63          	bge	a5,a1,15c6 <ApplyCommand+0x38>
    15b2:	853e                	mv	a0,a5
    15b4:	a809                	j	15c6 <ApplyCommand+0x38>
    15b6:	962e                	add	a2,a2,a1
    15b8:	0642                	slli	a2,a2,0x10
    15ba:	8641                	srai	a2,a2,0x10
    15bc:	00a64763          	blt	a2,a0,15ca <ApplyCommand+0x3c>
    15c0:	8532                	mv	a0,a2
    15c2:	fec7c8e3          	blt	a5,a2,15b2 <ApplyCommand+0x24>
    15c6:	0542                	slli	a0,a0,0x10
    15c8:	8541                	srai	a0,a0,0x10
    15ca:	8082                	ret

000015cc <ApplyAmCommand>:
    15cc:	4719                	li	a4,6
    15ce:	02e50533          	mul	a0,a0,a4
    15d2:	200007b7          	lui	a5,0x20000
    15d6:	00078793          	mv	a5,a5
    15da:	862e                	mv	a2,a1
    15dc:	4701                	li	a4,0
    15de:	4681                	li	a3,0
    15e0:	953e                	add	a0,a0,a5
    15e2:	00251583          	lh	a1,2(a0)
    15e6:	00054503          	lbu	a0,0(a0)
    15ea:	10000793          	li	a5,256
    15ee:	b745                	j	158e <ApplyCommand>

000015f0 <ApplyFmCommand>:
    15f0:	4719                	li	a4,6
    15f2:	02e50533          	mul	a0,a0,a4
    15f6:	200007b7          	lui	a5,0x20000
    15fa:	00078793          	mv	a5,a5
    15fe:	862e                	mv	a2,a1
    1600:	0c000713          	li	a4,192
    1604:	10000693          	li	a3,256
    1608:	953e                	add	a0,a0,a5
    160a:	00451583          	lh	a1,4(a0)
    160e:	00154503          	lbu	a0,1(a0)
    1612:	14000793          	li	a5,320
    1616:	bfa5                	j	158e <ApplyCommand>

00001618 <get_hd_rumble_pack>:
    1618:	8bc18713          	addi	a4,gp,-1860 # 20001964 <m_state>
    161c:	4314                	lw	a3,0(a4)
    161e:	4358                	lw	a4,4(a4)
    1620:	050e                	slli	a0,a0,0x3
    1622:	4d818793          	addi	a5,gp,1240 # 20002580 <linear_samples>
    1626:	97aa                	add	a5,a5,a0
    1628:	c394                	sw	a3,0(a5)
    162a:	c3d8                	sw	a4,4(a5)
    162c:	8082                	ret

0000162e <deocde_hd_rumble_format1>:
    162e:	b43fe2ef          	jal	t0,170 <__riscv_save_0>
    1632:	00354483          	lbu	s1,3(a0)
    1636:	8bc18413          	addi	s0,gp,-1860 # 20001964 <m_state>
    163a:	00041583          	lh	a1,0(s0)
    163e:	8085                	srli	s1,s1,0x1
    1640:	88fd                	andi	s1,s1,31
    1642:	892a                	mv	s2,a0
    1644:	8526                	mv	a0,s1
    1646:	3759                	jal	15cc <ApplyAmCommand>
    1648:	00241583          	lh	a1,2(s0)
    164c:	00a41023          	sh	a0,0(s0)
    1650:	8526                	mv	a0,s1
    1652:	3f79                	jal	15f0 <ApplyFmCommand>
    1654:	00394483          	lbu	s1,3(s2)
    1658:	00294783          	lbu	a5,2(s2)
    165c:	00441583          	lh	a1,4(s0)
    1660:	8885                	andi	s1,s1,1
    1662:	8391                	srli	a5,a5,0x4
    1664:	0492                	slli	s1,s1,0x4
    1666:	8cdd                	or	s1,s1,a5
    1668:	00a41123          	sh	a0,2(s0)
    166c:	8526                	mv	a0,s1
    166e:	3fb9                	jal	15cc <ApplyAmCommand>
    1670:	00641583          	lh	a1,6(s0)
    1674:	00a41223          	sh	a0,4(s0)
    1678:	8526                	mv	a0,s1
    167a:	3f9d                	jal	15f0 <ApplyFmCommand>
    167c:	00a41323          	sh	a0,6(s0)
    1680:	4501                	li	a0,0
    1682:	3f59                	jal	1618 <get_hd_rumble_pack>
    1684:	4705                	li	a4,1
    1686:	8ce182a3          	sb	a4,-1851(gp) # 2000196d <decoded_cnt>
    168a:	b0bfe06f          	j	194 <__riscv_restore_0>

0000168e <decode_hd_rumble_format1long>:
    168e:	ae3fe2ef          	jal	t0,170 <__riscv_save_0>
    1692:	00354703          	lbu	a4,3(a0)
    1696:	00254783          	lbu	a5,2(a0)
    169a:	20000637          	lui	a2,0x20000
    169e:	03f77713          	andi	a4,a4,63
    16a2:	0077d693          	srli	a3,a5,0x7
    16a6:	0706                	slli	a4,a4,0x1
    16a8:	8f55                	or	a4,a4,a3
    16aa:	00171593          	slli	a1,a4,0x1
    16ae:	1c060693          	addi	a3,a2,448 # 200001c0 <amp_exp2_index_lookup_tb>
    16b2:	96ae                	add	a3,a3,a1
    16b4:	00069583          	lh	a1,0(a3) # 2d000000 <_eusrstack+0xcffb000>
    16b8:	1c060613          	addi	a2,a2,448
    16bc:	8ab19e23          	sh	a1,-1860(gp) # 20001964 <m_state>
    16c0:	8bc18693          	addi	a3,gp,-1860 # 20001964 <m_state>
    16c4:	c589                	beqz	a1,16ce <decode_hd_rumble_format1long+0x40>
    16c6:	200025b7          	lui	a1,0x20002
    16ca:	8ae5a623          	sw	a4,-1876(a1) # 200018ac <hliner>
    16ce:	20000737          	lui	a4,0x20000
    16d2:	07f7f793          	andi	a5,a5,127
    16d6:	0c070713          	addi	a4,a4,192 # 200000c0 <freq_exp2_index_lookup_tb>
    16da:	0786                	slli	a5,a5,0x1
    16dc:	97ba                	add	a5,a5,a4
    16de:	0007d783          	lhu	a5,0(a5) # 20000000 <CommandTable>
    16e2:	00f69123          	sh	a5,2(a3)
    16e6:	00154783          	lbu	a5,1(a0)
    16ea:	0fe7f793          	andi	a5,a5,254
    16ee:	963e                	add	a2,a2,a5
    16f0:	00065783          	lhu	a5,0(a2)
    16f4:	00054603          	lbu	a2,0(a0)
    16f8:	00f69223          	sh	a5,4(a3)
    16fc:	00154783          	lbu	a5,1(a0)
    1700:	8209                	srli	a2,a2,0x2
    1702:	4501                	li	a0,0
    1704:	8b85                	andi	a5,a5,1
    1706:	079a                	slli	a5,a5,0x6
    1708:	8fd1                	or	a5,a5,a2
    170a:	0786                	slli	a5,a5,0x1
    170c:	973e                	add	a4,a4,a5
    170e:	00075783          	lhu	a5,0(a4)
    1712:	00f69323          	sh	a5,6(a3)
    1716:	3709                	jal	1618 <get_hd_rumble_pack>
    1718:	4705                	li	a4,1
    171a:	8ce182a3          	sb	a4,-1851(gp) # 2000196d <decoded_cnt>
    171e:	a77fe06f          	j	194 <__riscv_restore_0>

00001722 <decode_hd_rumble_format1full>:
    1722:	a4ffe2ef          	jal	t0,170 <__riscv_save_0>
    1726:	00354783          	lbu	a5,3(a0)
    172a:	00254683          	lbu	a3,2(a0)
    172e:	00054703          	lbu	a4,0(a0)
    1732:	03f7f793          	andi	a5,a5,63
    1736:	829d                	srli	a3,a3,0x7
    1738:	0786                	slli	a5,a5,0x1
    173a:	00477613          	andi	a2,a4,4
    173e:	8fd5                	or	a5,a5,a3
    1740:	8b05                	andi	a4,a4,1
    1742:	84aa                	mv	s1,a0
    1744:	8bc18413          	addi	s0,gp,-1860 # 20001964 <m_state>
    1748:	0786                	slli	a5,a5,0x1
    174a:	0c070963          	beqz	a4,181c <decode_hd_rumble_format1full+0xfa>
    174e:	0a060d63          	beqz	a2,1808 <decode_hd_rumble_format1full+0xe6>
    1752:	20000737          	lui	a4,0x20000
    1756:	0c070713          	addi	a4,a4,192 # 200000c0 <freq_exp2_index_lookup_tb>
    175a:	97ba                	add	a5,a5,a4
    175c:	0007d783          	lhu	a5,0(a5)
    1760:	00f41323          	sh	a5,6(s0)
    1764:	4501                	li	a0,0
    1766:	3d4d                	jal	1618 <get_hd_rumble_pack>
    1768:	0024c903          	lbu	s2,2(s1)
    176c:	00041583          	lh	a1,0(s0)
    1770:	00295913          	srli	s2,s2,0x2
    1774:	01f97913          	andi	s2,s2,31
    1778:	854a                	mv	a0,s2
    177a:	3d89                	jal	15cc <ApplyAmCommand>
    177c:	00241583          	lh	a1,2(s0)
    1780:	00a41023          	sh	a0,0(s0)
    1784:	854a                	mv	a0,s2
    1786:	35ad                	jal	15f0 <ApplyFmCommand>
    1788:	0024c903          	lbu	s2,2(s1)
    178c:	0014c783          	lbu	a5,1(s1)
    1790:	00441583          	lh	a1,4(s0)
    1794:	00397913          	andi	s2,s2,3
    1798:	8395                	srli	a5,a5,0x5
    179a:	090e                	slli	s2,s2,0x3
    179c:	00f96933          	or	s2,s2,a5
    17a0:	00a41123          	sh	a0,2(s0)
    17a4:	854a                	mv	a0,s2
    17a6:	351d                	jal	15cc <ApplyAmCommand>
    17a8:	00641583          	lh	a1,6(s0)
    17ac:	00a41223          	sh	a0,4(s0)
    17b0:	854a                	mv	a0,s2
    17b2:	3d3d                	jal	15f0 <ApplyFmCommand>
    17b4:	00a41323          	sh	a0,6(s0)
    17b8:	4505                	li	a0,1
    17ba:	3db9                	jal	1618 <get_hd_rumble_pack>
    17bc:	0014c903          	lbu	s2,1(s1)
    17c0:	00041583          	lh	a1,0(s0)
    17c4:	01f97913          	andi	s2,s2,31
    17c8:	854a                	mv	a0,s2
    17ca:	3509                	jal	15cc <ApplyAmCommand>
    17cc:	00241583          	lh	a1,2(s0)
    17d0:	00a41023          	sh	a0,0(s0)
    17d4:	854a                	mv	a0,s2
    17d6:	3d29                	jal	15f0 <ApplyFmCommand>
    17d8:	0004c483          	lbu	s1,0(s1)
    17dc:	00441583          	lh	a1,4(s0)
    17e0:	00a41123          	sh	a0,2(s0)
    17e4:	808d                	srli	s1,s1,0x3
    17e6:	8526                	mv	a0,s1
    17e8:	33d5                	jal	15cc <ApplyAmCommand>
    17ea:	00641583          	lh	a1,6(s0)
    17ee:	00a41223          	sh	a0,4(s0)
    17f2:	8526                	mv	a0,s1
    17f4:	3bf5                	jal	15f0 <ApplyFmCommand>
    17f6:	00a41323          	sh	a0,6(s0)
    17fa:	4509                	li	a0,2
    17fc:	3d31                	jal	1618 <get_hd_rumble_pack>
    17fe:	470d                	li	a4,3
    1800:	8ce182a3          	sb	a4,-1851(gp) # 2000196d <decoded_cnt>
    1804:	991fe06f          	j	194 <__riscv_restore_0>
    1808:	20000737          	lui	a4,0x20000
    180c:	1c070713          	addi	a4,a4,448 # 200001c0 <amp_exp2_index_lookup_tb>
    1810:	97ba                	add	a5,a5,a4
    1812:	0007d783          	lhu	a5,0(a5)
    1816:	00f41223          	sh	a5,4(s0)
    181a:	b7a9                	j	1764 <decode_hd_rumble_format1full+0x42>
    181c:	ca19                	beqz	a2,1832 <decode_hd_rumble_format1full+0x110>
    181e:	20000737          	lui	a4,0x20000
    1822:	0c070713          	addi	a4,a4,192 # 200000c0 <freq_exp2_index_lookup_tb>
    1826:	97ba                	add	a5,a5,a4
    1828:	0007d783          	lhu	a5,0(a5)
    182c:	00f41123          	sh	a5,2(s0)
    1830:	bf15                	j	1764 <decode_hd_rumble_format1full+0x42>
    1832:	20000737          	lui	a4,0x20000
    1836:	1c070713          	addi	a4,a4,448 # 200001c0 <amp_exp2_index_lookup_tb>
    183a:	97ba                	add	a5,a5,a4
    183c:	0007d783          	lhu	a5,0(a5)
    1840:	00f41023          	sh	a5,0(s0)
    1844:	b705                	j	1764 <decode_hd_rumble_format1full+0x42>

00001846 <decode_hd_rumble_format2>:
    1846:	92bfe2ef          	jal	t0,170 <__riscv_save_0>
    184a:	00354903          	lbu	s2,3(a0)
    184e:	8bc18413          	addi	s0,gp,-1860 # 20001964 <m_state>
    1852:	00041583          	lh	a1,0(s0)
    1856:	00195913          	srli	s2,s2,0x1
    185a:	01f97913          	andi	s2,s2,31
    185e:	84aa                	mv	s1,a0
    1860:	854a                	mv	a0,s2
    1862:	33ad                	jal	15cc <ApplyAmCommand>
    1864:	00241583          	lh	a1,2(s0)
    1868:	00a41023          	sh	a0,0(s0)
    186c:	854a                	mv	a0,s2
    186e:	3349                	jal	15f0 <ApplyFmCommand>
    1870:	0034c903          	lbu	s2,3(s1)
    1874:	0024c783          	lbu	a5,2(s1)
    1878:	00441583          	lh	a1,4(s0)
    187c:	00197913          	andi	s2,s2,1
    1880:	8391                	srli	a5,a5,0x4
    1882:	0912                	slli	s2,s2,0x4
    1884:	00f96933          	or	s2,s2,a5
    1888:	00a41123          	sh	a0,2(s0)
    188c:	854a                	mv	a0,s2
    188e:	3b3d                	jal	15cc <ApplyAmCommand>
    1890:	00641583          	lh	a1,6(s0)
    1894:	00a41223          	sh	a0,4(s0)
    1898:	854a                	mv	a0,s2
    189a:	3b99                	jal	15f0 <ApplyFmCommand>
    189c:	00a41323          	sh	a0,6(s0)
    18a0:	4501                	li	a0,0
    18a2:	3b9d                	jal	1618 <get_hd_rumble_pack>
    18a4:	0024c903          	lbu	s2,2(s1)
    18a8:	0014c783          	lbu	a5,1(s1)
    18ac:	00041583          	lh	a1,0(s0)
    18b0:	00f97913          	andi	s2,s2,15
    18b4:	839d                	srli	a5,a5,0x7
    18b6:	0906                	slli	s2,s2,0x1
    18b8:	00f96933          	or	s2,s2,a5
    18bc:	854a                	mv	a0,s2
    18be:	3339                	jal	15cc <ApplyAmCommand>
    18c0:	00241583          	lh	a1,2(s0)
    18c4:	00a41023          	sh	a0,0(s0)
    18c8:	854a                	mv	a0,s2
    18ca:	331d                	jal	15f0 <ApplyFmCommand>
    18cc:	0014c483          	lbu	s1,1(s1)
    18d0:	00441583          	lh	a1,4(s0)
    18d4:	00a41123          	sh	a0,2(s0)
    18d8:	8089                	srli	s1,s1,0x2
    18da:	88fd                	andi	s1,s1,31
    18dc:	8526                	mv	a0,s1
    18de:	31fd                	jal	15cc <ApplyAmCommand>
    18e0:	00641583          	lh	a1,6(s0)
    18e4:	00a41223          	sh	a0,4(s0)
    18e8:	8526                	mv	a0,s1
    18ea:	3319                	jal	15f0 <ApplyFmCommand>
    18ec:	00a41323          	sh	a0,6(s0)
    18f0:	4505                	li	a0,1
    18f2:	331d                	jal	1618 <get_hd_rumble_pack>
    18f4:	4709                	li	a4,2
    18f6:	8ce182a3          	sb	a4,-1851(gp) # 2000196d <decoded_cnt>
    18fa:	89bfe06f          	j	194 <__riscv_restore_0>

000018fe <decode_hd_rumble_format2long>:
    18fe:	873fe2ef          	jal	t0,170 <__riscv_save_0>
    1902:	00354783          	lbu	a5,3(a0)
    1906:	00254483          	lbu	s1,2(a0)
    190a:	20000737          	lui	a4,0x20000
    190e:	03f7f793          	andi	a5,a5,63
    1912:	0074d693          	srli	a3,s1,0x7
    1916:	0786                	slli	a5,a5,0x1
    1918:	8fd5                	or	a5,a5,a3
    191a:	1c070713          	addi	a4,a4,448 # 200001c0 <amp_exp2_index_lookup_tb>
    191e:	0786                	slli	a5,a5,0x1
    1920:	97ba                	add	a5,a5,a4
    1922:	00054703          	lbu	a4,0(a0)
    1926:	00079683          	lh	a3,0(a5)
    192a:	200007b7          	lui	a5,0x20000
    192e:	0fe77613          	andi	a2,a4,254
    1932:	0c078793          	addi	a5,a5,192 # 200000c0 <freq_exp2_index_lookup_tb>
    1936:	97b2                	add	a5,a5,a2
    1938:	8089                	srli	s1,s1,0x2
    193a:	8b05                	andi	a4,a4,1
    193c:	00079783          	lh	a5,0(a5)
    1940:	892a                	mv	s2,a0
    1942:	88fd                	andi	s1,s1,31
    1944:	8bc18413          	addi	s0,gp,-1860 # 20001964 <m_state>
    1948:	c749                	beqz	a4,19d2 <decode_hd_rumble_format2long+0xd4>
    194a:	00041583          	lh	a1,0(s0)
    194e:	8526                	mv	a0,s1
    1950:	00d41223          	sh	a3,4(s0)
    1954:	00f41323          	sh	a5,6(s0)
    1958:	c75ff0ef          	jal	ra,15cc <ApplyAmCommand>
    195c:	00241583          	lh	a1,2(s0)
    1960:	00a41023          	sh	a0,0(s0)
    1964:	8526                	mv	a0,s1
    1966:	c8bff0ef          	jal	ra,15f0 <ApplyFmCommand>
    196a:	00a41123          	sh	a0,2(s0)
    196e:	4501                	li	a0,0
    1970:	ca9ff0ef          	jal	ra,1618 <get_hd_rumble_pack>
    1974:	00294483          	lbu	s1,2(s2)
    1978:	00194783          	lbu	a5,1(s2)
    197c:	00041583          	lh	a1,0(s0)
    1980:	888d                	andi	s1,s1,3
    1982:	8395                	srli	a5,a5,0x5
    1984:	048e                	slli	s1,s1,0x3
    1986:	8cdd                	or	s1,s1,a5
    1988:	8526                	mv	a0,s1
    198a:	c43ff0ef          	jal	ra,15cc <ApplyAmCommand>
    198e:	00241583          	lh	a1,2(s0)
    1992:	00a41023          	sh	a0,0(s0)
    1996:	8526                	mv	a0,s1
    1998:	c59ff0ef          	jal	ra,15f0 <ApplyFmCommand>
    199c:	00194483          	lbu	s1,1(s2)
    19a0:	00441583          	lh	a1,4(s0)
    19a4:	00a41123          	sh	a0,2(s0)
    19a8:	88fd                	andi	s1,s1,31
    19aa:	8526                	mv	a0,s1
    19ac:	c21ff0ef          	jal	ra,15cc <ApplyAmCommand>
    19b0:	00641583          	lh	a1,6(s0)
    19b4:	00a41223          	sh	a0,4(s0)
    19b8:	8526                	mv	a0,s1
    19ba:	c37ff0ef          	jal	ra,15f0 <ApplyFmCommand>
    19be:	00a41323          	sh	a0,6(s0)
    19c2:	4505                	li	a0,1
    19c4:	c55ff0ef          	jal	ra,1618 <get_hd_rumble_pack>
    19c8:	4709                	li	a4,2
    19ca:	8ce182a3          	sb	a4,-1851(gp) # 2000196d <decoded_cnt>
    19ce:	fc6fe06f          	j	194 <__riscv_restore_0>
    19d2:	00441583          	lh	a1,4(s0)
    19d6:	8526                	mv	a0,s1
    19d8:	00d41023          	sh	a3,0(s0)
    19dc:	00f41123          	sh	a5,2(s0)
    19e0:	bedff0ef          	jal	ra,15cc <ApplyAmCommand>
    19e4:	00641583          	lh	a1,6(s0)
    19e8:	00a41223          	sh	a0,4(s0)
    19ec:	8526                	mv	a0,s1
    19ee:	c03ff0ef          	jal	ra,15f0 <ApplyFmCommand>
    19f2:	00a41323          	sh	a0,6(s0)
    19f6:	bfa5                	j	196e <decode_hd_rumble_format2long+0x70>

000019f8 <decode_hd_rumble_format3>:
    19f8:	f78fe2ef          	jal	t0,170 <__riscv_save_0>
    19fc:	00354903          	lbu	s2,3(a0)
    1a00:	8bc18413          	addi	s0,gp,-1860 # 20001964 <m_state>
    1a04:	00041583          	lh	a1,0(s0)
    1a08:	00195913          	srli	s2,s2,0x1
    1a0c:	01f97913          	andi	s2,s2,31
    1a10:	84aa                	mv	s1,a0
    1a12:	854a                	mv	a0,s2
    1a14:	bb9ff0ef          	jal	ra,15cc <ApplyAmCommand>
    1a18:	00241583          	lh	a1,2(s0)
    1a1c:	00a41023          	sh	a0,0(s0)
    1a20:	854a                	mv	a0,s2
    1a22:	bcfff0ef          	jal	ra,15f0 <ApplyFmCommand>
    1a26:	0034c903          	lbu	s2,3(s1)
    1a2a:	0024c783          	lbu	a5,2(s1)
    1a2e:	00441583          	lh	a1,4(s0)
    1a32:	00197913          	andi	s2,s2,1
    1a36:	8391                	srli	a5,a5,0x4
    1a38:	0912                	slli	s2,s2,0x4
    1a3a:	00f96933          	or	s2,s2,a5
    1a3e:	00a41123          	sh	a0,2(s0)
    1a42:	854a                	mv	a0,s2
    1a44:	b89ff0ef          	jal	ra,15cc <ApplyAmCommand>
    1a48:	00641583          	lh	a1,6(s0)
    1a4c:	00a41223          	sh	a0,4(s0)
    1a50:	854a                	mv	a0,s2
    1a52:	b9fff0ef          	jal	ra,15f0 <ApplyFmCommand>
    1a56:	00a41323          	sh	a0,6(s0)
    1a5a:	4501                	li	a0,0
    1a5c:	bbdff0ef          	jal	ra,1618 <get_hd_rumble_pack>
    1a60:	0024c903          	lbu	s2,2(s1)
    1a64:	0014c783          	lbu	a5,1(s1)
    1a68:	00041583          	lh	a1,0(s0)
    1a6c:	00f97913          	andi	s2,s2,15
    1a70:	839d                	srli	a5,a5,0x7
    1a72:	0906                	slli	s2,s2,0x1
    1a74:	00f96933          	or	s2,s2,a5
    1a78:	854a                	mv	a0,s2
    1a7a:	b53ff0ef          	jal	ra,15cc <ApplyAmCommand>
    1a7e:	00241583          	lh	a1,2(s0)
    1a82:	00a41023          	sh	a0,0(s0)
    1a86:	854a                	mv	a0,s2
    1a88:	b69ff0ef          	jal	ra,15f0 <ApplyFmCommand>
    1a8c:	0014c903          	lbu	s2,1(s1)
    1a90:	00441583          	lh	a1,4(s0)
    1a94:	00a41123          	sh	a0,2(s0)
    1a98:	00295913          	srli	s2,s2,0x2
    1a9c:	01f97913          	andi	s2,s2,31
    1aa0:	854a                	mv	a0,s2
    1aa2:	b2bff0ef          	jal	ra,15cc <ApplyAmCommand>
    1aa6:	00641583          	lh	a1,6(s0)
    1aaa:	00a41223          	sh	a0,4(s0)
    1aae:	854a                	mv	a0,s2
    1ab0:	b41ff0ef          	jal	ra,15f0 <ApplyFmCommand>
    1ab4:	00a41323          	sh	a0,6(s0)
    1ab8:	4505                	li	a0,1
    1aba:	b5fff0ef          	jal	ra,1618 <get_hd_rumble_pack>
    1abe:	0014c903          	lbu	s2,1(s1)
    1ac2:	0004c783          	lbu	a5,0(s1)
    1ac6:	00041583          	lh	a1,0(s0)
    1aca:	00397913          	andi	s2,s2,3
    1ace:	8395                	srli	a5,a5,0x5
    1ad0:	090e                	slli	s2,s2,0x3
    1ad2:	00f96933          	or	s2,s2,a5
    1ad6:	854a                	mv	a0,s2
    1ad8:	af5ff0ef          	jal	ra,15cc <ApplyAmCommand>
    1adc:	00241583          	lh	a1,2(s0)
    1ae0:	00a41023          	sh	a0,0(s0)
    1ae4:	854a                	mv	a0,s2
    1ae6:	b0bff0ef          	jal	ra,15f0 <ApplyFmCommand>
    1aea:	0004c483          	lbu	s1,0(s1)
    1aee:	00441583          	lh	a1,4(s0)
    1af2:	00a41123          	sh	a0,2(s0)
    1af6:	88fd                	andi	s1,s1,31
    1af8:	8526                	mv	a0,s1
    1afa:	ad3ff0ef          	jal	ra,15cc <ApplyAmCommand>
    1afe:	00641583          	lh	a1,6(s0)
    1b02:	00a41223          	sh	a0,4(s0)
    1b06:	8526                	mv	a0,s1
    1b08:	ae9ff0ef          	jal	ra,15f0 <ApplyFmCommand>
    1b0c:	00a41323          	sh	a0,6(s0)
    1b10:	4509                	li	a0,2
    1b12:	b07ff0ef          	jal	ra,1618 <get_hd_rumble_pack>
    1b16:	470d                	li	a4,3
    1b18:	8ce182a3          	sb	a4,-1851(gp) # 2000196d <decoded_cnt>
    1b1c:	e78fe06f          	j	194 <__riscv_restore_0>

00001b20 <decode_hd_rumble_multiformat_high_acc>:
    1b20:	e20fe2ef          	jal	t0,140 <__riscv_save_12>
    1b24:	00354703          	lbu	a4,3(a0)
    1b28:	8c018223          	sb	zero,-1852(gp) # 2000196c <global_sample_channel>
    1b2c:	8319                	srli	a4,a4,0x6
    1b2e:	4689                	li	a3,2
    1b30:	842e                	mv	s0,a1
    1b32:	4d818493          	addi	s1,gp,1240 # 20002580 <linear_samples>
    1b36:	0cd70563          	beq	a4,a3,1c00 <decode_hd_rumble_multiformat_high_acc+0xe0>
    1b3a:	468d                	li	a3,3
    1b3c:	0ed70063          	beq	a4,a3,1c1c <decode_hd_rumble_multiformat_high_acc+0xfc>
    1b40:	4685                	li	a3,1
    1b42:	04d71363          	bne	a4,a3,1b88 <decode_hd_rumble_multiformat_high_acc+0x68>
    1b46:	00154703          	lbu	a4,1(a0)
    1b4a:	00254783          	lbu	a5,2(a0)
    1b4e:	00054683          	lbu	a3,0(a0)
    1b52:	0722                	slli	a4,a4,0x8
    1b54:	8bbd                	andi	a5,a5,15
    1b56:	8f55                	or	a4,a4,a3
    1b58:	07c2                	slli	a5,a5,0x10
    1b5a:	8fd9                	or	a5,a5,a4
    1b5c:	ebd1                	bnez	a5,1bf0 <decode_hd_rumble_multiformat_high_acc+0xd0>
    1b5e:	ad1ff0ef          	jal	ra,162e <deocde_hd_rumble_format1>
    1b62:	20000c37          	lui	s8,0x20000
    1b66:	4d01                	li	s10,0
    1b68:	8ba6                	mv	s7,s1
    1b6a:	8b418a13          	addi	s4,gp,-1868 # 2000195c <sample>
    1b6e:	2c0c0c13          	addi	s8,s8,704 # 200002c0 <exp2_lookup_tb>
    1b72:	28018c93          	addi	s9,gp,640 # 20002328 <user_config>
    1b76:	14000d93          	li	s11,320
    1b7a:	502f9937          	lui	s2,0x502f9
    1b7e:	49a5                	li	s3,9
    1b80:	8c51c783          	lbu	a5,-1851(gp) # 2000196d <decoded_cnt>
    1b84:	08fd4e63          	blt	s10,a5,1c20 <decode_hd_rumble_multiformat_high_acc+0x100>
    1b88:	00344783          	lbu	a5,3(s0)
    1b8c:	4705                	li	a4,1
    1b8e:	8ce18223          	sb	a4,-1852(gp) # 2000196c <global_sample_channel>
    1b92:	8c0182a3          	sb	zero,-1851(gp) # 2000196d <decoded_cnt>
    1b96:	8399                	srli	a5,a5,0x6
    1b98:	4689                	li	a3,2
    1b9a:	10d78d63          	beq	a5,a3,1cb4 <decode_hd_rumble_multiformat_high_acc+0x194>
    1b9e:	468d                	li	a3,3
    1ba0:	12d78963          	beq	a5,a3,1cd2 <decode_hd_rumble_multiformat_high_acc+0x1b2>
    1ba4:	02e79263          	bne	a5,a4,1bc8 <decode_hd_rumble_multiformat_high_acc+0xa8>
    1ba8:	00144703          	lbu	a4,1(s0)
    1bac:	00244783          	lbu	a5,2(s0)
    1bb0:	00044683          	lbu	a3,0(s0)
    1bb4:	0722                	slli	a4,a4,0x8
    1bb6:	8bbd                	andi	a5,a5,15
    1bb8:	8f55                	or	a4,a4,a3
    1bba:	07c2                	slli	a5,a5,0x10
    1bbc:	8fd9                	or	a5,a5,a4
    1bbe:	0e079263          	bnez	a5,1ca2 <decode_hd_rumble_multiformat_high_acc+0x182>
    1bc2:	8522                	mv	a0,s0
    1bc4:	a6bff0ef          	jal	ra,162e <deocde_hd_rumble_format1>
    1bc8:	20000a37          	lui	s4,0x20000
    1bcc:	4b81                	li	s7,0
    1bce:	8b418413          	addi	s0,gp,-1868 # 2000195c <sample>
    1bd2:	2c0a0a13          	addi	s4,s4,704 # 200002c0 <exp2_lookup_tb>
    1bd6:	28018b13          	addi	s6,gp,640 # 20002328 <user_config>
    1bda:	14000c13          	li	s8,320
    1bde:	502f9937          	lui	s2,0x502f9
    1be2:	49a5                	li	s3,9
    1be4:	8c51c783          	lbu	a5,-1851(gp) # 2000196d <decoded_cnt>
    1be8:	0efbc963          	blt	s7,a5,1cda <decode_hd_rumble_multiformat_high_acc+0x1ba>
    1bec:	d90fe06f          	j	17c <__riscv_restore_12>
    1bf0:	8a8d                	andi	a3,a3,3
    1bf2:	e681                	bnez	a3,1bfa <decode_hd_rumble_multiformat_high_acc+0xda>
    1bf4:	a9bff0ef          	jal	ra,168e <decode_hd_rumble_format1long>
    1bf8:	b7ad                	j	1b62 <decode_hd_rumble_multiformat_high_acc+0x42>
    1bfa:	b29ff0ef          	jal	ra,1722 <decode_hd_rumble_format1full>
    1bfe:	b795                	j	1b62 <decode_hd_rumble_multiformat_high_acc+0x42>
    1c00:	00154783          	lbu	a5,1(a0)
    1c04:	00054703          	lbu	a4,0(a0)
    1c08:	8b8d                	andi	a5,a5,3
    1c0a:	07a2                	slli	a5,a5,0x8
    1c0c:	8fd9                	or	a5,a5,a4
    1c0e:	e781                	bnez	a5,1c16 <decode_hd_rumble_multiformat_high_acc+0xf6>
    1c10:	c37ff0ef          	jal	ra,1846 <decode_hd_rumble_format2>
    1c14:	b7b9                	j	1b62 <decode_hd_rumble_multiformat_high_acc+0x42>
    1c16:	ce9ff0ef          	jal	ra,18fe <decode_hd_rumble_format2long>
    1c1a:	b7a1                	j	1b62 <decode_hd_rumble_multiformat_high_acc+0x42>
    1c1c:	3bf1                	jal	19f8 <decode_hd_rumble_format3>
    1c1e:	b791                	j	1b62 <decode_hd_rumble_multiformat_high_acc+0x42>
    1c20:	004b9703          	lh	a4,4(s7) # 40004 <_data_lma+0x33d98>
    1c24:	003cc783          	lbu	a5,3(s9)
    1c28:	4681                	li	a3,0
    1c2a:	070a                	slli	a4,a4,0x2
    1c2c:	9762                	add	a4,a4,s8
    1c2e:	4318                	lw	a4,0(a4)
    1c30:	854a                	mv	a0,s2
    1c32:	85ce                	mv	a1,s3
    1c34:	02e787b3          	mul	a5,a5,a4
    1c38:	0d05                	addi	s10,s10,1
    1c3a:	0ba1                	addi	s7,s7,8
    1c3c:	83ad                	srli	a5,a5,0xb
    1c3e:	00fa2223          	sw	a5,4(s4)
    1c42:	ffeb9783          	lh	a5,-2(s7)
    1c46:	078a                	slli	a5,a5,0x2
    1c48:	97e2                	add	a5,a5,s8
    1c4a:	4390                	lw	a2,0(a5)
    1c4c:	02cd8633          	mul	a2,s11,a2
    1c50:	0605                	addi	a2,a2,1
    1c52:	3c4060ef          	jal	ra,8016 <__udivdi3>
    1c56:	00aa2023          	sw	a0,0(s4)
    1c5a:	85d2                	mv	a1,s4
    1c5c:	4501                	li	a0,0
    1c5e:	22b5                	jal	1dca <push_waveform>
    1c60:	ff8b9703          	lh	a4,-8(s7)
    1c64:	005cc783          	lbu	a5,5(s9)
    1c68:	0a000613          	li	a2,160
    1c6c:	070a                	slli	a4,a4,0x2
    1c6e:	9762                	add	a4,a4,s8
    1c70:	4318                	lw	a4,0(a4)
    1c72:	4681                	li	a3,0
    1c74:	854a                	mv	a0,s2
    1c76:	02e787b3          	mul	a5,a5,a4
    1c7a:	85ce                	mv	a1,s3
    1c7c:	83ad                	srli	a5,a5,0xb
    1c7e:	00fa2223          	sw	a5,4(s4)
    1c82:	ffab9783          	lh	a5,-6(s7)
    1c86:	078a                	slli	a5,a5,0x2
    1c88:	97e2                	add	a5,a5,s8
    1c8a:	439c                	lw	a5,0(a5)
    1c8c:	02f60633          	mul	a2,a2,a5
    1c90:	0605                	addi	a2,a2,1
    1c92:	384060ef          	jal	ra,8016 <__udivdi3>
    1c96:	00aa2023          	sw	a0,0(s4)
    1c9a:	85d2                	mv	a1,s4
    1c9c:	4509                	li	a0,2
    1c9e:	2235                	jal	1dca <push_waveform>
    1ca0:	b5c5                	j	1b80 <decode_hd_rumble_multiformat_high_acc+0x60>
    1ca2:	8a8d                	andi	a3,a3,3
    1ca4:	8522                	mv	a0,s0
    1ca6:	e681                	bnez	a3,1cae <decode_hd_rumble_multiformat_high_acc+0x18e>
    1ca8:	9e7ff0ef          	jal	ra,168e <decode_hd_rumble_format1long>
    1cac:	bf31                	j	1bc8 <decode_hd_rumble_multiformat_high_acc+0xa8>
    1cae:	a75ff0ef          	jal	ra,1722 <decode_hd_rumble_format1full>
    1cb2:	bf19                	j	1bc8 <decode_hd_rumble_multiformat_high_acc+0xa8>
    1cb4:	00144783          	lbu	a5,1(s0)
    1cb8:	00044703          	lbu	a4,0(s0)
    1cbc:	8522                	mv	a0,s0
    1cbe:	8b8d                	andi	a5,a5,3
    1cc0:	07a2                	slli	a5,a5,0x8
    1cc2:	8fd9                	or	a5,a5,a4
    1cc4:	e781                	bnez	a5,1ccc <decode_hd_rumble_multiformat_high_acc+0x1ac>
    1cc6:	b81ff0ef          	jal	ra,1846 <decode_hd_rumble_format2>
    1cca:	bdfd                	j	1bc8 <decode_hd_rumble_multiformat_high_acc+0xa8>
    1ccc:	c33ff0ef          	jal	ra,18fe <decode_hd_rumble_format2long>
    1cd0:	bde5                	j	1bc8 <decode_hd_rumble_multiformat_high_acc+0xa8>
    1cd2:	8522                	mv	a0,s0
    1cd4:	d25ff0ef          	jal	ra,19f8 <decode_hd_rumble_format3>
    1cd8:	bdc5                	j	1bc8 <decode_hd_rumble_multiformat_high_acc+0xa8>
    1cda:	00449703          	lh	a4,4(s1)
    1cde:	004b4783          	lbu	a5,4(s6)
    1ce2:	4681                	li	a3,0
    1ce4:	070a                	slli	a4,a4,0x2
    1ce6:	9752                	add	a4,a4,s4
    1ce8:	4318                	lw	a4,0(a4)
    1cea:	854a                	mv	a0,s2
    1cec:	85ce                	mv	a1,s3
    1cee:	02e787b3          	mul	a5,a5,a4
    1cf2:	0b85                	addi	s7,s7,1
    1cf4:	04a1                	addi	s1,s1,8
    1cf6:	83ad                	srli	a5,a5,0xb
    1cf8:	c05c                	sw	a5,4(s0)
    1cfa:	ffe49783          	lh	a5,-2(s1)
    1cfe:	078a                	slli	a5,a5,0x2
    1d00:	97d2                	add	a5,a5,s4
    1d02:	4390                	lw	a2,0(a5)
    1d04:	02cc0633          	mul	a2,s8,a2
    1d08:	0605                	addi	a2,a2,1
    1d0a:	30c060ef          	jal	ra,8016 <__udivdi3>
    1d0e:	c008                	sw	a0,0(s0)
    1d10:	85a2                	mv	a1,s0
    1d12:	4505                	li	a0,1
    1d14:	285d                	jal	1dca <push_waveform>
    1d16:	ff849703          	lh	a4,-8(s1)
    1d1a:	006b4783          	lbu	a5,6(s6)
    1d1e:	0a000613          	li	a2,160
    1d22:	070a                	slli	a4,a4,0x2
    1d24:	9752                	add	a4,a4,s4
    1d26:	4318                	lw	a4,0(a4)
    1d28:	4681                	li	a3,0
    1d2a:	854a                	mv	a0,s2
    1d2c:	02e787b3          	mul	a5,a5,a4
    1d30:	85ce                	mv	a1,s3
    1d32:	83ad                	srli	a5,a5,0xb
    1d34:	c05c                	sw	a5,4(s0)
    1d36:	ffa49783          	lh	a5,-6(s1)
    1d3a:	078a                	slli	a5,a5,0x2
    1d3c:	97d2                	add	a5,a5,s4
    1d3e:	439c                	lw	a5,0(a5)
    1d40:	02f60633          	mul	a2,a2,a5
    1d44:	0605                	addi	a2,a2,1
    1d46:	2d0060ef          	jal	ra,8016 <__udivdi3>
    1d4a:	c008                	sw	a0,0(s0)
    1d4c:	85a2                	mv	a1,s0
    1d4e:	450d                	li	a0,3
    1d50:	28ad                	jal	1dca <push_waveform>
    1d52:	bd49                	j	1be4 <decode_hd_rumble_multiformat_high_acc+0xc4>

00001d54 <hd_rumble_high_accurary_init>:
    1d54:	c1cfe2ef          	jal	t0,170 <__riscv_save_0>
    1d58:	200035b7          	lui	a1,0x20003
    1d5c:	20003537          	lui	a0,0x20003
    1d60:	46a1                	li	a3,8
    1d62:	02000613          	li	a2,32
    1d66:	89858593          	addi	a1,a1,-1896 # 20002898 <left_high_rb_buf>
    1d6a:	b3c50513          	addi	a0,a0,-1220 # 20002b3c <left_high_rb>
    1d6e:	54c030ef          	jal	ra,52ba <ring_buffer_init>
    1d72:	20003537          	lui	a0,0x20003
    1d76:	46a1                	li	a3,8
    1d78:	02000613          	li	a2,32
    1d7c:	6f018593          	addi	a1,gp,1776 # 20002798 <left_low_rb_buf>
    1d80:	ab050513          	addi	a0,a0,-1360 # 20002ab0 <left_low_rb>
    1d84:	536030ef          	jal	ra,52ba <ring_buffer_init>
    1d88:	20003537          	lui	a0,0x20003
    1d8c:	46a1                	li	a3,8
    1d8e:	02000613          	li	a2,32
    1d92:	5f018593          	addi	a1,gp,1520 # 20002698 <right_high_rb_buf>
    1d96:	a2450513          	addi	a0,a0,-1500 # 20002a24 <right_high_rb>
    1d9a:	520030ef          	jal	ra,52ba <ring_buffer_init>
    1d9e:	20003537          	lui	a0,0x20003
    1da2:	46a1                	li	a3,8
    1da4:	02000613          	li	a2,32
    1da8:	4f018593          	addi	a1,gp,1264 # 20002598 <right_low_rb_buf>
    1dac:	99850513          	addi	a0,a0,-1640 # 20002998 <right_low_rb>
    1db0:	50a030ef          	jal	ra,52ba <ring_buffer_init>
    1db4:	4785                	li	a5,1
    1db6:	8ef18c23          	sb	a5,-1800(gp) # 200019a0 <right_low_buf_stdby>
    1dba:	8ef18ca3          	sb	a5,-1799(gp) # 200019a1 <right_high_buf_stdby>
    1dbe:	8ef18d23          	sb	a5,-1798(gp) # 200019a2 <left_low_buf_stdby>
    1dc2:	8ef18da3          	sb	a5,-1797(gp) # 200019a3 <left_high_buf_stdby>
    1dc6:	bcefe06f          	j	194 <__riscv_restore_0>

00001dca <push_waveform>:
    1dca:	c1bd                	beqz	a1,1e30 <push_waveform+0x66>
    1dcc:	ba4fe2ef          	jal	t0,170 <__riscv_save_0>
    1dd0:	4789                	li	a5,2
    1dd2:	02f50a63          	beq	a0,a5,1e06 <push_waveform+0x3c>
    1dd6:	02a7e363          	bltu	a5,a0,1dfc <push_waveform+0x32>
    1dda:	ed0d                	bnez	a0,1e14 <push_waveform+0x4a>
    1ddc:	20003537          	lui	a0,0x20003
    1de0:	4681                	li	a3,0
    1de2:	4621                	li	a2,8
    1de4:	b3c50513          	addi	a0,a0,-1220 # 20002b3c <left_high_rb>
    1de8:	518030ef          	jal	ra,5300 <ring_buffer_push>
    1dec:	c919                	beqz	a0,1e02 <push_waveform+0x38>
    1dee:	85aa                	mv	a1,a0
    1df0:	6531                	lui	a0,0xc
    1df2:	83850513          	addi	a0,a0,-1992 # b838 <__errno+0x14c>
    1df6:	1a8060ef          	jal	ra,7f9e <printf>
    1dfa:	a021                	j	1e02 <push_waveform+0x38>
    1dfc:	478d                	li	a5,3
    1dfe:	02f50263          	beq	a0,a5,1e22 <push_waveform+0x58>
    1e02:	b92fe06f          	j	194 <__riscv_restore_0>
    1e06:	20003537          	lui	a0,0x20003
    1e0a:	4681                	li	a3,0
    1e0c:	4621                	li	a2,8
    1e0e:	ab050513          	addi	a0,a0,-1360 # 20002ab0 <left_low_rb>
    1e12:	bfd9                	j	1de8 <push_waveform+0x1e>
    1e14:	20003537          	lui	a0,0x20003
    1e18:	4681                	li	a3,0
    1e1a:	4621                	li	a2,8
    1e1c:	a2450513          	addi	a0,a0,-1500 # 20002a24 <right_high_rb>
    1e20:	b7e1                	j	1de8 <push_waveform+0x1e>
    1e22:	20003537          	lui	a0,0x20003
    1e26:	4681                	li	a3,0
    1e28:	4621                	li	a2,8
    1e2a:	99850513          	addi	a0,a0,-1640 # 20002998 <right_low_rb>
    1e2e:	bf6d                	j	1de8 <push_waveform+0x1e>
    1e30:	8082                	ret

00001e32 <push_waveform_into_buffer_task>:
    1e32:	b3efe2ef          	jal	t0,170 <__riscv_save_0>
    1e36:	8fb1c783          	lbu	a5,-1797(gp) # 200019a3 <left_high_buf_stdby>
    1e3a:	cf9d                	beqz	a5,1e78 <push_waveform_into_buffer_task+0x46>
    1e3c:	20003537          	lui	a0,0x20003
    1e40:	b3c50793          	addi	a5,a0,-1220 # 20002b3c <left_high_rb>
    1e44:	0877c683          	lbu	a3,135(a5)
    1e48:	ca85                	beqz	a3,1e78 <push_waveform_into_buffer_task+0x46>
    1e4a:	0847c783          	lbu	a5,132(a5)
    1e4e:	200036b7          	lui	a3,0x20003
    1e52:	89868693          	addi	a3,a3,-1896 # 20002898 <left_high_rb_buf>
    1e56:	078e                	slli	a5,a5,0x3
    1e58:	97b6                	add	a5,a5,a3
    1e5a:	4394                	lw	a3,0(a5)
    1e5c:	43dc                	lw	a5,4(a5)
    1e5e:	8e018da3          	sb	zero,-1797(gp) # 200019a3 <left_high_buf_stdby>
    1e62:	91818713          	addi	a4,gp,-1768 # 200019c0 <left_high_buf>
    1e66:	b3c50513          	addi	a0,a0,-1220
    1e6a:	c35c                	sw	a5,4(a4)
    1e6c:	c314                	sw	a3,0(a4)
    1e6e:	5a8030ef          	jal	ra,5416 <ring_buffer_pop>
    1e72:	4705                	li	a4,1
    1e74:	8ee18fa3          	sb	a4,-1793(gp) # 200019a7 <left_high_buf_rdy>
    1e78:	8fa1c783          	lbu	a5,-1798(gp) # 200019a2 <left_low_buf_stdby>
    1e7c:	cf8d                	beqz	a5,1eb6 <push_waveform_into_buffer_task+0x84>
    1e7e:	20003537          	lui	a0,0x20003
    1e82:	ab050793          	addi	a5,a0,-1360 # 20002ab0 <left_low_rb>
    1e86:	0877c683          	lbu	a3,135(a5)
    1e8a:	c695                	beqz	a3,1eb6 <push_waveform_into_buffer_task+0x84>
    1e8c:	0847c783          	lbu	a5,132(a5)
    1e90:	6f018693          	addi	a3,gp,1776 # 20002798 <left_low_rb_buf>
    1e94:	078e                	slli	a5,a5,0x3
    1e96:	97b6                	add	a5,a5,a3
    1e98:	4394                	lw	a3,0(a5)
    1e9a:	43dc                	lw	a5,4(a5)
    1e9c:	8e018d23          	sb	zero,-1798(gp) # 200019a2 <left_low_buf_stdby>
    1ea0:	91018713          	addi	a4,gp,-1776 # 200019b8 <left_low_buf>
    1ea4:	ab050513          	addi	a0,a0,-1360
    1ea8:	c35c                	sw	a5,4(a4)
    1eaa:	c314                	sw	a3,0(a4)
    1eac:	56a030ef          	jal	ra,5416 <ring_buffer_pop>
    1eb0:	4705                	li	a4,1
    1eb2:	8ee18f23          	sb	a4,-1794(gp) # 200019a6 <left_low_buf_rdy>
    1eb6:	8f91c783          	lbu	a5,-1799(gp) # 200019a1 <right_high_buf_stdby>
    1eba:	cf8d                	beqz	a5,1ef4 <push_waveform_into_buffer_task+0xc2>
    1ebc:	20003537          	lui	a0,0x20003
    1ec0:	a2450793          	addi	a5,a0,-1500 # 20002a24 <right_high_rb>
    1ec4:	0877c683          	lbu	a3,135(a5)
    1ec8:	c695                	beqz	a3,1ef4 <push_waveform_into_buffer_task+0xc2>
    1eca:	0847c783          	lbu	a5,132(a5)
    1ece:	5f018693          	addi	a3,gp,1520 # 20002698 <right_high_rb_buf>
    1ed2:	078e                	slli	a5,a5,0x3
    1ed4:	97b6                	add	a5,a5,a3
    1ed6:	4394                	lw	a3,0(a5)
    1ed8:	43dc                	lw	a5,4(a5)
    1eda:	8e018ca3          	sb	zero,-1799(gp) # 200019a1 <right_high_buf_stdby>
    1ede:	90818713          	addi	a4,gp,-1784 # 200019b0 <right_high_buf>
    1ee2:	a2450513          	addi	a0,a0,-1500
    1ee6:	c35c                	sw	a5,4(a4)
    1ee8:	c314                	sw	a3,0(a4)
    1eea:	52c030ef          	jal	ra,5416 <ring_buffer_pop>
    1eee:	4705                	li	a4,1
    1ef0:	8ee18ea3          	sb	a4,-1795(gp) # 200019a5 <right_high_buf_rdy>
    1ef4:	8f81c783          	lbu	a5,-1800(gp) # 200019a0 <right_low_buf_stdby>
    1ef8:	cf8d                	beqz	a5,1f32 <push_waveform_into_buffer_task+0x100>
    1efa:	20003537          	lui	a0,0x20003
    1efe:	99850793          	addi	a5,a0,-1640 # 20002998 <right_low_rb>
    1f02:	0877c683          	lbu	a3,135(a5)
    1f06:	c695                	beqz	a3,1f32 <push_waveform_into_buffer_task+0x100>
    1f08:	0847c783          	lbu	a5,132(a5)
    1f0c:	4f018693          	addi	a3,gp,1264 # 20002598 <right_low_rb_buf>
    1f10:	078e                	slli	a5,a5,0x3
    1f12:	97b6                	add	a5,a5,a3
    1f14:	4394                	lw	a3,0(a5)
    1f16:	43dc                	lw	a5,4(a5)
    1f18:	8e018c23          	sb	zero,-1800(gp) # 200019a0 <right_low_buf_stdby>
    1f1c:	90018713          	addi	a4,gp,-1792 # 200019a8 <right_low_buf>
    1f20:	99850513          	addi	a0,a0,-1640
    1f24:	c35c                	sw	a5,4(a4)
    1f26:	c314                	sw	a3,0(a4)
    1f28:	4ee030ef          	jal	ra,5416 <ring_buffer_pop>
    1f2c:	4705                	li	a4,1
    1f2e:	8ee18e23          	sb	a4,-1796(gp) # 200019a4 <right_low_buf_rdy>
    1f32:	a62fe06f          	j	194 <__riscv_restore_0>

00001f36 <step_forward>:
    1f36:	ce15                	beqz	a2,1f72 <step_forward+0x3c>
    1f38:	4198                	lw	a4,0(a1)
    1f3a:	67e1                	lui	a5,0x18
    1f3c:	6a078793          	addi	a5,a5,1696 # 186a0 <_data_lma+0xc434>
    1f40:	973e                	add	a4,a4,a5
    1f42:	c198                	sw	a4,0(a1)
    1f44:	00c77463          	bgeu	a4,a2,1f4c <step_forward+0x16>
    1f48:	4501                	li	a0,0
    1f4a:	8082                	ret
    1f4c:	02c756b3          	divu	a3,a4,a2
    1f50:	00055783          	lhu	a5,0(a0)
    1f54:	02c77733          	remu	a4,a4,a2
    1f58:	97b6                	add	a5,a5,a3
    1f5a:	07c2                	slli	a5,a5,0x10
    1f5c:	83c1                	srli	a5,a5,0x10
    1f5e:	00f51023          	sh	a5,0(a0)
    1f62:	c198                	sw	a4,0(a1)
    1f64:	00b7d713          	srli	a4,a5,0xb
    1f68:	d365                	beqz	a4,1f48 <step_forward+0x12>
    1f6a:	7ff7f793          	andi	a5,a5,2047
    1f6e:	00f51023          	sh	a5,0(a0)
    1f72:	4505                	li	a0,1
    1f74:	8082                	ret

00001f76 <rumble_pattern_check>:
    1f76:	9fafe2ef          	jal	t0,170 <__riscv_save_0>
    1f7a:	2801c783          	lbu	a5,640(gp) # 20002328 <user_config>
    1f7e:	872a                	mv	a4,a0
    1f80:	8436                	mv	s0,a3
    1f82:	0407f793          	andi	a5,a5,64
    1f86:	852e                	mv	a0,a1
    1f88:	4354                	lw	a3,4(a4)
    1f8a:	85b2                	mv	a1,a2
    1f8c:	c39d                	beqz	a5,1fb2 <rumble_pattern_check+0x3c>
    1f8e:	4785                	li	a5,1
    1f90:	ce89                	beqz	a3,1faa <rumble_pattern_check+0x34>
    1f92:	4310                	lw	a2,0(a4)
    1f94:	374d                	jal	1f36 <step_forward>
    1f96:	4781                	li	a5,0
    1f98:	c909                	beqz	a0,1faa <rumble_pattern_check+0x34>
    1f9a:	8c81a783          	lw	a5,-1848(gp) # 20001970 <tim3_counter>
    1f9e:	4018                	lw	a4,0(s0)
    1fa0:	8f99                	sub	a5,a5,a4
    1fa2:	0fa7b793          	sltiu	a5,a5,250
    1fa6:	0017c793          	xori	a5,a5,1
    1faa:	0ff7f513          	zext.b	a0,a5
    1fae:	9e6fe06f          	j	194 <__riscv_restore_0>
    1fb2:	ee81                	bnez	a3,1fca <rumble_pattern_check+0x54>
    1fb4:	8c81a503          	lw	a0,-1848(gp) # 20001970 <tim3_counter>
    1fb8:	401c                	lw	a5,0(s0)
    1fba:	8d1d                	sub	a0,a0,a5
    1fbc:	0fa53513          	sltiu	a0,a0,250
    1fc0:	00154513          	xori	a0,a0,1
    1fc4:	0ff57513          	zext.b	a0,a0
    1fc8:	b7dd                	j	1fae <rumble_pattern_check+0x38>
    1fca:	4310                	lw	a2,0(a4)
    1fcc:	37ad                	jal	1f36 <step_forward>
    1fce:	f17d                	bnez	a0,1fb4 <rumble_pattern_check+0x3e>
    1fd0:	bfd5                	j	1fc4 <rumble_pattern_check+0x4e>

00001fd2 <TIM3_IRQHandler>:
    1fd2:	40000537          	lui	a0,0x40000
    1fd6:	7179                	addi	sp,sp,-48
    1fd8:	4585                	li	a1,1
    1fda:	40050513          	addi	a0,a0,1024 # 40000400 <_eusrstack+0x1fffb400>
    1fde:	d622                	sw	s0,44(sp)
    1fe0:	d426                	sw	s1,40(sp)
    1fe2:	d24a                	sw	s2,36(sp)
    1fe4:	d04e                	sw	s3,32(sp)
    1fe6:	ce52                	sw	s4,28(sp)
    1fe8:	cc56                	sw	s5,24(sp)
    1fea:	ca5a                	sw	s6,20(sp)
    1fec:	c85e                	sw	s7,16(sp)
    1fee:	c662                	sw	s8,12(sp)
    1ff0:	c466                	sw	s9,8(sp)
    1ff2:	c26a                	sw	s10,4(sp)
    1ff4:	590050ef          	jal	ra,7584 <TIM_GetITStatus>
    1ff8:	4785                	li	a5,1
    1ffa:	1ef51063          	bne	a0,a5,21da <TIM3_IRQHandler+0x208>
    1ffe:	8c81a403          	lw	s0,-1848(gp) # 20001970 <tim3_counter>
    2002:	84aa                	mv	s1,a0
    2004:	0405                	addi	s0,s0,1
    2006:	93818513          	addi	a0,gp,-1736 # 200019e0 <left_high>
    200a:	8d818693          	addi	a3,gp,-1832 # 20001980 <left_high_tick>
    200e:	8ec18613          	addi	a2,gp,-1812 # 20001994 <left_high_sum>
    2012:	8f618593          	addi	a1,gp,-1802 # 2000199e <left_high_pos>
    2016:	8c81a423          	sw	s0,-1848(gp) # 20001970 <tim3_counter>
    201a:	3fb1                	jal	1f76 <rumble_pattern_check>
    201c:	93818993          	addi	s3,gp,-1736 # 200019e0 <left_high>
    2020:	c515                	beqz	a0,204c <TIM3_IRQHandler+0x7a>
    2022:	8ff1c703          	lbu	a4,-1793(gp) # 200019a7 <left_high_buf_rdy>
    2026:	c31d                	beqz	a4,204c <TIM3_IRQHandler+0x7a>
    2028:	8e018fa3          	sb	zero,-1793(gp) # 200019a7 <left_high_buf_rdy>
    202c:	91818793          	addi	a5,gp,-1768 # 200019c0 <left_high_buf>
    2030:	4398                	lw	a4,0(a5)
    2032:	43dc                	lw	a5,4(a5)
    2034:	8e019b23          	sh	zero,-1802(gp) # 2000199e <left_high_pos>
    2038:	00e9a023          	sw	a4,0(s3) # 40000 <_data_lma+0x33d94>
    203c:	00f9a223          	sw	a5,4(s3)
    2040:	8e01a623          	sw	zero,-1812(gp) # 20001994 <left_high_sum>
    2044:	8e918da3          	sb	s1,-1797(gp) # 200019a3 <left_high_buf_stdby>
    2048:	8c81ac23          	sw	s0,-1832(gp) # 20001980 <left_high_tick>
    204c:	93018513          	addi	a0,gp,-1744 # 200019d8 <left_low>
    2050:	8d418693          	addi	a3,gp,-1836 # 2000197c <left_low_tick>
    2054:	8e818613          	addi	a2,gp,-1816 # 20001990 <left_low_sum>
    2058:	8f418593          	addi	a1,gp,-1804 # 2000199c <left_low_pos>
    205c:	3f29                	jal	1f76 <rumble_pattern_check>
    205e:	93018913          	addi	s2,gp,-1744 # 200019d8 <left_low>
    2062:	c51d                	beqz	a0,2090 <TIM3_IRQHandler+0xbe>
    2064:	8fe1c703          	lbu	a4,-1794(gp) # 200019a6 <left_low_buf_rdy>
    2068:	c705                	beqz	a4,2090 <TIM3_IRQHandler+0xbe>
    206a:	8e018f23          	sb	zero,-1794(gp) # 200019a6 <left_low_buf_rdy>
    206e:	91018793          	addi	a5,gp,-1776 # 200019b8 <left_low_buf>
    2072:	4398                	lw	a4,0(a5)
    2074:	43dc                	lw	a5,4(a5)
    2076:	8e019a23          	sh	zero,-1804(gp) # 2000199c <left_low_pos>
    207a:	00e92023          	sw	a4,0(s2) # 502f9000 <_eusrstack+0x302f4000>
    207e:	00f92223          	sw	a5,4(s2)
    2082:	4705                	li	a4,1
    2084:	8e01a423          	sw	zero,-1816(gp) # 20001990 <left_low_sum>
    2088:	8ee18d23          	sb	a4,-1798(gp) # 200019a2 <left_low_buf_stdby>
    208c:	8c81aa23          	sw	s0,-1836(gp) # 2000197c <left_low_tick>
    2090:	92818513          	addi	a0,gp,-1752 # 200019d0 <right_high>
    2094:	8d018693          	addi	a3,gp,-1840 # 20001978 <right_high_tick>
    2098:	8e418613          	addi	a2,gp,-1820 # 2000198c <right_high_sum>
    209c:	8f218593          	addi	a1,gp,-1806 # 2000199a <right_high_pos>
    20a0:	ed7ff0ef          	jal	ra,1f76 <rumble_pattern_check>
    20a4:	92818493          	addi	s1,gp,-1752 # 200019d0 <right_high>
    20a8:	c50d                	beqz	a0,20d2 <TIM3_IRQHandler+0x100>
    20aa:	8fd1c703          	lbu	a4,-1795(gp) # 200019a5 <right_high_buf_rdy>
    20ae:	c315                	beqz	a4,20d2 <TIM3_IRQHandler+0x100>
    20b0:	8e018ea3          	sb	zero,-1795(gp) # 200019a5 <right_high_buf_rdy>
    20b4:	90818793          	addi	a5,gp,-1784 # 200019b0 <right_high_buf>
    20b8:	4398                	lw	a4,0(a5)
    20ba:	43dc                	lw	a5,4(a5)
    20bc:	8e019923          	sh	zero,-1806(gp) # 2000199a <right_high_pos>
    20c0:	c098                	sw	a4,0(s1)
    20c2:	c0dc                	sw	a5,4(s1)
    20c4:	4705                	li	a4,1
    20c6:	8e01a223          	sw	zero,-1820(gp) # 2000198c <right_high_sum>
    20ca:	8ee18ca3          	sb	a4,-1799(gp) # 200019a1 <right_high_buf_stdby>
    20ce:	8c81a823          	sw	s0,-1840(gp) # 20001978 <right_high_tick>
    20d2:	8cc18693          	addi	a3,gp,-1844 # 20001974 <right_low_tick>
    20d6:	8e018613          	addi	a2,gp,-1824 # 20001988 <right_low_sum>
    20da:	8f018593          	addi	a1,gp,-1808 # 20001998 <right_low_pos>
    20de:	92018513          	addi	a0,gp,-1760 # 200019c8 <right_low>
    20e2:	e95ff0ef          	jal	ra,1f76 <rumble_pattern_check>
    20e6:	92018693          	addi	a3,gp,-1760 # 200019c8 <right_low>
    20ea:	c50d                	beqz	a0,2114 <TIM3_IRQHandler+0x142>
    20ec:	8fc1c703          	lbu	a4,-1796(gp) # 200019a4 <right_low_buf_rdy>
    20f0:	c315                	beqz	a4,2114 <TIM3_IRQHandler+0x142>
    20f2:	8e018e23          	sb	zero,-1796(gp) # 200019a4 <right_low_buf_rdy>
    20f6:	90018793          	addi	a5,gp,-1792 # 200019a8 <right_low_buf>
    20fa:	4398                	lw	a4,0(a5)
    20fc:	43dc                	lw	a5,4(a5)
    20fe:	8e019823          	sh	zero,-1808(gp) # 20001998 <right_low_pos>
    2102:	c298                	sw	a4,0(a3)
    2104:	c2dc                	sw	a5,4(a3)
    2106:	4705                	li	a4,1
    2108:	8e01a023          	sw	zero,-1824(gp) # 20001988 <right_low_sum>
    210c:	8ee18c23          	sb	a4,-1800(gp) # 200019a0 <right_low_buf_stdby>
    2110:	8c81a623          	sw	s0,-1844(gp) # 20001974 <right_low_tick>
    2114:	8f61d783          	lhu	a5,-1802(gp) # 2000199e <left_high_pos>
    2118:	20000737          	lui	a4,0x20000
    211c:	7c070593          	addi	a1,a4,1984 # 200007c0 <ccr_lookup_tb>
    2120:	0786                	slli	a5,a5,0x1
    2122:	97ae                	add	a5,a5,a1
    2124:	0049a503          	lw	a0,4(s3)
    2128:	00079783          	lh	a5,0(a5)
    212c:	7c070713          	addi	a4,a4,1984
    2130:	02a787b3          	mul	a5,a5,a0
    2134:	8f41d503          	lhu	a0,-1804(gp) # 2000199c <left_low_pos>
    2138:	0506                	slli	a0,a0,0x1
    213a:	95aa                	add	a1,a1,a0
    213c:	00059583          	lh	a1,0(a1)
    2140:	00492503          	lw	a0,4(s2)
    2144:	02a585b3          	mul	a1,a1,a0
    2148:	97ae                	add	a5,a5,a1
    214a:	2d000593          	li	a1,720
    214e:	02b787b3          	mul	a5,a5,a1
    2152:	87d1                	srai	a5,a5,0x14
    2154:	2d078793          	addi	a5,a5,720
    2158:	0007d363          	bgez	a5,215e <TIM3_IRQHandler+0x18c>
    215c:	4781                	li	a5,0
    215e:	5a000593          	li	a1,1440
    2162:	00f5d463          	bge	a1,a5,216a <TIM3_IRQHandler+0x198>
    2166:	5a000793          	li	a5,1440
    216a:	8cf1ae23          	sw	a5,-1828(gp) # 20001984 <tim3_irq_tmp>
    216e:	8dc1d583          	lhu	a1,-1828(gp) # 20001984 <tim3_irq_tmp>
    2172:	400007b7          	lui	a5,0x40000
    2176:	42d4                	lw	a3,4(a3)
    2178:	42b79e23          	sh	a1,1084(a5) # 4000043c <_eusrstack+0x1fffb43c>
    217c:	8f21d783          	lhu	a5,-1806(gp) # 2000199a <right_high_pos>
    2180:	40cc                	lw	a1,4(s1)
    2182:	0786                	slli	a5,a5,0x1
    2184:	97ba                	add	a5,a5,a4
    2186:	00079783          	lh	a5,0(a5)
    218a:	02b787b3          	mul	a5,a5,a1
    218e:	8f01d583          	lhu	a1,-1808(gp) # 20001998 <right_low_pos>
    2192:	0586                	slli	a1,a1,0x1
    2194:	972e                	add	a4,a4,a1
    2196:	00071703          	lh	a4,0(a4)
    219a:	02d70733          	mul	a4,a4,a3
    219e:	97ba                	add	a5,a5,a4
    21a0:	2d000713          	li	a4,720
    21a4:	02e787b3          	mul	a5,a5,a4
    21a8:	87d1                	srai	a5,a5,0x14
    21aa:	2d078793          	addi	a5,a5,720
    21ae:	0007d363          	bgez	a5,21b4 <TIM3_IRQHandler+0x1e2>
    21b2:	4781                	li	a5,0
    21b4:	5a000713          	li	a4,1440
    21b8:	00f75463          	bge	a4,a5,21c0 <TIM3_IRQHandler+0x1ee>
    21bc:	5a000793          	li	a5,1440
    21c0:	8cf1ae23          	sw	a5,-1828(gp) # 20001984 <tim3_irq_tmp>
    21c4:	40000537          	lui	a0,0x40000
    21c8:	07c2                	slli	a5,a5,0x10
    21ca:	83c1                	srli	a5,a5,0x10
    21cc:	40050513          	addi	a0,a0,1024 # 40000400 <_eusrstack+0x1fffb400>
    21d0:	4585                	li	a1,1
    21d2:	04f51023          	sh	a5,64(a0)
    21d6:	3ca050ef          	jal	ra,75a0 <TIM_ClearITPendingBit>
    21da:	5432                	lw	s0,44(sp)
    21dc:	54a2                	lw	s1,40(sp)
    21de:	5912                	lw	s2,36(sp)
    21e0:	5982                	lw	s3,32(sp)
    21e2:	4a72                	lw	s4,28(sp)
    21e4:	4ae2                	lw	s5,24(sp)
    21e6:	4b52                	lw	s6,20(sp)
    21e8:	4bc2                	lw	s7,16(sp)
    21ea:	4c32                	lw	s8,12(sp)
    21ec:	4ca2                	lw	s9,8(sp)
    21ee:	4d12                	lw	s10,4(sp)
    21f0:	6145                	addi	sp,sp,48
    21f2:	30200073          	mret

000021f6 <i2c2_check_error>:
    21f6:	40006737          	lui	a4,0x40006
    21fa:	81475783          	lhu	a5,-2028(a4) # 40005814 <_eusrstack+0x20000814>
    21fe:	4501                	li	a0,0
    2200:	80070713          	addi	a4,a4,-2048
    2204:	83a1                	srli	a5,a5,0x8
    2206:	c385                	beqz	a5,2226 <i2c2_check_error+0x30>
    2208:	01475503          	lhu	a0,20(a4)
    220c:	8121                	srli	a0,a0,0x8
    220e:	94a180a3          	sb	a0,-1727(gp) # 200019e9 <i2c_intr_error>
    2212:	01475783          	lhu	a5,20(a4)
    2216:	07c2                	slli	a5,a5,0x10
    2218:	83c1                	srli	a5,a5,0x10
    221a:	f007f793          	andi	a5,a5,-256
    221e:	07c2                	slli	a5,a5,0x10
    2220:	83c1                	srli	a5,a5,0x10
    2222:	00f71a23          	sh	a5,20(a4)
    2226:	8082                	ret

00002228 <i2c2_check_flag>:
    2228:	f49fd2ef          	jal	t0,170 <__riscv_save_0>
    222c:	1141                	addi	sp,sp,-16
    222e:	c62a                	sw	a0,12(sp)
    2230:	37d9                	jal	21f6 <i2c2_check_error>
    2232:	45b2                	lw	a1,12(sp)
    2234:	ed01                	bnez	a0,224c <i2c2_check_flag+0x24>
    2236:	40006537          	lui	a0,0x40006
    223a:	80050513          	addi	a0,a0,-2048 # 40005800 <_eusrstack+0x20000800>
    223e:	44b040ef          	jal	ra,6e88 <I2C_GetFlagStatus>
    2242:	00153513          	seqz	a0,a0
    2246:	0141                	addi	sp,sp,16
    2248:	f4dfd06f          	j	194 <__riscv_restore_0>
    224c:	4505                	li	a0,1
    224e:	bfe5                	j	2246 <i2c2_check_flag+0x1e>

00002250 <i2c2_check_event>:
    2250:	f21fd2ef          	jal	t0,170 <__riscv_save_0>
    2254:	1141                	addi	sp,sp,-16
    2256:	c62a                	sw	a0,12(sp)
    2258:	3f79                	jal	21f6 <i2c2_check_error>
    225a:	45b2                	lw	a1,12(sp)
    225c:	ed01                	bnez	a0,2274 <i2c2_check_event+0x24>
    225e:	40006537          	lui	a0,0x40006
    2262:	80050513          	addi	a0,a0,-2048 # 40005800 <_eusrstack+0x20000800>
    2266:	409040ef          	jal	ra,6e6e <I2C_CheckEvent>
    226a:	00a03533          	snez	a0,a0
    226e:	0141                	addi	sp,sp,16
    2270:	f25fd06f          	j	194 <__riscv_restore_0>
    2274:	4505                	li	a0,1
    2276:	bfe5                	j	226e <i2c2_check_event+0x1e>

00002278 <I2C2_ER_IRQHandler>:
    2278:	40006737          	lui	a4,0x40006
    227c:	81475783          	lhu	a5,-2028(a4) # 40005814 <_eusrstack+0x20000814>
    2280:	80070713          	addi	a4,a4,-2048
    2284:	83a1                	srli	a5,a5,0x8
    2286:	94f180a3          	sb	a5,-1727(gp) # 200019e9 <i2c_intr_error>
    228a:	01475783          	lhu	a5,20(a4)
    228e:	07c2                	slli	a5,a5,0x10
    2290:	83c1                	srli	a5,a5,0x10
    2292:	f007f793          	andi	a5,a5,-256
    2296:	07c2                	slli	a5,a5,0x10
    2298:	83c1                	srli	a5,a5,0x10
    229a:	00f71a23          	sh	a5,20(a4)
    229e:	30200073          	mret

000022a2 <i2c_software_recovery>:
    22a2:	eb5fd2ef          	jal	t0,156 <__riscv_save_4>
    22a6:	40006537          	lui	a0,0x40006
    22aa:	1141                	addi	sp,sp,-16
    22ac:	4581                	li	a1,0
    22ae:	80050513          	addi	a0,a0,-2048 # 40005800 <_eusrstack+0x20000800>
    22b2:	2e7040ef          	jal	ra,6d98 <I2C_Cmd>
    22b6:	40011437          	lui	s0,0x40011
    22ba:	40000793          	li	a5,1024
    22be:	4951                	li	s2,20
    22c0:	448d                	li	s1,3
    22c2:	004c                	addi	a1,sp,4
    22c4:	c0040513          	addi	a0,s0,-1024 # 40010c00 <_eusrstack+0x2000bc00>
    22c8:	00f11223          	sh	a5,4(sp)
    22cc:	c64a                	sw	s2,12(sp)
    22ce:	c426                	sw	s1,8(sp)
    22d0:	00011323          	sh	zero,6(sp)
    22d4:	075040ef          	jal	ra,6b48 <GPIO_Init>
    22d8:	6785                	lui	a5,0x1
    22da:	80078793          	addi	a5,a5,-2048 # 800 <__stack_size>
    22de:	004c                	addi	a1,sp,4
    22e0:	c0040513          	addi	a0,s0,-1024
    22e4:	00f11223          	sh	a5,4(sp)
    22e8:	c64a                	sw	s2,12(sp)
    22ea:	c426                	sw	s1,8(sp)
    22ec:	05d040ef          	jal	ra,6b48 <GPIO_Init>
    22f0:	40000593          	li	a1,1024
    22f4:	c0040513          	addi	a0,s0,-1024
    22f8:	121040ef          	jal	ra,6c18 <GPIO_ResetBits>
    22fc:	6485                	lui	s1,0x1
    22fe:	80048593          	addi	a1,s1,-2048 # 800 <__stack_size>
    2302:	c0040513          	addi	a0,s0,-1024
    2306:	10f040ef          	jal	ra,6c14 <GPIO_SetBits>
    230a:	4505                	li	a0,1
    230c:	7aa030ef          	jal	ra,5ab6 <Delay_Us>
    2310:	40000593          	li	a1,1024
    2314:	c0040513          	addi	a0,s0,-1024
    2318:	0fd040ef          	jal	ra,6c14 <GPIO_SetBits>
    231c:	4505                	li	a0,1
    231e:	798030ef          	jal	ra,5ab6 <Delay_Us>
    2322:	80048593          	addi	a1,s1,-2048
    2326:	c0040513          	addi	a0,s0,-1024
    232a:	0ef040ef          	jal	ra,6c18 <GPIO_ResetBits>
    232e:	4505                	li	a0,1
    2330:	786030ef          	jal	ra,5ab6 <Delay_Us>
    2334:	4929                	li	s2,10
    2336:	c0040993          	addi	s3,s0,-1024
    233a:	80048a13          	addi	s4,s1,-2048
    233e:	40000593          	li	a1,1024
    2342:	854e                	mv	a0,s3
    2344:	0d5040ef          	jal	ra,6c18 <GPIO_ResetBits>
    2348:	85d2                	mv	a1,s4
    234a:	854e                	mv	a0,s3
    234c:	0c9040ef          	jal	ra,6c14 <GPIO_SetBits>
    2350:	4505                	li	a0,1
    2352:	764030ef          	jal	ra,5ab6 <Delay_Us>
    2356:	40000593          	li	a1,1024
    235a:	854e                	mv	a0,s3
    235c:	0b9040ef          	jal	ra,6c14 <GPIO_SetBits>
    2360:	4505                	li	a0,1
    2362:	197d                	addi	s2,s2,-1
    2364:	752030ef          	jal	ra,5ab6 <Delay_Us>
    2368:	fc091be3          	bnez	s2,233e <i2c_software_recovery+0x9c>
    236c:	c0040513          	addi	a0,s0,-1024
    2370:	40000593          	li	a1,1024
    2374:	0a5040ef          	jal	ra,6c18 <GPIO_ResetBits>
    2378:	80048593          	addi	a1,s1,-2048
    237c:	c0040513          	addi	a0,s0,-1024
    2380:	099040ef          	jal	ra,6c18 <GPIO_ResetBits>
    2384:	4505                	li	a0,1
    2386:	730030ef          	jal	ra,5ab6 <Delay_Us>
    238a:	40000593          	li	a1,1024
    238e:	c0040513          	addi	a0,s0,-1024
    2392:	083040ef          	jal	ra,6c14 <GPIO_SetBits>
    2396:	4505                	li	a0,1
    2398:	71e030ef          	jal	ra,5ab6 <Delay_Us>
    239c:	80048593          	addi	a1,s1,-2048
    23a0:	c0040513          	addi	a0,s0,-1024
    23a4:	071040ef          	jal	ra,6c14 <GPIO_SetBits>
    23a8:	4505                	li	a0,1
    23aa:	70c030ef          	jal	ra,5ab6 <Delay_Us>
    23ae:	4791                	li	a5,4
    23b0:	004c                	addi	a1,sp,4
    23b2:	c0040513          	addi	a0,s0,-1024
    23b6:	c63e                	sw	a5,12(sp)
    23b8:	790040ef          	jal	ra,6b48 <GPIO_Init>
    23bc:	80048593          	addi	a1,s1,-2048
    23c0:	c0040513          	addi	a0,s0,-1024
    23c4:	047040ef          	jal	ra,6c0a <GPIO_ReadInputDataBit>
    23c8:	0141                	addi	sp,sp,16
    23ca:	dc1fd06f          	j	18a <__riscv_restore_4>

000023ce <i2c2_reset>:
    23ce:	da3fd2ef          	jal	t0,170 <__riscv_save_0>
    23d2:	650030ef          	jal	ra,5a22 <Get_Systick_US>
    23d6:	9441a583          	lw	a1,-1724(gp) # 200019ec <last_reset.4621>
    23da:	400064b7          	lui	s1,0x40006
    23de:	94418413          	addi	s0,gp,-1724 # 200019ec <last_reset.4621>
    23e2:	40b505b3          	sub	a1,a0,a1
    23e6:	6531                	lui	a0,0xc
    23e8:	85850513          	addi	a0,a0,-1960 # b858 <__errno+0x16c>
    23ec:	3b3050ef          	jal	ra,7f9e <printf>
    23f0:	4581                	li	a1,0
    23f2:	80048513          	addi	a0,s1,-2048 # 40005800 <_eusrstack+0x20000800>
    23f6:	94018123          	sb	zero,-1726(gp) # 200019ea <i2c_status>
    23fa:	19f040ef          	jal	ra,6d98 <I2C_Cmd>
    23fe:	80048513          	addi	a0,s1,-2048
    2402:	051040ef          	jal	ra,6c52 <I2C_DeInit>
    2406:	000205b7          	lui	a1,0x20
    240a:	80048513          	addi	a0,s1,-2048
    240e:	27b040ef          	jal	ra,6e88 <I2C_GetFlagStatus>
    2412:	9401c603          	lbu	a2,-1728(gp) # 200019e8 <i2c_error_code>
    2416:	85aa                	mv	a1,a0
    2418:	6531                	lui	a0,0xc
    241a:	86850513          	addi	a0,a0,-1944 # b868 <__errno+0x17c>
    241e:	381050ef          	jal	ra,7f9e <printf>
    2422:	e81ff0ef          	jal	ra,22a2 <i2c_software_recovery>
    2426:	9411c783          	lbu	a5,-1727(gp) # 200019e9 <i2c_intr_error>
    242a:	8d5d                	or	a0,a0,a5
    242c:	0ff57513          	zext.b	a0,a0
    2430:	cd29                	beqz	a0,248a <i2c2_reset+0xbc>
    2432:	6531                	lui	a0,0xc
    2434:	89050513          	addi	a0,a0,-1904 # b890 <__errno+0x1a4>
    2438:	38b050ef          	jal	ra,7fc2 <puts>
    243c:	00062537          	lui	a0,0x62
    2440:	4601                	li	a2,0
    2442:	4581                	li	a1,0
    2444:	a8050513          	addi	a0,a0,-1408 # 61a80 <_data_lma+0x55814>
    2448:	20b9                	jal	2496 <i2c_hardware_init>
    244a:	000205b7          	lui	a1,0x20
    244e:	80048513          	addi	a0,s1,-2048
    2452:	237040ef          	jal	ra,6e88 <I2C_GetFlagStatus>
    2456:	85aa                	mv	a1,a0
    2458:	6531                	lui	a0,0xc
    245a:	8a450513          	addi	a0,a0,-1884 # b8a4 <__errno+0x1b8>
    245e:	341050ef          	jal	ra,7f9e <printf>
    2462:	6509                	lui	a0,0x2
    2464:	000205b7          	lui	a1,0x20
    2468:	1f400613          	li	a2,500
    246c:	22850513          	addi	a0,a0,552 # 2228 <i2c2_check_flag>
    2470:	5e6030ef          	jal	ra,5a56 <execute_blocking_us>
    2474:	85aa                	mv	a1,a0
    2476:	6531                	lui	a0,0xc
    2478:	8c050513          	addi	a0,a0,-1856 # b8c0 <__errno+0x1d4>
    247c:	323050ef          	jal	ra,7f9e <printf>
    2480:	5a2030ef          	jal	ra,5a22 <Get_Systick_US>
    2484:	c008                	sw	a0,0(s0)
    2486:	d0ffd06f          	j	194 <__riscv_restore_0>
    248a:	6531                	lui	a0,0xc
    248c:	8d050513          	addi	a0,a0,-1840 # b8d0 <__errno+0x1e4>
    2490:	333050ef          	jal	ra,7fc2 <puts>
    2494:	b7f5                	j	2480 <i2c2_reset+0xb2>

00002496 <i2c_hardware_init>:
    2496:	cb3fd2ef          	jal	t0,148 <__riscv_save_10>
    249a:	8aaa                	mv	s5,a0
    249c:	6531                	lui	a0,0xc
    249e:	1101                	addi	sp,sp,-32
    24a0:	8f050513          	addi	a0,a0,-1808 # b8f0 <__errno+0x204>
    24a4:	89b2                	mv	s3,a2
    24a6:	8bae                	mv	s7,a1
    24a8:	31b050ef          	jal	ra,7fc2 <puts>
    24ac:	4585                	li	a1,1
    24ae:	4525                	li	a0,9
    24b0:	c202                	sw	zero,4(sp)
    24b2:	c402                	sw	zero,8(sp)
    24b4:	c602                	sw	zero,12(sp)
    24b6:	c802                	sw	zero,16(sp)
    24b8:	ca02                	sw	zero,20(sp)
    24ba:	cc02                	sw	zero,24(sp)
    24bc:	ce02                	sw	zero,28(sp)
    24be:	47d040ef          	jal	ra,713a <RCC_APB2PeriphClockCmd>
    24c2:	4585                	li	a1,1
    24c4:	00400537          	lui	a0,0x400
    24c8:	491040ef          	jal	ra,7158 <RCC_APB1PeriphClockCmd>
    24cc:	6485                	lui	s1,0x1
    24ce:	40011437          	lui	s0,0x40011
    24d2:	c0048793          	addi	a5,s1,-1024 # c00 <unpack_fac_conf+0x8e>
    24d6:	490d                	li	s2,3
    24d8:	c0040513          	addi	a0,s0,-1024 # 40010c00 <_eusrstack+0x2000bc00>
    24dc:	00f11223          	sh	a5,4(sp)
    24e0:	004c                	addi	a1,sp,4
    24e2:	47c1                	li	a5,16
    24e4:	c63e                	sw	a5,12(sp)
    24e6:	c44a                	sw	s2,8(sp)
    24e8:	660040ef          	jal	ra,6b48 <GPIO_Init>
    24ec:	6585                	lui	a1,0x1
    24ee:	c0058593          	addi	a1,a1,-1024 # c00 <unpack_fac_conf+0x8e>
    24f2:	c0040513          	addi	a0,s0,-1024
    24f6:	71e040ef          	jal	ra,6c14 <GPIO_SetBits>
    24fa:	4529                	li	a0,10
    24fc:	5ba030ef          	jal	ra,5ab6 <Delay_Us>
    2500:	6531                	lui	a0,0xc
    2502:	85d6                	mv	a1,s5
    2504:	8fc50513          	addi	a0,a0,-1796 # b8fc <__errno+0x210>
    2508:	297050ef          	jal	ra,7f9e <printf>
    250c:	c0040513          	addi	a0,s0,-1024
    2510:	40000a13          	li	s4,1024
    2514:	4b71                	li	s6,28
    2516:	004c                	addi	a1,sp,4
    2518:	01411223          	sh	s4,4(sp)
    251c:	c65a                	sw	s6,12(sp)
    251e:	c44a                	sw	s2,8(sp)
    2520:	628040ef          	jal	ra,6b48 <GPIO_Init>
    2524:	004c                	addi	a1,sp,4
    2526:	c0040513          	addi	a0,s0,-1024
    252a:	80048493          	addi	s1,s1,-2048
    252e:	00911223          	sh	s1,4(sp)
    2532:	c65a                	sw	s6,12(sp)
    2534:	c44a                	sw	s2,8(sp)
    2536:	612040ef          	jal	ra,6b48 <GPIO_Init>
    253a:	4529                	li	a0,10
    253c:	57a030ef          	jal	ra,5ab6 <Delay_Us>
    2540:	40006437          	lui	s0,0x40006
    2544:	400007b7          	lui	a5,0x40000
    2548:	ca3e                	sw	a5,20(sp)
    254a:	080c                	addi	a1,sp,16
    254c:	6791                	lui	a5,0x4
    254e:	80040513          	addi	a0,s0,-2048 # 40005800 <_eusrstack+0x20000800>
    2552:	00f11e23          	sh	a5,28(sp)
    2556:	c856                	sw	s5,16(sp)
    2558:	01711c23          	sh	s7,24(sp)
    255c:	01411d23          	sh	s4,26(sp)
    2560:	724040ef          	jal	ra,6c84 <I2C_Init>
    2564:	4585                	li	a1,1
    2566:	80040513          	addi	a0,s0,-2048
    256a:	02f040ef          	jal	ra,6d98 <I2C_Cmd>
    256e:	000205b7          	lui	a1,0x20
    2572:	80040513          	addi	a0,s0,-2048
    2576:	113040ef          	jal	ra,6e88 <I2C_GetFlagStatus>
    257a:	85aa                	mv	a1,a0
    257c:	6531                	lui	a0,0xc
    257e:	91050513          	addi	a0,a0,-1776 # b910 <__errno+0x224>
    2582:	21d050ef          	jal	ra,7f9e <printf>
    2586:	6509                	lui	a0,0x2
    2588:	1f400613          	li	a2,500
    258c:	000205b7          	lui	a1,0x20
    2590:	22850513          	addi	a0,a0,552 # 2228 <i2c2_check_flag>
    2594:	4c2030ef          	jal	ra,5a56 <execute_blocking_us>
    2598:	c105                	beqz	a0,25b8 <i2c_hardware_init+0x122>
    259a:	6531                	lui	a0,0xc
    259c:	85ce                	mv	a1,s3
    259e:	92450513          	addi	a0,a0,-1756 # b924 <__errno+0x238>
    25a2:	1fd050ef          	jal	ra,7f9e <printf>
    25a6:	4585                	li	a1,1
    25a8:	80040513          	addi	a0,s0,-2048
    25ac:	087040ef          	jal	ra,6e32 <I2C_SoftwareResetCmd>
    25b0:	00098a63          	beqz	s3,25c4 <i2c_hardware_init+0x12e>
    25b4:	e1bff0ef          	jal	ra,23ce <i2c2_reset>
    25b8:	4705                	li	a4,1
    25ba:	94e18123          	sb	a4,-1726(gp) # 200019ea <i2c_status>
    25be:	6105                	addi	sp,sp,32
    25c0:	bc1fd06f          	j	180 <__riscv_restore_10>
    25c4:	6531                	lui	a0,0xc
    25c6:	93850513          	addi	a0,a0,-1736 # b938 <__errno+0x24c>
    25ca:	1f9050ef          	jal	ra,7fc2 <puts>
    25ce:	b7ed                	j	25b8 <i2c_hardware_init+0x122>

000025d0 <i2c_read_start>:
    25d0:	9421c783          	lbu	a5,-1726(gp) # 200019ea <i2c_status>
    25d4:	12078f63          	beqz	a5,2712 <i2c_read_start+0x142>
    25d8:	b71fd2ef          	jal	t0,148 <__riscv_save_10>
    25dc:	8a2a                	mv	s4,a0
    25de:	6509                	lui	a0,0x2
    25e0:	89ae                	mv	s3,a1
    25e2:	1f400613          	li	a2,500
    25e6:	000205b7          	lui	a1,0x20
    25ea:	22850513          	addi	a0,a0,552 # 2228 <i2c2_check_flag>
    25ee:	468030ef          	jal	ra,5a56 <execute_blocking_us>
    25f2:	94118b13          	addi	s6,gp,-1727 # 200019e9 <i2c_intr_error>
    25f6:	000b4783          	lbu	a5,0(s6)
    25fa:	0ff57513          	zext.b	a0,a0
    25fe:	94118413          	addi	s0,gp,-1727 # 200019e9 <i2c_intr_error>
    2602:	8fc9                	or	a5,a5,a0
    2604:	c791                	beqz	a5,2610 <i2c_read_start+0x40>
    2606:	4705                	li	a4,1
    2608:	94e18023          	sb	a4,-1728(gp) # 200019e8 <i2c_error_code>
    260c:	b75fd06f          	j	180 <__riscv_restore_10>
    2610:	40006937          	lui	s2,0x40006
    2614:	4585                	li	a1,1
    2616:	80090513          	addi	a0,s2,-2048 # 40005800 <_eusrstack+0x20000800>
    261a:	7d6040ef          	jal	ra,6df0 <I2C_AcknowledgeConfig>
    261e:	4585                	li	a1,1
    2620:	80090513          	addi	a0,s2,-2048
    2624:	790040ef          	jal	ra,6db4 <I2C_GenerateSTART>
    2628:	6b89                	lui	s7,0x2
    262a:	6631                	lui	a2,0xc
    262c:	000305b7          	lui	a1,0x30
    2630:	35060613          	addi	a2,a2,848 # c350 <_data_lma+0xe4>
    2634:	0585                	addi	a1,a1,1 # 30001 <_data_lma+0x23d95>
    2636:	250b8513          	addi	a0,s7,592 # 2250 <i2c2_check_event>
    263a:	41c030ef          	jal	ra,5a56 <execute_blocking_us>
    263e:	000b4783          	lbu	a5,0(s6)
    2642:	0ff57513          	zext.b	a0,a0
    2646:	8ade                	mv	s5,s7
    2648:	8fc9                	or	a5,a5,a0
    264a:	c399                	beqz	a5,2650 <i2c_read_start+0x80>
    264c:	4709                	li	a4,2
    264e:	bf6d                	j	2608 <i2c_read_start+0x38>
    2650:	4601                	li	a2,0
    2652:	0d400593          	li	a1,212
    2656:	80090513          	addi	a0,s2,-2048
    265a:	7c4040ef          	jal	ra,6e1e <I2C_Send7bitAddress>
    265e:	000704b7          	lui	s1,0x70
    2662:	1f400613          	li	a2,500
    2666:	08248593          	addi	a1,s1,130 # 70082 <_data_lma+0x63e16>
    266a:	250b8513          	addi	a0,s7,592
    266e:	3e8030ef          	jal	ra,5a56 <execute_blocking_us>
    2672:	000b4783          	lbu	a5,0(s6)
    2676:	0ff57513          	zext.b	a0,a0
    267a:	8fc9                	or	a5,a5,a0
    267c:	c399                	beqz	a5,2682 <i2c_read_start+0xb2>
    267e:	470d                	li	a4,3
    2680:	b761                	j	2608 <i2c_read_start+0x38>
    2682:	85d2                	mv	a1,s4
    2684:	80090513          	addi	a0,s2,-2048
    2688:	08448913          	addi	s2,s1,132
    268c:	400064b7          	lui	s1,0x40006
    2690:	77e040ef          	jal	ra,6e0e <I2C_SendData>
    2694:	80048a13          	addi	s4,s1,-2048 # 40005800 <_eusrstack+0x20000800>
    2698:	85ca                	mv	a1,s2
    269a:	8552                	mv	a0,s4
    269c:	7d2040ef          	jal	ra,6e6e <I2C_CheckEvent>
    26a0:	fd65                	bnez	a0,2698 <i2c_read_start+0xc8>
    26a2:	00044783          	lbu	a5,0(s0)
    26a6:	c399                	beqz	a5,26ac <i2c_read_start+0xdc>
    26a8:	4711                	li	a4,4
    26aa:	bfb9                	j	2608 <i2c_read_start+0x38>
    26ac:	85ce                	mv	a1,s3
    26ae:	80048513          	addi	a0,s1,-2048
    26b2:	73e040ef          	jal	ra,6df0 <I2C_AcknowledgeConfig>
    26b6:	4585                	li	a1,1
    26b8:	80048513          	addi	a0,s1,-2048
    26bc:	6f8040ef          	jal	ra,6db4 <I2C_GenerateSTART>
    26c0:	00030937          	lui	s2,0x30
    26c4:	1f400613          	li	a2,500
    26c8:	00190593          	addi	a1,s2,1 # 30001 <_data_lma+0x23d95>
    26cc:	250a8513          	addi	a0,s5,592 # 20250 <_data_lma+0x13fe4>
    26d0:	386030ef          	jal	ra,5a56 <execute_blocking_us>
    26d4:	00044783          	lbu	a5,0(s0)
    26d8:	0ff57513          	zext.b	a0,a0
    26dc:	8fc9                	or	a5,a5,a0
    26de:	c399                	beqz	a5,26e4 <i2c_read_start+0x114>
    26e0:	4715                	li	a4,5
    26e2:	b71d                	j	2608 <i2c_read_start+0x38>
    26e4:	4605                	li	a2,1
    26e6:	0d400593          	li	a1,212
    26ea:	80048513          	addi	a0,s1,-2048
    26ee:	730040ef          	jal	ra,6e1e <I2C_Send7bitAddress>
    26f2:	1f400613          	li	a2,500
    26f6:	00290593          	addi	a1,s2,2
    26fa:	250a8513          	addi	a0,s5,592
    26fe:	358030ef          	jal	ra,5a56 <execute_blocking_us>
    2702:	00044783          	lbu	a5,0(s0)
    2706:	0ff57513          	zext.b	a0,a0
    270a:	8fc9                	or	a5,a5,a0
    270c:	c789                	beqz	a5,2716 <i2c_read_start+0x146>
    270e:	4719                	li	a4,6
    2710:	bde5                	j	2608 <i2c_read_start+0x38>
    2712:	4505                	li	a0,1
    2714:	8082                	ret
    2716:	4501                	li	a0,0
    2718:	bdd5                	j	260c <i2c_read_start+0x3c>

0000271a <i2c_read_byte>:
    271a:	a57fd2ef          	jal	t0,170 <__riscv_save_0>
    271e:	1141                	addi	sp,sp,-16
    2720:	892e                	mv	s2,a1
    2722:	4581                	li	a1,0
    2724:	eadff0ef          	jal	ra,25d0 <i2c_read_start>
    2728:	9411c783          	lbu	a5,-1727(gp) # 200019e9 <i2c_intr_error>
    272c:	94118413          	addi	s0,gp,-1727 # 200019e9 <i2c_intr_error>
    2730:	8fc9                	or	a5,a5,a0
    2732:	0ff7f793          	zext.b	a5,a5
    2736:	e78d                	bnez	a5,2760 <i2c_read_byte+0x46>
    2738:	000305b7          	lui	a1,0x30
    273c:	6509                	lui	a0,0x2
    273e:	1f400613          	li	a2,500
    2742:	04058593          	addi	a1,a1,64 # 30040 <_data_lma+0x23dd4>
    2746:	25050513          	addi	a0,a0,592 # 2250 <i2c2_check_event>
    274a:	30c030ef          	jal	ra,5a56 <execute_blocking_us>
    274e:	00044783          	lbu	a5,0(s0)
    2752:	0ff57513          	zext.b	a0,a0
    2756:	8fc9                	or	a5,a5,a0
    2758:	c38d                	beqz	a5,277a <i2c_read_byte+0x60>
    275a:	4725                	li	a4,9
    275c:	94e18023          	sb	a4,-1728(gp) # 200019e8 <i2c_error_code>
    2760:	00044783          	lbu	a5,0(s0)
    2764:	8fc9                	or	a5,a5,a0
    2766:	0ff7f793          	zext.b	a5,a5
    276a:	c789                	beqz	a5,2774 <i2c_read_byte+0x5a>
    276c:	c62a                	sw	a0,12(sp)
    276e:	c61ff0ef          	jal	ra,23ce <i2c2_reset>
    2772:	4532                	lw	a0,12(sp)
    2774:	0141                	addi	sp,sp,16
    2776:	a1ffd06f          	j	194 <__riscv_restore_0>
    277a:	400064b7          	lui	s1,0x40006
    277e:	80048513          	addi	a0,s1,-2048 # 40005800 <_eusrstack+0x20000800>
    2782:	692040ef          	jal	ra,6e14 <I2C_ReceiveData>
    2786:	00a90023          	sb	a0,0(s2)
    278a:	4585                	li	a1,1
    278c:	80048513          	addi	a0,s1,-2048
    2790:	642040ef          	jal	ra,6dd2 <I2C_GenerateSTOP>
    2794:	4501                	li	a0,0
    2796:	b7e9                	j	2760 <i2c_read_byte+0x46>

00002798 <i2c_read_continuous>:
    2798:	9b1fd2ef          	jal	t0,148 <__riscv_save_10>
    279c:	4785                	li	a5,1
    279e:	00f61863          	bne	a2,a5,27ae <i2c_read_continuous+0x16>
    27a2:	f79ff0ef          	jal	ra,271a <i2c_read_byte>
    27a6:	84aa                	mv	s1,a0
    27a8:	8526                	mv	a0,s1
    27aa:	9d7fd06f          	j	180 <__riscv_restore_10>
    27ae:	8a32                	mv	s4,a2
    27b0:	89ae                	mv	s3,a1
    27b2:	4585                	li	a1,1
    27b4:	e1dff0ef          	jal	ra,25d0 <i2c_read_start>
    27b8:	fffa0413          	addi	s0,s4,-1
    27bc:	00030ab7          	lui	s5,0x30
    27c0:	6b05                	lui	s6,0x1
    27c2:	40006937          	lui	s2,0x40006
    27c6:	84aa                	mv	s1,a0
    27c8:	0ff47413          	zext.b	s0,s0
    27cc:	040a8a93          	addi	s5,s5,64 # 30040 <_data_lma+0x23dd4>
    27d0:	6c09                	lui	s8,0x2
    27d2:	800b0b13          	addi	s6,s6,-2048 # 800 <__stack_size>
    27d6:	80090913          	addi	s2,s2,-2048 # 40005800 <_eusrstack+0x20000800>
    27da:	0ff00793          	li	a5,255
    27de:	94118c93          	addi	s9,gp,-1727 # 200019e9 <i2c_intr_error>
    27e2:	02f40963          	beq	s0,a5,2814 <i2c_read_continuous+0x7c>
    27e6:	1f400613          	li	a2,500
    27ea:	85d6                	mv	a1,s5
    27ec:	250c0513          	addi	a0,s8,592 # 2250 <i2c2_check_event>
    27f0:	266030ef          	jal	ra,5a56 <execute_blocking_us>
    27f4:	000cc783          	lbu	a5,0(s9)
    27f8:	0ff57493          	zext.b	s1,a0
    27fc:	8fc5                	or	a5,a5,s1
    27fe:	cb9d                	beqz	a5,2834 <i2c_read_continuous+0x9c>
    2800:	6531                	lui	a0,0xc
    2802:	8622                	mv	a2,s0
    2804:	85d2                	mv	a1,s4
    2806:	96050513          	addi	a0,a0,-1696 # b960 <__errno+0x274>
    280a:	794050ef          	jal	ra,7f9e <printf>
    280e:	471d                	li	a4,7
    2810:	94e18023          	sb	a4,-1728(gp) # 200019e8 <i2c_error_code>
    2814:	40006537          	lui	a0,0x40006
    2818:	4585                	li	a1,1
    281a:	80050513          	addi	a0,a0,-2048 # 40005800 <_eusrstack+0x20000800>
    281e:	5b4040ef          	jal	ra,6dd2 <I2C_GenerateSTOP>
    2822:	000cc783          	lbu	a5,0(s9)
    2826:	8fc5                	or	a5,a5,s1
    2828:	0ff7f793          	zext.b	a5,a5
    282c:	c795                	beqz	a5,2858 <i2c_read_continuous+0xc0>
    282e:	ba1ff0ef          	jal	ra,23ce <i2c2_reset>
    2832:	bf9d                	j	27a8 <i2c_read_continuous+0x10>
    2834:	4785                	li	a5,1
    2836:	00f41663          	bne	s0,a5,2842 <i2c_read_continuous+0xaa>
    283a:	85da                	mv	a1,s6
    283c:	854a                	mv	a0,s2
    283e:	60a040ef          	jal	ra,6e48 <I2C_NACKPositionConfig>
    2842:	854a                	mv	a0,s2
    2844:	5d0040ef          	jal	ra,6e14 <I2C_ReceiveData>
    2848:	147d                	addi	s0,s0,-1
    284a:	00a98023          	sb	a0,0(s3)
    284e:	0ff47413          	zext.b	s0,s0
    2852:	0985                	addi	s3,s3,1
    2854:	4481                	li	s1,0
    2856:	b751                	j	27da <i2c_read_continuous+0x42>
    2858:	4481                	li	s1,0
    285a:	b7b9                	j	27a8 <i2c_read_continuous+0x10>

0000285c <i2c_write_byte>:
    285c:	9421c783          	lbu	a5,-1726(gp) # 200019ea <i2c_status>
    2860:	e391                	bnez	a5,2864 <i2c_write_byte+0x8>
    2862:	8082                	ret
    2864:	8f3fd2ef          	jal	t0,156 <__riscv_save_4>
    2868:	8aaa                	mv	s5,a0
    286a:	6509                	lui	a0,0x2
    286c:	1141                	addi	sp,sp,-16
    286e:	8a2e                	mv	s4,a1
    2870:	1f400613          	li	a2,500
    2874:	000205b7          	lui	a1,0x20
    2878:	22850513          	addi	a0,a0,552 # 2228 <i2c2_check_flag>
    287c:	1da030ef          	jal	ra,5a56 <execute_blocking_us>
    2880:	9411c783          	lbu	a5,-1727(gp) # 200019e9 <i2c_intr_error>
    2884:	0ff57513          	zext.b	a0,a0
    2888:	94118413          	addi	s0,gp,-1727 # 200019e9 <i2c_intr_error>
    288c:	8fc9                	or	a5,a5,a0
    288e:	c38d                	beqz	a5,28b0 <i2c_write_byte+0x54>
    2890:	4729                	li	a4,10
    2892:	94e18023          	sb	a4,-1728(gp) # 200019e8 <i2c_error_code>
    2896:	00044783          	lbu	a5,0(s0)
    289a:	8fc9                	or	a5,a5,a0
    289c:	0ff7f793          	zext.b	a5,a5
    28a0:	c789                	beqz	a5,28aa <i2c_write_byte+0x4e>
    28a2:	c62a                	sw	a0,12(sp)
    28a4:	b2bff0ef          	jal	ra,23ce <i2c2_reset>
    28a8:	4532                	lw	a0,12(sp)
    28aa:	0141                	addi	sp,sp,16
    28ac:	8dffd06f          	j	18a <__riscv_restore_4>
    28b0:	400064b7          	lui	s1,0x40006
    28b4:	4585                	li	a1,1
    28b6:	80048513          	addi	a0,s1,-2048 # 40005800 <_eusrstack+0x20000800>
    28ba:	4fa040ef          	jal	ra,6db4 <I2C_GenerateSTART>
    28be:	000305b7          	lui	a1,0x30
    28c2:	6909                	lui	s2,0x2
    28c4:	1f400613          	li	a2,500
    28c8:	0585                	addi	a1,a1,1 # 30001 <_data_lma+0x23d95>
    28ca:	25090513          	addi	a0,s2,592 # 2250 <i2c2_check_event>
    28ce:	188030ef          	jal	ra,5a56 <execute_blocking_us>
    28d2:	00044783          	lbu	a5,0(s0)
    28d6:	0ff57513          	zext.b	a0,a0
    28da:	8fc9                	or	a5,a5,a0
    28dc:	c399                	beqz	a5,28e2 <i2c_write_byte+0x86>
    28de:	472d                	li	a4,11
    28e0:	bf4d                	j	2892 <i2c_write_byte+0x36>
    28e2:	4601                	li	a2,0
    28e4:	0d400593          	li	a1,212
    28e8:	80048513          	addi	a0,s1,-2048
    28ec:	532040ef          	jal	ra,6e1e <I2C_Send7bitAddress>
    28f0:	000709b7          	lui	s3,0x70
    28f4:	1f400613          	li	a2,500
    28f8:	08298593          	addi	a1,s3,130 # 70082 <_data_lma+0x63e16>
    28fc:	25090513          	addi	a0,s2,592
    2900:	156030ef          	jal	ra,5a56 <execute_blocking_us>
    2904:	00044783          	lbu	a5,0(s0)
    2908:	0ff57513          	zext.b	a0,a0
    290c:	8fc9                	or	a5,a5,a0
    290e:	c399                	beqz	a5,2914 <i2c_write_byte+0xb8>
    2910:	4731                	li	a4,12
    2912:	b741                	j	2892 <i2c_write_byte+0x36>
    2914:	85d6                	mv	a1,s5
    2916:	80048513          	addi	a0,s1,-2048
    291a:	4f4040ef          	jal	ra,6e0e <I2C_SendData>
    291e:	1f400613          	li	a2,500
    2922:	08498593          	addi	a1,s3,132
    2926:	25090513          	addi	a0,s2,592
    292a:	12c030ef          	jal	ra,5a56 <execute_blocking_us>
    292e:	00044783          	lbu	a5,0(s0)
    2932:	0ff57513          	zext.b	a0,a0
    2936:	8fc9                	or	a5,a5,a0
    2938:	c399                	beqz	a5,293e <i2c_write_byte+0xe2>
    293a:	4735                	li	a4,13
    293c:	bf99                	j	2892 <i2c_write_byte+0x36>
    293e:	85d2                	mv	a1,s4
    2940:	80048513          	addi	a0,s1,-2048
    2944:	4ca040ef          	jal	ra,6e0e <I2C_SendData>
    2948:	1f400613          	li	a2,500
    294c:	08498593          	addi	a1,s3,132
    2950:	25090513          	addi	a0,s2,592
    2954:	102030ef          	jal	ra,5a56 <execute_blocking_us>
    2958:	00044783          	lbu	a5,0(s0)
    295c:	0ff57513          	zext.b	a0,a0
    2960:	8fc9                	or	a5,a5,a0
    2962:	c399                	beqz	a5,2968 <i2c_write_byte+0x10c>
    2964:	4739                	li	a4,14
    2966:	b735                	j	2892 <i2c_write_byte+0x36>
    2968:	80048513          	addi	a0,s1,-2048
    296c:	4585                	li	a1,1
    296e:	464040ef          	jal	ra,6dd2 <I2C_GenerateSTOP>
    2972:	4501                	li	a0,0
    2974:	b70d                	j	2896 <i2c_write_byte+0x3a>

00002976 <i2c_init>:
    2976:	ffafd2ef          	jal	t0,170 <__riscv_save_0>
    297a:	00062537          	lui	a0,0x62
    297e:	4605                	li	a2,1
    2980:	4581                	li	a1,0
    2982:	a8050513          	addi	a0,a0,-1408 # 61a80 <_data_lma+0x55814>
    2986:	b11ff0ef          	jal	ra,2496 <i2c_hardware_init>
    298a:	80bfd06f          	j	194 <__riscv_restore_0>

0000298e <imu_set_reg>:
    298e:	fe2fd2ef          	jal	t0,170 <__riscv_save_0>
    2992:	1141                	addi	sp,sp,-16
    2994:	842e                	mv	s0,a1
    2996:	00f10593          	addi	a1,sp,15
    299a:	892a                	mv	s2,a0
    299c:	84b2                	mv	s1,a2
    299e:	d7dff0ef          	jal	ra,271a <i2c_read_byte>
    29a2:	ed09                	bnez	a0,29bc <imu_set_reg+0x2e>
    29a4:	00f14783          	lbu	a5,15(sp)
    29a8:	fff4c493          	not	s1,s1
    29ac:	854a                	mv	a0,s2
    29ae:	8fe5                	and	a5,a5,s1
    29b0:	00f465b3          	or	a1,s0,a5
    29b4:	00b107a3          	sb	a1,15(sp)
    29b8:	ea5ff0ef          	jal	ra,285c <i2c_write_byte>
    29bc:	0141                	addi	sp,sp,16
    29be:	fd6fd06f          	j	194 <__riscv_restore_0>

000029c2 <imu_read>:
    29c2:	faefd2ef          	jal	t0,170 <__riscv_save_0>
    29c6:	94c18593          	addi	a1,gp,-1716 # 200019f4 <status.1>
    29ca:	4579                	li	a0,30
    29cc:	d4fff0ef          	jal	ra,271a <i2c_read_byte>
    29d0:	cd01                	beqz	a0,29e8 <imu_read+0x26>
    29d2:	9401c583          	lbu	a1,-1728(gp) # 200019e8 <i2c_error_code>
    29d6:	842a                	mv	s0,a0
    29d8:	6531                	lui	a0,0xc
    29da:	98850513          	addi	a0,a0,-1656 # b988 <__errno+0x29c>
    29de:	5c0050ef          	jal	ra,7f9e <printf>
    29e2:	8522                	mv	a0,s0
    29e4:	fb0fd06f          	j	194 <__riscv_restore_0>
    29e8:	94c1c783          	lbu	a5,-1716(gp) # 200019f4 <status.1>
    29ec:	470d                	li	a4,3
    29ee:	4409                	li	s0,2
    29f0:	8b8d                	andi	a5,a5,3
    29f2:	fee798e3          	bne	a5,a4,29e2 <imu_read+0x20>
    29f6:	200035b7          	lui	a1,0x20003
    29fa:	4631                	li	a2,12
    29fc:	c2058593          	addi	a1,a1,-992 # 20002c20 <imu_raw_buf>
    2a00:	02200513          	li	a0,34
    2a04:	d95ff0ef          	jal	ra,2798 <i2c_read_continuous>
    2a08:	00a03433          	snez	s0,a0
    2a0c:	bfd9                	j	29e2 <imu_read+0x20>

00002a0e <set_imu_awake>:
    2a0e:	f62fd2ef          	jal	t0,170 <__riscv_save_0>
    2a12:	0ff00613          	li	a2,255
    2a16:	4585                	li	a1,1
    2a18:	4549                	li	a0,18
    2a1a:	f75ff0ef          	jal	ra,298e <imu_set_reg>
    2a1e:	6531                	lui	a0,0xc
    2a20:	9b450513          	addi	a0,a0,-1612 # b9b4 <__errno+0x2c8>
    2a24:	59e050ef          	jal	ra,7fc2 <puts>
    2a28:	06400513          	li	a0,100
    2a2c:	0d4030ef          	jal	ra,5b00 <Delay_Ms>
    2a30:	0ff00613          	li	a2,255
    2a34:	08000593          	li	a1,128
    2a38:	454d                	li	a0,19
    2a3a:	f55ff0ef          	jal	ra,298e <imu_set_reg>
    2a3e:	85aa                	mv	a1,a0
    2a40:	6531                	lui	a0,0xc
    2a42:	9c850513          	addi	a0,a0,-1592 # b9c8 <__errno+0x2dc>
    2a46:	558050ef          	jal	ra,7f9e <printf>
    2a4a:	0ff00613          	li	a2,255
    2a4e:	08e00593          	li	a1,142
    2a52:	4541                	li	a0,16
    2a54:	f3bff0ef          	jal	ra,298e <imu_set_reg>
    2a58:	85aa                	mv	a1,a0
    2a5a:	6531                	lui	a0,0xc
    2a5c:	9e050513          	addi	a0,a0,-1568 # b9e0 <__errno+0x2f4>
    2a60:	53e050ef          	jal	ra,7f9e <printf>
    2a64:	0ff00613          	li	a2,255
    2a68:	05c00593          	li	a1,92
    2a6c:	4545                	li	a0,17
    2a6e:	f21ff0ef          	jal	ra,298e <imu_set_reg>
    2a72:	85aa                	mv	a1,a0
    2a74:	6531                	lui	a0,0xc
    2a76:	9f850513          	addi	a0,a0,-1544 # b9f8 <__errno+0x30c>
    2a7a:	524050ef          	jal	ra,7f9e <printf>
    2a7e:	0ff00613          	li	a2,255
    2a82:	04400593          	li	a1,68
    2a86:	4549                	li	a0,18
    2a88:	f07ff0ef          	jal	ra,298e <imu_set_reg>
    2a8c:	85aa                	mv	a1,a0
    2a8e:	6531                	lui	a0,0xc
    2a90:	a1050513          	addi	a0,a0,-1520 # ba10 <__errno+0x324>
    2a94:	50a050ef          	jal	ra,7f9e <printf>
    2a98:	0ff00613          	li	a2,255
    2a9c:	4581                	li	a1,0
    2a9e:	4551                	li	a0,20
    2aa0:	eefff0ef          	jal	ra,298e <imu_set_reg>
    2aa4:	85aa                	mv	a1,a0
    2aa6:	6531                	lui	a0,0xc
    2aa8:	a2850513          	addi	a0,a0,-1496 # ba28 <__errno+0x33c>
    2aac:	4f2050ef          	jal	ra,7f9e <printf>
    2ab0:	0ff00613          	li	a2,255
    2ab4:	4581                	li	a1,0
    2ab6:	4555                	li	a0,21
    2ab8:	ed7ff0ef          	jal	ra,298e <imu_set_reg>
    2abc:	85aa                	mv	a1,a0
    2abe:	6531                	lui	a0,0xc
    2ac0:	a4050513          	addi	a0,a0,-1472 # ba40 <__errno+0x354>
    2ac4:	4da050ef          	jal	ra,7f9e <printf>
    2ac8:	0ff00613          	li	a2,255
    2acc:	4581                	li	a1,0
    2ace:	4559                	li	a0,22
    2ad0:	ebfff0ef          	jal	ra,298e <imu_set_reg>
    2ad4:	85aa                	mv	a1,a0
    2ad6:	6531                	lui	a0,0xc
    2ad8:	a5850513          	addi	a0,a0,-1448 # ba58 <__errno+0x36c>
    2adc:	4c2050ef          	jal	ra,7f9e <printf>
    2ae0:	0ff00613          	li	a2,255
    2ae4:	08400593          	li	a1,132
    2ae8:	455d                	li	a0,23
    2aea:	ea5ff0ef          	jal	ra,298e <imu_set_reg>
    2aee:	85aa                	mv	a1,a0
    2af0:	6531                	lui	a0,0xc
    2af2:	a7050513          	addi	a0,a0,-1424 # ba70 <__errno+0x384>
    2af6:	4a8050ef          	jal	ra,7f9e <printf>
    2afa:	0ff00613          	li	a2,255
    2afe:	03800593          	li	a1,56
    2b02:	4561                	li	a0,24
    2b04:	e8bff0ef          	jal	ra,298e <imu_set_reg>
    2b08:	85aa                	mv	a1,a0
    2b0a:	6531                	lui	a0,0xc
    2b0c:	a8850513          	addi	a0,a0,-1400 # ba88 <__errno+0x39c>
    2b10:	48e050ef          	jal	ra,7f9e <printf>
    2b14:	0ff00613          	li	a2,255
    2b18:	03c00593          	li	a1,60
    2b1c:	4565                	li	a0,25
    2b1e:	e71ff0ef          	jal	ra,298e <imu_set_reg>
    2b22:	85aa                	mv	a1,a0
    2b24:	6531                	lui	a0,0xc
    2b26:	aa050513          	addi	a0,a0,-1376 # baa0 <__errno+0x3b4>
    2b2a:	474050ef          	jal	ra,7f9e <printf>
    2b2e:	4705                	li	a4,1
    2b30:	96e184a3          	sb	a4,-1687(gp) # 20001a11 <imu_rdy>
    2b34:	e60fd06f          	j	194 <__riscv_restore_0>

00002b38 <set_imu_sleep>:
    2b38:	e38fd2ef          	jal	t0,170 <__riscv_save_0>
    2b3c:	0f000613          	li	a2,240
    2b40:	4581                	li	a1,0
    2b42:	4541                	li	a0,16
    2b44:	960184a3          	sb	zero,-1687(gp) # 20001a11 <imu_rdy>
    2b48:	e47ff0ef          	jal	ra,298e <imu_set_reg>
    2b4c:	0f000613          	li	a2,240
    2b50:	4581                	li	a1,0
    2b52:	4545                	li	a0,17
    2b54:	e3bff0ef          	jal	ra,298e <imu_set_reg>
    2b58:	e3cfd06f          	j	194 <__riscv_restore_0>

00002b5c <imu_init>:
    2b5c:	8082                	ret

00002b5e <imu_upd>:
    2b5e:	de2fd2ef          	jal	t0,140 <__riscv_save_12>
    2b62:	9541c783          	lbu	a5,-1708(gp) # 200019fc <imu_buf_pos>
    2b66:	02500713          	li	a4,37
    2b6a:	200039b7          	lui	s3,0x20003
    2b6e:	02e787b3          	mul	a5,a5,a4
    2b72:	bc898713          	addi	a4,s3,-1080 # 20002bc8 <imu_pack_buf>
    2b76:	1141                	addi	sp,sp,-16
    2b78:	c63a                	sw	a4,12(sp)
    2b7a:	97ba                	add	a5,a5,a4
    2b7c:	94f1a823          	sw	a5,-1712(gp) # 200019f8 <rep>
    2b80:	28018783          	lb	a5,640(gp) # 20002328 <user_config>
    2b84:	0407c463          	bltz	a5,2bcc <imu_upd+0x6e>
    2b88:	9421c783          	lbu	a5,-1726(gp) # 200019ea <i2c_status>
    2b8c:	c3a1                	beqz	a5,2bcc <imu_upd+0x6e>
    2b8e:	9681c783          	lbu	a5,-1688(gp) # 20001a10 <imu_mode>
    2b92:	cf8d                	beqz	a5,2bcc <imu_upd+0x6e>
    2b94:	96a1c783          	lbu	a5,-1686(gp) # 20001a12 <imu_upd_cnt>
    2b98:	e781                	bnez	a5,2ba0 <imu_upd+0x42>
    2b9a:	478d                	li	a5,3
    2b9c:	96f18523          	sb	a5,-1686(gp) # 20001a12 <imu_upd_cnt>
    2ba0:	683020ef          	jal	ra,5a22 <Get_Systick_US>
    2ba4:	9581a783          	lw	a5,-1704(gp) # 20001a00 <last_imu_upd>
    2ba8:	6705                	lui	a4,0x1
    2baa:	9c470713          	addi	a4,a4,-1596 # 9c4 <USBFS_Device_Init+0x2>
    2bae:	97ba                	add	a5,a5,a4
    2bb0:	8aaa                	mv	s5,a0
    2bb2:	00f56d63          	bltu	a0,a5,2bcc <imu_upd+0x6e>
    2bb6:	e0dff0ef          	jal	ra,29c2 <imu_read>
    2bba:	cd01                	beqz	a0,2bd2 <imu_upd+0x74>
    2bbc:	667020ef          	jal	ra,5a22 <Get_Systick_US>
    2bc0:	85aa                	mv	a1,a0
    2bc2:	6531                	lui	a0,0xc
    2bc4:	ab850513          	addi	a0,a0,-1352 # bab8 <__errno+0x3cc>
    2bc8:	3d6050ef          	jal	ra,7f9e <printf>
    2bcc:	0141                	addi	sp,sp,16
    2bce:	daefd06f          	j	17c <__riscv_restore_12>
    2bd2:	20003c37          	lui	s8,0x20003
    2bd6:	c2cc0c93          	addi	s9,s8,-980 # 20002c2c <imu_sum>
    2bda:	20003737          	lui	a4,0x20003
    2bde:	c2070713          	addi	a4,a4,-992 # 20002c20 <imu_raw_buf>
    2be2:	018c8613          	addi	a2,s9,24
    2be6:	c2cc0793          	addi	a5,s8,-980
    2bea:	c2cc0493          	addi	s1,s8,-980
    2bee:	4394                	lw	a3,0(a5)
    2bf0:	00071583          	lh	a1,0(a4)
    2bf4:	0709                	addi	a4,a4,2
    2bf6:	96ae                	add	a3,a3,a1
    2bf8:	c394                	sw	a3,0(a5)
    2bfa:	0791                	addi	a5,a5,4 # 4004 <connection_state_handler+0xf6>
    2bfc:	fec799e3          	bne	a5,a2,2bee <imu_upd+0x90>
    2c00:	9551c403          	lbu	s0,-1707(gp) # 200019fd <imu_sample_cnt>
    2c04:	9481a783          	lw	a5,-1720(gp) # 200019f0 <last_upd.0>
    2c08:	0405                	addi	s0,s0,1
    2c0a:	6705                	lui	a4,0x1
    2c0c:	0ff47413          	zext.b	s0,s0
    2c10:	38870713          	addi	a4,a4,904 # 1388 <gpio_read_all+0x1a>
    2c14:	94818aa3          	sb	s0,-1707(gp) # 200019fd <imu_sample_cnt>
    2c18:	9551ac23          	sw	s5,-1704(gp) # 20001a00 <last_imu_upd>
    2c1c:	97ba                	add	a5,a5,a4
    2c1e:	fafae7e3          	bltu	s5,a5,2bcc <imu_upd+0x6e>
    2c22:	4088                	lw	a0,0(s1)
    2c24:	20003d37          	lui	s10,0x20003
    2c28:	6d8080ef          	jal	ra,b300 <__floatsisf>
    2c2c:	9641a583          	lw	a1,-1692(gp) # 20001a0c <imu_ratio_xf>
    2c30:	7cd070ef          	jal	ra,abfc <__mulsf3>
    2c34:	66c080ef          	jal	ra,b2a0 <__fixsfsi>
    2c38:	c088                	sw	a0,0(s1)
    2c3a:	40c8                	lw	a0,4(s1)
    2c3c:	6c4080ef          	jal	ra,b300 <__floatsisf>
    2c40:	9601a583          	lw	a1,-1696(gp) # 20001a08 <imu_ratio_yf>
    2c44:	7b9070ef          	jal	ra,abfc <__mulsf3>
    2c48:	658080ef          	jal	ra,b2a0 <__fixsfsi>
    2c4c:	c0c8                	sw	a0,4(s1)
    2c4e:	4488                	lw	a0,8(s1)
    2c50:	6b0080ef          	jal	ra,b300 <__floatsisf>
    2c54:	95c1a583          	lw	a1,-1700(gp) # 20001a04 <imu_ratio_zf>
    2c58:	7a5070ef          	jal	ra,abfc <__mulsf3>
    2c5c:	644080ef          	jal	ra,b2a0 <__fixsfsi>
    2c60:	c488                	sw	a0,8(s1)
    2c62:	c14d0493          	addi	s1,s10,-1004 # 20002c14 <imu_res>
    2c66:	00c48613          	addi	a2,s1,12
    2c6a:	c14d0713          	addi	a4,s10,-1004
    2c6e:	4781                	li	a5,0
    2c70:	c419                	beqz	s0,2c7e <imu_upd+0x120>
    2c72:	000ca783          	lw	a5,0(s9)
    2c76:	0287c7b3          	div	a5,a5,s0
    2c7a:	07c2                	slli	a5,a5,0x10
    2c7c:	87c1                	srai	a5,a5,0x10
    2c7e:	00f71023          	sh	a5,0(a4)
    2c82:	0709                	addi	a4,a4,2
    2c84:	0c91                	addi	s9,s9,4
    2c86:	fec714e3          	bne	a4,a2,2c6e <imu_upd+0x110>
    2c8a:	4661                	li	a2,24
    2c8c:	4581                	li	a1,0
    2c8e:	c2cc0513          	addi	a0,s8,-980
    2c92:	94018aa3          	sb	zero,-1707(gp) # 200019fd <imu_sample_cnt>
    2c96:	d20fd0ef          	jal	ra,1b6 <memset>
    2c9a:	9501a403          	lw	s0,-1712(gp) # 200019f8 <rep>
    2c9e:	4619                	li	a2,6
    2ca0:	9551a423          	sw	s5,-1720(gp) # 200019f0 <last_upd.0>
    2ca4:	00c40c13          	addi	s8,s0,12
    2ca8:	85e2                	mv	a1,s8
    2caa:	8522                	mv	a0,s0
    2cac:	cf4fd0ef          	jal	ra,1a0 <memcpy>
    2cb0:	01840a93          	addi	s5,s0,24
    2cb4:	4619                	li	a2,6
    2cb6:	85d6                	mv	a1,s5
    2cb8:	8562                	mv	a0,s8
    2cba:	ce6fd0ef          	jal	ra,1a0 <memcpy>
    2cbe:	200035b7          	lui	a1,0x20003
    2cc2:	4619                	li	a2,6
    2cc4:	c2658593          	addi	a1,a1,-986 # 20002c26 <imu_raw_buf+0x6>
    2cc8:	8556                	mv	a0,s5
    2cca:	cd6fd0ef          	jal	ra,1a0 <memcpy>
    2cce:	9681c783          	lbu	a5,-1688(gp) # 20001a10 <imu_mode>
    2cd2:	4705                	li	a4,1
    2cd4:	08e79e63          	bne	a5,a4,2d70 <imu_upd+0x212>
    2cd8:	6799                	lui	a5,0x6
    2cda:	7769                	lui	a4,0xffffa
    2cdc:	00648613          	addi	a2,s1,6
    2ce0:	1a878793          	addi	a5,a5,424 # 61a8 <hid_tx_service+0xb6>
    2ce4:	e5870713          	addi	a4,a4,-424 # ffff9e58 <_eusrstack+0xdfff4e58>
    2ce8:	00049683          	lh	a3,0(s1)
    2cec:	06d7dd63          	bge	a5,a3,2d66 <imu_upd+0x208>
    2cf0:	00f49023          	sh	a5,0(s1)
    2cf4:	0489                	addi	s1,s1,2
    2cf6:	fec499e3          	bne	s1,a2,2ce8 <imu_upd+0x18a>
    2cfa:	01240493          	addi	s1,s0,18
    2cfe:	4619                	li	a2,6
    2d00:	85a6                	mv	a1,s1
    2d02:	00640513          	addi	a0,s0,6
    2d06:	c9afd0ef          	jal	ra,1a0 <memcpy>
    2d0a:	0479                	addi	s0,s0,30
    2d0c:	4619                	li	a2,6
    2d0e:	85a2                	mv	a1,s0
    2d10:	8526                	mv	a0,s1
    2d12:	c8efd0ef          	jal	ra,1a0 <memcpy>
    2d16:	4619                	li	a2,6
    2d18:	c14d0593          	addi	a1,s10,-1004
    2d1c:	8522                	mv	a0,s0
    2d1e:	c82fd0ef          	jal	ra,1a0 <memcpy>
    2d22:	96a1c783          	lbu	a5,-1686(gp) # 20001a12 <imu_upd_cnt>
    2d26:	17fd                	addi	a5,a5,-1
    2d28:	0ff7f793          	zext.b	a5,a5
    2d2c:	96f18523          	sb	a5,-1686(gp) # 20001a12 <imu_upd_cnt>
    2d30:	e8079ee3          	bnez	a5,2bcc <imu_upd+0x6e>
    2d34:	9501a503          	lw	a0,-1712(gp) # 200019f8 <rep>
    2d38:	3a6030ef          	jal	ra,60de <set_imu_available>
    2d3c:	9541c503          	lbu	a0,-1708(gp) # 200019fc <imu_buf_pos>
    2d40:	02500793          	li	a5,37
    2d44:	02500613          	li	a2,37
    2d48:	00153513          	seqz	a0,a0
    2d4c:	94a18a23          	sb	a0,-1708(gp) # 200019fc <imu_buf_pos>
    2d50:	02f50533          	mul	a0,a0,a5
    2d54:	47b2                	lw	a5,12(sp)
    2d56:	4581                	li	a1,0
    2d58:	953e                	add	a0,a0,a5
    2d5a:	c5cfd0ef          	jal	ra,1b6 <memset>
    2d5e:	478d                	li	a5,3
    2d60:	96f18523          	sb	a5,-1686(gp) # 20001a12 <imu_upd_cnt>
    2d64:	b5a5                	j	2bcc <imu_upd+0x6e>
    2d66:	f8e6d7e3          	bge	a3,a4,2cf4 <imu_upd+0x196>
    2d6a:	00e49023          	sh	a4,0(s1)
    2d6e:	b759                	j	2cf4 <imu_upd+0x196>
    2d70:	4709                	li	a4,2
    2d72:	fae798e3          	bne	a5,a4,2d22 <imu_upd+0x1c4>
    2d76:	8522                	mv	a0,s0
    2d78:	66e000ef          	jal	ra,33e6 <imu_upd2>
    2d7c:	b75d                	j	2d22 <imu_upd+0x1c4>

00002d7e <_imu_quat_normalize>:
    2d7e:	bd8fd2ef          	jal	t0,156 <__riscv_save_4>
    2d82:	00052a83          	lw	s5,0(a0)
    2d86:	00452a03          	lw	s4,4(a0)
    2d8a:	842a                	mv	s0,a0
    2d8c:	00852983          	lw	s3,8(a0)
    2d90:	00c52903          	lw	s2,12(a0)
    2d94:	85d6                	mv	a1,s5
    2d96:	8556                	mv	a0,s5
    2d98:	665070ef          	jal	ra,abfc <__mulsf3>
    2d9c:	84aa                	mv	s1,a0
    2d9e:	85d2                	mv	a1,s4
    2da0:	8552                	mv	a0,s4
    2da2:	65b070ef          	jal	ra,abfc <__mulsf3>
    2da6:	85aa                	mv	a1,a0
    2da8:	8526                	mv	a0,s1
    2daa:	6d2070ef          	jal	ra,a47c <__addsf3>
    2dae:	84aa                	mv	s1,a0
    2db0:	85ce                	mv	a1,s3
    2db2:	854e                	mv	a0,s3
    2db4:	649070ef          	jal	ra,abfc <__mulsf3>
    2db8:	85aa                	mv	a1,a0
    2dba:	8526                	mv	a0,s1
    2dbc:	6c0070ef          	jal	ra,a47c <__addsf3>
    2dc0:	84aa                	mv	s1,a0
    2dc2:	85ca                	mv	a1,s2
    2dc4:	854a                	mv	a0,s2
    2dc6:	637070ef          	jal	ra,abfc <__mulsf3>
    2dca:	85aa                	mv	a1,a0
    2dcc:	8526                	mv	a0,s1
    2dce:	6ae070ef          	jal	ra,a47c <__addsf3>
    2dd2:	0d7040ef          	jal	ra,76a8 <sqrtf>
    2dd6:	85aa                	mv	a1,a0
    2dd8:	86c1a503          	lw	a0,-1940(gp) # 20001914 <MyLangDescr+0x44>
    2ddc:	209070ef          	jal	ra,a7e4 <__divsf3>
    2de0:	84aa                	mv	s1,a0
    2de2:	85aa                	mv	a1,a0
    2de4:	8556                	mv	a0,s5
    2de6:	617070ef          	jal	ra,abfc <__mulsf3>
    2dea:	c008                	sw	a0,0(s0)
    2dec:	85a6                	mv	a1,s1
    2dee:	8552                	mv	a0,s4
    2df0:	60d070ef          	jal	ra,abfc <__mulsf3>
    2df4:	c048                	sw	a0,4(s0)
    2df6:	85a6                	mv	a1,s1
    2df8:	854e                	mv	a0,s3
    2dfa:	603070ef          	jal	ra,abfc <__mulsf3>
    2dfe:	c408                	sw	a0,8(s0)
    2e00:	85a6                	mv	a1,s1
    2e02:	854a                	mv	a0,s2
    2e04:	5f9070ef          	jal	ra,abfc <__mulsf3>
    2e08:	c448                	sw	a0,12(s0)
    2e0a:	b80fd06f          	j	18a <__riscv_restore_4>

00002e0e <_imu_rotate_quaternion>:
    2e0e:	b3afd2ef          	jal	t0,148 <__riscv_save_10>
    2e12:	00c52b83          	lw	s7,12(a0)
    2e16:	45c4                	lw	s1,12(a1)
    2e18:	00052a83          	lw	s5,0(a0)
    2e1c:	0005a983          	lw	s3,0(a1)
    2e20:	00452a03          	lw	s4,4(a0)
    2e24:	0045ab03          	lw	s6,4(a1)
    2e28:	00852903          	lw	s2,8(a0)
    2e2c:	0085ac03          	lw	s8,8(a1)
    2e30:	842a                	mv	s0,a0
    2e32:	85a6                	mv	a1,s1
    2e34:	855e                	mv	a0,s7
    2e36:	5c7070ef          	jal	ra,abfc <__mulsf3>
    2e3a:	8caa                	mv	s9,a0
    2e3c:	85ce                	mv	a1,s3
    2e3e:	8556                	mv	a0,s5
    2e40:	5bd070ef          	jal	ra,abfc <__mulsf3>
    2e44:	85aa                	mv	a1,a0
    2e46:	8566                	mv	a0,s9
    2e48:	090080ef          	jal	ra,aed8 <__subsf3>
    2e4c:	8caa                	mv	s9,a0
    2e4e:	85da                	mv	a1,s6
    2e50:	8552                	mv	a0,s4
    2e52:	5ab070ef          	jal	ra,abfc <__mulsf3>
    2e56:	85aa                	mv	a1,a0
    2e58:	8566                	mv	a0,s9
    2e5a:	07e080ef          	jal	ra,aed8 <__subsf3>
    2e5e:	8caa                	mv	s9,a0
    2e60:	85e2                	mv	a1,s8
    2e62:	854a                	mv	a0,s2
    2e64:	599070ef          	jal	ra,abfc <__mulsf3>
    2e68:	85aa                	mv	a1,a0
    2e6a:	8566                	mv	a0,s9
    2e6c:	06c080ef          	jal	ra,aed8 <__subsf3>
    2e70:	c448                	sw	a0,12(s0)
    2e72:	85ce                	mv	a1,s3
    2e74:	855e                	mv	a0,s7
    2e76:	587070ef          	jal	ra,abfc <__mulsf3>
    2e7a:	8caa                	mv	s9,a0
    2e7c:	85d6                	mv	a1,s5
    2e7e:	8526                	mv	a0,s1
    2e80:	57d070ef          	jal	ra,abfc <__mulsf3>
    2e84:	85aa                	mv	a1,a0
    2e86:	8566                	mv	a0,s9
    2e88:	5f4070ef          	jal	ra,a47c <__addsf3>
    2e8c:	8caa                	mv	s9,a0
    2e8e:	85e2                	mv	a1,s8
    2e90:	8552                	mv	a0,s4
    2e92:	56b070ef          	jal	ra,abfc <__mulsf3>
    2e96:	85aa                	mv	a1,a0
    2e98:	8566                	mv	a0,s9
    2e9a:	5e2070ef          	jal	ra,a47c <__addsf3>
    2e9e:	8caa                	mv	s9,a0
    2ea0:	85ca                	mv	a1,s2
    2ea2:	855a                	mv	a0,s6
    2ea4:	559070ef          	jal	ra,abfc <__mulsf3>
    2ea8:	85aa                	mv	a1,a0
    2eaa:	8566                	mv	a0,s9
    2eac:	02c080ef          	jal	ra,aed8 <__subsf3>
    2eb0:	c008                	sw	a0,0(s0)
    2eb2:	85da                	mv	a1,s6
    2eb4:	855e                	mv	a0,s7
    2eb6:	547070ef          	jal	ra,abfc <__mulsf3>
    2eba:	8caa                	mv	s9,a0
    2ebc:	85e2                	mv	a1,s8
    2ebe:	8556                	mv	a0,s5
    2ec0:	53d070ef          	jal	ra,abfc <__mulsf3>
    2ec4:	85aa                	mv	a1,a0
    2ec6:	8566                	mv	a0,s9
    2ec8:	010080ef          	jal	ra,aed8 <__subsf3>
    2ecc:	8caa                	mv	s9,a0
    2ece:	85d2                	mv	a1,s4
    2ed0:	8526                	mv	a0,s1
    2ed2:	52b070ef          	jal	ra,abfc <__mulsf3>
    2ed6:	85aa                	mv	a1,a0
    2ed8:	8566                	mv	a0,s9
    2eda:	5a2070ef          	jal	ra,a47c <__addsf3>
    2ede:	8caa                	mv	s9,a0
    2ee0:	85ca                	mv	a1,s2
    2ee2:	854e                	mv	a0,s3
    2ee4:	519070ef          	jal	ra,abfc <__mulsf3>
    2ee8:	85aa                	mv	a1,a0
    2eea:	8566                	mv	a0,s9
    2eec:	590070ef          	jal	ra,a47c <__addsf3>
    2ef0:	c048                	sw	a0,4(s0)
    2ef2:	85e2                	mv	a1,s8
    2ef4:	855e                	mv	a0,s7
    2ef6:	507070ef          	jal	ra,abfc <__mulsf3>
    2efa:	8baa                	mv	s7,a0
    2efc:	85da                	mv	a1,s6
    2efe:	8556                	mv	a0,s5
    2f00:	4fd070ef          	jal	ra,abfc <__mulsf3>
    2f04:	85aa                	mv	a1,a0
    2f06:	855e                	mv	a0,s7
    2f08:	574070ef          	jal	ra,a47c <__addsf3>
    2f0c:	8aaa                	mv	s5,a0
    2f0e:	85d2                	mv	a1,s4
    2f10:	854e                	mv	a0,s3
    2f12:	4eb070ef          	jal	ra,abfc <__mulsf3>
    2f16:	85aa                	mv	a1,a0
    2f18:	8556                	mv	a0,s5
    2f1a:	7bf070ef          	jal	ra,aed8 <__subsf3>
    2f1e:	89aa                	mv	s3,a0
    2f20:	85ca                	mv	a1,s2
    2f22:	8526                	mv	a0,s1
    2f24:	4d9070ef          	jal	ra,abfc <__mulsf3>
    2f28:	85aa                	mv	a1,a0
    2f2a:	854e                	mv	a0,s3
    2f2c:	550070ef          	jal	ra,a47c <__addsf3>
    2f30:	c408                	sw	a0,8(s0)
    2f32:	a4efd06f          	j	180 <__riscv_restore_10>

00002f36 <_imu_update_quaternion>:
    2f36:	a0afd2ef          	jal	t0,140 <__riscv_save_12>
    2f3a:	842a                	mv	s0,a0
    2f3c:	9701a503          	lw	a0,-1680(gp) # 20001a18 <prev_timestamp.5>
    2f40:	7179                	addi	sp,sp,-48
    2f42:	84ae                	mv	s1,a1
    2f44:	40a60533          	sub	a0,a2,a0
    2f48:	8a32                	mv	s4,a2
    2f4a:	258070ef          	jal	ra,a1a2 <__floatunsidf>
    2f4e:	89aa                	mv	s3,a0
    2f50:	0014c503          	lbu	a0,1(s1)
    2f54:	0004c783          	lbu	a5,0(s1)
    2f58:	892e                	mv	s2,a1
    2f5a:	0522                	slli	a0,a0,0x8
    2f5c:	8d5d                	or	a0,a0,a5
    2f5e:	0542                	slli	a0,a0,0x10
    2f60:	8541                	srai	a0,a0,0x10
    2f62:	9741a823          	sw	s4,-1680(gp) # 20001a18 <prev_timestamp.5>
    2f66:	1cc070ef          	jal	ra,a132 <__floatsidf>
    2f6a:	864e                	mv	a2,s3
    2f6c:	86ca                	mv	a3,s2
    2f6e:	544060ef          	jal	ra,94b2 <__muldf3>
    2f72:	8301a603          	lw	a2,-2000(gp) # 200018d8 <MyLangDescr+0x8>
    2f76:	8341a683          	lw	a3,-1996(gp) # 200018dc <MyLangDescr+0xc>
    2f7a:	538060ef          	jal	ra,94b2 <__muldf3>
    2f7e:	8d2a                	mv	s10,a0
    2f80:	0034c503          	lbu	a0,3(s1)
    2f84:	0024c783          	lbu	a5,2(s1)
    2f88:	8cae                	mv	s9,a1
    2f8a:	0522                	slli	a0,a0,0x8
    2f8c:	8d5d                	or	a0,a0,a5
    2f8e:	0542                	slli	a0,a0,0x10
    2f90:	8541                	srai	a0,a0,0x10
    2f92:	1a0070ef          	jal	ra,a132 <__floatsidf>
    2f96:	864e                	mv	a2,s3
    2f98:	86ca                	mv	a3,s2
    2f9a:	518060ef          	jal	ra,94b2 <__muldf3>
    2f9e:	8301a603          	lw	a2,-2000(gp) # 200018d8 <MyLangDescr+0x8>
    2fa2:	8341a683          	lw	a3,-1996(gp) # 200018dc <MyLangDescr+0xc>
    2fa6:	50c060ef          	jal	ra,94b2 <__muldf3>
    2faa:	8c2a                	mv	s8,a0
    2fac:	0054c503          	lbu	a0,5(s1)
    2fb0:	0044c783          	lbu	a5,4(s1)
    2fb4:	8bae                	mv	s7,a1
    2fb6:	0522                	slli	a0,a0,0x8
    2fb8:	8d5d                	or	a0,a0,a5
    2fba:	0542                	slli	a0,a0,0x10
    2fbc:	8541                	srai	a0,a0,0x10
    2fbe:	174070ef          	jal	ra,a132 <__floatsidf>
    2fc2:	864e                	mv	a2,s3
    2fc4:	86ca                	mv	a3,s2
    2fc6:	4ec060ef          	jal	ra,94b2 <__muldf3>
    2fca:	8301a603          	lw	a2,-2000(gp) # 200018d8 <MyLangDescr+0x8>
    2fce:	8341a683          	lw	a3,-1996(gp) # 200018dc <MyLangDescr+0xc>
    2fd2:	4e0060ef          	jal	ra,94b2 <__muldf3>
    2fd6:	8a2a                	mv	s4,a0
    2fd8:	89ae                	mv	s3,a1
    2fda:	866a                	mv	a2,s10
    2fdc:	86e6                	mv	a3,s9
    2fde:	856a                	mv	a0,s10
    2fe0:	85e6                	mv	a1,s9
    2fe2:	4d0060ef          	jal	ra,94b2 <__muldf3>
    2fe6:	892a                	mv	s2,a0
    2fe8:	84ae                	mv	s1,a1
    2fea:	8662                	mv	a2,s8
    2fec:	86de                	mv	a3,s7
    2fee:	8562                	mv	a0,s8
    2ff0:	85de                	mv	a1,s7
    2ff2:	4c0060ef          	jal	ra,94b2 <__muldf3>
    2ff6:	862a                	mv	a2,a0
    2ff8:	86ae                	mv	a3,a1
    2ffa:	854a                	mv	a0,s2
    2ffc:	85a6                	mv	a1,s1
    2ffe:	762050ef          	jal	ra,8760 <__adddf3>
    3002:	892a                	mv	s2,a0
    3004:	84ae                	mv	s1,a1
    3006:	8652                	mv	a2,s4
    3008:	86ce                	mv	a3,s3
    300a:	8552                	mv	a0,s4
    300c:	85ce                	mv	a1,s3
    300e:	4a4060ef          	jal	ra,94b2 <__muldf3>
    3012:	862a                	mv	a2,a0
    3014:	86ae                	mv	a3,a1
    3016:	854a                	mv	a0,s2
    3018:	85a6                	mv	a1,s1
    301a:	746050ef          	jal	ra,8760 <__adddf3>
    301e:	862a                	mv	a2,a0
    3020:	86ae                	mv	a3,a1
    3022:	892a                	mv	s2,a0
    3024:	84ae                	mv	s1,a1
    3026:	48c060ef          	jal	ra,94b2 <__muldf3>
    302a:	8381a603          	lw	a2,-1992(gp) # 200018e0 <MyLangDescr+0x10>
    302e:	83c1a683          	lw	a3,-1988(gp) # 200018e4 <MyLangDescr+0x14>
    3032:	8dae                	mv	s11,a1
    3034:	c62a                	sw	a0,12(sp)
    3036:	613050ef          	jal	ra,8e48 <__divdf3>
    303a:	8401a603          	lw	a2,-1984(gp) # 200018e8 <MyLangDescr+0x18>
    303e:	8441a683          	lw	a3,-1980(gp) # 200018ec <MyLangDescr+0x1c>
    3042:	8b2a                	mv	s6,a0
    3044:	8aae                	mv	s5,a1
    3046:	854a                	mv	a0,s2
    3048:	85a6                	mv	a1,s1
    304a:	5ff050ef          	jal	ra,8e48 <__divdf3>
    304e:	862a                	mv	a2,a0
    3050:	86ae                	mv	a3,a1
    3052:	855a                	mv	a0,s6
    3054:	85d6                	mv	a1,s5
    3056:	1a7060ef          	jal	ra,99fc <__subdf3>
    305a:	8481a603          	lw	a2,-1976(gp) # 200018f0 <MyLangDescr+0x20>
    305e:	84c1a683          	lw	a3,-1972(gp) # 200018f4 <MyLangDescr+0x24>
    3062:	6fe050ef          	jal	ra,8760 <__adddf3>
    3066:	8b2a                	mv	s6,a0
    3068:	8aae                	mv	s5,a1
    306a:	862a                	mv	a2,a0
    306c:	86ae                	mv	a3,a1
    306e:	856a                	mv	a0,s10
    3070:	85e6                	mv	a1,s9
    3072:	440060ef          	jal	ra,94b2 <__muldf3>
    3076:	49c080ef          	jal	ra,b512 <__truncdfsf2>
    307a:	865a                	mv	a2,s6
    307c:	86d6                	mv	a3,s5
    307e:	ca2a                	sw	a0,20(sp)
    3080:	85de                	mv	a1,s7
    3082:	8562                	mv	a0,s8
    3084:	42e060ef          	jal	ra,94b2 <__muldf3>
    3088:	48a080ef          	jal	ra,b512 <__truncdfsf2>
    308c:	865a                	mv	a2,s6
    308e:	86d6                	mv	a3,s5
    3090:	cc2a                	sw	a0,24(sp)
    3092:	85ce                	mv	a1,s3
    3094:	8552                	mv	a0,s4
    3096:	41c060ef          	jal	ra,94b2 <__muldf3>
    309a:	478080ef          	jal	ra,b512 <__truncdfsf2>
    309e:	47b2                	lw	a5,12(sp)
    30a0:	8501a603          	lw	a2,-1968(gp) # 200018f8 <MyLangDescr+0x28>
    30a4:	8541a683          	lw	a3,-1964(gp) # 200018fc <MyLangDescr+0x2c>
    30a8:	ce2a                	sw	a0,28(sp)
    30aa:	85ee                	mv	a1,s11
    30ac:	853e                	mv	a0,a5
    30ae:	59b050ef          	jal	ra,8e48 <__divdf3>
    30b2:	8581a603          	lw	a2,-1960(gp) # 20001900 <MyLangDescr+0x30>
    30b6:	85c1a683          	lw	a3,-1956(gp) # 20001904 <MyLangDescr+0x34>
    30ba:	8a2a                	mv	s4,a0
    30bc:	89ae                	mv	s3,a1
    30be:	854a                	mv	a0,s2
    30c0:	85a6                	mv	a1,s1
    30c2:	3f0060ef          	jal	ra,94b2 <__muldf3>
    30c6:	862a                	mv	a2,a0
    30c8:	86ae                	mv	a3,a1
    30ca:	8552                	mv	a0,s4
    30cc:	85ce                	mv	a1,s3
    30ce:	12f060ef          	jal	ra,99fc <__subdf3>
    30d2:	8601a603          	lw	a2,-1952(gp) # 20001908 <MyLangDescr+0x38>
    30d6:	8641a683          	lw	a3,-1948(gp) # 2000190c <MyLangDescr+0x3c>
    30da:	200014b7          	lui	s1,0x20001
    30de:	682050ef          	jal	ra,8760 <__adddf3>
    30e2:	430080ef          	jal	ra,b512 <__truncdfsf2>
    30e6:	084c                	addi	a1,sp,20
    30e8:	d02a                	sw	a0,32(sp)
    30ea:	7c048513          	addi	a0,s1,1984 # 200017c0 <_imu_quat_state>
    30ee:	d21ff0ef          	jal	ra,2e0e <_imu_rotate_quaternion>
    30f2:	7c048513          	addi	a0,s1,1984
    30f6:	c89ff0ef          	jal	ra,2d7e <_imu_quat_normalize>
    30fa:	00144783          	lbu	a5,1(s0)
    30fe:	00044703          	lbu	a4,0(s0)
    3102:	7c048493          	addi	s1,s1,1984
    3106:	07a2                	slli	a5,a5,0x8
    3108:	8fd9                	or	a5,a5,a4
    310a:	00f49823          	sh	a5,16(s1)
    310e:	00344783          	lbu	a5,3(s0)
    3112:	00244703          	lbu	a4,2(s0)
    3116:	07a2                	slli	a5,a5,0x8
    3118:	8fd9                	or	a5,a5,a4
    311a:	00f49923          	sh	a5,18(s1)
    311e:	00544783          	lbu	a5,5(s0)
    3122:	00444703          	lbu	a4,4(s0)
    3126:	07a2                	slli	a5,a5,0x8
    3128:	8fd9                	or	a5,a5,a4
    312a:	00f49a23          	sh	a5,20(s1)
    312e:	6145                	addi	sp,sp,48
    3130:	84cfd06f          	j	17c <__riscv_restore_12>

00003134 <switch_motion_pack_quat>:
    3134:	814fd2ef          	jal	t0,148 <__riscv_save_10>
    3138:	0065c783          	lbu	a5,6(a1)
    313c:	200034b7          	lui	s1,0x20003
    3140:	89aa                	mv	s3,a0
    3142:	9bf1                	andi	a5,a5,-4
    3144:	0027e793          	ori	a5,a5,2
    3148:	00f58323          	sb	a5,6(a1)
    314c:	96a1c703          	lbu	a4,-1686(gp) # 20001a12 <imu_upd_cnt>
    3150:	478d                	li	a5,3
    3152:	842e                	mv	s0,a1
    3154:	c5048493          	addi	s1,s1,-944 # 20002c50 <gyo_samples.3>
    3158:	02f71263          	bne	a4,a5,317c <switch_motion_pack_quat+0x48>
    315c:	0df020ef          	jal	ra,5a3a <Get_Systick_MS>
    3160:	96a1a623          	sw	a0,-1684(gp) # 20001a14 <timestamp.4>
    3164:	0004a023          	sw	zero,0(s1)
    3168:	0004a223          	sw	zero,4(s1)
    316c:	0004a423          	sw	zero,8(s1)
    3170:	0004a623          	sw	zero,12(s1)
    3174:	00049823          	sh	zero,16(s1)
    3178:	960185a3          	sb	zero,-1685(gp) # 20001a13 <pos.2>
    317c:	96b1c503          	lbu	a0,-1685(gp) # 20001a13 <pos.2>
    3180:	4799                	li	a5,6
    3182:	4619                	li	a2,6
    3184:	00150a13          	addi	s4,a0,1
    3188:	02f50533          	mul	a0,a0,a5
    318c:	0ffa7a13          	zext.b	s4,s4
    3190:	974185a3          	sb	s4,-1685(gp) # 20001a13 <pos.2>
    3194:	20003937          	lui	s2,0x20003
    3198:	c1490593          	addi	a1,s2,-1004 # 20002c14 <imu_res>
    319c:	9526                	add	a0,a0,s1
    319e:	802fd0ef          	jal	ra,1a0 <memcpy>
    31a2:	478d                	li	a5,3
    31a4:	22fa1c63          	bne	s4,a5,33dc <switch_motion_pack_quat+0x2a8>
    31a8:	00644783          	lbu	a5,6(s0)
    31ac:	80000b37          	lui	s6,0x80000
    31b0:	4a85                	li	s5,1
    31b2:	9bcd                	andi	a5,a5,-13
    31b4:	00f40323          	sb	a5,6(s0)
    31b8:	1b7d                	addi	s6,s6,-1 # 7fffffff <_eusrstack+0x5fffafff>
    31ba:	4b91                	li	s7,4
    31bc:	00644a03          	lbu	s4,6(s0)
    31c0:	002a9793          	slli	a5,s5,0x2
    31c4:	97ce                	add	a5,a5,s3
    31c6:	4388                	lw	a0,0(a5)
    31c8:	00ca7793          	andi	a5,s4,12
    31cc:	97ce                	add	a5,a5,s3
    31ce:	438c                	lw	a1,0(a5)
    31d0:	01657533          	and	a0,a0,s6
    31d4:	0165f5b3          	and	a1,a1,s6
    31d8:	0f7070ef          	jal	ra,aace <__gesf2>
    31dc:	00a05b63          	blez	a0,31f2 <switch_motion_pack_quat+0xbe>
    31e0:	003af793          	andi	a5,s5,3
    31e4:	078a                	slli	a5,a5,0x2
    31e6:	ff3a7a13          	andi	s4,s4,-13
    31ea:	00fa6a33          	or	s4,s4,a5
    31ee:	01440323          	sb	s4,6(s0)
    31f2:	0a85                	addi	s5,s5,1
    31f4:	fd7a94e3          	bne	s5,s7,31bc <switch_motion_pack_quat+0x88>
    31f8:	0009a503          	lw	a0,0(s3)
    31fc:	00000593          	li	a1,0
    3200:	165070ef          	jal	ra,ab64 <__lesf2>
    3204:	1c055e63          	bgez	a0,33e0 <switch_motion_pack_quat+0x2ac>
    3208:	8701ab83          	lw	s7,-1936(gp) # 20001918 <MyLangDescr+0x48>
    320c:	8741ac03          	lw	s8,-1932(gp) # 2000191c <MyLangDescr+0x4c>
    3210:	20003a37          	lui	s4,0x20003
    3214:	00498a93          	addi	s5,s3,4
    3218:	c44a0b13          	addi	s6,s4,-956 # 20002c44 <quaternion_30bit_components.0>
    321c:	09c1                	addi	s3,s3,16
    321e:	c44a0a13          	addi	s4,s4,-956
    3222:	000aa503          	lw	a0,0(s5)
    3226:	85e2                	mv	a1,s8
    3228:	0a91                	addi	s5,s5,4
    322a:	1d3070ef          	jal	ra,abfc <__mulsf3>
    322e:	85de                	mv	a1,s7
    3230:	1cd070ef          	jal	ra,abfc <__mulsf3>
    3234:	06c080ef          	jal	ra,b2a0 <__fixsfsi>
    3238:	00ab2023          	sw	a0,0(s6)
    323c:	0b11                	addi	s6,s6,4
    323e:	ff5992e3          	bne	s3,s5,3222 <switch_motion_pack_quat+0xee>
    3242:	000a2783          	lw	a5,0(s4)
    3246:	00644703          	lbu	a4,6(s0)
    324a:	c1490913          	addi	s2,s2,-1004
    324e:	87a9                	srai	a5,a5,0xa
    3250:	00f7f693          	andi	a3,a5,15
    3254:	0692                	slli	a3,a3,0x4
    3256:	8b3d                	andi	a4,a4,15
    3258:	8f55                	or	a4,a4,a3
    325a:	00e40323          	sb	a4,6(s0)
    325e:	0047d713          	srli	a4,a5,0x4
    3262:	00e403a3          	sb	a4,7(s0)
    3266:	00c7d713          	srli	a4,a5,0xc
    326a:	00e40423          	sb	a4,8(s0)
    326e:	00944703          	lbu	a4,9(s0)
    3272:	83d1                	srli	a5,a5,0x14
    3274:	8b85                	andi	a5,a5,1
    3276:	9b79                	andi	a4,a4,-2
    3278:	8fd9                	or	a5,a5,a4
    327a:	00f404a3          	sb	a5,9(s0)
    327e:	004a2783          	lw	a5,4(s4)
    3282:	00944703          	lbu	a4,9(s0)
    3286:	87a9                	srai	a5,a5,0xa
    3288:	07f7f693          	andi	a3,a5,127
    328c:	0686                	slli	a3,a3,0x1
    328e:	8b05                	andi	a4,a4,1
    3290:	8f55                	or	a4,a4,a3
    3292:	00e404a3          	sb	a4,9(s0)
    3296:	0077d713          	srli	a4,a5,0x7
    329a:	00e40523          	sb	a4,10(s0)
    329e:	00b44703          	lbu	a4,11(s0)
    32a2:	83bd                	srli	a5,a5,0xf
    32a4:	03f7f793          	andi	a5,a5,63
    32a8:	fc077713          	andi	a4,a4,-64
    32ac:	8fd9                	or	a5,a5,a4
    32ae:	00f405a3          	sb	a5,11(s0)
    32b2:	008a2783          	lw	a5,8(s4)
    32b6:	00b44703          	lbu	a4,11(s0)
    32ba:	40a7d693          	srai	a3,a5,0xa
    32be:	069a                	slli	a3,a3,0x6
    32c0:	03f77713          	andi	a4,a4,63
    32c4:	8f55                	or	a4,a4,a3
    32c6:	87b1                	srai	a5,a5,0xc
    32c8:	00e405a3          	sb	a4,11(s0)
    32cc:	0087d713          	srli	a4,a5,0x8
    32d0:	00e409a3          	sb	a4,19(s0)
    32d4:	96c1d703          	lhu	a4,-1684(gp) # 20001a14 <timestamp.4>
    32d8:	00049803          	lh	a6,0(s1)
    32dc:	00f40923          	sb	a5,18(s0)
    32e0:	02e40123          	sb	a4,34(s0)
    32e4:	8321                	srli	a4,a4,0x8
    32e6:	02e401a3          	sb	a4,35(s0)
    32ea:	02444703          	lbu	a4,36(s0)
    32ee:	83c1                	srli	a5,a5,0x10
    32f0:	8b9d                	andi	a5,a5,7
    32f2:	fc077713          	andi	a4,a4,-64
    32f6:	00376713          	ori	a4,a4,3
    32fa:	02e40223          	sb	a4,36(s0)
    32fe:	00091703          	lh	a4,0(s2)
    3302:	410706b3          	sub	a3,a4,a6
    3306:	0f86f613          	andi	a2,a3,248
    330a:	8fd1                	or	a5,a5,a2
    330c:	82a1                	srli	a3,a3,0x8
    330e:	00f40a23          	sb	a5,20(s0)
    3312:	00d40aa3          	sb	a3,21(s0)
    3316:	00291603          	lh	a2,2(s2)
    331a:	00249883          	lh	a7,2(s1)
    331e:	01744683          	lbu	a3,23(s0)
    3322:	411607b3          	sub	a5,a2,a7
    3326:	878d                	srai	a5,a5,0x3
    3328:	00f40b23          	sb	a5,22(s0)
    332c:	83a1                	srli	a5,a5,0x8
    332e:	9a81                	andi	a3,a3,-32
    3330:	8bfd                	andi	a5,a5,31
    3332:	8fd5                	or	a5,a5,a3
    3334:	00f40ba3          	sb	a5,23(s0)
    3338:	00491683          	lh	a3,4(s2)
    333c:	00449503          	lh	a0,4(s1)
    3340:	01744583          	lbu	a1,23(s0)
    3344:	40a687b3          	sub	a5,a3,a0
    3348:	4037d313          	srai	t1,a5,0x3
    334c:	0316                	slli	t1,t1,0x5
    334e:	89fd                	andi	a1,a1,31
    3350:	0065e5b3          	or	a1,a1,t1
    3354:	00b40ba3          	sb	a1,23(s0)
    3358:	00649303          	lh	t1,6(s1)
    335c:	8799                	srai	a5,a5,0x6
    335e:	0087d593          	srli	a1,a5,0x8
    3362:	00f40f23          	sb	a5,30(s0)
    3366:	010707b3          	add	a5,a4,a6
    336a:	979a                	add	a5,a5,t1
    336c:	5875                	li	a6,-3
    336e:	0307c7b3          	div	a5,a5,a6
    3372:	0035f713          	andi	a4,a1,3
    3376:	979a                	add	a5,a5,t1
    3378:	87a5                	srai	a5,a5,0x9
    337a:	03f7f313          	andi	t1,a5,63
    337e:	030a                	slli	t1,t1,0x2
    3380:	00676733          	or	a4,a4,t1
    3384:	00e40fa3          	sb	a4,31(s0)
    3388:	02044703          	lbu	a4,32(s0)
    338c:	8399                	srli	a5,a5,0x6
    338e:	8b85                	andi	a5,a5,1
    3390:	9b79                	andi	a4,a4,-2
    3392:	8fd9                	or	a5,a5,a4
    3394:	02f40023          	sb	a5,32(s0)
    3398:	00849703          	lh	a4,8(s1)
    339c:	011607b3          	add	a5,a2,a7
    33a0:	97ba                	add	a5,a5,a4
    33a2:	0307c7b3          	div	a5,a5,a6
    33a6:	97ba                	add	a5,a5,a4
    33a8:	02044703          	lbu	a4,32(s0)
    33ac:	87a5                	srai	a5,a5,0x9
    33ae:	0786                	slli	a5,a5,0x1
    33b0:	8b05                	andi	a4,a4,1
    33b2:	8fd9                	or	a5,a5,a4
    33b4:	02f40023          	sb	a5,32(s0)
    33b8:	00a49703          	lh	a4,10(s1)
    33bc:	00a687b3          	add	a5,a3,a0
    33c0:	97ba                	add	a5,a5,a4
    33c2:	0307c7b3          	div	a5,a5,a6
    33c6:	97ba                	add	a5,a5,a4
    33c8:	02144703          	lbu	a4,33(s0)
    33cc:	87a5                	srai	a5,a5,0x9
    33ce:	07f7f793          	andi	a5,a5,127
    33d2:	f8077713          	andi	a4,a4,-128
    33d6:	8fd9                	or	a5,a5,a4
    33d8:	02f400a3          	sb	a5,33(s0)
    33dc:	da5fc06f          	j	180 <__riscv_restore_10>
    33e0:	86c1ab83          	lw	s7,-1940(gp) # 20001914 <MyLangDescr+0x44>
    33e4:	b525                	j	320c <switch_motion_pack_quat+0xd8>

000033e6 <imu_upd2>:
    33e6:	d8bfc2ef          	jal	t0,170 <__riscv_save_0>
    33ea:	638020ef          	jal	ra,5a22 <Get_Systick_US>
    33ee:	862a                	mv	a2,a0
    33f0:	200035b7          	lui	a1,0x20003
    33f4:	20003537          	lui	a0,0x20003
    33f8:	c1458593          	addi	a1,a1,-1004 # 20002c14 <imu_res>
    33fc:	c1a50513          	addi	a0,a0,-998 # 20002c1a <imu_res+0x6>
    3400:	b37ff0ef          	jal	ra,2f36 <_imu_update_quaternion>
    3404:	9541c783          	lbu	a5,-1708(gp) # 200019fc <imu_buf_pos>
    3408:	02500713          	li	a4,37
    340c:	200035b7          	lui	a1,0x20003
    3410:	02e787b3          	mul	a5,a5,a4
    3414:	bc858593          	addi	a1,a1,-1080 # 20002bc8 <imu_pack_buf>
    3418:	20001537          	lui	a0,0x20001
    341c:	7c050513          	addi	a0,a0,1984 # 200017c0 <_imu_quat_state>
    3420:	95be                	add	a1,a1,a5
    3422:	d13ff0ef          	jal	ra,3134 <switch_motion_pack_quat>
    3426:	d6ffc06f          	j	194 <__riscv_restore_0>

0000342a <Var_Init>:
    342a:	02418793          	addi	a5,gp,36 # 200020cc <RingBuffer_Comm>
    342e:	00078023          	sb	zero,0(a5)
    3432:	00078da3          	sb	zero,27(a5)
    3436:	000780a3          	sb	zero,1(a5)
    343a:	00078123          	sb	zero,2(a5)
    343e:	02418713          	addi	a4,gp,36 # 200020cc <RingBuffer_Comm>
    3442:	4781                	li	a5,0
    3444:	46e1                	li	a3,24
    3446:	00f70633          	add	a2,a4,a5
    344a:	000601a3          	sb	zero,3(a2)
    344e:	0785                	addi	a5,a5,1
    3450:	fed79be3          	bne	a5,a3,3446 <Var_Init+0x1c>
    3454:	8082                	ret

00003456 <button_upd_all>:
    3456:	9b81c783          	lbu	a5,-1608(gp) # 20001a60 <top_trigger>
    345a:	eb89                	bnez	a5,346c <button_upd_all+0x16>
    345c:	d15fc2ef          	jal	t0,170 <__riscv_save_0>
    3460:	f0ffd0ef          	jal	ra,136e <gpio_read_all>
    3464:	9aa1aa23          	sw	a0,-1612(gp) # 20001a5c <sts_button>
    3468:	d2dfc06f          	j	194 <__riscv_restore_0>
    346c:	8082                	ret

0000346e <get_peripheral_data_handler>:
    346e:	c931                	beqz	a0,34c2 <get_peripheral_data_handler+0x54>
    3470:	d01fc2ef          	jal	t0,170 <__riscv_save_0>
    3474:	842a                	mv	s0,a0
    3476:	fe1ff0ef          	jal	ra,3456 <button_upd_all>
    347a:	9b41c703          	lbu	a4,-1612(gp) # 20001a5c <sts_button>
    347e:	00e40023          	sb	a4,0(s0)
    3482:	9b51c703          	lbu	a4,-1611(gp) # 20001a5d <sts_button+0x1>
    3486:	9b61c783          	lbu	a5,-1610(gp) # 20001a5e <sts_button+0x2>
    348a:	00e400a3          	sb	a4,1(s0)
    348e:	00f40123          	sb	a5,2(s0)
    3492:	9b01a783          	lw	a5,-1616(gp) # 20001a58 <sts_ljoy>
    3496:	00f401a3          	sb	a5,3(s0)
    349a:	0087d713          	srli	a4,a5,0x8
    349e:	83c1                	srli	a5,a5,0x10
    34a0:	00f402a3          	sb	a5,5(s0)
    34a4:	9ac1a783          	lw	a5,-1620(gp) # 20001a54 <sts_rjoy>
    34a8:	00e40223          	sb	a4,4(s0)
    34ac:	00f40323          	sb	a5,6(s0)
    34b0:	0087d713          	srli	a4,a5,0x8
    34b4:	83c1                	srli	a5,a5,0x10
    34b6:	00e403a3          	sb	a4,7(s0)
    34ba:	00f40423          	sb	a5,8(s0)
    34be:	cd7fc06f          	j	194 <__riscv_restore_0>
    34c2:	8082                	ret

000034c4 <joystick_snapback_filter>:
    34c4:	c85fc2ef          	jal	t0,148 <__riscv_save_10>
    34c8:	8ab2                	mv	s5,a2
    34ca:	28018793          	addi	a5,gp,640 # 20002328 <user_config>
    34ce:	0227c783          	lbu	a5,34(a5)
    34d2:	4709                	li	a4,2
    34d4:	28018493          	addi	s1,gp,640 # 20002328 <user_config>
    34d8:	001a9a13          	slli	s4,s5,0x1
    34dc:	12e78a63          	beq	a5,a4,3610 <joystick_snapback_filter+0x14c>
    34e0:	470d                	li	a4,3
    34e2:	16e78063          	beq	a5,a4,3642 <joystick_snapback_filter+0x17e>
    34e6:	4705                	li	a4,1
    34e8:	02e79863          	bne	a5,a4,3518 <joystick_snapback_filter+0x54>
    34ec:	41f55713          	srai	a4,a0,0x1f
    34f0:	00a747b3          	xor	a5,a4,a0
    34f4:	8f99                	sub	a5,a5,a4
    34f6:	01448733          	add	a4,s1,s4
    34fa:	01e74683          	lbu	a3,30(a4)
    34fe:	00d7dd63          	bge	a5,a3,3518 <joystick_snapback_filter+0x54>
    3502:	41f5d693          	srai	a3,a1,0x1f
    3506:	01f74703          	lbu	a4,31(a4)
    350a:	00b6c7b3          	xor	a5,a3,a1
    350e:	8f95                	sub	a5,a5,a3
    3510:	00e7d463          	bge	a5,a4,3518 <joystick_snapback_filter+0x54>
    3514:	4581                	li	a1,0
    3516:	4501                	li	a0,0
    3518:	0124c783          	lbu	a5,18(s1)
    351c:	0114c703          	lbu	a4,17(s1)
    3520:	40a00c33          	neg	s8,a0
    3524:	07a2                	slli	a5,a5,0x8
    3526:	8fd9                	or	a5,a5,a4
    3528:	40b00b33          	neg	s6,a1
    352c:	c3c1                	beqz	a5,35ac <joystick_snapback_filter+0xe8>
    352e:	02a50533          	mul	a0,a0,a0
    3532:	0009c7b7          	lui	a5,0x9c
    3536:	40078793          	addi	a5,a5,1024 # 9c400 <_data_lma+0x90194>
    353a:	02b585b3          	mul	a1,a1,a1
    353e:	00b50433          	add	s0,a0,a1
    3542:	00f427b3          	slt	a5,s0,a5
    3546:	0017c793          	xori	a5,a5,1
    354a:	98f18023          	sb	a5,-1664(gp) # 20001a28 <set.11>
    354e:	4d4020ef          	jal	ra,5a22 <Get_Systick_US>
    3552:	8caa                	mv	s9,a0
    3554:	e111                	bnez	a0,3558 <joystick_snapback_filter+0x94>
    3556:	4c85                	li	s9,1
    3558:	47e1                	li	a5,24
    355a:	02fa87b3          	mul	a5,s5,a5
    355e:	20003737          	lui	a4,0x20003
    3562:	c7070913          	addi	s2,a4,-912 # 20002c70 <js_snapback_samples>
    3566:	c7070993          	addi	s3,a4,-912
    356a:	993e                	add	s2,s2,a5
    356c:	00092783          	lw	a5,0(s2)
    3570:	cf89                	beqz	a5,358a <joystick_snapback_filter+0xc6>
    3572:	40fc8733          	sub	a4,s9,a5
    3576:	0124c783          	lbu	a5,18(s1)
    357a:	0114c683          	lbu	a3,17(s1)
    357e:	07a2                	slli	a5,a5,0x8
    3580:	8fd5                	or	a5,a5,a3
    3582:	10f76763          	bltu	a4,a5,3690 <joystick_snapback_filter+0x1cc>
    3586:	00092023          	sw	zero,0(s2)
    358a:	9801c783          	lbu	a5,-1664(gp) # 20001a28 <set.11>
    358e:	cf99                	beqz	a5,35ac <joystick_snapback_filter+0xe8>
    3590:	47e1                	li	a5,24
    3592:	02fa87b3          	mul	a5,s5,a5
    3596:	00f98733          	add	a4,s3,a5
    359a:	cb00                	sw	s0,16(a4)
    359c:	847d                	srai	s0,s0,0x1f
    359e:	01872223          	sw	s8,4(a4)
    35a2:	01672423          	sw	s6,8(a4)
    35a6:	cb40                	sw	s0,20(a4)
    35a8:	01972023          	sw	s9,0(a4)
    35ac:	014487b3          	add	a5,s1,s4
    35b0:	00778683          	lb	a3,7(a5)
    35b4:	00878703          	lb	a4,8(a5)
    35b8:	478d                	li	a5,3
    35ba:	02fa8ab3          	mul	s5,s5,a5
    35be:	03670733          	mul	a4,a4,s6
    35c2:	01548633          	add	a2,s1,s5
    35c6:	00c64583          	lbu	a1,12(a2)
    35ca:	00b64503          	lbu	a0,11(a2)
    35ce:	00f5f793          	andi	a5,a1,15
    35d2:	07a2                	slli	a5,a5,0x8
    35d4:	8fc9                	or	a5,a5,a0
    35d6:	00d64503          	lbu	a0,13(a2)
    35da:	8191                	srli	a1,a1,0x4
    35dc:	038686b3          	mul	a3,a3,s8
    35e0:	0512                	slli	a0,a0,0x4
    35e2:	8715                	srai	a4,a4,0x5
    35e4:	8d4d                	or	a0,a0,a1
    35e6:	953a                	add	a0,a0,a4
    35e8:	6705                	lui	a4,0x1
    35ea:	8695                	srai	a3,a3,0x5
    35ec:	97b6                	add	a5,a5,a3
    35ee:	80070693          	addi	a3,a4,-2048 # 800 <__stack_size>
    35f2:	9536                	add	a0,a0,a3
    35f4:	10e54263          	blt	a0,a4,36f8 <joystick_snapback_filter+0x234>
    35f8:	fff70513          	addi	a0,a4,-1
    35fc:	6705                	lui	a4,0x1
    35fe:	97b6                	add	a5,a5,a3
    3600:	0532                	slli	a0,a0,0xc
    3602:	0ee7cf63          	blt	a5,a4,3700 <joystick_snapback_filter+0x23c>
    3606:	fff70793          	addi	a5,a4,-1 # fff <flash_write+0x17>
    360a:	953e                	add	a0,a0,a5
    360c:	b75fc06f          	j	180 <__riscv_restore_10>
    3610:	41f55713          	srai	a4,a0,0x1f
    3614:	00a747b3          	xor	a5,a4,a0
    3618:	8f99                	sub	a5,a5,a4
    361a:	01448733          	add	a4,s1,s4
    361e:	01e74703          	lbu	a4,30(a4)
    3622:	00e7d363          	bge	a5,a4,3628 <joystick_snapback_filter+0x164>
    3626:	4501                	li	a0,0
    3628:	41f5d713          	srai	a4,a1,0x1f
    362c:	00b747b3          	xor	a5,a4,a1
    3630:	8f99                	sub	a5,a5,a4
    3632:	01448733          	add	a4,s1,s4
    3636:	01f74703          	lbu	a4,31(a4)
    363a:	ece7dfe3          	bge	a5,a4,3518 <joystick_snapback_filter+0x54>
    363e:	4581                	li	a1,0
    3640:	bde1                	j	3518 <joystick_snapback_filter+0x54>
    3642:	014487b3          	add	a5,s1,s4
    3646:	41f55693          	srai	a3,a0,0x1f
    364a:	01e7c783          	lbu	a5,30(a5)
    364e:	00a6c733          	xor	a4,a3,a0
    3652:	8f15                	sub	a4,a4,a3
    3654:	02f74c63          	blt	a4,a5,368c <joystick_snapback_filter+0x1c8>
    3658:	577d                	li	a4,-1
    365a:	00a04363          	bgtz	a0,3660 <joystick_snapback_filter+0x19c>
    365e:	4705                	li	a4,1
    3660:	02e787b3          	mul	a5,a5,a4
    3664:	953e                	add	a0,a0,a5
    3666:	014487b3          	add	a5,s1,s4
    366a:	41f5d693          	srai	a3,a1,0x1f
    366e:	01f7c783          	lbu	a5,31(a5)
    3672:	00b6c733          	xor	a4,a3,a1
    3676:	8f15                	sub	a4,a4,a3
    3678:	fcf743e3          	blt	a4,a5,363e <joystick_snapback_filter+0x17a>
    367c:	577d                	li	a4,-1
    367e:	00b04363          	bgtz	a1,3684 <joystick_snapback_filter+0x1c0>
    3682:	4705                	li	a4,1
    3684:	02e787b3          	mul	a5,a5,a4
    3688:	95be                	add	a1,a1,a5
    368a:	b579                	j	3518 <joystick_snapback_filter+0x54>
    368c:	4501                	li	a0,0
    368e:	bfe1                	j	3666 <joystick_snapback_filter+0x1a2>
    3690:	00492703          	lw	a4,4(s2)
    3694:	00892783          	lw	a5,8(s2)
    3698:	02ec0733          	mul	a4,s8,a4
    369c:	02fb07b3          	mul	a5,s6,a5
    36a0:	00f70533          	add	a0,a4,a5
    36a4:	ee0553e3          	bgez	a0,358a <joystick_snapback_filter+0xc6>
    36a8:	02a515b3          	mulh	a1,a0,a0
    36ac:	02a50533          	mul	a0,a0,a0
    36b0:	51d070ef          	jal	ra,b3cc <__floatdisf>
    36b4:	8baa                	mv	s7,a0
    36b6:	01492703          	lw	a4,20(s2)
    36ba:	01092503          	lw	a0,16(s2)
    36be:	41f45793          	srai	a5,s0,0x1f
    36c2:	02870733          	mul	a4,a4,s0
    36c6:	02f507b3          	mul	a5,a0,a5
    36ca:	028535b3          	mulhu	a1,a0,s0
    36ce:	97ba                	add	a5,a5,a4
    36d0:	02850533          	mul	a0,a0,s0
    36d4:	95be                	add	a1,a1,a5
    36d6:	4f7070ef          	jal	ra,b3cc <__floatdisf>
    36da:	8781a583          	lw	a1,-1928(gp) # 20001920 <MyLangDescr+0x50>
    36de:	51e070ef          	jal	ra,abfc <__mulsf3>
    36e2:	85aa                	mv	a1,a0
    36e4:	855e                	mv	a0,s7
    36e6:	47e070ef          	jal	ra,ab64 <__lesf2>
    36ea:	ea0540e3          	bltz	a0,358a <joystick_snapback_filter+0xc6>
    36ee:	98018023          	sb	zero,-1664(gp) # 20001a28 <set.11>
    36f2:	4b01                	li	s6,0
    36f4:	4c01                	li	s8,0
    36f6:	bd51                	j	358a <joystick_snapback_filter+0xc6>
    36f8:	f00552e3          	bgez	a0,35fc <joystick_snapback_filter+0x138>
    36fc:	4501                	li	a0,0
    36fe:	bdfd                	j	35fc <joystick_snapback_filter+0x138>
    3700:	f007d5e3          	bgez	a5,360a <joystick_snapback_filter+0x146>
    3704:	4781                	li	a5,0
    3706:	b711                	j	360a <joystick_snapback_filter+0x146>

00003708 <joystick_debounce_task>:
    3708:	a69fc2ef          	jal	t0,170 <__riscv_save_0>
    370c:	8ac18793          	addi	a5,gp,-1876 # 20001954 <adc_data>
    3710:	0047d703          	lhu	a4,4(a5)
    3714:	0007d503          	lhu	a0,0(a5)
    3718:	0027d583          	lhu	a1,2(a5)
    371c:	200034b7          	lui	s1,0x20003
    3720:	0067d783          	lhu	a5,6(a5)
    3724:	2fc18413          	addi	s0,gp,764 # 200023a4 <user_calibration>
    3728:	ca048493          	addi	s1,s1,-864 # 20002ca0 <adc_debounce>
    372c:	c498                	sw	a4,8(s1)
    372e:	00444703          	lbu	a4,4(s0)
    3732:	c4dc                	sw	a5,12(s1)
    3734:	00344783          	lbu	a5,3(s0)
    3738:	0722                	slli	a4,a4,0x8
    373a:	00144683          	lbu	a3,1(s0)
    373e:	8f5d                	or	a4,a4,a5
    3740:	00244783          	lbu	a5,2(s0)
    3744:	c088                	sw	a0,0(s1)
    3746:	c0cc                	sw	a1,4(s1)
    3748:	07a2                	slli	a5,a5,0x8
    374a:	8fd5                	or	a5,a5,a3
    374c:	8d99                	sub	a1,a1,a4
    374e:	4601                	li	a2,0
    3750:	8d1d                	sub	a0,a0,a5
    3752:	d73ff0ef          	jal	ra,34c4 <joystick_snapback_filter>
    3756:	00844703          	lbu	a4,8(s0)
    375a:	9aa1a823          	sw	a0,-1616(gp) # 20001a58 <sts_ljoy>
    375e:	00744783          	lbu	a5,7(s0)
    3762:	0722                	slli	a4,a4,0x8
    3764:	00544683          	lbu	a3,5(s0)
    3768:	8f5d                	or	a4,a4,a5
    376a:	00644783          	lbu	a5,6(s0)
    376e:	44cc                	lw	a1,12(s1)
    3770:	4488                	lw	a0,8(s1)
    3772:	07a2                	slli	a5,a5,0x8
    3774:	8fd5                	or	a5,a5,a3
    3776:	4605                	li	a2,1
    3778:	8d99                	sub	a1,a1,a4
    377a:	8d1d                	sub	a0,a0,a5
    377c:	d49ff0ef          	jal	ra,34c4 <joystick_snapback_filter>
    3780:	9aa1a623          	sw	a0,-1620(gp) # 20001a54 <sts_rjoy>
    3784:	a11fc06f          	j	194 <__riscv_restore_0>

00003788 <send_input_with_uart>:
    3788:	9cffc2ef          	jal	t0,156 <__riscv_save_4>
    378c:	200044b7          	lui	s1,0x20004
    3790:	9a418413          	addi	s0,gp,-1628 # 20001a4c <pkt>
    3794:	0b448493          	addi	s1,s1,180 # 200040b4 <global_input_data>
    3798:	00042023          	sw	zero,0(s0)
    379c:	0014c703          	lbu	a4,1(s1)
    37a0:	47c5                	li	a5,17
    37a2:	9af18223          	sb	a5,-1628(gp) # 20001a4c <pkt>
    37a6:	0004c783          	lbu	a5,0(s1)
    37aa:	0722                	slli	a4,a4,0x8
    37ac:	00041223          	sh	zero,4(s0)
    37b0:	8f5d                	or	a4,a4,a5
    37b2:	0024c783          	lbu	a5,2(s1)
    37b6:	9a418513          	addi	a0,gp,-1628 # 20001a4c <pkt>
    37ba:	6941                	lui	s2,0x10
    37bc:	07c2                	slli	a5,a5,0x10
    37be:	8fd9                	or	a5,a5,a4
    37c0:	00f41123          	sh	a5,2(s0)
    37c4:	83c1                	srli	a5,a5,0x10
    37c6:	00f40223          	sb	a5,4(s0)
    37ca:	027020ef          	jal	ra,5ff0 <send_uart_pkt>
    37ce:	00044783          	lbu	a5,0(s0)
    37d2:	0044c703          	lbu	a4,4(s1)
    37d6:	197d                	addi	s2,s2,-1 # ffff <_data_lma+0x3d93>
    37d8:	9bc1                	andi	a5,a5,-16
    37da:	0027e793          	ori	a5,a5,2
    37de:	00f40023          	sb	a5,0(s0)
    37e2:	0034c783          	lbu	a5,3(s1)
    37e6:	0722                	slli	a4,a4,0x8
    37e8:	9a418513          	addi	a0,gp,-1628 # 20001a4c <pkt>
    37ec:	8f5d                	or	a4,a4,a5
    37ee:	0054c783          	lbu	a5,5(s1)
    37f2:	07c2                	slli	a5,a5,0x10
    37f4:	8fd9                	or	a5,a5,a4
    37f6:	0127f733          	and	a4,a5,s2
    37fa:	83c1                	srli	a5,a5,0x10
    37fc:	00e41123          	sh	a4,2(s0)
    3800:	00f40223          	sb	a5,4(s0)
    3804:	7ec020ef          	jal	ra,5ff0 <send_uart_pkt>
    3808:	00044783          	lbu	a5,0(s0)
    380c:	0074c703          	lbu	a4,7(s1)
    3810:	9a418513          	addi	a0,gp,-1628 # 20001a4c <pkt>
    3814:	9bc1                	andi	a5,a5,-16
    3816:	0037e793          	ori	a5,a5,3
    381a:	00f40023          	sb	a5,0(s0)
    381e:	0064c783          	lbu	a5,6(s1)
    3822:	0722                	slli	a4,a4,0x8
    3824:	8f5d                	or	a4,a4,a5
    3826:	0084c783          	lbu	a5,8(s1)
    382a:	07c2                	slli	a5,a5,0x10
    382c:	8fd9                	or	a5,a5,a4
    382e:	0127f933          	and	s2,a5,s2
    3832:	83c1                	srli	a5,a5,0x10
    3834:	01241123          	sh	s2,2(s0)
    3838:	00f40223          	sb	a5,4(s0)
    383c:	7b4020ef          	jal	ra,5ff0 <send_uart_pkt>
    3840:	94bfc06f          	j	18a <__riscv_restore_4>

00003844 <imu_read_test>:
    3844:	92dfc2ef          	jal	t0,170 <__riscv_save_0>
    3848:	97c1a403          	lw	s0,-1668(gp) # 20001a24 <last_tick.10>
    384c:	0415                	addi	s0,s0,5
    384e:	1ec020ef          	jal	ra,5a3a <Get_Systick_MS>
    3852:	02856e63          	bltu	a0,s0,388e <imu_read_test+0x4a>
    3856:	1e4020ef          	jal	ra,5a3a <Get_Systick_MS>
    385a:	96a1ae23          	sw	a0,-1668(gp) # 20001a24 <last_tick.10>
    385e:	6531                	lui	a0,0xc
    3860:	ac850513          	addi	a0,a0,-1336 # bac8 <__errno+0x3dc>
    3864:	75e040ef          	jal	ra,7fc2 <puts>
    3868:	45a1                	li	a1,8
    386a:	4511                	li	a0,4
    386c:	ff1fe0ef          	jal	ra,285c <i2c_write_byte>
    3870:	97b18593          	addi	a1,gp,-1669 # 20001a23 <id.9>
    3874:	453d                	li	a0,15
    3876:	96018da3          	sb	zero,-1669(gp) # 20001a23 <id.9>
    387a:	ea1fe0ef          	jal	ra,271a <i2c_read_byte>
    387e:	97b1c583          	lbu	a1,-1669(gp) # 20001a23 <id.9>
    3882:	862a                	mv	a2,a0
    3884:	6531                	lui	a0,0xc
    3886:	ad850513          	addi	a0,a0,-1320 # bad8 <__errno+0x3ec>
    388a:	714040ef          	jal	ra,7f9e <printf>
    388e:	907fc06f          	j	194 <__riscv_restore_0>

00003892 <func_switch_task>:
    3892:	9b81c783          	lbu	a5,-1608(gp) # 20001a60 <top_trigger>
    3896:	12078c63          	beqz	a5,39ce <func_switch_task+0x13c>
    389a:	8bdfc2ef          	jal	t0,156 <__riscv_save_4>
    389e:	00020537          	lui	a0,0x20
    38a2:	04050513          	addi	a0,a0,64 # 20040 <_data_lma+0x13dd4>
    38a6:	96018d23          	sb	zero,-1670(gp) # 20001a22 <save.7>
    38aa:	96018ca3          	sb	zero,-1671(gp) # 20001a21 <upd.6>
    38ae:	b33fd0ef          	jal	ra,13e0 <gpio_read>
    38b2:	10051663          	bnez	a0,39be <func_switch_task+0x12c>
    38b6:	9781c783          	lbu	a5,-1672(gp) # 20001a20 <f1.5>
    38ba:	c39d                	beqz	a5,38e0 <func_switch_task+0x4e>
    38bc:	28018713          	addi	a4,gp,640 # 20002328 <user_config>
    38c0:	00074783          	lbu	a5,0(a4)
    38c4:	0807c693          	xori	a3,a5,128
    38c8:	0806f693          	andi	a3,a3,128
    38cc:	07f7f793          	andi	a5,a5,127
    38d0:	8fd5                	or	a5,a5,a3
    38d2:	00f70023          	sb	a5,0(a4)
    38d6:	4785                	li	a5,1
    38d8:	96f18d23          	sb	a5,-1670(gp) # 20001a22 <save.7>
    38dc:	96f18ca3          	sb	a5,-1671(gp) # 20001a21 <upd.6>
    38e0:	96a18c23          	sb	a0,-1672(gp) # 20001a20 <f1.5>
    38e4:	00048537          	lui	a0,0x48
    38e8:	af9fd0ef          	jal	ra,13e0 <gpio_read>
    38ec:	892a                	mv	s2,a0
    38ee:	0c051a63          	bnez	a0,39c2 <func_switch_task+0x130>
    38f2:	9771c783          	lbu	a5,-1673(gp) # 20001a1f <f2.4>
    38f6:	cb95                	beqz	a5,392a <func_switch_task+0x98>
    38f8:	28018713          	addi	a4,gp,640 # 20002328 <user_config>
    38fc:	00074783          	lbu	a5,0(a4)
    3900:	fff7c693          	not	a3,a5
    3904:	0206f693          	andi	a3,a3,32
    3908:	fdf7f793          	andi	a5,a5,-33
    390c:	8fd5                	or	a5,a5,a3
    390e:	00f70023          	sb	a5,0(a4)
    3912:	8395                	srli	a5,a5,0x5
    3914:	0017c793          	xori	a5,a5,1
    3918:	0017f513          	andi	a0,a5,1
    391c:	c65fd0ef          	jal	ra,1580 <hd_rumble_set_status>
    3920:	4785                	li	a5,1
    3922:	96f18d23          	sb	a5,-1670(gp) # 20001a22 <save.7>
    3926:	96f18ca3          	sb	a5,-1671(gp) # 20001a21 <upd.6>
    392a:	00020537          	lui	a0,0x20
    392e:	08050513          	addi	a0,a0,128 # 20080 <_data_lma+0x13e14>
    3932:	97218ba3          	sb	s2,-1673(gp) # 20001a1f <f2.4>
    3936:	aabfd0ef          	jal	ra,13e0 <gpio_read>
    393a:	e551                	bnez	a0,39c6 <func_switch_task+0x134>
    393c:	9761c783          	lbu	a5,-1674(gp) # 20001a1e <f3.3>
    3940:	c38d                	beqz	a5,3962 <func_switch_task+0xd0>
    3942:	28018713          	addi	a4,gp,640 # 20002328 <user_config>
    3946:	00074783          	lbu	a5,0(a4)
    394a:	fff7c693          	not	a3,a5
    394e:	8a89                	andi	a3,a3,2
    3950:	9bf5                	andi	a5,a5,-3
    3952:	8fd5                	or	a5,a5,a3
    3954:	00f70023          	sb	a5,0(a4)
    3958:	4785                	li	a5,1
    395a:	96f18d23          	sb	a5,-1670(gp) # 20001a22 <save.7>
    395e:	96f18ca3          	sb	a5,-1671(gp) # 20001a21 <upd.6>
    3962:	96a18b23          	sb	a0,-1674(gp) # 20001a1e <f3.3>
    3966:	6541                	lui	a0,0x10
    3968:	04050513          	addi	a0,a0,64 # 10040 <_data_lma+0x3dd4>
    396c:	a75fd0ef          	jal	ra,13e0 <gpio_read>
    3970:	892a                	mv	s2,a0
    3972:	ed21                	bnez	a0,39ca <func_switch_task+0x138>
    3974:	9751c783          	lbu	a5,-1675(gp) # 20001a1d <f4.2>
    3978:	c785                	beqz	a5,39a0 <func_switch_task+0x10e>
    397a:	03000793          	li	a5,48
    397e:	9af18223          	sb	a5,-1628(gp) # 20001a4c <pkt>
    3982:	9c91c783          	lbu	a5,-1591(gp) # 20001a71 <force_esp32_active>
    3986:	9a418713          	addi	a4,gp,-1628 # 20001a4c <pkt>
    398a:	9a418513          	addi	a0,gp,-1628 # 20001a4c <pkt>
    398e:	0017b793          	seqz	a5,a5
    3992:	00f70123          	sb	a5,2(a4)
    3996:	65a020ef          	jal	ra,5ff0 <send_uart_pkt>
    399a:	4785                	li	a5,1
    399c:	96f18ca3          	sb	a5,-1671(gp) # 20001a21 <upd.6>
    39a0:	9791c783          	lbu	a5,-1671(gp) # 20001a21 <upd.6>
    39a4:	97218aa3          	sb	s2,-1675(gp) # 20001a1d <f4.2>
    39a8:	c781                	beqz	a5,39b0 <func_switch_task+0x11e>
    39aa:	4505                	li	a0,1
    39ac:	547010ef          	jal	ra,56f2 <flush_rgb>
    39b0:	97a1c783          	lbu	a5,-1670(gp) # 20001a22 <save.7>
    39b4:	c399                	beqz	a5,39ba <func_switch_task+0x128>
    39b6:	8e8fd0ef          	jal	ra,a9e <custom_conf_write>
    39ba:	fd0fc06f          	j	18a <__riscv_restore_4>
    39be:	4505                	li	a0,1
    39c0:	b705                	j	38e0 <func_switch_task+0x4e>
    39c2:	4905                	li	s2,1
    39c4:	b79d                	j	392a <func_switch_task+0x98>
    39c6:	4505                	li	a0,1
    39c8:	bf69                	j	3962 <func_switch_task+0xd0>
    39ca:	4905                	li	s2,1
    39cc:	bfd1                	j	39a0 <func_switch_task+0x10e>
    39ce:	8082                	ret

000039d0 <top_timer>:
    39d0:	fa0fc2ef          	jal	t0,170 <__riscv_save_0>
    39d4:	00020537          	lui	a0,0x20
    39d8:	0511                	addi	a0,a0,4 # 20004 <_data_lma+0x13d98>
    39da:	a07fd0ef          	jal	ra,13e0 <gpio_read>
    39de:	0e051763          	bnez	a0,3acc <top_timer+0xfc>
    39e2:	99c1a783          	lw	a5,-1636(gp) # 20001a44 <top_tick>
    39e6:	0c078e63          	beqz	a5,3ac2 <top_timer+0xf2>
    39ea:	050020ef          	jal	ra,5a3a <Get_Systick_MS>
    39ee:	99c1a783          	lw	a5,-1636(gp) # 20001a44 <top_tick>
    39f2:	8d1d                	sub	a0,a0,a5
    39f4:	06400793          	li	a5,100
    39f8:	0ca7f363          	bgeu	a5,a0,3abe <top_timer+0xee>
    39fc:	9b81c783          	lbu	a5,-1608(gp) # 20001a60 <top_trigger>
    3a00:	efc5                	bnez	a5,3ab8 <top_timer+0xe8>
    3a02:	6531                	lui	a0,0xc
    3a04:	4581                	li	a1,0
    3a06:	af050513          	addi	a0,a0,-1296 # baf0 <__errno+0x404>
    3a0a:	594040ef          	jal	ra,7f9e <printf>
    3a0e:	200037b7          	lui	a5,0x20003
    3a12:	4907c583          	lbu	a1,1168(a5) # 20003490 <connection_state>
    3a16:	6531                	lui	a0,0xc
    3a18:	b0c50513          	addi	a0,a0,-1268 # bb0c <__errno+0x420>
    3a1c:	582040ef          	jal	ra,7f9e <printf>
    3a20:	9f41c583          	lbu	a1,-1548(gp) # 20001a9c <UART1_Tx_Flag>
    3a24:	6531                	lui	a0,0xc
    3a26:	b2050513          	addi	a0,a0,-1248 # bb20 <__errno+0x434>
    3a2a:	574040ef          	jal	ra,7f9e <printf>
    3a2e:	99418713          	addi	a4,gp,-1644 # 20001a3c <test_uart_pkt>
    3a32:	00074783          	lbu	a5,0(a4)
    3a36:	99418513          	addi	a0,gp,-1644 # 20001a3c <test_uart_pkt>
    3a3a:	8bbd                	andi	a5,a5,15
    3a3c:	0707e793          	ori	a5,a5,112
    3a40:	00f70023          	sb	a5,0(a4)
    3a44:	679d                	lui	a5,0x7
    3a46:	37478793          	addi	a5,a5,884 # 7374 <TIM_OC3Init+0x6>
    3a4a:	00f71123          	sh	a5,2(a4)
    3a4e:	07400793          	li	a5,116
    3a52:	00f70223          	sb	a5,4(a4)
    3a56:	59a020ef          	jal	ra,5ff0 <send_uart_pkt>
    3a5a:	200037b7          	lui	a5,0x20003
    3a5e:	5dc78793          	addi	a5,a5,1500 # 200035dc <uart_tx_rb>
    3a62:	0887c703          	lbu	a4,136(a5)
    3a66:	0867c683          	lbu	a3,134(a5)
    3a6a:	0877c603          	lbu	a2,135(a5)
    3a6e:	85aa                	mv	a1,a0
    3a70:	6531                	lui	a0,0xc
    3a72:	b3450513          	addi	a0,a0,-1228 # bb34 <__errno+0x448>
    3a76:	528040ef          	jal	ra,7f9e <printf>
    3a7a:	dcbff0ef          	jal	ra,3844 <imu_read_test>
    3a7e:	9401c583          	lbu	a1,-1728(gp) # 200019e8 <i2c_error_code>
    3a82:	6531                	lui	a0,0xc
    3a84:	b5450513          	addi	a0,a0,-1196 # bb54 <__errno+0x468>
    3a88:	516040ef          	jal	ra,7f9e <printf>
    3a8c:	8ac18713          	addi	a4,gp,-1876 # 20001954 <adc_data>
    3a90:	00275603          	lhu	a2,2(a4)
    3a94:	00075583          	lhu	a1,0(a4)
    3a98:	6785                	lui	a5,0x1
    3a9a:	17fd                	addi	a5,a5,-1 # fff <flash_write+0x17>
    3a9c:	6531                	lui	a0,0xc
    3a9e:	8dfd                	and	a1,a1,a5
    3aa0:	8e7d                	and	a2,a2,a5
    3aa2:	b6850513          	addi	a0,a0,-1176 # bb68 <__errno+0x47c>
    3aa6:	4f8040ef          	jal	ra,7f9e <printf>
    3aaa:	9421c583          	lbu	a1,-1726(gp) # 200019ea <i2c_status>
    3aae:	6531                	lui	a0,0xc
    3ab0:	b7450513          	addi	a0,a0,-1164 # bb74 <__errno+0x488>
    3ab4:	4ea040ef          	jal	ra,7f9e <printf>
    3ab8:	4785                	li	a5,1
    3aba:	9af18c23          	sb	a5,-1608(gp) # 20001a60 <top_trigger>
    3abe:	ed6fc06f          	j	194 <__riscv_restore_0>
    3ac2:	779010ef          	jal	ra,5a3a <Get_Systick_MS>
    3ac6:	98a1ae23          	sw	a0,-1636(gp) # 20001a44 <top_tick>
    3aca:	bfd5                	j	3abe <top_timer+0xee>
    3acc:	9a018c23          	sb	zero,-1608(gp) # 20001a60 <top_trigger>
    3ad0:	9801ae23          	sw	zero,-1636(gp) # 20001a44 <top_tick>
    3ad4:	b7ed                	j	3abe <top_timer+0xee>

00003ad6 <routine_service>:
    3ad6:	e9afc2ef          	jal	t0,170 <__riscv_save_0>
    3ada:	9c41a783          	lw	a5,-1596(gp) # 20001a6c <rts_cnt>
    3ade:	0785                	addi	a5,a5,1
    3ae0:	9cf1a223          	sw	a5,-1596(gp) # 20001a6c <rts_cnt>
    3ae4:	e781                	bnez	a5,3aec <routine_service+0x16>
    3ae6:	4705                	li	a4,1
    3ae8:	80e1a623          	sw	a4,-2036(gp) # 200018b4 <rts_tcnt>
    3aec:	74f010ef          	jal	ra,5a3a <Get_Systick_MS>
    3af0:	9901a783          	lw	a5,-1648(gp) # 20001a38 <routine_tick>
    3af4:	00f50b63          	beq	a0,a5,3b0a <routine_service+0x34>
    3af8:	743010ef          	jal	ra,5a3a <Get_Systick_MS>
    3afc:	80c1a783          	lw	a5,-2036(gp) # 200018b4 <rts_tcnt>
    3b00:	98a1a823          	sw	a0,-1648(gp) # 20001a38 <routine_tick>
    3b04:	0785                	addi	a5,a5,1
    3b06:	80f1a623          	sw	a5,-2036(gp) # 200018b4 <rts_tcnt>
    3b0a:	ec7ff0ef          	jal	ra,39d0 <top_timer>
    3b0e:	b24fe0ef          	jal	ra,1e32 <push_waveform_into_buffer_task>
    3b12:	84cff0ef          	jal	ra,2b5e <imu_upd>
    3b16:	d7dff0ef          	jal	ra,3892 <func_switch_task>
    3b1a:	e7afc06f          	j	194 <__riscv_restore_0>

00003b1e <set_peripherals_state>:
    3b1e:	e52fc2ef          	jal	t0,170 <__riscv_save_0>
    3b22:	842a                	mv	s0,a0
    3b24:	85aa                	mv	a1,a0
    3b26:	20000513          	li	a0,512
    3b2a:	610030ef          	jal	ra,713a <RCC_APB2PeriphClockCmd>
    3b2e:	85a2                	mv	a1,s0
    3b30:	4505                	li	a0,1
    3b32:	5ea030ef          	jal	ra,711c <RCC_AHBPeriphClockCmd>
    3b36:	85a2                	mv	a1,s0
    3b38:	4505                	li	a0,1
    3b3a:	61e030ef          	jal	ra,7158 <RCC_APB1PeriphClockCmd>
    3b3e:	85a2                	mv	a1,s0
    3b40:	4509                	li	a0,2
    3b42:	616030ef          	jal	ra,7158 <RCC_APB1PeriphClockCmd>
    3b46:	85a2                	mv	a1,s0
    3b48:	6505                	lui	a0,0x1
    3b4a:	5f0030ef          	jal	ra,713a <RCC_APB2PeriphClockCmd>
    3b4e:	85a2                	mv	a1,s0
    3b50:	6511                	lui	a0,0x4
    3b52:	5e8030ef          	jal	ra,713a <RCC_APB2PeriphClockCmd>
    3b56:	400204b7          	lui	s1,0x40020
    3b5a:	85a2                	mv	a1,s0
    3b5c:	04448513          	addi	a0,s1,68 # 40020044 <_eusrstack+0x2001b044>
    3b60:	481020ef          	jal	ra,67e0 <DMA_Cmd>
    3b64:	85a2                	mv	a1,s0
    3b66:	05848513          	addi	a0,s1,88
    3b6a:	477020ef          	jal	ra,67e0 <DMA_Cmd>
    3b6e:	85a2                	mv	a1,s0
    3b70:	00848513          	addi	a0,s1,8
    3b74:	46d020ef          	jal	ra,67e0 <DMA_Cmd>
    3b78:	85a2                	mv	a1,s0
    3b7a:	40000537          	lui	a0,0x40000
    3b7e:	125030ef          	jal	ra,74a2 <TIM_Cmd>
    3b82:	40000537          	lui	a0,0x40000
    3b86:	85a2                	mv	a1,s0
    3b88:	40050513          	addi	a0,a0,1024 # 40000400 <_eusrstack+0x1fffb400>
    3b8c:	117030ef          	jal	ra,74a2 <TIM_Cmd>
    3b90:	400144b7          	lui	s1,0x40014
    3b94:	85a2                	mv	a1,s0
    3b96:	80048513          	addi	a0,s1,-2048 # 40013800 <_eusrstack+0x2000e800>
    3b9a:	2bd030ef          	jal	ra,7656 <USART_Cmd>
    3b9e:	8622                	mv	a2,s0
    3ba0:	04000593          	li	a1,64
    3ba4:	80048513          	addi	a0,s1,-2048
    3ba8:	2cb030ef          	jal	ra,7672 <USART_DMACmd>
    3bac:	de8fc06f          	j	194 <__riscv_restore_0>

00003bb0 <wake_esp32>:
    3bb0:	dc0fc2ef          	jal	t0,170 <__riscv_save_0>
    3bb4:	200035b7          	lui	a1,0x20003
    3bb8:	c6458793          	addi	a5,a1,-924 # 20002c64 <GPIO_InitStructure.1>
    3bbc:	4751                	li	a4,20
    3bbe:	c798                	sw	a4,8(a5)
    3bc0:	40011437          	lui	s0,0x40011
    3bc4:	470d                	li	a4,3
    3bc6:	c3d8                	sw	a4,4(a5)
    3bc8:	c0040513          	addi	a0,s0,-1024 # 40010c00 <_eusrstack+0x2000bc00>
    3bcc:	4711                	li	a4,4
    3bce:	c6458593          	addi	a1,a1,-924
    3bd2:	00e79023          	sh	a4,0(a5)
    3bd6:	773020ef          	jal	ra,6b48 <GPIO_Init>
    3bda:	4601                	li	a2,0
    3bdc:	4591                	li	a1,4
    3bde:	c0040513          	addi	a0,s0,-1024
    3be2:	03a030ef          	jal	ra,6c1c <GPIO_WriteBit>
    3be6:	652010ef          	jal	ra,5238 <top_init>
    3bea:	daafc06f          	j	194 <__riscv_restore_0>

00003bee <init_all>:
    3bee:	d82fc2ef          	jal	t0,170 <__riscv_save_0>
    3bf2:	98c1c783          	lbu	a5,-1652(gp) # 20001a34 <stop_flag>
    3bf6:	1101                	addi	sp,sp,-32
    3bf8:	c399                	beqz	a5,3bfe <init_all+0x10>
    3bfa:	561010ef          	jal	ra,595a <SetSysClock>
    3bfe:	4505                	li	a0,1
    3c00:	2ba030ef          	jal	ra,6eba <NVIC_PriorityGroupConfig>
    3c04:	4d1010ef          	jal	ra,58d4 <SystemCoreClockUpdate>
    3c08:	400217b7          	lui	a5,0x40021
    3c0c:	43d8                	lw	a4,4(a5)
    3c0e:	76f1                	lui	a3,0xffffc
    3c10:	7ff68693          	addi	a3,a3,2047 # ffffc7ff <_eusrstack+0xdfff77ff>
    3c14:	f0f77713          	andi	a4,a4,-241
    3c18:	c3d8                	sw	a4,4(a5)
    3c1a:	43d8                	lw	a4,4(a5)
    3c1c:	6571                	lui	a0,0x1c
    3c1e:	20050513          	addi	a0,a0,512 # 1c200 <_data_lma+0xff94>
    3c22:	8f75                	and	a4,a4,a3
    3c24:	c3d8                	sw	a4,4(a5)
    3c26:	43d8                	lw	a4,4(a5)
    3c28:	8ff77713          	andi	a4,a4,-1793
    3c2c:	c3d8                	sw	a4,4(a5)
    3c2e:	275030ef          	jal	ra,76a2 <USART_Printf_Init>
    3c32:	4505                	li	a0,1
    3c34:	418030ef          	jal	ra,704c <RCC_LSICmd>
    3c38:	4585                	li	a1,1
    3c3a:	4571                	li	a0,28
    3c3c:	4fe030ef          	jal	ra,713a <RCC_APB2PeriphClockCmd>
    3c40:	4585                	li	a1,1
    3c42:	20000513          	li	a0,512
    3c46:	4f4030ef          	jal	ra,713a <RCC_APB2PeriphClockCmd>
    3c4a:	4585                	li	a1,1
    3c4c:	4505                	li	a0,1
    3c4e:	4ce030ef          	jal	ra,711c <RCC_AHBPeriphClockCmd>
    3c52:	4585                	li	a1,1
    3c54:	4505                	li	a0,1
    3c56:	502030ef          	jal	ra,7158 <RCC_APB1PeriphClockCmd>
    3c5a:	4585                	li	a1,1
    3c5c:	4509                	li	a0,2
    3c5e:	4fa030ef          	jal	ra,7158 <RCC_APB1PeriphClockCmd>
    3c62:	4585                	li	a1,1
    3c64:	6505                	lui	a0,0x1
    3c66:	4d4030ef          	jal	ra,713a <RCC_APB2PeriphClockCmd>
    3c6a:	4585                	li	a1,1
    3c6c:	6511                	lui	a0,0x4
    3c6e:	4cc030ef          	jal	ra,713a <RCC_APB2PeriphClockCmd>
    3c72:	6531                	lui	a0,0xc
    3c74:	b8450513          	addi	a0,a0,-1148 # bb84 <__errno+0x498>
    3c78:	34a040ef          	jal	ra,7fc2 <puts>
    3c7c:	583010ef          	jal	ra,59fe <SysTick_Init>
    3c80:	1f400513          	li	a0,500
    3c84:	67d010ef          	jal	ra,5b00 <Delay_Ms>
    3c88:	0068                	addi	a0,sp,12
    3c8a:	3d6030ef          	jal	ra,7060 <RCC_GetClocksFreq>
    3c8e:	4762                	lw	a4,24(sp)
    3c90:	46d2                	lw	a3,20(sp)
    3c92:	4642                	lw	a2,16(sp)
    3c94:	45b2                	lw	a1,12(sp)
    3c96:	6531                	lui	a0,0xc
    3c98:	b9850513          	addi	a0,a0,-1128 # bb98 <__errno+0x4ac>
    3c9c:	302040ef          	jal	ra,7f9e <printf>
    3ca0:	5a1010ef          	jal	ra,5a40 <HighPrecisionTimer_Init>
    3ca4:	20003537          	lui	a0,0x20003
    3ca8:	02500613          	li	a2,37
    3cac:	4581                	li	a1,0
    3cae:	49050513          	addi	a0,a0,1168 # 20003490 <connection_state>
    3cb2:	d04fc0ef          	jal	ra,1b6 <memset>
    3cb6:	f74ff0ef          	jal	ra,342a <Var_Init>
    3cba:	dd4fd0ef          	jal	ra,128e <gpio_init>
    3cbe:	92cfd0ef          	jal	ra,dea <conf_init>
    3cc2:	731010ef          	jal	ra,5bf2 <UART1_Init>
    3cc6:	67b010ef          	jal	ra,5b40 <UART1_DMA_Init>
    3cca:	cc8fd0ef          	jal	ra,1192 <adc_init>
    3cce:	cfcfc0ef          	jal	ra,1ca <USBFS_RCC_Init>
    3cd2:	edfff0ef          	jal	ra,3bb0 <wake_esp32>
    3cd6:	562010ef          	jal	ra,5238 <top_init>
    3cda:	259010ef          	jal	ra,5732 <spi_init>
    3cde:	c99fe0ef          	jal	ra,2976 <i2c_init>
    3ce2:	e7bfe0ef          	jal	ra,2b5c <imu_init>
    3ce6:	d29fe0ef          	jal	ra,2a0e <set_imu_awake>
    3cea:	00b10593          	addi	a1,sp,11
    3cee:	4549                	li	a0,18
    3cf0:	000105a3          	sb	zero,11(sp)
    3cf4:	a27fe0ef          	jal	ra,271a <i2c_read_byte>
    3cf8:	00b14583          	lbu	a1,11(sp)
    3cfc:	6531                	lui	a0,0xc
    3cfe:	bb850513          	addi	a0,a0,-1096 # bbb8 <__errno+0x4cc>
    3d02:	29c040ef          	jal	ra,7f9e <printf>
    3d06:	6105                	addi	sp,sp,32
    3d08:	c8cfc06f          	j	194 <__riscv_restore_0>

00003d0c <recv_esp32_connect_control>:
    3d0c:	c4afc2ef          	jal	t0,156 <__riscv_save_4>
    3d10:	9a418793          	addi	a5,gp,-1628 # 20001a4c <pkt>
    3d14:	4388                	lw	a0,0(a5)
    3d16:	6731                	lui	a4,0xc
    3d18:	bc870713          	addi	a4,a4,-1080 # bbc8 <__errno+0x4dc>
    3d1c:	893d                	andi	a0,a0,15
    3d1e:	00251793          	slli	a5,a0,0x2
    3d22:	97ba                	add	a5,a5,a4
    3d24:	439c                	lw	a5,0(a5)
    3d26:	9a418593          	addi	a1,gp,-1628 # 20001a4c <pkt>
    3d2a:	8782                	jr	a5
    3d2c:	20003537          	lui	a0,0x20003
    3d30:	460d                	li	a2,3
    3d32:	0589                	addi	a1,a1,2
    3d34:	49650513          	addi	a0,a0,1174 # 20003496 <connection_state+0x6>
    3d38:	c68fc0ef          	jal	ra,1a0 <memcpy>
    3d3c:	a899                	j	3d92 <recv_esp32_connect_control+0x86>
    3d3e:	20003437          	lui	s0,0x20003
    3d42:	49040493          	addi	s1,s0,1168 # 20003490 <connection_state>
    3d46:	00948513          	addi	a0,s1,9
    3d4a:	460d                	li	a2,3
    3d4c:	0589                	addi	a1,a1,2
    3d4e:	c52fc0ef          	jal	ra,1a0 <memcpy>
    3d52:	4785                	li	a5,1
    3d54:	00f48923          	sb	a5,18(s1)
    3d58:	49040413          	addi	s0,s0,1168
    3d5c:	28018493          	addi	s1,gp,640 # 20002328 <user_config>
    3d60:	20003937          	lui	s2,0x20003
    3d64:	00640993          	addi	s3,s0,6
    3d68:	49690913          	addi	s2,s2,1174 # 20003496 <connection_state+0x6>
    3d6c:	01348a13          	addi	s4,s1,19
    3d70:	00644703          	lbu	a4,6(s0)
    3d74:	0134c783          	lbu	a5,19(s1)
    3d78:	00f70963          	beq	a4,a5,3d8a <recv_esp32_connect_control+0x7e>
    3d7c:	4619                	li	a2,6
    3d7e:	85ca                	mv	a1,s2
    3d80:	8552                	mv	a0,s4
    3d82:	c1efc0ef          	jal	ra,1a0 <memcpy>
    3d86:	d19fc0ef          	jal	ra,a9e <custom_conf_write>
    3d8a:	0405                	addi	s0,s0,1
    3d8c:	0485                	addi	s1,s1,1
    3d8e:	ff3411e3          	bne	s0,s3,3d70 <recv_esp32_connect_control+0x64>
    3d92:	bf8fc06f          	j	18a <__riscv_restore_4>
    3d96:	0045c783          	lbu	a5,4(a1)
    3d9a:	0025d703          	lhu	a4,2(a1)
    3d9e:	1579                	addi	a0,a0,-2
    3da0:	07c2                	slli	a5,a5,0x10
    3da2:	8fd9                	or	a5,a5,a4
    3da4:	00aab737          	lui	a4,0xaab
    3da8:	aaa70713          	addi	a4,a4,-1366 # aaaaaa <_data_lma+0xa9e83e>
    3dac:	8fb9                	xor	a5,a5,a4
    3dae:	00f59123          	sh	a5,2(a1)
    3db2:	83c1                	srli	a5,a5,0x10
    3db4:	00f58223          	sb	a5,4(a1)
    3db8:	478d                	li	a5,3
    3dba:	02f50533          	mul	a0,a0,a5
    3dbe:	200037b7          	lui	a5,0x20003
    3dc2:	4a478793          	addi	a5,a5,1188 # 200034a4 <connection_state+0x14>
    3dc6:	460d                	li	a2,3
    3dc8:	0589                	addi	a1,a1,2
    3dca:	953e                	add	a0,a0,a5
    3dcc:	b7b5                	j	3d38 <recv_esp32_connect_control+0x2c>
    3dce:	0025c703          	lbu	a4,2(a1)
    3dd2:	200037b7          	lui	a5,0x20003
    3dd6:	49078793          	addi	a5,a5,1168 # 20003490 <connection_state>
    3dda:	faa74713          	xori	a4,a4,-86
    3dde:	02e781a3          	sb	a4,35(a5)
    3de2:	4705                	li	a4,1
    3de4:	02e78223          	sb	a4,36(a5)
    3de8:	b76d                	j	3d92 <recv_esp32_connect_control+0x86>
    3dea:	0025c703          	lbu	a4,2(a1)
    3dee:	200037b7          	lui	a5,0x20003
    3df2:	48e78923          	sb	a4,1170(a5) # 20003492 <connection_state+0x2>
    3df6:	bf71                	j	3d92 <recv_esp32_connect_control+0x86>
    3df8:	200037b7          	lui	a5,0x20003
    3dfc:	4a0781a3          	sb	zero,1187(a5) # 200034a3 <connection_state+0x13>
    3e00:	bf49                	j	3d92 <recv_esp32_connect_control+0x86>
    3e02:	0025c703          	lbu	a4,2(a1)
    3e06:	200037b7          	lui	a5,0x20003
    3e0a:	48e789a3          	sb	a4,1171(a5) # 20003493 <connection_state+0x3>
    3e0e:	b751                	j	3d92 <recv_esp32_connect_control+0x86>

00003e10 <recv_rumble_frame>:
    3e10:	b60fc2ef          	jal	t0,170 <__riscv_save_0>
    3e14:	9a418593          	addi	a1,gp,-1628 # 20001a4c <pkt>
    3e18:	419c                	lw	a5,0(a1)
    3e1a:	4705                	li	a4,1
    3e1c:	8bbd                	andi	a5,a5,15
    3e1e:	02e78463          	beq	a5,a4,3e46 <recv_rumble_frame+0x36>
    3e22:	4689                	li	a3,2
    3e24:	04d78263          	beq	a5,a3,3e68 <recv_rumble_frame+0x58>
    3e28:	ef89                	bnez	a5,3e42 <recv_rumble_frame+0x32>
    3e2a:	96e18a23          	sb	a4,-1676(gp) # 20001a1c <sts.0>
    3e2e:	0025d703          	lhu	a4,2(a1)
    3e32:	98418793          	addi	a5,gp,-1660 # 20001a2c <uart_rumble_buf>
    3e36:	00e79023          	sh	a4,0(a5)
    3e3a:	0045c703          	lbu	a4,4(a1)
    3e3e:	00e78123          	sb	a4,2(a5)
    3e42:	b52fc06f          	j	194 <__riscv_restore_0>
    3e46:	9741c683          	lbu	a3,-1676(gp) # 20001a1c <sts.0>
    3e4a:	00f68563          	beq	a3,a5,3e54 <recv_rumble_frame+0x44>
    3e4e:	96018a23          	sb	zero,-1676(gp) # 20001a1c <sts.0>
    3e52:	bfc5                	j	3e42 <recv_rumble_frame+0x32>
    3e54:	4789                	li	a5,2
    3e56:	460d                	li	a2,3
    3e58:	0589                	addi	a1,a1,2
    3e5a:	98718513          	addi	a0,gp,-1657 # 20001a2f <uart_rumble_buf+0x3>
    3e5e:	96f18a23          	sb	a5,-1676(gp) # 20001a1c <sts.0>
    3e62:	b3efc0ef          	jal	ra,1a0 <memcpy>
    3e66:	bff1                	j	3e42 <recv_rumble_frame+0x32>
    3e68:	9741c683          	lbu	a3,-1676(gp) # 20001a1c <sts.0>
    3e6c:	fef691e3          	bne	a3,a5,3e4e <recv_rumble_frame+0x3e>
    3e70:	96018a23          	sb	zero,-1676(gp) # 20001a1c <sts.0>
    3e74:	0025d703          	lhu	a4,2(a1)
    3e78:	98418793          	addi	a5,gp,-1660 # 20001a2c <uart_rumble_buf>
    3e7c:	98818593          	addi	a1,gp,-1656 # 20001a30 <uart_rumble_buf+0x4>
    3e80:	98418513          	addi	a0,gp,-1660 # 20001a2c <uart_rumble_buf>
    3e84:	00e79323          	sh	a4,6(a5)
    3e88:	c99fd0ef          	jal	ra,1b20 <decode_hd_rumble_multiformat_high_acc>
    3e8c:	bf5d                	j	3e42 <recv_rumble_frame+0x32>

00003e8e <recv_pwr_control>:
    3e8e:	9a418713          	addi	a4,gp,-1628 # 20001a4c <pkt>
    3e92:	431c                	lw	a5,0(a4)
    3e94:	4685                	li	a3,1
    3e96:	8bbd                	andi	a5,a5,15
    3e98:	02d78163          	beq	a5,a3,3eba <recv_pwr_control+0x2c>
    3e9c:	ad4fc2ef          	jal	t0,170 <__riscv_save_0>
    3ea0:	4689                	li	a3,2
    3ea2:	02d78163          	beq	a5,a3,3ec4 <recv_pwr_control+0x36>
    3ea6:	eb81                	bnez	a5,3eb6 <recv_pwr_control+0x28>
    3ea8:	00274703          	lbu	a4,2(a4)
    3eac:	4505                	li	a0,1
    3eae:	9ce184a3          	sb	a4,-1591(gp) # 20001a71 <force_esp32_active>
    3eb2:	041010ef          	jal	ra,56f2 <flush_rgb>
    3eb6:	adefc06f          	j	194 <__riscv_restore_0>
    3eba:	20003737          	lui	a4,0x20003
    3ebe:	48f708a3          	sb	a5,1169(a4) # 20003491 <connection_state+0x1>
    3ec2:	8082                	ret
    3ec4:	4501                	li	a0,0
    3ec6:	02d010ef          	jal	ra,56f2 <flush_rgb>
    3eca:	4529                	li	a0,10
    3ecc:	435010ef          	jal	ra,5b00 <Delay_Ms>
    3ed0:	beef07b7          	lui	a5,0xbeef0
    3ed4:	e000e737          	lui	a4,0xe000e
    3ed8:	08078793          	addi	a5,a5,128 # beef0080 <_eusrstack+0x9eeeb080>
    3edc:	c73c                	sw	a5,72(a4)
    3ede:	bfe1                	j	3eb6 <recv_pwr_control+0x28>

00003ee0 <recv_esp32_pkg>:
    3ee0:	a90fc2ef          	jal	t0,170 <__riscv_save_0>
    3ee4:	9a41c783          	lbu	a5,-1628(gp) # 20001a4c <pkt>
    3ee8:	4711                	li	a4,4
    3eea:	8391                	srli	a5,a5,0x4
    3eec:	00e78c63          	beq	a5,a4,3f04 <recv_esp32_pkg+0x24>
    3ef0:	4719                	li	a4,6
    3ef2:	00e78b63          	beq	a5,a4,3f08 <recv_esp32_pkg+0x28>
    3ef6:	470d                	li	a4,3
    3ef8:	00e79463          	bne	a5,a4,3f00 <recv_esp32_pkg+0x20>
    3efc:	e11ff0ef          	jal	ra,3d0c <recv_esp32_connect_control>
    3f00:	a94fc06f          	j	194 <__riscv_restore_0>
    3f04:	f0dff0ef          	jal	ra,3e10 <recv_rumble_frame>
    3f08:	f87ff0ef          	jal	ra,3e8e <recv_pwr_control>
    3f0c:	bfd5                	j	3f00 <recv_esp32_pkg+0x20>

00003f0e <connection_state_handler>:
    3f0e:	a48fc2ef          	jal	t0,156 <__riscv_save_4>
    3f12:	20003437          	lui	s0,0x20003
    3f16:	49040793          	addi	a5,s0,1168 # 20003490 <connection_state>
    3f1a:	0047c703          	lbu	a4,4(a5)
    3f1e:	49040413          	addi	s0,s0,1168
    3f22:	e715                	bnez	a4,3f4e <connection_state_handler+0x40>
    3f24:	0017c783          	lbu	a5,1(a5)
    3f28:	c39d                	beqz	a5,3f4e <connection_state_handler+0x40>
    3f2a:	4501                	li	a0,0
    3f2c:	bf3ff0ef          	jal	ra,3b1e <set_peripherals_state>
    3f30:	c09fe0ef          	jal	ra,2b38 <set_imu_sleep>
    3f34:	332010ef          	jal	ra,5266 <set_pwr_mode_stop>
    3f38:	98a18623          	sb	a0,-1652(gp) # 20001a34 <stop_flag>
    3f3c:	cb3ff0ef          	jal	ra,3bee <init_all>
    3f40:	4505                	li	a0,1
    3f42:	bddff0ef          	jal	ra,3b1e <set_peripherals_state>
    3f46:	c6bff0ef          	jal	ra,3bb0 <wake_esp32>
    3f4a:	a40fc06f          	j	18a <__riscv_restore_4>
    3f4e:	00044783          	lbu	a5,0(s0)
    3f52:	dfe5                	beqz	a5,3f4a <connection_state_handler+0x3c>
    3f54:	00144783          	lbu	a5,1(s0)
    3f58:	fbed                	bnez	a5,3f4a <connection_state_handler+0x3c>
    3f5a:	9a01a483          	lw	s1,-1632(gp) # 20001a48 <input_update_tick>
    3f5e:	0489                	addi	s1,s1,2
    3f60:	2db010ef          	jal	ra,5a3a <Get_Systick_MS>
    3f64:	fe9563e3          	bltu	a0,s1,3f4a <connection_state_handler+0x3c>
    3f68:	2d3010ef          	jal	ra,5a3a <Get_Systick_MS>
    3f6c:	01344783          	lbu	a5,19(s0)
    3f70:	9aa1a023          	sw	a0,-1632(gp) # 20001a48 <input_update_tick>
    3f74:	c7a1                	beqz	a5,3fbc <connection_state_handler+0xae>
    3f76:	9a418913          	addi	s2,gp,-1628 # 20001a4c <pkt>
    3f7a:	00290993          	addi	s3,s2,2
    3f7e:	03300793          	li	a5,51
    3f82:	460d                	li	a2,3
    3f84:	00c40593          	addi	a1,s0,12
    3f88:	854e                	mv	a0,s3
    3f8a:	9af18223          	sb	a5,-1628(gp) # 20001a4c <pkt>
    3f8e:	a12fc0ef          	jal	ra,1a0 <memcpy>
    3f92:	9a418513          	addi	a0,gp,-1628 # 20001a4c <pkt>
    3f96:	05a020ef          	jal	ra,5ff0 <send_uart_pkt>
    3f9a:	00094783          	lbu	a5,0(s2)
    3f9e:	460d                	li	a2,3
    3fa0:	00f40593          	addi	a1,s0,15
    3fa4:	9bc1                	andi	a5,a5,-16
    3fa6:	0047e793          	ori	a5,a5,4
    3faa:	854e                	mv	a0,s3
    3fac:	00f90023          	sb	a5,0(s2)
    3fb0:	9f0fc0ef          	jal	ra,1a0 <memcpy>
    3fb4:	9a418513          	addi	a0,gp,-1628 # 20001a4c <pkt>
    3fb8:	038020ef          	jal	ra,5ff0 <send_uart_pkt>
    3fbc:	00544783          	lbu	a5,5(s0)
    3fc0:	e7b5                	bnez	a5,402c <connection_state_handler+0x11e>
    3fc2:	fc6ff0ef          	jal	ra,3788 <send_input_with_uart>
    3fc6:	01244783          	lbu	a5,18(s0)
    3fca:	ef91                	bnez	a5,3fe6 <connection_state_handler+0xd8>
    3fcc:	6531                	lui	a0,0xc
    3fce:	c0850513          	addi	a0,a0,-1016 # bc08 <__errno+0x51c>
    3fd2:	7f1030ef          	jal	ra,7fc2 <puts>
    3fd6:	03100793          	li	a5,49
    3fda:	9af18223          	sb	a5,-1628(gp) # 20001a4c <pkt>
    3fde:	9a418513          	addi	a0,gp,-1628 # 20001a4c <pkt>
    3fe2:	00e020ef          	jal	ra,5ff0 <send_uart_pkt>
    3fe6:	02444783          	lbu	a5,36(s0)
    3fea:	ef91                	bnez	a5,4006 <connection_state_handler+0xf8>
    3fec:	6531                	lui	a0,0xc
    3fee:	c2050513          	addi	a0,a0,-992 # bc20 <__errno+0x534>
    3ff2:	7d1030ef          	jal	ra,7fc2 <puts>
    3ff6:	03200793          	li	a5,50
    3ffa:	9af18223          	sb	a5,-1628(gp) # 20001a4c <pkt>
    3ffe:	9a418513          	addi	a0,gp,-1628 # 20001a4c <pkt>
    4002:	7ef010ef          	jal	ra,5ff0 <send_uart_pkt>
    4006:	00344783          	lbu	a5,3(s0)
    400a:	8b85                	andi	a5,a5,1
    400c:	f2079fe3          	bnez	a5,3f4a <connection_state_handler+0x3c>
    4010:	03000793          	li	a5,48
    4014:	9af18223          	sb	a5,-1628(gp) # 20001a4c <pkt>
    4018:	4705                	li	a4,1
    401a:	9a418793          	addi	a5,gp,-1628 # 20001a4c <pkt>
    401e:	00e78123          	sb	a4,2(a5)
    4022:	9a418513          	addi	a0,gp,-1628 # 20001a4c <pkt>
    4026:	7cb010ef          	jal	ra,5ff0 <send_uart_pkt>
    402a:	b705                	j	3f4a <connection_state_handler+0x3c>
    402c:	00344783          	lbu	a5,3(s0)
    4030:	8b85                	andi	a5,a5,1
    4032:	f0078ce3          	beqz	a5,3f4a <connection_state_handler+0x3c>
    4036:	03000793          	li	a5,48
    403a:	9af18223          	sb	a5,-1628(gp) # 20001a4c <pkt>
    403e:	9a418793          	addi	a5,gp,-1628 # 20001a4c <pkt>
    4042:	00078123          	sb	zero,2(a5)
    4046:	bff1                	j	4022 <connection_state_handler+0x114>

00004048 <main>:
    4048:	90efc2ef          	jal	t0,156 <__riscv_save_4>
    404c:	ba3ff0ef          	jal	ra,3bee <init_all>
    4050:	8141a583          	lw	a1,-2028(gp) # 200018bc <SystemCoreClock>
    4054:	6531                	lui	a0,0xc
    4056:	c3c50513          	addi	a0,a0,-964 # bc3c <__errno+0x550>
    405a:	745030ef          	jal	ra,7f9e <printf>
    405e:	4531                	li	a0,12
    4060:	b80fd0ef          	jal	ra,13e0 <gpio_read>
    4064:	9ca18423          	sb	a0,-1592(gp) # 20001a70 <is_rumble_start>
    4068:	539000ef          	jal	ra,4da0 <ns_mux_init>
    406c:	650d                	lui	a0,0x3
    406e:	46e50513          	addi	a0,a0,1134 # 346e <get_peripheral_data_handler>
    4072:	7c7010ef          	jal	ra,6038 <ns_set_peripheral_data_getter>
    4076:	954fc0ef          	jal	ra,1ca <USBFS_RCC_Init>
    407a:	757020ef          	jal	ra,6fd0 <PWR_VDD_SupplyVoltage>
    407e:	85aa                	mv	a1,a0
    4080:	4505                	li	a0,1
    4082:	941fc0ef          	jal	ra,9c2 <USBFS_Device_Init>
    4086:	05e020ef          	jal	ra,60e4 <hid_init>
    408a:	9c81c503          	lbu	a0,-1592(gp) # 20001a70 <is_rumble_start>
    408e:	200034b7          	lui	s1,0x20003
    4092:	20004437          	lui	s0,0x20004
    4096:	00153513          	seqz	a0,a0
    409a:	b9afd0ef          	jal	ra,1434 <hd_rumble_init>
    409e:	6531                	lui	a0,0xc
    40a0:	c4c50513          	addi	a0,a0,-948 # bc4c <__errno+0x560>
    40a4:	71f030ef          	jal	ra,7fc2 <puts>
    40a8:	20003937          	lui	s2,0x20003
    40ac:	200039b7          	lui	s3,0x20003
    40b0:	188010ef          	jal	ra,5238 <top_init>
    40b4:	0b440413          	addi	s0,s0,180 # 200040b4 <global_input_data>
    40b8:	49048493          	addi	s1,s1,1168 # 20003490 <connection_state>
    40bc:	66890913          	addi	s2,s2,1640 # 20003668 <uart_rx_rb>
    40c0:	7b498993          	addi	s3,s3,1972 # 200037b4 <uart_rx_rb_buf>
    40c4:	5e1010ef          	jal	ra,5ea4 <UART1_Rx_Service>
    40c8:	e40ff0ef          	jal	ra,3708 <joystick_debounce_task>
    40cc:	b8aff0ef          	jal	ra,3456 <button_upd_all>
    40d0:	9b41a783          	lw	a5,-1612(gp) # 20001a5c <sts_button>
    40d4:	0087d713          	srli	a4,a5,0x8
    40d8:	00f40023          	sb	a5,0(s0)
    40dc:	83c1                	srli	a5,a5,0x10
    40de:	00f40123          	sb	a5,2(s0)
    40e2:	9b01a783          	lw	a5,-1616(gp) # 20001a58 <sts_ljoy>
    40e6:	00e400a3          	sb	a4,1(s0)
    40ea:	00f401a3          	sb	a5,3(s0)
    40ee:	0087d713          	srli	a4,a5,0x8
    40f2:	83c1                	srli	a5,a5,0x10
    40f4:	00f402a3          	sb	a5,5(s0)
    40f8:	9ac1a783          	lw	a5,-1620(gp) # 20001a54 <sts_rjoy>
    40fc:	00e40223          	sb	a4,4(s0)
    4100:	00f40323          	sb	a5,6(s0)
    4104:	0087d713          	srli	a4,a5,0x8
    4108:	83c1                	srli	a5,a5,0x10
    410a:	00f40423          	sb	a5,8(s0)
    410e:	00e403a3          	sb	a4,7(s0)
    4112:	9c5ff0ef          	jal	ra,3ad6 <routine_service>
    4116:	88a1c783          	lbu	a5,-1910(gp) # 20001932 <USBFS_DevEnumStatus>
    411a:	c395                	beqz	a5,413e <main+0xf6>
    411c:	4785                	li	a5,1
    411e:	00f48223          	sb	a5,4(s1)
    4122:	0dc020ef          	jal	ra,61fe <hid_rx_service>
    4126:	7cd010ef          	jal	ra,60f2 <hid_tx_service>
    412a:	4a85                	li	s5,1
    412c:	4b19                	li	s6,6
    412e:	08794783          	lbu	a5,135(s2)
    4132:	eb99                	bnez	a5,4148 <main+0x100>
    4134:	ddbff0ef          	jal	ra,3f0e <connection_state_handler>
    4138:	3d1010ef          	jal	ra,5d08 <UART1_Tx_Service>
    413c:	b761                	j	40c4 <main+0x7c>
    413e:	000482a3          	sb	zero,5(s1)
    4142:	00048223          	sb	zero,4(s1)
    4146:	b7d5                	j	412a <main+0xe2>
    4148:	08494583          	lbu	a1,132(s2)
    414c:	4619                	li	a2,6
    414e:	9a418513          	addi	a0,gp,-1628 # 20001a4c <pkt>
    4152:	036585b3          	mul	a1,a1,s6
    4156:	01548023          	sb	s5,0(s1)
    415a:	95ce                	add	a1,a1,s3
    415c:	844fc0ef          	jal	ra,1a0 <memcpy>
    4160:	854a                	mv	a0,s2
    4162:	2b4010ef          	jal	ra,5416 <ring_buffer_pop>
    4166:	d7bff0ef          	jal	ra,3ee0 <recv_esp32_pkg>
    416a:	b7d1                	j	412e <main+0xe6>

0000416c <ns_subcommand_set_hci_state>:
    416c:	8082                	ret

0000416e <ns_subcommand_set_imu_register>:
    416e:	802fc2ef          	jal	t0,170 <__riscv_save_0>
    4172:	00b54403          	lbu	s0,11(a0)
    4176:	00d54483          	lbu	s1,13(a0)
    417a:	0ff00613          	li	a2,255
    417e:	8522                	mv	a0,s0
    4180:	85a6                	mv	a1,s1
    4182:	80dfe0ef          	jal	ra,298e <imu_set_reg>
    4186:	6531                	lui	a0,0xc
    4188:	8626                	mv	a2,s1
    418a:	85a2                	mv	a1,s0
    418c:	c5850513          	addi	a0,a0,-936 # bc58 <__errno+0x56c>
    4190:	60f030ef          	jal	ra,7f9e <printf>
    4194:	800fc06f          	j	194 <__riscv_restore_0>

00004198 <ns_subcommand_reset_mcu>:
    4198:	8082                	ret

0000419a <ns_subcommand_set_home_led>:
    419a:	8082                	ret

0000419c <ns_subcommand_reset_pairing_info>:
    419c:	8082                	ret

0000419e <pkt_clr>:
    419e:	200037b7          	lui	a5,0x20003
    41a2:	cb078793          	addi	a5,a5,-848 # 20002cb0 <pkt>
    41a6:	0207a823          	sw	zero,48(a5)
    41aa:	02079623          	sh	zero,44(a5)
    41ae:	0207a423          	sw	zero,40(a5)
    41b2:	8082                	ret

000041b4 <ns_subcommand_set_mcu_conf>:
    41b4:	fbdfb2ef          	jal	t0,170 <__riscv_save_0>
    41b8:	20003437          	lui	s0,0x20003
    41bc:	84aa                	mv	s1,a0
    41be:	fe1ff0ef          	jal	ra,419e <pkt_clr>
    41c2:	cb040913          	addi	s2,s0,-848 # 20002cb0 <pkt>
    41c6:	6789                	lui	a5,0x2
    41c8:	1a078793          	addi	a5,a5,416 # 21a0 <TIM3_IRQHandler+0x1ce>
    41cc:	02200613          	li	a2,34
    41d0:	00b48593          	addi	a1,s1,11
    41d4:	00290513          	addi	a0,s2,2
    41d8:	caf41823          	sh	a5,-848(s0)
    41dc:	fc5fb0ef          	jal	ra,1a0 <memcpy>
    41e0:	02400793          	li	a5,36
    41e4:	cb040513          	addi	a0,s0,-848
    41e8:	02f91623          	sh	a5,44(s2)
    41ec:	3f1000ef          	jal	ra,4ddc <ns_send_report>
    41f0:	fa5fb06f          	j	194 <__riscv_restore_0>

000041f4 <ns_subcommand_default>:
    41f4:	f7dfb2ef          	jal	t0,170 <__riscv_save_0>
    41f8:	842a                	mv	s0,a0
    41fa:	fa5ff0ef          	jal	ra,419e <pkt_clr>
    41fe:	00a44703          	lbu	a4,10(s0)
    4202:	20003537          	lui	a0,0x20003
    4206:	cb050793          	addi	a5,a0,-848 # 20002cb0 <pkt>
    420a:	f8000693          	li	a3,-128
    420e:	00e780a3          	sb	a4,1(a5)
    4212:	cb050513          	addi	a0,a0,-848
    4216:	470d                	li	a4,3
    4218:	00d78023          	sb	a3,0(a5)
    421c:	00e78123          	sb	a4,2(a5)
    4220:	02e79623          	sh	a4,44(a5)
    4224:	3b9000ef          	jal	ra,4ddc <ns_send_report>
    4228:	f6dfb06f          	j	194 <__riscv_restore_0>

0000422c <ns_subcommand_pair_by_wire>:
    422c:	f2bfb2ef          	jal	t0,156 <__riscv_save_4>
    4230:	892a                	mv	s2,a0
    4232:	f6dff0ef          	jal	ra,419e <pkt_clr>
    4236:	00b94483          	lbu	s1,11(s2)
    423a:	00a94583          	lbu	a1,10(s2)
    423e:	20003a37          	lui	s4,0x20003
    4242:	6531                	lui	a0,0xc
    4244:	cb0a0793          	addi	a5,s4,-848 # 20002cb0 <pkt>
    4248:	f8100713          	li	a4,-127
    424c:	8626                	mv	a2,s1
    424e:	c7850513          	addi	a0,a0,-904 # bc78 <__errno+0x58c>
    4252:	00e78023          	sb	a4,0(a5)
    4256:	00b780a3          	sb	a1,1(a5)
    425a:	00978123          	sb	s1,2(a5)
    425e:	541030ef          	jal	ra,7f9e <printf>
    4262:	4785                	li	a5,1
    4264:	cb0a0993          	addi	s3,s4,-848
    4268:	00f48e63          	beq	s1,a5,4284 <ns_subcommand_pair_by_wire+0x58>
    426c:	4789                	li	a5,2
    426e:	04f48a63          	beq	s1,a5,42c2 <ns_subcommand_pair_by_wire+0x96>
    4272:	478d                	li	a5,3
    4274:	cb0a0513          	addi	a0,s4,-848
    4278:	02f99623          	sh	a5,44(s3)
    427c:	361000ef          	jal	ra,4ddc <ns_send_report>
    4280:	f0bfb06f          	j	18a <__riscv_restore_4>
    4284:	20003437          	lui	s0,0x20003
    4288:	49040413          	addi	s0,s0,1168 # 20003490 <connection_state>
    428c:	4619                	li	a2,6
    428e:	00c90593          	addi	a1,s2,12
    4292:	00c40513          	addi	a0,s0,12
    4296:	f0bfb0ef          	jal	ra,1a0 <memcpy>
    429a:	4619                	li	a2,6
    429c:	00640593          	addi	a1,s0,6
    42a0:	00398513          	addi	a0,s3,3
    42a4:	009409a3          	sb	s1,19(s0)
    42a8:	ef9fb0ef          	jal	ra,1a0 <memcpy>
    42ac:	65ad                	lui	a1,0xb
    42ae:	4661                	li	a2,24
    42b0:	6f458593          	addi	a1,a1,1780 # b6f4 <__errno+0x8>
    42b4:	00998513          	addi	a0,s3,9
    42b8:	ee9fb0ef          	jal	ra,1a0 <memcpy>
    42bc:	02100793          	li	a5,33
    42c0:	bf55                	j	4274 <ns_subcommand_pair_by_wire+0x48>
    42c2:	200035b7          	lui	a1,0x20003
    42c6:	4641                	li	a2,16
    42c8:	4a458593          	addi	a1,a1,1188 # 200034a4 <connection_state+0x14>
    42cc:	00398513          	addi	a0,s3,3
    42d0:	ed1fb0ef          	jal	ra,1a0 <memcpy>
    42d4:	47cd                	li	a5,19
    42d6:	bf79                	j	4274 <ns_subcommand_pair_by_wire+0x48>

000042d8 <ns_subcommand_get_device_info>:
    42d8:	e7ffb2ef          	jal	t0,156 <__riscv_save_4>
    42dc:	842a                	mv	s0,a0
    42de:	ec1ff0ef          	jal	ra,419e <pkt_clr>
    42e2:	29c1c783          	lbu	a5,668(gp) # 20002344 <user_config+0x1c>
    42e6:	c7c1                	beqz	a5,436e <ns_subcommand_get_device_info+0x96>
    42e8:	4691                	li	a3,4
    42ea:	03300713          	li	a4,51
    42ee:	20001937          	lui	s2,0x20001
    42f2:	7ec90793          	addi	a5,s2,2028 # 200017ec <default_device_info>
    42f6:	00e780a3          	sb	a4,1(a5)
    42fa:	00a44703          	lbu	a4,10(s0)
    42fe:	200034b7          	lui	s1,0x20003
    4302:	20003437          	lui	s0,0x20003
    4306:	00d78023          	sb	a3,0(a5)
    430a:	49040413          	addi	s0,s0,1168 # 20003490 <connection_state>
    430e:	cb048793          	addi	a5,s1,-848 # 20002cb0 <pkt>
    4312:	f8200693          	li	a3,-126
    4316:	00d78023          	sb	a3,0(a5)
    431a:	00e780a3          	sb	a4,1(a5)
    431e:	7ec90993          	addi	s3,s2,2028
    4322:	ffa40a93          	addi	s5,s0,-6
    4326:	cb048a13          	addi	s4,s1,-848
    432a:	6b31                	lui	s6,0xc
    432c:	00b44583          	lbu	a1,11(s0)
    4330:	c9cb0513          	addi	a0,s6,-868 # bc9c <__errno+0x5b0>
    4334:	147d                	addi	s0,s0,-1
    4336:	00b98223          	sb	a1,4(s3)
    433a:	465030ef          	jal	ra,7f9e <printf>
    433e:	0985                	addi	s3,s3,1
    4340:	ff5416e3          	bne	s0,s5,432c <ns_subcommand_get_device_info+0x54>
    4344:	6531                	lui	a0,0xc
    4346:	e6850513          	addi	a0,a0,-408 # be68 <__errno+0x77c>
    434a:	479030ef          	jal	ra,7fc2 <puts>
    434e:	4631                	li	a2,12
    4350:	7ec90593          	addi	a1,s2,2028
    4354:	002a0513          	addi	a0,s4,2
    4358:	e49fb0ef          	jal	ra,1a0 <memcpy>
    435c:	47b9                	li	a5,14
    435e:	cb048513          	addi	a0,s1,-848
    4362:	02fa1623          	sh	a5,44(s4)
    4366:	277000ef          	jal	ra,4ddc <ns_send_report>
    436a:	e21fb06f          	j	18a <__riscv_restore_4>
    436e:	468d                	li	a3,3
    4370:	04800713          	li	a4,72
    4374:	bfad                	j	42ee <ns_subcommand_get_device_info+0x16>

00004376 <ns_subcommand_set_input_mode>:
    4376:	dfbfb2ef          	jal	t0,170 <__riscv_save_0>
    437a:	842a                	mv	s0,a0
    437c:	e23ff0ef          	jal	ra,419e <pkt_clr>
    4380:	00b44583          	lbu	a1,11(s0)
    4384:	6531                	lui	a0,0xc
    4386:	ca450513          	addi	a0,a0,-860 # bca4 <__errno+0x5b8>
    438a:	415030ef          	jal	ra,7f9e <printf>
    438e:	00b44703          	lbu	a4,11(s0)
    4392:	468d                	li	a3,3
    4394:	fd070793          	addi	a5,a4,-48 # e000dfd0 <_eusrstack+0xc0008fd0>
    4398:	0ff7f793          	zext.b	a5,a5
    439c:	00f6e663          	bltu	a3,a5,43a8 <ns_subcommand_set_input_mode+0x32>
    43a0:	200027b7          	lui	a5,0x20002
    43a4:	8ae78823          	sb	a4,-1872(a5) # 200018b0 <input_mode>
    43a8:	00a44703          	lbu	a4,10(s0)
    43ac:	20003537          	lui	a0,0x20003
    43b0:	cb050793          	addi	a5,a0,-848 # 20002cb0 <pkt>
    43b4:	f8000693          	li	a3,-128
    43b8:	00e780a3          	sb	a4,1(a5)
    43bc:	cb050513          	addi	a0,a0,-848
    43c0:	4709                	li	a4,2
    43c2:	00d78023          	sb	a3,0(a5)
    43c6:	02e79623          	sh	a4,44(a5)
    43ca:	213000ef          	jal	ra,4ddc <ns_send_report>
    43ce:	dc7fb06f          	j	194 <__riscv_restore_0>

000043d2 <ns_subcommand_trigger_buttons_elapsed_time>:
    43d2:	d9ffb2ef          	jal	t0,170 <__riscv_save_0>
    43d6:	842a                	mv	s0,a0
    43d8:	dc7ff0ef          	jal	ra,419e <pkt_clr>
    43dc:	00a44783          	lbu	a5,10(s0)
    43e0:	200034b7          	lui	s1,0x20003
    43e4:	cb048413          	addi	s0,s1,-848 # 20002cb0 <pkt>
    43e8:	200015b7          	lui	a1,0x20001
    43ec:	f8300713          	li	a4,-125
    43f0:	4639                	li	a2,14
    43f2:	7dc58593          	addi	a1,a1,2012 # 200017dc <default_et>
    43f6:	00240513          	addi	a0,s0,2
    43fa:	00e40023          	sb	a4,0(s0)
    43fe:	00f400a3          	sb	a5,1(s0)
    4402:	d9ffb0ef          	jal	ra,1a0 <memcpy>
    4406:	47c1                	li	a5,16
    4408:	cb048513          	addi	a0,s1,-848
    440c:	02f41623          	sh	a5,44(s0)
    4410:	1cd000ef          	jal	ra,4ddc <ns_send_report>
    4414:	d81fb06f          	j	194 <__riscv_restore_0>

00004418 <ns_subcommand_get_page_list_state>:
    4418:	d59fb2ef          	jal	t0,170 <__riscv_save_0>
    441c:	842a                	mv	s0,a0
    441e:	d81ff0ef          	jal	ra,419e <pkt_clr>
    4422:	00a44703          	lbu	a4,10(s0)
    4426:	20003537          	lui	a0,0x20003
    442a:	cb050793          	addi	a5,a0,-848 # 20002cb0 <pkt>
    442e:	00e780a3          	sb	a4,1(a5)
    4432:	4705                	li	a4,1
    4434:	f8000693          	li	a3,-128
    4438:	00e78123          	sb	a4,2(a5)
    443c:	cb050513          	addi	a0,a0,-848
    4440:	470d                	li	a4,3
    4442:	00d78023          	sb	a3,0(a5)
    4446:	02e79623          	sh	a4,44(a5)
    444a:	193000ef          	jal	ra,4ddc <ns_send_report>
    444e:	d47fb06f          	j	194 <__riscv_restore_0>

00004452 <ns_subcommand_set_shipping_mode>:
    4452:	d1ffb2ef          	jal	t0,170 <__riscv_save_0>
    4456:	842a                	mv	s0,a0
    4458:	d47ff0ef          	jal	ra,419e <pkt_clr>
    445c:	00a44703          	lbu	a4,10(s0)
    4460:	20003537          	lui	a0,0x20003
    4464:	cb050793          	addi	a5,a0,-848 # 20002cb0 <pkt>
    4468:	f8000693          	li	a3,-128
    446c:	00e780a3          	sb	a4,1(a5)
    4470:	cb050513          	addi	a0,a0,-848
    4474:	470d                	li	a4,3
    4476:	00d78023          	sb	a3,0(a5)
    447a:	00078123          	sb	zero,2(a5)
    447e:	02e79623          	sh	a4,44(a5)
    4482:	15b000ef          	jal	ra,4ddc <ns_send_report>
    4486:	d0ffb06f          	j	194 <__riscv_restore_0>

0000448a <ns_subcommand_spi_erase>:
    448a:	fc9ff06f          	j	4452 <ns_subcommand_set_shipping_mode>

0000448e <ns_subcommand_enable_mcu_polling>:
    448e:	fc5ff06f          	j	4452 <ns_subcommand_set_shipping_mode>

00004492 <ns_subcommand_disable_mcu_polling>:
    4492:	fc1ff06f          	j	4452 <ns_subcommand_set_shipping_mode>

00004496 <ns_subcommand_spi_read>:
    4496:	cc1fb2ef          	jal	t0,156 <__riscv_save_4>
    449a:	842a                	mv	s0,a0
    449c:	6531                	lui	a0,0xc
    449e:	cc050513          	addi	a0,a0,-832 # bcc0 <__errno+0x5d4>
    44a2:	321030ef          	jal	ra,7fc2 <puts>
    44a6:	cf9ff0ef          	jal	ra,419e <pkt_clr>
    44aa:	00b40a13          	addi	s4,s0,11
    44ae:	8552                	mv	a0,s4
    44b0:	bc1fc0ef          	jal	ra,1070 <fetch_uint32>
    44b4:	00f44483          	lbu	s1,15(s0)
    44b8:	01051593          	slli	a1,a0,0x10
    44bc:	892a                	mv	s2,a0
    44be:	6531                	lui	a0,0xc
    44c0:	81c1                	srli	a1,a1,0x10
    44c2:	ccc50513          	addi	a0,a0,-820 # bccc <__errno+0x5e0>
    44c6:	2d9030ef          	jal	ra,7f9e <printf>
    44ca:	e091                	bnez	s1,44ce <ns_subcommand_spi_read+0x38>
    44cc:	44f5                	li	s1,29
    44ce:	00e44703          	lbu	a4,14(s0)
    44d2:	00d44683          	lbu	a3,13(s0)
    44d6:	00c44603          	lbu	a2,12(s0)
    44da:	00b44583          	lbu	a1,11(s0)
    44de:	6531                	lui	a0,0xc
    44e0:	87a6                	mv	a5,s1
    44e2:	ce450513          	addi	a0,a0,-796 # bce4 <__errno+0x5f8>
    44e6:	2b9030ef          	jal	ra,7f9e <printf>
    44ea:	00a44703          	lbu	a4,10(s0)
    44ee:	200039b7          	lui	s3,0x20003
    44f2:	20003537          	lui	a0,0x20003
    44f6:	cb098793          	addi	a5,s3,-848 # 20002cb0 <pkt>
    44fa:	f9000693          	li	a3,-112
    44fe:	85d2                	mv	a1,s4
    4500:	4615                	li	a2,5
    4502:	cb250513          	addi	a0,a0,-846 # 20002cb2 <pkt+0x2>
    4506:	00d78023          	sb	a3,0(a5)
    450a:	00e780a3          	sb	a4,1(a5)
    450e:	c93fb0ef          	jal	ra,1a0 <memcpy>
    4512:	47f5                	li	a5,29
    4514:	0ff4f413          	zext.b	s0,s1
    4518:	cb098a13          	addi	s4,s3,-848
    451c:	0097f363          	bgeu	a5,s1,4522 <ns_subcommand_spi_read+0x8c>
    4520:	4475                	li	s0,29
    4522:	200035b7          	lui	a1,0x20003
    4526:	8622                	mv	a2,s0
    4528:	cb758593          	addi	a1,a1,-841 # 20002cb7 <pkt+0x7>
    452c:	854a                	mv	a0,s2
    452e:	d28fc0ef          	jal	ra,a56 <conf_read>
    4532:	041d                	addi	s0,s0,7
    4534:	0ff47413          	zext.b	s0,s0
    4538:	cb098513          	addi	a0,s3,-848
    453c:	028a1623          	sh	s0,44(s4)
    4540:	09d000ef          	jal	ra,4ddc <ns_send_report>
    4544:	c47fb06f          	j	18a <__riscv_restore_4>

00004548 <ns_subcommand_spi_write>:
    4548:	c29fb2ef          	jal	t0,170 <__riscv_save_0>
    454c:	1141                	addi	sp,sp,-16
    454e:	842a                	mv	s0,a0
    4550:	c4fff0ef          	jal	ra,419e <pkt_clr>
    4554:	00b40513          	addi	a0,s0,11
    4558:	b19fc0ef          	jal	ra,1070 <fetch_uint32>
    455c:	00f44603          	lbu	a2,15(s0)
    4560:	84aa                	mv	s1,a0
    4562:	85aa                	mv	a1,a0
    4564:	6531                	lui	a0,0xc
    4566:	d1c50513          	addi	a0,a0,-740 # bd1c <__errno+0x630>
    456a:	c632                	sw	a2,12(sp)
    456c:	233030ef          	jal	ra,7f9e <printf>
    4570:	4632                	lw	a2,12(sp)
    4572:	01040593          	addi	a1,s0,16
    4576:	8526                	mv	a0,s1
    4578:	dacfc0ef          	jal	ra,b24 <conf_write>
    457c:	00a44703          	lbu	a4,10(s0)
    4580:	20003537          	lui	a0,0x20003
    4584:	cb050793          	addi	a5,a0,-848 # 20002cb0 <pkt>
    4588:	f8000693          	li	a3,-128
    458c:	00e780a3          	sb	a4,1(a5)
    4590:	cb050513          	addi	a0,a0,-848
    4594:	470d                	li	a4,3
    4596:	00d78023          	sb	a3,0(a5)
    459a:	00078123          	sb	zero,2(a5)
    459e:	02e79623          	sh	a4,44(a5)
    45a2:	03b000ef          	jal	ra,4ddc <ns_send_report>
    45a6:	0141                	addi	sp,sp,16
    45a8:	bedfb06f          	j	194 <__riscv_restore_0>

000045ac <ns_subcommand_set_mcu_state>:
    45ac:	bc5fb2ef          	jal	t0,170 <__riscv_save_0>
    45b0:	842a                	mv	s0,a0
    45b2:	bedff0ef          	jal	ra,419e <pkt_clr>
    45b6:	00a44703          	lbu	a4,10(s0)
    45ba:	20003537          	lui	a0,0x20003
    45be:	cb050793          	addi	a5,a0,-848 # 20002cb0 <pkt>
    45c2:	f8000693          	li	a3,-128
    45c6:	00e780a3          	sb	a4,1(a5)
    45ca:	cb050513          	addi	a0,a0,-848
    45ce:	4709                	li	a4,2
    45d0:	00d78023          	sb	a3,0(a5)
    45d4:	02e79623          	sh	a4,44(a5)
    45d8:	005000ef          	jal	ra,4ddc <ns_send_report>
    45dc:	bb9fb06f          	j	194 <__riscv_restore_0>

000045e0 <ns_subcommand_attachmend_write>:
    45e0:	fcdff06f          	j	45ac <ns_subcommand_set_mcu_state>

000045e4 <ns_subcommand_write_charge_setting>:
    45e4:	fc9ff06f          	j	45ac <ns_subcommand_set_mcu_state>

000045e8 <ns_subcommand_attachmend_read>:
    45e8:	b89fb2ef          	jal	t0,170 <__riscv_save_0>
    45ec:	842a                	mv	s0,a0
    45ee:	bb1ff0ef          	jal	ra,419e <pkt_clr>
    45f2:	00a44703          	lbu	a4,10(s0)
    45f6:	20003537          	lui	a0,0x20003
    45fa:	cb050793          	addi	a5,a0,-848 # 20002cb0 <pkt>
    45fe:	f8000693          	li	a3,-128
    4602:	00e780a3          	sb	a4,1(a5)
    4606:	cb050513          	addi	a0,a0,-848
    460a:	02400713          	li	a4,36
    460e:	00d78023          	sb	a3,0(a5)
    4612:	02e79623          	sh	a4,44(a5)
    4616:	7c6000ef          	jal	ra,4ddc <ns_send_report>
    461a:	b7bfb06f          	j	194 <__riscv_restore_0>

0000461e <ns_subcommand_attachment_state>:
    461e:	b53fb2ef          	jal	t0,170 <__riscv_save_0>
    4622:	842a                	mv	s0,a0
    4624:	b7bff0ef          	jal	ra,419e <pkt_clr>
    4628:	00a44703          	lbu	a4,10(s0)
    462c:	20003537          	lui	a0,0x20003
    4630:	cb050793          	addi	a5,a0,-848 # 20002cb0 <pkt>
    4634:	00e780a3          	sb	a4,1(a5)
    4638:	cb050513          	addi	a0,a0,-848
    463c:	4709                	li	a4,2
    463e:	00078023          	sb	zero,0(a5)
    4642:	02e79623          	sh	a4,44(a5)
    4646:	796000ef          	jal	ra,4ddc <ns_send_report>
    464a:	b4bfb06f          	j	194 <__riscv_restore_0>

0000464e <ns_subcommand_get_attachment_info>:
    464e:	b23fb2ef          	jal	t0,170 <__riscv_save_0>
    4652:	842a                	mv	s0,a0
    4654:	b4bff0ef          	jal	ra,419e <pkt_clr>
    4658:	00a44703          	lbu	a4,10(s0)
    465c:	20003537          	lui	a0,0x20003
    4660:	cb050793          	addi	a5,a0,-848 # 20002cb0 <pkt>
    4664:	f8000693          	li	a3,-128
    4668:	00e780a3          	sb	a4,1(a5)
    466c:	cb050513          	addi	a0,a0,-848
    4670:	4759                	li	a4,22
    4672:	00d78023          	sb	a3,0(a5)
    4676:	02e79623          	sh	a4,44(a5)
    467a:	762000ef          	jal	ra,4ddc <ns_send_report>
    467e:	b17fb06f          	j	194 <__riscv_restore_0>

00004682 <ns_subcommand_set_indicate_led>:
    4682:	aeffb2ef          	jal	t0,170 <__riscv_save_0>
    4686:	842a                	mv	s0,a0
    4688:	b17ff0ef          	jal	ra,419e <pkt_clr>
    468c:	00b44703          	lbu	a4,11(s0)
    4690:	20003537          	lui	a0,0x20003
    4694:	9ce180a3          	sb	a4,-1599(gp) # 20001a69 <indicate_led_status>
    4698:	00a44703          	lbu	a4,10(s0)
    469c:	cb050793          	addi	a5,a0,-848 # 20002cb0 <pkt>
    46a0:	f8000693          	li	a3,-128
    46a4:	00e780a3          	sb	a4,1(a5)
    46a8:	cb050513          	addi	a0,a0,-848
    46ac:	4709                	li	a4,2
    46ae:	00d78023          	sb	a3,0(a5)
    46b2:	02e79623          	sh	a4,44(a5)
    46b6:	726000ef          	jal	ra,4ddc <ns_send_report>
    46ba:	200037b7          	lui	a5,0x20003
    46be:	4705                	li	a4,1
    46c0:	48e78aa3          	sb	a4,1173(a5) # 20003495 <connection_state+0x5>
    46c4:	ad1fb06f          	j	194 <__riscv_restore_0>

000046c8 <ns_subcommand_get_indicate_led>:
    46c8:	aa9fb2ef          	jal	t0,170 <__riscv_save_0>
    46cc:	842a                	mv	s0,a0
    46ce:	ad1ff0ef          	jal	ra,419e <pkt_clr>
    46d2:	00a44703          	lbu	a4,10(s0)
    46d6:	20003537          	lui	a0,0x20003
    46da:	cb050793          	addi	a5,a0,-848 # 20002cb0 <pkt>
    46de:	00e780a3          	sb	a4,1(a5)
    46e2:	9c11c703          	lbu	a4,-1599(gp) # 20001a69 <indicate_led_status>
    46e6:	fb000693          	li	a3,-80
    46ea:	cb050513          	addi	a0,a0,-848
    46ee:	00e78123          	sb	a4,2(a5)
    46f2:	470d                	li	a4,3
    46f4:	00d78023          	sb	a3,0(a5)
    46f8:	02e79623          	sh	a4,44(a5)
    46fc:	6e0000ef          	jal	ra,4ddc <ns_send_report>
    4700:	a95fb06f          	j	194 <__riscv_restore_0>

00004704 <ns_subcommand_set_imu_state>:
    4704:	a6dfb2ef          	jal	t0,170 <__riscv_save_0>
    4708:	842a                	mv	s0,a0
    470a:	a95ff0ef          	jal	ra,419e <pkt_clr>
    470e:	00b44483          	lbu	s1,11(s0)
    4712:	6531                	lui	a0,0xc
    4714:	d3850513          	addi	a0,a0,-712 # bd38 <__errno+0x64c>
    4718:	85a6                	mv	a1,s1
    471a:	085030ef          	jal	ra,7f9e <printf>
    471e:	00a44703          	lbu	a4,10(s0)
    4722:	9a918e23          	sb	s1,-1604(gp) # 20001a64 <imu_conf>
    4726:	20003537          	lui	a0,0x20003
    472a:	96918423          	sb	s1,-1688(gp) # 20001a10 <imu_mode>
    472e:	cb050793          	addi	a5,a0,-848 # 20002cb0 <pkt>
    4732:	f8000693          	li	a3,-128
    4736:	00e780a3          	sb	a4,1(a5)
    473a:	cb050513          	addi	a0,a0,-848
    473e:	4709                	li	a4,2
    4740:	00d78023          	sb	a3,0(a5)
    4744:	02e79623          	sh	a4,44(a5)
    4748:	694000ef          	jal	ra,4ddc <ns_send_report>
    474c:	a49fb06f          	j	194 <__riscv_restore_0>

00004750 <ns_subcommand_set_imu_conf>:
    4750:	a21fb2ef          	jal	t0,170 <__riscv_save_0>
    4754:	84aa                	mv	s1,a0
    4756:	a49ff0ef          	jal	ra,419e <pkt_clr>
    475a:	00b4c583          	lbu	a1,11(s1)
    475e:	6531                	lui	a0,0xc
    4760:	d4c50513          	addi	a0,a0,-692 # bd4c <__errno+0x660>
    4764:	96b18423          	sb	a1,-1688(gp) # 20001a10 <imu_mode>
    4768:	037030ef          	jal	ra,7f9e <printf>
    476c:	9bc18513          	addi	a0,gp,-1604 # 20001a64 <imu_conf>
    4770:	00054783          	lbu	a5,0(a0)
    4774:	20003937          	lui	s2,0x20003
    4778:	cb090413          	addi	s0,s2,-848 # 20002cb0 <pkt>
    477c:	eb8d                	bnez	a5,47ae <ns_subcommand_set_imu_conf+0x5e>
    477e:	00a4c783          	lbu	a5,10(s1)
    4782:	4705                	li	a4,1
    4784:	00e50023          	sb	a4,0(a0)
    4788:	00f400a3          	sb	a5,1(s0)
    478c:	f8000713          	li	a4,-128
    4790:	14000793          	li	a5,320
    4794:	00f41123          	sh	a5,2(s0)
    4798:	00e40023          	sb	a4,0(s0)
    479c:	478d                	li	a5,3
    479e:	cb090513          	addi	a0,s2,-848
    47a2:	02f41623          	sh	a5,44(s0)
    47a6:	636000ef          	jal	ra,4ddc <ns_send_report>
    47aa:	9ebfb06f          	j	194 <__riscv_restore_0>
    47ae:	4611                	li	a2,4
    47b0:	00b48593          	addi	a1,s1,11
    47b4:	0505                	addi	a0,a0,1
    47b6:	9ebfb0ef          	jal	ra,1a0 <memcpy>
    47ba:	00a4c783          	lbu	a5,10(s1)
    47be:	f8000713          	li	a4,-128
    47c2:	00e40023          	sb	a4,0(s0)
    47c6:	00f400a3          	sb	a5,1(s0)
    47ca:	4789                	li	a5,2
    47cc:	bfc9                	j	479e <ns_subcommand_set_imu_conf+0x4e>

000047ce <ns_subcommand_read_imu_register>:
    47ce:	989fb2ef          	jal	t0,156 <__riscv_save_4>
    47d2:	84aa                	mv	s1,a0
    47d4:	9cbff0ef          	jal	ra,419e <pkt_clr>
    47d8:	00c4c703          	lbu	a4,12(s1)
    47dc:	02000693          	li	a3,32
    47e0:	00b4c903          	lbu	s2,11(s1)
    47e4:	02000793          	li	a5,32
    47e8:	00e6e363          	bltu	a3,a4,47ee <ns_subcommand_read_imu_register+0x20>
    47ec:	87ba                	mv	a5,a4
    47ee:	00a4c703          	lbu	a4,10(s1)
    47f2:	0ff7f413          	zext.b	s0,a5
    47f6:	200039b7          	lui	s3,0x20003
    47fa:	6531                	lui	a0,0xc
    47fc:	cb098493          	addi	s1,s3,-848 # 20002cb0 <pkt>
    4800:	fc000693          	li	a3,-64
    4804:	8622                	mv	a2,s0
    4806:	85ca                	mv	a1,s2
    4808:	d6450513          	addi	a0,a0,-668 # bd64 <__errno+0x678>
    480c:	00d48023          	sb	a3,0(s1)
    4810:	00e480a3          	sb	a4,1(s1)
    4814:	00f481a3          	sb	a5,3(s1)
    4818:	01248123          	sb	s2,2(s1)
    481c:	782030ef          	jal	ra,7f9e <printf>
    4820:	200035b7          	lui	a1,0x20003
    4824:	8622                	mv	a2,s0
    4826:	cb458593          	addi	a1,a1,-844 # 20002cb4 <pkt+0x4>
    482a:	854a                	mv	a0,s2
    482c:	f6dfd0ef          	jal	ra,2798 <i2c_read_continuous>
    4830:	0411                	addi	s0,s0,4
    4832:	0ff47413          	zext.b	s0,s0
    4836:	cb098513          	addi	a0,s3,-848
    483a:	02849623          	sh	s0,44(s1)
    483e:	2b79                	jal	4ddc <ns_send_report>
    4840:	94bfb06f          	j	18a <__riscv_restore_4>

00004844 <ns_subcommand_set_rumble_state>:
    4844:	92dfb2ef          	jal	t0,170 <__riscv_save_0>
    4848:	842a                	mv	s0,a0
    484a:	955ff0ef          	jal	ra,419e <pkt_clr>
    484e:	00b44703          	lbu	a4,11(s0)
    4852:	200027b7          	lui	a5,0x20002
    4856:	20003537          	lui	a0,0x20003
    485a:	8ae78423          	sb	a4,-1880(a5) # 200018a8 <rumble_state>
    485e:	00a44703          	lbu	a4,10(s0)
    4862:	cb050793          	addi	a5,a0,-848 # 20002cb0 <pkt>
    4866:	f8000693          	li	a3,-128
    486a:	00e780a3          	sb	a4,1(a5)
    486e:	cb050513          	addi	a0,a0,-848
    4872:	4709                	li	a4,2
    4874:	00d78023          	sb	a3,0(a5)
    4878:	02e79623          	sh	a4,44(a5)
    487c:	2385                	jal	4ddc <ns_send_report>
    487e:	917fb06f          	j	194 <__riscv_restore_0>

00004882 <ns_subcommand_get_battery_voltage>:
    4882:	8effb2ef          	jal	t0,170 <__riscv_save_0>
    4886:	842a                	mv	s0,a0
    4888:	917ff0ef          	jal	ra,419e <pkt_clr>
    488c:	00a44703          	lbu	a4,10(s0)
    4890:	20003537          	lui	a0,0x20003
    4894:	cb050793          	addi	a5,a0,-848 # 20002cb0 <pkt>
    4898:	00e780a3          	sb	a4,1(a5)
    489c:	61800713          	li	a4,1560
    48a0:	fd000693          	li	a3,-48
    48a4:	00e79123          	sh	a4,2(a5)
    48a8:	cb050513          	addi	a0,a0,-848
    48ac:	4711                	li	a4,4
    48ae:	00d78023          	sb	a3,0(a5)
    48b2:	02e79623          	sh	a4,44(a5)
    48b6:	231d                	jal	4ddc <ns_send_report>
    48b8:	8ddfb06f          	j	194 <__riscv_restore_0>

000048bc <ns_subcommand_read_charge_setting>:
    48bc:	8b5fb2ef          	jal	t0,170 <__riscv_save_0>
    48c0:	842a                	mv	s0,a0
    48c2:	8ddff0ef          	jal	ra,419e <pkt_clr>
    48c6:	00a44703          	lbu	a4,10(s0)
    48ca:	20003537          	lui	a0,0x20003
    48ce:	cb050793          	addi	a5,a0,-848 # 20002cb0 <pkt>
    48d2:	00e780a3          	sb	a4,1(a5)
    48d6:	4751                	li	a4,20
    48d8:	fd100693          	li	a3,-47
    48dc:	00e78123          	sb	a4,2(a5)
    48e0:	cb050513          	addi	a0,a0,-848
    48e4:	470d                	li	a4,3
    48e6:	00d78023          	sb	a3,0(a5)
    48ea:	02e79623          	sh	a4,44(a5)
    48ee:	21fd                	jal	4ddc <ns_send_report>
    48f0:	8a5fb06f          	j	194 <__riscv_restore_0>

000048f4 <ns_subcommand_callback_init>:
    48f4:	200037b7          	lui	a5,0x20003
    48f8:	6711                	lui	a4,0x4
    48fa:	ce478793          	addi	a5,a5,-796 # 20002ce4 <ns_cmd_subcommand_cb_tb>
    48fe:	1f470713          	addi	a4,a4,500 # 41f4 <ns_subcommand_default>
    4902:	c398                	sw	a4,0(a5)
    4904:	6711                	lui	a4,0x4
    4906:	22c70713          	addi	a4,a4,556 # 422c <ns_subcommand_pair_by_wire>
    490a:	c3d8                	sw	a4,4(a5)
    490c:	6711                	lui	a4,0x4
    490e:	2d870713          	addi	a4,a4,728 # 42d8 <ns_subcommand_get_device_info>
    4912:	c798                	sw	a4,8(a5)
    4914:	6711                	lui	a4,0x4
    4916:	37670713          	addi	a4,a4,886 # 4376 <ns_subcommand_set_input_mode>
    491a:	c7d8                	sw	a4,12(a5)
    491c:	6711                	lui	a4,0x4
    491e:	3d270713          	addi	a4,a4,978 # 43d2 <ns_subcommand_trigger_buttons_elapsed_time>
    4922:	cb98                	sw	a4,16(a5)
    4924:	6711                	lui	a4,0x4
    4926:	41870713          	addi	a4,a4,1048 # 4418 <ns_subcommand_get_page_list_state>
    492a:	cbd8                	sw	a4,20(a5)
    492c:	6711                	lui	a4,0x4
    492e:	16c70713          	addi	a4,a4,364 # 416c <ns_subcommand_set_hci_state>
    4932:	cf98                	sw	a4,24(a5)
    4934:	6711                	lui	a4,0x4
    4936:	19c70713          	addi	a4,a4,412 # 419c <ns_subcommand_reset_pairing_info>
    493a:	cfd8                	sw	a4,28(a5)
    493c:	6711                	lui	a4,0x4
    493e:	45270713          	addi	a4,a4,1106 # 4452 <ns_subcommand_set_shipping_mode>
    4942:	d398                	sw	a4,32(a5)
    4944:	6711                	lui	a4,0x4
    4946:	49670713          	addi	a4,a4,1174 # 4496 <ns_subcommand_spi_read>
    494a:	c3b8                	sw	a4,64(a5)
    494c:	6711                	lui	a4,0x4
    494e:	54870713          	addi	a4,a4,1352 # 4548 <ns_subcommand_spi_write>
    4952:	c3f8                	sw	a4,68(a5)
    4954:	6711                	lui	a4,0x4
    4956:	48a70713          	addi	a4,a4,1162 # 448a <ns_subcommand_spi_erase>
    495a:	6691                	lui	a3,0x4
    495c:	c7b8                	sw	a4,72(a5)
    495e:	19868693          	addi	a3,a3,408 # 4198 <ns_subcommand_reset_mcu>
    4962:	08078713          	addi	a4,a5,128
    4966:	c314                	sw	a3,0(a4)
    4968:	6691                	lui	a3,0x4
    496a:	1b468693          	addi	a3,a3,436 # 41b4 <ns_subcommand_set_mcu_conf>
    496e:	c354                	sw	a3,4(a4)
    4970:	6691                	lui	a3,0x4
    4972:	5ac68693          	addi	a3,a3,1452 # 45ac <ns_subcommand_set_mcu_state>
    4976:	c714                	sw	a3,8(a4)
    4978:	6691                	lui	a3,0x4
    497a:	48e68693          	addi	a3,a3,1166 # 448e <ns_subcommand_enable_mcu_polling>
    497e:	cb14                	sw	a3,16(a4)
    4980:	6691                	lui	a3,0x4
    4982:	49268693          	addi	a3,a3,1170 # 4492 <ns_subcommand_disable_mcu_polling>
    4986:	cb54                	sw	a3,20(a4)
    4988:	6691                	lui	a3,0x4
    498a:	5e068693          	addi	a3,a3,1504 # 45e0 <ns_subcommand_attachmend_write>
    498e:	d314                	sw	a3,32(a4)
    4990:	6691                	lui	a3,0x4
    4992:	5e868693          	addi	a3,a3,1512 # 45e8 <ns_subcommand_attachmend_read>
    4996:	d354                	sw	a3,36(a4)
    4998:	6691                	lui	a3,0x4
    499a:	61e68693          	addi	a3,a3,1566 # 461e <ns_subcommand_attachment_state>
    499e:	d714                	sw	a3,40(a4)
    49a0:	6691                	lui	a3,0x4
    49a2:	64e68693          	addi	a3,a3,1614 # 464e <ns_subcommand_get_attachment_info>
    49a6:	d754                	sw	a3,44(a4)
    49a8:	6691                	lui	a3,0x4
    49aa:	68268693          	addi	a3,a3,1666 # 4682 <ns_subcommand_set_indicate_led>
    49ae:	c334                	sw	a3,64(a4)
    49b0:	6691                	lui	a3,0x4
    49b2:	6c868693          	addi	a3,a3,1736 # 46c8 <ns_subcommand_get_indicate_led>
    49b6:	c374                	sw	a3,68(a4)
    49b8:	6691                	lui	a3,0x4
    49ba:	19a68693          	addi	a3,a3,410 # 419a <ns_subcommand_set_home_led>
    49be:	d334                	sw	a3,96(a4)
    49c0:	6711                	lui	a4,0x4
    49c2:	10078793          	addi	a5,a5,256
    49c6:	70470713          	addi	a4,a4,1796 # 4704 <ns_subcommand_set_imu_state>
    49ca:	c398                	sw	a4,0(a5)
    49cc:	6711                	lui	a4,0x4
    49ce:	75070713          	addi	a4,a4,1872 # 4750 <ns_subcommand_set_imu_conf>
    49d2:	c3d8                	sw	a4,4(a5)
    49d4:	6711                	lui	a4,0x4
    49d6:	16e70713          	addi	a4,a4,366 # 416e <ns_subcommand_set_imu_register>
    49da:	c798                	sw	a4,8(a5)
    49dc:	6711                	lui	a4,0x4
    49de:	7ce70713          	addi	a4,a4,1998 # 47ce <ns_subcommand_read_imu_register>
    49e2:	c7d8                	sw	a4,12(a5)
    49e4:	6715                	lui	a4,0x5
    49e6:	84470713          	addi	a4,a4,-1980 # 4844 <ns_subcommand_set_rumble_state>
    49ea:	d398                	sw	a4,32(a5)
    49ec:	6715                	lui	a4,0x5
    49ee:	88270713          	addi	a4,a4,-1918 # 4882 <ns_subcommand_get_battery_voltage>
    49f2:	c3b8                	sw	a4,64(a5)
    49f4:	6711                	lui	a4,0x4
    49f6:	5e470713          	addi	a4,a4,1508 # 45e4 <ns_subcommand_write_charge_setting>
    49fa:	c3f8                	sw	a4,68(a5)
    49fc:	6715                	lui	a4,0x5
    49fe:	8bc70713          	addi	a4,a4,-1860 # 48bc <ns_subcommand_read_charge_setting>
    4a02:	c7b8                	sw	a4,72(a5)
    4a04:	8082                	ret

00004a06 <ns_rumble_handler>:
    4a06:	9c81c783          	lbu	a5,-1592(gp) # 20001a70 <is_rumble_start>
    4a0a:	c7a9                	beqz	a5,4a54 <ns_rumble_handler+0x4e>
    4a0c:	4108                	lw	a0,0(a0)
    4a0e:	00354783          	lbu	a5,3(a0)
    4a12:	00254703          	lbu	a4,2(a0)
    4a16:	00654683          	lbu	a3,6(a0)
    4a1a:	07a2                	slli	a5,a5,0x8
    4a1c:	8fd9                	or	a5,a5,a4
    4a1e:	00454703          	lbu	a4,4(a0)
    4a22:	0742                	slli	a4,a4,0x10
    4a24:	8f5d                	or	a4,a4,a5
    4a26:	00554783          	lbu	a5,5(a0)
    4a2a:	07e2                	slli	a5,a5,0x18
    4a2c:	8fd9                	or	a5,a5,a4
    4a2e:	00754703          	lbu	a4,7(a0)
    4a32:	0722                	slli	a4,a4,0x8
    4a34:	8f55                	or	a4,a4,a3
    4a36:	00854683          	lbu	a3,8(a0)
    4a3a:	06c2                	slli	a3,a3,0x10
    4a3c:	8ed9                	or	a3,a3,a4
    4a3e:	00954703          	lbu	a4,9(a0)
    4a42:	0762                	slli	a4,a4,0x18
    4a44:	8f55                	or	a4,a4,a3
    4a46:	8fd9                	or	a5,a5,a4
    4a48:	c791                	beqz	a5,4a54 <ns_rumble_handler+0x4e>
    4a4a:	00650593          	addi	a1,a0,6
    4a4e:	0509                	addi	a0,a0,2
    4a50:	8d0fd06f          	j	1b20 <decode_hd_rumble_multiformat_high_acc>
    4a54:	8082                	ret

00004a56 <ns_cmd_subcommand_dispatcher>:
    4a56:	f1afb2ef          	jal	t0,170 <__riscv_save_0>
    4a5a:	00454583          	lbu	a1,4(a0)
    4a5e:	00052903          	lw	s2,0(a0)
    4a62:	200034b7          	lui	s1,0x20003
    4a66:	15d1                	addi	a1,a1,-12
    4a68:	0ff5f593          	zext.b	a1,a1
    4a6c:	00b50223          	sb	a1,4(a0)
    4a70:	00a94783          	lbu	a5,10(s2)
    4a74:	ce448493          	addi	s1,s1,-796 # 20002ce4 <ns_cmd_subcommand_cb_tb>
    4a78:	842a                	mv	s0,a0
    4a7a:	078a                	slli	a5,a5,0x2
    4a7c:	97a6                	add	a5,a5,s1
    4a7e:	439c                	lw	a5,0(a5)
    4a80:	cb81                	beqz	a5,4a90 <ns_cmd_subcommand_dispatcher+0x3a>
    4a82:	854a                	mv	a0,s2
    4a84:	9782                	jalr	a5
    4a86:	8522                	mv	a0,s0
    4a88:	f7fff0ef          	jal	ra,4a06 <ns_rumble_handler>
    4a8c:	f08fb06f          	j	194 <__riscv_restore_0>
    4a90:	409c                	lw	a5,0(s1)
    4a92:	dbf5                	beqz	a5,4a86 <ns_cmd_subcommand_dispatcher+0x30>
    4a94:	6531                	lui	a0,0xc
    4a96:	d8450513          	addi	a0,a0,-636 # bd84 <__errno+0x698>
    4a9a:	504030ef          	jal	ra,7f9e <printf>
    4a9e:	409c                	lw	a5,0(s1)
    4aa0:	00444583          	lbu	a1,4(s0)
    4aa4:	bff9                	j	4a82 <ns_cmd_subcommand_dispatcher+0x2c>

00004aa6 <ns_mux_usb_handshake_handler>:
    4aa6:	00454703          	lbu	a4,4(a0)
    4aaa:	4785                	li	a5,1
    4aac:	08e7fb63          	bgeu	a5,a4,4b42 <ns_mux_usb_handshake_handler+0x9c>
    4ab0:	411c                	lw	a5,0(a0)
    4ab2:	cbc1                	beqz	a5,4b42 <ns_mux_usb_handshake_handler+0x9c>
    4ab4:	ebcfb2ef          	jal	t0,170 <__riscv_save_0>
    4ab8:	0017c403          	lbu	s0,1(a5)
    4abc:	6531                	lui	a0,0xc
    4abe:	da450513          	addi	a0,a0,-604 # bda4 <__errno+0x6b8>
    4ac2:	85a2                	mv	a1,s0
    4ac4:	4da030ef          	jal	ra,7f9e <printf>
    4ac8:	147d                	addi	s0,s0,-1
    4aca:	0ff47413          	zext.b	s0,s0
    4ace:	4795                	li	a5,5
    4ad0:	0487e463          	bltu	a5,s0,4b18 <ns_mux_usb_handshake_handler+0x72>
    4ad4:	67b1                	lui	a5,0xc
    4ad6:	dbc78793          	addi	a5,a5,-580 # bdbc <__errno+0x6d0>
    4ada:	040a                	slli	s0,s0,0x2
    4adc:	943e                	add	s0,s0,a5
    4ade:	401c                	lw	a5,0(s0)
    4ae0:	200034b7          	lui	s1,0x20003
    4ae4:	20003437          	lui	s0,0x20003
    4ae8:	8782                	jr	a5
    4aea:	030007b7          	lui	a5,0x3000
    4aee:	13840513          	addi	a0,s0,312 # 20003138 <usb_handshake_buf>
    4af2:	18178793          	addi	a5,a5,385 # 3000181 <_data_lma+0x2ff3f15>
    4af6:	200035b7          	lui	a1,0x20003
    4afa:	c11c                	sw	a5,0(a0)
    4afc:	4619                	li	a2,6
    4afe:	49658593          	addi	a1,a1,1174 # 20003496 <connection_state+0x6>
    4b02:	0511                	addi	a0,a0,4
    4b04:	e9cfb0ef          	jal	ra,1a0 <memcpy>
    4b08:	4685                	li	a3,1
    4b0a:	4629                	li	a2,10
    4b0c:	13840593          	addi	a1,s0,312
    4b10:	40448513          	addi	a0,s1,1028 # 20003404 <ns_usb_send_rb>
    4b14:	7ec000ef          	jal	ra,5300 <ring_buffer_push>
    4b18:	e7cfb06f          	j	194 <__riscv_restore_0>
    4b1c:	28100793          	li	a5,641
    4b20:	12f41c23          	sh	a5,312(s0)
    4b24:	4685                	li	a3,1
    4b26:	4609                	li	a2,2
    4b28:	b7d5                	j	4b0c <ns_mux_usb_handshake_handler+0x66>
    4b2a:	38100793          	li	a5,897
    4b2e:	bfcd                	j	4b20 <ns_mux_usb_handshake_handler+0x7a>
    4b30:	48100793          	li	a5,1153
    4b34:	b7f5                	j	4b20 <ns_mux_usb_handshake_handler+0x7a>
    4b36:	58100793          	li	a5,1409
    4b3a:	b7dd                	j	4b20 <ns_mux_usb_handshake_handler+0x7a>
    4b3c:	68100793          	li	a5,1665
    4b40:	b7c5                	j	4b20 <ns_mux_usb_handshake_handler+0x7a>
    4b42:	8082                	ret

00004b44 <_calibrate_imu_raw>:
    4b44:	e12fb2ef          	jal	t0,156 <__riscv_save_4>
    4b48:	20003437          	lui	s0,0x20003
    4b4c:	89aa                	mv	s3,a0
    4b4e:	4661                	li	a2,24
    4b50:	4581                	li	a1,0
    4b52:	0e040513          	addi	a0,s0,224 # 200030e0 <calibrate_imu_raw_buf>
    4b56:	e60fb0ef          	jal	ra,1b6 <memset>
    4b5a:	4a01                	li	s4,0
    4b5c:	448d                	li	s1,3
    4b5e:	20003ab7          	lui	s5,0x20003
    4b62:	013a1463          	bne	s4,s3,4b6a <_calibrate_imu_raw+0x26>
    4b66:	4901                	li	s2,0
    4b68:	a819                	j	4b7e <_calibrate_imu_raw+0x3a>
    4b6a:	e59fd0ef          	jal	ra,29c2 <imu_read>
    4b6e:	892a                	mv	s2,a0
    4b70:	4515                	li	a0,5
    4b72:	78f000ef          	jal	ra,5b00 <Delay_Ms>
    4b76:	448d                	li	s1,3
    4b78:	06090463          	beqz	s2,4be0 <_calibrate_imu_raw+0x9c>
    4b7c:	e8a1                	bnez	s1,4bcc <_calibrate_imu_raw+0x88>
    4b7e:	0e040413          	addi	s0,s0,224
    4b82:	4008                	lw	a0,0(s0)
    4b84:	77c060ef          	jal	ra,b300 <__floatsisf>
    4b88:	9641a583          	lw	a1,-1692(gp) # 20001a0c <imu_ratio_xf>
    4b8c:	070060ef          	jal	ra,abfc <__mulsf3>
    4b90:	710060ef          	jal	ra,b2a0 <__fixsfsi>
    4b94:	c008                	sw	a0,0(s0)
    4b96:	4048                	lw	a0,4(s0)
    4b98:	768060ef          	jal	ra,b300 <__floatsisf>
    4b9c:	9601a583          	lw	a1,-1696(gp) # 20001a08 <imu_ratio_yf>
    4ba0:	05c060ef          	jal	ra,abfc <__mulsf3>
    4ba4:	6fc060ef          	jal	ra,b2a0 <__fixsfsi>
    4ba8:	c048                	sw	a0,4(s0)
    4baa:	4408                	lw	a0,8(s0)
    4bac:	754060ef          	jal	ra,b300 <__floatsisf>
    4bb0:	95c1a583          	lw	a1,-1700(gp) # 20001a04 <imu_ratio_zf>
    4bb4:	048060ef          	jal	ra,abfc <__mulsf3>
    4bb8:	6e8060ef          	jal	ra,b2a0 <__fixsfsi>
    4bbc:	c408                	sw	a0,8(s0)
    4bbe:	4505                	li	a0,1
    4bc0:	00091463          	bnez	s2,4bc8 <_calibrate_imu_raw+0x84>
    4bc4:	0014b513          	seqz	a0,s1
    4bc8:	dc2fb06f          	j	18a <__riscv_restore_4>
    4bcc:	df7fd0ef          	jal	ra,29c2 <imu_read>
    4bd0:	892a                	mv	s2,a0
    4bd2:	14fd                	addi	s1,s1,-1
    4bd4:	4515                	li	a0,5
    4bd6:	0ff4f493          	zext.b	s1,s1
    4bda:	727000ef          	jal	ra,5b00 <Delay_Ms>
    4bde:	bf69                	j	4b78 <_calibrate_imu_raw+0x34>
    4be0:	dcd9                	beqz	s1,4b7e <_calibrate_imu_raw+0x3a>
    4be2:	0e040793          	addi	a5,s0,224
    4be6:	c20a8713          	addi	a4,s5,-992 # 20002c20 <imu_raw_buf>
    4bea:	01878613          	addi	a2,a5,24
    4bee:	4394                	lw	a3,0(a5)
    4bf0:	00071583          	lh	a1,0(a4)
    4bf4:	0709                	addi	a4,a4,2
    4bf6:	96ae                	add	a3,a3,a1
    4bf8:	c394                	sw	a3,0(a5)
    4bfa:	0791                	addi	a5,a5,4
    4bfc:	fef619e3          	bne	a2,a5,4bee <_calibrate_imu_raw+0xaa>
    4c00:	0a05                	addi	s4,s4,1
    4c02:	b785                	j	4b62 <_calibrate_imu_raw+0x1e>

00004c04 <calibrate_imu>:
    4c04:	d52fb2ef          	jal	t0,156 <__riscv_save_4>
    4c08:	f3dff0ef          	jal	ra,4b44 <_calibrate_imu_raw>
    4c0c:	8a2a                	mv	s4,a0
    4c0e:	16051563          	bnez	a0,4d78 <calibrate_imu+0x174>
    4c12:	200034b7          	lui	s1,0x20003
    4c16:	0e048493          	addi	s1,s1,224 # 200030e0 <calibrate_imu_raw_buf>
    4c1a:	44c8                	lw	a0,12(s1)
    4c1c:	6e4060ef          	jal	ra,b300 <__floatsisf>
    4c20:	87c1a583          	lw	a1,-1924(gp) # 20001924 <MyLangDescr+0x54>
    4c24:	34418413          	addi	s0,gp,836 # 200023ec <factory_configuration>
    4c28:	3bd050ef          	jal	ra,a7e4 <__divsf3>
    4c2c:	8801a583          	lw	a1,-1920(gp) # 20001928 <MyLangDescr+0x58>
    4c30:	04d050ef          	jal	ra,a47c <__addsf3>
    4c34:	08144783          	lbu	a5,129(s0)
    4c38:	08044703          	lbu	a4,128(s0)
    4c3c:	8aaa                	mv	s5,a0
    4c3e:	07a2                	slli	a5,a5,0x8
    4c40:	8fd9                	or	a5,a5,a4
    4c42:	40f00533          	neg	a0,a5
    4c46:	6ba060ef          	jal	ra,b300 <__floatsisf>
    4c4a:	85aa                	mv	a1,a0
    4c4c:	8556                	mv	a0,s5
    4c4e:	02f050ef          	jal	ra,a47c <__addsf3>
    4c52:	64e060ef          	jal	ra,b2a0 <__fixsfsi>
    4c56:	01051793          	slli	a5,a0,0x10
    4c5a:	02a40023          	sb	a0,32(s0)
    4c5e:	4888                	lw	a0,16(s1)
    4c60:	83c1                	srli	a5,a5,0x10
    4c62:	83a1                	srli	a5,a5,0x8
    4c64:	02f400a3          	sb	a5,33(s0)
    4c68:	698060ef          	jal	ra,b300 <__floatsisf>
    4c6c:	87c1a583          	lw	a1,-1924(gp) # 20001924 <MyLangDescr+0x54>
    4c70:	375050ef          	jal	ra,a7e4 <__divsf3>
    4c74:	8801a583          	lw	a1,-1920(gp) # 20001928 <MyLangDescr+0x58>
    4c78:	005050ef          	jal	ra,a47c <__addsf3>
    4c7c:	08344783          	lbu	a5,131(s0)
    4c80:	08244703          	lbu	a4,130(s0)
    4c84:	8aaa                	mv	s5,a0
    4c86:	07a2                	slli	a5,a5,0x8
    4c88:	8fd9                	or	a5,a5,a4
    4c8a:	40f00533          	neg	a0,a5
    4c8e:	672060ef          	jal	ra,b300 <__floatsisf>
    4c92:	85aa                	mv	a1,a0
    4c94:	8556                	mv	a0,s5
    4c96:	7e6050ef          	jal	ra,a47c <__addsf3>
    4c9a:	606060ef          	jal	ra,b2a0 <__fixsfsi>
    4c9e:	01051793          	slli	a5,a0,0x10
    4ca2:	02a40123          	sb	a0,34(s0)
    4ca6:	48c8                	lw	a0,20(s1)
    4ca8:	83c1                	srli	a5,a5,0x10
    4caa:	83a1                	srli	a5,a5,0x8
    4cac:	02f401a3          	sb	a5,35(s0)
    4cb0:	650060ef          	jal	ra,b300 <__floatsisf>
    4cb4:	87c1a583          	lw	a1,-1924(gp) # 20001924 <MyLangDescr+0x54>
    4cb8:	32d050ef          	jal	ra,a7e4 <__divsf3>
    4cbc:	8801a583          	lw	a1,-1920(gp) # 20001928 <MyLangDescr+0x58>
    4cc0:	7bc050ef          	jal	ra,a47c <__addsf3>
    4cc4:	08544783          	lbu	a5,133(s0)
    4cc8:	08444703          	lbu	a4,132(s0)
    4ccc:	8aaa                	mv	s5,a0
    4cce:	07a2                	slli	a5,a5,0x8
    4cd0:	8fd9                	or	a5,a5,a4
    4cd2:	40f00533          	neg	a0,a5
    4cd6:	62a060ef          	jal	ra,b300 <__floatsisf>
    4cda:	85aa                	mv	a1,a0
    4cdc:	8556                	mv	a0,s5
    4cde:	79e050ef          	jal	ra,a47c <__addsf3>
    4ce2:	5be060ef          	jal	ra,b2a0 <__fixsfsi>
    4ce6:	01051793          	slli	a5,a0,0x10
    4cea:	02a40223          	sb	a0,36(s0)
    4cee:	4088                	lw	a0,0(s1)
    4cf0:	83c1                	srli	a5,a5,0x10
    4cf2:	83a1                	srli	a5,a5,0x8
    4cf4:	02f402a3          	sb	a5,37(s0)
    4cf8:	608060ef          	jal	ra,b300 <__floatsisf>
    4cfc:	87c1a583          	lw	a1,-1924(gp) # 20001924 <MyLangDescr+0x54>
    4d00:	2e5050ef          	jal	ra,a7e4 <__divsf3>
    4d04:	8801a583          	lw	a1,-1920(gp) # 20001928 <MyLangDescr+0x58>
    4d08:	774050ef          	jal	ra,a47c <__addsf3>
    4d0c:	594060ef          	jal	ra,b2a0 <__fixsfsi>
    4d10:	01051793          	slli	a5,a0,0x10
    4d14:	02a40623          	sb	a0,44(s0)
    4d18:	40c8                	lw	a0,4(s1)
    4d1a:	83c1                	srli	a5,a5,0x10
    4d1c:	83a1                	srli	a5,a5,0x8
    4d1e:	02f406a3          	sb	a5,45(s0)
    4d22:	5de060ef          	jal	ra,b300 <__floatsisf>
    4d26:	87c1a583          	lw	a1,-1924(gp) # 20001924 <MyLangDescr+0x54>
    4d2a:	2bb050ef          	jal	ra,a7e4 <__divsf3>
    4d2e:	8801a583          	lw	a1,-1920(gp) # 20001928 <MyLangDescr+0x58>
    4d32:	74a050ef          	jal	ra,a47c <__addsf3>
    4d36:	56a060ef          	jal	ra,b2a0 <__fixsfsi>
    4d3a:	01051793          	slli	a5,a0,0x10
    4d3e:	02a40723          	sb	a0,46(s0)
    4d42:	4488                	lw	a0,8(s1)
    4d44:	83c1                	srli	a5,a5,0x10
    4d46:	83a1                	srli	a5,a5,0x8
    4d48:	02f407a3          	sb	a5,47(s0)
    4d4c:	5b4060ef          	jal	ra,b300 <__floatsisf>
    4d50:	87c1a583          	lw	a1,-1924(gp) # 20001924 <MyLangDescr+0x54>
    4d54:	291050ef          	jal	ra,a7e4 <__divsf3>
    4d58:	8801a583          	lw	a1,-1920(gp) # 20001928 <MyLangDescr+0x58>
    4d5c:	720050ef          	jal	ra,a47c <__addsf3>
    4d60:	540060ef          	jal	ra,b2a0 <__fixsfsi>
    4d64:	01051793          	slli	a5,a0,0x10
    4d68:	83c1                	srli	a5,a5,0x10
    4d6a:	83a1                	srli	a5,a5,0x8
    4d6c:	02a40823          	sb	a0,48(s0)
    4d70:	02f408a3          	sb	a5,49(s0)
    4d74:	d9ffb0ef          	jal	ra,b12 <fac_conf_write>
    4d78:	8552                	mv	a0,s4
    4d7a:	c10fb06f          	j	18a <__riscv_restore_4>

00004d7e <fw_subcommand_reboot>:
    4d7e:	bf2fb2ef          	jal	t0,170 <__riscv_save_0>
    4d82:	4501                	li	a0,0
    4d84:	16f000ef          	jal	ra,56f2 <flush_rgb>
    4d88:	4529                	li	a0,10
    4d8a:	577000ef          	jal	ra,5b00 <Delay_Ms>
    4d8e:	beef07b7          	lui	a5,0xbeef0
    4d92:	e000e737          	lui	a4,0xe000e
    4d96:	08078793          	addi	a5,a5,128 # beef0080 <_eusrstack+0x9eeeb080>
    4d9a:	c73c                	sw	a5,72(a4)
    4d9c:	bf8fb06f          	j	194 <__riscv_restore_0>

00004da0 <ns_mux_init>:
    4da0:	bd0fb2ef          	jal	t0,170 <__riscv_save_0>
    4da4:	200035b7          	lui	a1,0x20003
    4da8:	20003537          	lui	a0,0x20003
    4dac:	04000693          	li	a3,64
    4db0:	4611                	li	a2,4
    4db2:	27858593          	addi	a1,a1,632 # 20003278 <ns_usb_send_buf>
    4db6:	40450513          	addi	a0,a0,1028 # 20003404 <ns_usb_send_rb>
    4dba:	2301                	jal	52ba <ring_buffer_init>
    4dbc:	200035b7          	lui	a1,0x20003
    4dc0:	20003537          	lui	a0,0x20003
    4dc4:	04000693          	li	a3,64
    4dc8:	4611                	li	a2,4
    4dca:	17858593          	addi	a1,a1,376 # 20003178 <ns_usb_recv_buf>
    4dce:	37850513          	addi	a0,a0,888 # 20003378 <ns_usb_recv_rb>
    4dd2:	21e5                	jal	52ba <ring_buffer_init>
    4dd4:	b21ff0ef          	jal	ra,48f4 <ns_subcommand_callback_init>
    4dd8:	bbcfb06f          	j	194 <__riscv_restore_0>

00004ddc <ns_send_report>:
    4ddc:	02c54603          	lbu	a2,44(a0)
    4de0:	85aa                	mv	a1,a0
    4de2:	20003537          	lui	a0,0x20003
    4de6:	4681                	li	a3,0
    4de8:	40450513          	addi	a0,a0,1028 # 20003404 <ns_usb_send_rb>
    4dec:	ab11                	j	5300 <ring_buffer_push>

00004dee <hid_send_full64byte_report>:
    4dee:	862e                	mv	a2,a1
    4df0:	85aa                	mv	a1,a0
    4df2:	20003537          	lui	a0,0x20003
    4df6:	468d                	li	a3,3
    4df8:	40450513          	addi	a0,a0,1028 # 20003404 <ns_usb_send_rb>
    4dfc:	a311                	j	5300 <ring_buffer_push>

00004dfe <fw_snd_pkt>:
    4dfe:	200037b7          	lui	a5,0x20003
    4e02:	0f878713          	addi	a4,a5,248 # 200030f8 <fw_buf_raw>
    4e06:	0589                	addi	a1,a1,2
    4e08:	56f9                	li	a3,-2
    4e0a:	00a700a3          	sb	a0,1(a4) # e000e001 <_eusrstack+0xc0009001>
    4e0e:	0ff5f593          	zext.b	a1,a1
    4e12:	0f878513          	addi	a0,a5,248
    4e16:	00d70023          	sb	a3,0(a4)
    4e1a:	fd5ff06f          	j	4dee <hid_send_full64byte_report>

00004e1e <fw_subcommand_read_setting>:
    4e1e:	b52fb2ef          	jal	t0,170 <__riscv_save_0>
    4e22:	411c                	lw	a5,0(a0)
    4e24:	6531                	lui	a0,0xc
    4e26:	dd450513          	addi	a0,a0,-556 # bdd4 <__errno+0x6e8>
    4e2a:	0007c583          	lbu	a1,0(a5)
    4e2e:	200034b7          	lui	s1,0x20003
    4e32:	20003437          	lui	s0,0x20003
    4e36:	168030ef          	jal	ra,7f9e <printf>
    4e3a:	0f840413          	addi	s0,s0,248 # 200030f8 <fw_buf_raw>
    4e3e:	28018913          	addi	s2,gp,640 # 20002328 <user_config>
    4e42:	03d00613          	li	a2,61
    4e46:	28018593          	addi	a1,gp,640 # 20002328 <user_config>
    4e4a:	0fb48513          	addi	a0,s1,251 # 200030fb <fw_buf_raw+0x3>
    4e4e:	00040123          	sb	zero,2(s0)
    4e52:	b4efb0ef          	jal	ra,1a0 <memcpy>
    4e56:	03e00593          	li	a1,62
    4e5a:	4505                	li	a0,1
    4e5c:	fa3ff0ef          	jal	ra,4dfe <fw_snd_pkt>
    4e60:	4785                	li	a5,1
    4e62:	03d00613          	li	a2,61
    4e66:	2bd18593          	addi	a1,gp,701 # 20002365 <user_config+0x3d>
    4e6a:	0fb48513          	addi	a0,s1,251
    4e6e:	00f40123          	sb	a5,2(s0)
    4e72:	b2efb0ef          	jal	ra,1a0 <memcpy>
    4e76:	03e00593          	li	a1,62
    4e7a:	4505                	li	a0,1
    4e7c:	f83ff0ef          	jal	ra,4dfe <fw_snd_pkt>
    4e80:	03d00613          	li	a2,61
    4e84:	4581                	li	a1,0
    4e86:	0fb48513          	addi	a0,s1,251
    4e8a:	b2cfb0ef          	jal	ra,1b6 <memset>
    4e8e:	4789                	li	a5,2
    4e90:	00f40123          	sb	a5,2(s0)
    4e94:	07a94783          	lbu	a5,122(s2)
    4e98:	4589                	li	a1,2
    4e9a:	4505                	li	a0,1
    4e9c:	00f401a3          	sb	a5,3(s0)
    4ea0:	f5fff0ef          	jal	ra,4dfe <fw_snd_pkt>
    4ea4:	3ff00793          	li	a5,1023
    4ea8:	4589                	li	a1,2
    4eaa:	4505                	li	a0,1
    4eac:	00f41123          	sh	a5,2(s0)
    4eb0:	f4fff0ef          	jal	ra,4dfe <fw_snd_pkt>
    4eb4:	ae0fb06f          	j	194 <__riscv_restore_0>

00004eb8 <fw_subcommand_write_setting>:
    4eb8:	ab8fb2ef          	jal	t0,170 <__riscv_save_0>
    4ebc:	842a                	mv	s0,a0
    4ebe:	6531                	lui	a0,0xc
    4ec0:	de450513          	addi	a0,a0,-540 # bde4 <__errno+0x6f8>
    4ec4:	0fe030ef          	jal	ra,7fc2 <puts>
    4ec8:	400c                	lw	a1,0(s0)
    4eca:	0ff00713          	li	a4,255
    4ece:	0015c783          	lbu	a5,1(a1)
    4ed2:	06e79263          	bne	a5,a4,4f36 <fw_subcommand_write_setting+0x7e>
    4ed6:	0025c703          	lbu	a4,2(a1)
    4eda:	9c21c783          	lbu	a5,-1598(gp) # 20001a6a <fw_red_cnt>
    4ede:	04f71563          	bne	a4,a5,4f28 <fw_subcommand_write_setting+0x70>
    4ee2:	6531                	lui	a0,0xc
    4ee4:	df050513          	addi	a0,a0,-528 # bdf0 <__errno+0x704>
    4ee8:	0b6030ef          	jal	ra,7f9e <printf>
    4eec:	401c                	lw	a5,0(s0)
    4eee:	0037c703          	lbu	a4,3(a5)
    4ef2:	4785                	li	a5,1
    4ef4:	00f71463          	bne	a4,a5,4efc <fw_subcommand_write_setting+0x44>
    4ef8:	ba7fb0ef          	jal	ra,a9e <custom_conf_write>
    4efc:	ea1fb0ef          	jal	ra,d9c <conf_flush>
    4f00:	4705                	li	a4,1
    4f02:	200037b7          	lui	a5,0x20003
    4f06:	0f878793          	addi	a5,a5,248 # 200030f8 <fw_buf_raw>
    4f0a:	00e78123          	sb	a4,2(a5)
    4f0e:	4018                	lw	a4,0(s0)
    4f10:	4589                	li	a1,2
    4f12:	4509                	li	a0,2
    4f14:	00374703          	lbu	a4,3(a4)
    4f18:	9c018123          	sb	zero,-1598(gp) # 20001a6a <fw_red_cnt>
    4f1c:	00e781a3          	sb	a4,3(a5)
    4f20:	edfff0ef          	jal	ra,4dfe <fw_snd_pkt>
    4f24:	a70fb06f          	j	194 <__riscv_restore_0>
    4f28:	6531                	lui	a0,0xc
    4f2a:	e0450513          	addi	a0,a0,-508 # be04 <__errno+0x718>
    4f2e:	070030ef          	jal	ra,7f9e <printf>
    4f32:	4701                	li	a4,0
    4f34:	b7f9                	j	4f02 <fw_subcommand_write_setting+0x4a>
    4f36:	03d00713          	li	a4,61
    4f3a:	02e787b3          	mul	a5,a5,a4
    4f3e:	07b00613          	li	a2,123
    4f42:	28018513          	addi	a0,gp,640 # 20002328 <user_config>
    4f46:	8e1d                	sub	a2,a2,a5
    4f48:	953e                	add	a0,a0,a5
    4f4a:	00c77463          	bgeu	a4,a2,4f52 <fw_subcommand_write_setting+0x9a>
    4f4e:	03d00613          	li	a2,61
    4f52:	0589                	addi	a1,a1,2
    4f54:	a4cfb0ef          	jal	ra,1a0 <memcpy>
    4f58:	9c21c783          	lbu	a5,-1598(gp) # 20001a6a <fw_red_cnt>
    4f5c:	0785                	addi	a5,a5,1
    4f5e:	9cf18123          	sb	a5,-1598(gp) # 20001a6a <fw_red_cnt>
    4f62:	b7c9                	j	4f24 <fw_subcommand_write_setting+0x6c>

00004f64 <fw_subcommand_read_emulate_rom>:
    4f64:	a0cfb2ef          	jal	t0,170 <__riscv_save_0>
    4f68:	842a                	mv	s0,a0
    4f6a:	4108                	lw	a0,0(a0)
    4f6c:	0505                	addi	a0,a0,1
    4f6e:	902fc0ef          	jal	ra,1070 <fetch_uint32>
    4f72:	400c                	lw	a1,0(s0)
    4f74:	84aa                	mv	s1,a0
    4f76:	20003537          	lui	a0,0x20003
    4f7a:	4615                	li	a2,5
    4f7c:	0585                	addi	a1,a1,1
    4f7e:	0fa50513          	addi	a0,a0,250 # 200030fa <fw_buf_raw+0x2>
    4f82:	a1efb0ef          	jal	ra,1a0 <memcpy>
    4f86:	401c                	lw	a5,0(s0)
    4f88:	200035b7          	lui	a1,0x20003
    4f8c:	8526                	mv	a0,s1
    4f8e:	0057c603          	lbu	a2,5(a5)
    4f92:	0ff58593          	addi	a1,a1,255 # 200030ff <fw_buf_raw+0x7>
    4f96:	ac1fb0ef          	jal	ra,a56 <conf_read>
    4f9a:	401c                	lw	a5,0(s0)
    4f9c:	450d                	li	a0,3
    4f9e:	0057c583          	lbu	a1,5(a5)
    4fa2:	0595                	addi	a1,a1,5
    4fa4:	0ff5f593          	zext.b	a1,a1
    4fa8:	e57ff0ef          	jal	ra,4dfe <fw_snd_pkt>
    4fac:	9e8fb06f          	j	194 <__riscv_restore_0>

00004fb0 <fw_subcommand_write_emulate_rom>:
    4fb0:	9c0fb2ef          	jal	t0,170 <__riscv_save_0>
    4fb4:	842a                	mv	s0,a0
    4fb6:	4108                	lw	a0,0(a0)
    4fb8:	0505                	addi	a0,a0,1
    4fba:	8b6fc0ef          	jal	ra,1070 <fetch_uint32>
    4fbe:	400c                	lw	a1,0(s0)
    4fc0:	0055c603          	lbu	a2,5(a1)
    4fc4:	0599                	addi	a1,a1,6
    4fc6:	b5ffb0ef          	jal	ra,b24 <conf_write>
    4fca:	200037b7          	lui	a5,0x20003
    4fce:	0ea78d23          	sb	a0,250(a5) # 200030fa <fw_buf_raw+0x2>
    4fd2:	4585                	li	a1,1
    4fd4:	4511                	li	a0,4
    4fd6:	e29ff0ef          	jal	ra,4dfe <fw_snd_pkt>
    4fda:	9bafb06f          	j	194 <__riscv_restore_0>

00004fde <fw_subcommand_calibrate_imu>:
    4fde:	992fb2ef          	jal	t0,170 <__riscv_save_0>
    4fe2:	4551                	li	a0,20
    4fe4:	c21ff0ef          	jal	ra,4c04 <calibrate_imu>
    4fe8:	200037b7          	lui	a5,0x20003
    4fec:	0ea78d23          	sb	a0,250(a5) # 200030fa <fw_buf_raw+0x2>
    4ff0:	4585                	li	a1,1
    4ff2:	4515                	li	a0,5
    4ff4:	e0bff0ef          	jal	ra,4dfe <fw_snd_pkt>
    4ff8:	99cfb06f          	j	194 <__riscv_restore_0>

00004ffc <fw_subcommand_calibrate_js_offset>:
    4ffc:	974fb2ef          	jal	t0,170 <__riscv_save_0>
    5000:	8ac18713          	addi	a4,gp,-1876 # 20001954 <adc_data>
    5004:	00075683          	lhu	a3,0(a4)
    5008:	2fc18793          	addi	a5,gp,764 # 200023a4 <user_calibration>
    500c:	00d780a3          	sb	a3,1(a5)
    5010:	82a1                	srli	a3,a3,0x8
    5012:	00d78123          	sb	a3,2(a5)
    5016:	00275683          	lhu	a3,2(a4)
    501a:	4601                	li	a2,0
    501c:	4581                	li	a1,0
    501e:	00d781a3          	sb	a3,3(a5)
    5022:	82a1                	srli	a3,a3,0x8
    5024:	00d78223          	sb	a3,4(a5)
    5028:	00475683          	lhu	a3,4(a4)
    502c:	00675703          	lhu	a4,6(a4)
    5030:	6521                	lui	a0,0x8
    5032:	00d782a3          	sb	a3,5(a5)
    5036:	00e783a3          	sb	a4,7(a5)
    503a:	82a1                	srli	a3,a3,0x8
    503c:	8321                	srli	a4,a4,0x8
    503e:	00d78323          	sb	a3,6(a5)
    5042:	00e78423          	sb	a4,8(a5)
    5046:	00078023          	sb	zero,0(a5)
    504a:	adbfb0ef          	jal	ra,b24 <conf_write>
    504e:	200037b7          	lui	a5,0x20003
    5052:	0ea78d23          	sb	a0,250(a5) # 200030fa <fw_buf_raw+0x2>
    5056:	4585                	li	a1,1
    5058:	451d                	li	a0,7
    505a:	da5ff0ef          	jal	ra,4dfe <fw_snd_pkt>
    505e:	936fb06f          	j	194 <__riscv_restore_0>

00005062 <fw_subcommand_get_status>:
    5062:	90efb2ef          	jal	t0,170 <__riscv_save_0>
    5066:	200035b7          	lui	a1,0x20003
    506a:	0fb58593          	addi	a1,a1,251 # 200030fb <fw_buf_raw+0x3>
    506e:	453d                	li	a0,15
    5070:	eaafd0ef          	jal	ra,271a <i2c_read_byte>
    5074:	80c1a683          	lw	a3,-2036(gp) # 200018b4 <rts_tcnt>
    5078:	9c41a703          	lw	a4,-1596(gp) # 20001a6c <rts_cnt>
    507c:	200037b7          	lui	a5,0x20003
    5080:	0f878793          	addi	a5,a5,248 # 200030f8 <fw_buf_raw>
    5084:	02d75733          	divu	a4,a4,a3
    5088:	00a78123          	sb	a0,2(a5)
    508c:	458d                	li	a1,3
    508e:	0fd00513          	li	a0,253
    5092:	00e78223          	sb	a4,4(a5)
    5096:	d69ff0ef          	jal	ra,4dfe <fw_snd_pkt>
    509a:	8fafb06f          	j	194 <__riscv_restore_0>

0000509e <fw_subcommand_get_version>:
    509e:	200037b7          	lui	a5,0x20003
    50a2:	20000713          	li	a4,512
    50a6:	4589                	li	a1,2
    50a8:	0ff00513          	li	a0,255
    50ac:	0ee79d23          	sh	a4,250(a5) # 200030fa <fw_buf_raw+0x2>
    50b0:	d4fff06f          	j	4dfe <fw_snd_pkt>

000050b4 <fw_subcommand_dispatcher>:
    50b4:	4114                	lw	a3,0(a0)
    50b6:	4605                	li	a2,1
    50b8:	00168793          	addi	a5,a3,1
    50bc:	c11c                	sw	a5,0(a0)
    50be:	00454783          	lbu	a5,4(a0) # 8004 <puts+0x42>
    50c2:	08f67363          	bgeu	a2,a5,5148 <fw_subcommand_dispatcher+0x94>
    50c6:	8aafb2ef          	jal	t0,170 <__riscv_save_0>
    50ca:	17fd                	addi	a5,a5,-1
    50cc:	00f50223          	sb	a5,4(a0)
    50d0:	0016c783          	lbu	a5,1(a3)
    50d4:	469d                	li	a3,7
    50d6:	02f6e063          	bltu	a3,a5,50f6 <fw_subcommand_dispatcher+0x42>
    50da:	cb95                	beqz	a5,510e <fw_subcommand_dispatcher+0x5a>
    50dc:	17fd                	addi	a5,a5,-1
    50de:	0ff7f793          	zext.b	a5,a5
    50e2:	4699                	li	a3,6
    50e4:	02f6e563          	bltu	a3,a5,510e <fw_subcommand_dispatcher+0x5a>
    50e8:	66b1                	lui	a3,0xc
    50ea:	078a                	slli	a5,a5,0x2
    50ec:	e2468693          	addi	a3,a3,-476 # be24 <__errno+0x738>
    50f0:	97b6                	add	a5,a5,a3
    50f2:	439c                	lw	a5,0(a5)
    50f4:	8782                	jr	a5
    50f6:	0fe00713          	li	a4,254
    50fa:	02e78e63          	beq	a5,a4,5136 <fw_subcommand_dispatcher+0x82>
    50fe:	0ff00713          	li	a4,255
    5102:	02e78763          	beq	a5,a4,5130 <fw_subcommand_dispatcher+0x7c>
    5106:	0fd00713          	li	a4,253
    510a:	02e78963          	beq	a5,a4,513c <fw_subcommand_dispatcher+0x88>
    510e:	886fb06f          	j	194 <__riscv_restore_0>
    5112:	d0dff0ef          	jal	ra,4e1e <fw_subcommand_read_setting>
    5116:	bfe5                	j	510e <fw_subcommand_dispatcher+0x5a>
    5118:	da1ff0ef          	jal	ra,4eb8 <fw_subcommand_write_setting>
    511c:	bfcd                	j	510e <fw_subcommand_dispatcher+0x5a>
    511e:	e47ff0ef          	jal	ra,4f64 <fw_subcommand_read_emulate_rom>
    5122:	b7f5                	j	510e <fw_subcommand_dispatcher+0x5a>
    5124:	e8dff0ef          	jal	ra,4fb0 <fw_subcommand_write_emulate_rom>
    5128:	b7dd                	j	510e <fw_subcommand_dispatcher+0x5a>
    512a:	eb5ff0ef          	jal	ra,4fde <fw_subcommand_calibrate_imu>
    512e:	b7c5                	j	510e <fw_subcommand_dispatcher+0x5a>
    5130:	f6fff0ef          	jal	ra,509e <fw_subcommand_get_version>
    5134:	bfe9                	j	510e <fw_subcommand_dispatcher+0x5a>
    5136:	c49ff0ef          	jal	ra,4d7e <fw_subcommand_reboot>
    513a:	bfd1                	j	510e <fw_subcommand_dispatcher+0x5a>
    513c:	f27ff0ef          	jal	ra,5062 <fw_subcommand_get_status>
    5140:	b7f9                	j	510e <fw_subcommand_dispatcher+0x5a>
    5142:	ebbff0ef          	jal	ra,4ffc <fw_subcommand_calibrate_js_offset>
    5146:	b7e1                	j	510e <fw_subcommand_dispatcher+0x5a>
    5148:	8082                	ret

0000514a <hid_dispatch>:
    514a:	826fb2ef          	jal	t0,170 <__riscv_save_0>
    514e:	411c                	lw	a5,0(a0)
    5150:	0007c583          	lbu	a1,0(a5)
    5154:	08000793          	li	a5,128
    5158:	02f58e63          	beq	a1,a5,5194 <hid_dispatch+0x4a>
    515c:	00b7ee63          	bltu	a5,a1,5178 <hid_dispatch+0x2e>
    5160:	4785                	li	a5,1
    5162:	02f58263          	beq	a1,a5,5186 <hid_dispatch+0x3c>
    5166:	47c1                	li	a5,16
    5168:	02f58363          	beq	a1,a5,518e <hid_dispatch+0x44>
    516c:	6531                	lui	a0,0xc
    516e:	e4050513          	addi	a0,a0,-448 # be40 <__errno+0x754>
    5172:	62d020ef          	jal	ra,7f9e <printf>
    5176:	a811                	j	518a <hid_dispatch+0x40>
    5178:	0fe00793          	li	a5,254
    517c:	fef598e3          	bne	a1,a5,516c <hid_dispatch+0x22>
    5180:	f35ff0ef          	jal	ra,50b4 <fw_subcommand_dispatcher>
    5184:	a019                	j	518a <hid_dispatch+0x40>
    5186:	8d1ff0ef          	jal	ra,4a56 <ns_cmd_subcommand_dispatcher>
    518a:	80afb06f          	j	194 <__riscv_restore_0>
    518e:	879ff0ef          	jal	ra,4a06 <ns_rumble_handler>
    5192:	bfe5                	j	518a <hid_dispatch+0x40>
    5194:	913ff0ef          	jal	ra,4aa6 <ns_mux_usb_handshake_handler>
    5198:	bfcd                	j	518a <hid_dispatch+0x40>

0000519a <setup_exti>:
    519a:	fd7fa2ef          	jal	t0,170 <__riscv_save_0>
    519e:	1141                	addi	sp,sp,-16
    51a0:	842a                	mv	s0,a0
    51a2:	4585                	li	a1,1
    51a4:	4505                	li	a0,1
    51a6:	c002                	sw	zero,0(sp)
    51a8:	c202                	sw	zero,4(sp)
    51aa:	c402                	sw	zero,8(sp)
    51ac:	c602                	sw	zero,12(sp)
    51ae:	78d010ef          	jal	ra,713a <RCC_APB2PeriphClockCmd>
    51b2:	4585                	li	a1,1
    51b4:	4505                	li	a0,1
    51b6:	271010ef          	jal	ra,6c26 <GPIO_EXTILineConfig>
    51ba:	4911                	li	s2,4
    51bc:	44b1                	li	s1,12
    51be:	4789                	li	a5,2
    51c0:	850a                	mv	a0,sp
    51c2:	c03e                	sw	a5,0(sp)
    51c4:	c24a                	sw	s2,4(sp)
    51c6:	c426                	sw	s1,8(sp)
    51c8:	c622                	sw	s0,12(sp)
    51ca:	684010ef          	jal	ra,684e <EXTI_Init>
    51ce:	45bd                	li	a1,15
    51d0:	4509                	li	a0,2
    51d2:	255010ef          	jal	ra,6c26 <GPIO_EXTILineConfig>
    51d6:	67a1                	lui	a5,0x8
    51d8:	850a                	mv	a0,sp
    51da:	c03e                	sw	a5,0(sp)
    51dc:	c24a                	sw	s2,4(sp)
    51de:	c426                	sw	s1,8(sp)
    51e0:	c622                	sw	s0,12(sp)
    51e2:	66c010ef          	jal	ra,684e <EXTI_Init>
    51e6:	4599                	li	a1,6
    51e8:	4505                	li	a0,1
    51ea:	23d010ef          	jal	ra,6c26 <GPIO_EXTILineConfig>
    51ee:	04000793          	li	a5,64
    51f2:	850a                	mv	a0,sp
    51f4:	c03e                	sw	a5,0(sp)
    51f6:	c24a                	sw	s2,4(sp)
    51f8:	c426                	sw	s1,8(sp)
    51fa:	c622                	sw	s0,12(sp)
    51fc:	652010ef          	jal	ra,684e <EXTI_Init>
    5200:	459d                	li	a1,7
    5202:	4505                	li	a0,1
    5204:	223010ef          	jal	ra,6c26 <GPIO_EXTILineConfig>
    5208:	08000793          	li	a5,128
    520c:	850a                	mv	a0,sp
    520e:	c03e                	sw	a5,0(sp)
    5210:	c24a                	sw	s2,4(sp)
    5212:	c426                	sw	s1,8(sp)
    5214:	c622                	sw	s0,12(sp)
    5216:	638010ef          	jal	ra,684e <EXTI_Init>
    521a:	45b9                	li	a1,14
    521c:	4505                	li	a0,1
    521e:	209010ef          	jal	ra,6c26 <GPIO_EXTILineConfig>
    5222:	6791                	lui	a5,0x4
    5224:	850a                	mv	a0,sp
    5226:	c03e                	sw	a5,0(sp)
    5228:	c24a                	sw	s2,4(sp)
    522a:	c426                	sw	s1,8(sp)
    522c:	c622                	sw	s0,12(sp)
    522e:	620010ef          	jal	ra,684e <EXTI_Init>
    5232:	0141                	addi	sp,sp,16
    5234:	f61fa06f          	j	194 <__riscv_restore_0>

00005238 <top_init>:
    5238:	f39fa2ef          	jal	t0,170 <__riscv_save_0>
    523c:	1141                	addi	sp,sp,-16
    523e:	40011537          	lui	a0,0x40011
    5242:	4791                	li	a5,4
    5244:	004c                	addi	a1,sp,4
    5246:	c0050513          	addi	a0,a0,-1024 # 40010c00 <_eusrstack+0x2000bc00>
    524a:	c63e                	sw	a5,12(sp)
    524c:	00f11223          	sh	a5,4(sp)
    5250:	00011323          	sh	zero,6(sp)
    5254:	00011423          	sh	zero,8(sp)
    5258:	00011523          	sh	zero,10(sp)
    525c:	0ed010ef          	jal	ra,6b48 <GPIO_Init>
    5260:	0141                	addi	sp,sp,16
    5262:	f33fa06f          	j	194 <__riscv_restore_0>

00005266 <set_pwr_mode_stop>:
    5266:	f0bfa2ef          	jal	t0,170 <__riscv_save_0>
    526a:	4505                	li	a0,1
    526c:	f2fff0ef          	jal	ra,519a <setup_exti>
    5270:	4505                	li	a0,1
    5272:	5db010ef          	jal	ra,704c <RCC_LSICmd>
    5276:	4501                	li	a0,0
    5278:	29ad                	jal	56f2 <flush_rgb>
    527a:	06400513          	li	a0,100
    527e:	039000ef          	jal	ra,5ab6 <Delay_Us>
    5282:	06100513          	li	a0,97
    5286:	72d010ef          	jal	ra,71b2 <RCC_GetFlagStatus>
    528a:	4785                	li	a5,1
    528c:	c505                	beqz	a0,52b4 <set_pwr_mode_stop+0x4e>
    528e:	6531                	lui	a0,0xc
    5290:	e5c50513          	addi	a0,a0,-420 # be5c <__errno+0x770>
    5294:	52f020ef          	jal	ra,7fc2 <puts>
    5298:	4505                	li	a0,1
    529a:	067000ef          	jal	ra,5b00 <Delay_Ms>
    529e:	4589                	li	a1,2
    52a0:	4505                	li	a0,1
    52a2:	4bb010ef          	jal	ra,6f5c <PWR_EnterSTOPMode>
    52a6:	4505                	li	a0,1
    52a8:	059000ef          	jal	ra,5b00 <Delay_Ms>
    52ac:	4501                	li	a0,0
    52ae:	eedff0ef          	jal	ra,519a <setup_exti>
    52b2:	4781                	li	a5,0
    52b4:	853e                	mv	a0,a5
    52b6:	edffa06f          	j	194 <__riscv_restore_0>

000052ba <ring_buffer_init>:
    52ba:	04000793          	li	a5,64
    52be:	02c7ee63          	bltu	a5,a2,52fa <ring_buffer_init+0x40>
    52c2:	e95fa2ef          	jal	t0,156 <__riscv_save_4>
    52c6:	842a                	mv	s0,a0
    52c8:	4505                	li	a0,1
    52ca:	c415                	beqz	s0,52f6 <ring_buffer_init+0x3c>
    52cc:	c58d                	beqz	a1,52f6 <ring_buffer_init+0x3c>
    52ce:	84b2                	mv	s1,a2
    52d0:	892e                	mv	s2,a1
    52d2:	08800613          	li	a2,136
    52d6:	4581                	li	a1,0
    52d8:	00440513          	addi	a0,s0,4
    52dc:	89b6                	mv	s3,a3
    52de:	ed9fa0ef          	jal	ra,1b6 <memset>
    52e2:	4785                	li	a5,1
    52e4:	01242023          	sw	s2,0(s0)
    52e8:	08940323          	sb	s1,134(s0)
    52ec:	08f41223          	sh	a5,132(s0)
    52f0:	093404a3          	sb	s3,137(s0)
    52f4:	4501                	li	a0,0
    52f6:	e95fa06f          	j	18a <__riscv_restore_4>
    52fa:	0ff00513          	li	a0,255
    52fe:	8082                	ret

00005300 <ring_buffer_push>:
    5300:	e57fa2ef          	jal	t0,156 <__riscv_save_4>
    5304:	0ff00493          	li	s1,255
    5308:	10050263          	beqz	a0,540c <ring_buffer_push+0x10c>
    530c:	10058063          	beqz	a1,540c <ring_buffer_push+0x10c>
    5310:	411c                	lw	a5,0(a0)
    5312:	0e078d63          	beqz	a5,540c <ring_buffer_push+0x10c>
    5316:	08854483          	lbu	s1,136(a0)
    531a:	0e049c63          	bnez	s1,5412 <ring_buffer_push+0x112>
    531e:	08654703          	lbu	a4,134(a0)
    5322:	08754783          	lbu	a5,135(a0)
    5326:	0ee7f663          	bgeu	a5,a4,5412 <ring_buffer_push+0x112>
    532a:	842a                	mv	s0,a0
    532c:	06400513          	li	a0,100
    5330:	8ab6                	mv	s5,a3
    5332:	8a32                	mv	s4,a2
    5334:	89ae                	mv	s3,a1
    5336:	291000ef          	jal	ra,5dc6 <ck_uart_cap>
    533a:	08944903          	lbu	s2,137(s0)
    533e:	012a7363          	bgeu	s4,s2,5344 <ring_buffer_push+0x44>
    5342:	8952                	mv	s2,s4
    5344:	06500513          	li	a0,101
    5348:	27f000ef          	jal	ra,5dc6 <ck_uart_cap>
    534c:	08744783          	lbu	a5,135(s0)
    5350:	06600513          	li	a0,102
    5354:	0ff97913          	zext.b	s2,s2
    5358:	0785                	addi	a5,a5,1 # 4001 <connection_state_handler+0xf3>
    535a:	08f403a3          	sb	a5,135(s0)
    535e:	269000ef          	jal	ra,5dc6 <ck_uart_cap>
    5362:	08544783          	lbu	a5,133(s0)
    5366:	06700513          	li	a0,103
    536a:	0785                	addi	a5,a5,1
    536c:	08f402a3          	sb	a5,133(s0)
    5370:	257000ef          	jal	ra,5dc6 <ck_uart_cap>
    5374:	08544703          	lbu	a4,133(s0)
    5378:	08644783          	lbu	a5,134(s0)
    537c:	00f76463          	bltu	a4,a5,5384 <ring_buffer_push+0x84>
    5380:	080402a3          	sb	zero,133(s0)
    5384:	06800513          	li	a0,104
    5388:	23f000ef          	jal	ra,5dc6 <ck_uart_cap>
    538c:	08544503          	lbu	a0,133(s0)
    5390:	08944783          	lbu	a5,137(s0)
    5394:	864a                	mv	a2,s2
    5396:	85ce                	mv	a1,s3
    5398:	02a787b3          	mul	a5,a5,a0
    539c:	4008                	lw	a0,0(s0)
    539e:	953e                	add	a0,a0,a5
    53a0:	e01fa0ef          	jal	ra,1a0 <memcpy>
    53a4:	200037b7          	lui	a5,0x20003
    53a8:	6627c783          	lbu	a5,1634(a5) # 20003662 <uart_tx_rb+0x86>
    53ac:	ef89                	bnez	a5,53c6 <ring_buffer_push+0xc6>
    53ae:	08644683          	lbu	a3,134(s0)
    53b2:	08544603          	lbu	a2,133(s0)
    53b6:	08944583          	lbu	a1,137(s0)
    53ba:	6531                	lui	a0,0xc
    53bc:	874a                	mv	a4,s2
    53be:	e6c50513          	addi	a0,a0,-404 # be6c <__errno+0x780>
    53c2:	3dd020ef          	jal	ra,7f9e <printf>
    53c6:	06900513          	li	a0,105
    53ca:	1fd000ef          	jal	ra,5dc6 <ck_uart_cap>
    53ce:	08544783          	lbu	a5,133(s0)
    53d2:	06a00513          	li	a0,106
    53d6:	97a2                	add	a5,a5,s0
    53d8:	01278223          	sb	s2,4(a5)
    53dc:	1eb000ef          	jal	ra,5dc6 <ck_uart_cap>
    53e0:	08544783          	lbu	a5,133(s0)
    53e4:	06b00513          	li	a0,107
    53e8:	97a2                	add	a5,a5,s0
    53ea:	05578223          	sb	s5,68(a5)
    53ee:	1d9000ef          	jal	ra,5dc6 <ck_uart_cap>
    53f2:	08744703          	lbu	a4,135(s0)
    53f6:	08644783          	lbu	a5,134(s0)
    53fa:	00f76563          	bltu	a4,a5,5404 <ring_buffer_push+0x104>
    53fe:	4785                	li	a5,1
    5400:	08f40423          	sb	a5,136(s0)
    5404:	06c00513          	li	a0,108
    5408:	1bf000ef          	jal	ra,5dc6 <ck_uart_cap>
    540c:	8526                	mv	a0,s1
    540e:	d7dfa06f          	j	18a <__riscv_restore_4>
    5412:	4485                	li	s1,1
    5414:	bfe5                	j	540c <ring_buffer_push+0x10c>

00005416 <ring_buffer_pop>:
    5416:	0ff00793          	li	a5,255
    541a:	c139                	beqz	a0,5460 <ring_buffer_pop+0x4a>
    541c:	4118                	lw	a4,0(a0)
    541e:	0ff00793          	li	a5,255
    5422:	cf1d                	beqz	a4,5460 <ring_buffer_pop+0x4a>
    5424:	08754783          	lbu	a5,135(a0)
    5428:	cf85                	beqz	a5,5460 <ring_buffer_pop+0x4a>
    542a:	08454703          	lbu	a4,132(a0)
    542e:	17fd                	addi	a5,a5,-1
    5430:	08654683          	lbu	a3,134(a0)
    5434:	0705                	addi	a4,a4,1
    5436:	0ff7f793          	zext.b	a5,a5
    543a:	0ff77713          	zext.b	a4,a4
    543e:	08f503a3          	sb	a5,135(a0)
    5442:	08e50223          	sb	a4,132(a0)
    5446:	00d76463          	bltu	a4,a3,544e <ring_buffer_pop+0x38>
    544a:	08050223          	sb	zero,132(a0)
    544e:	08854703          	lbu	a4,136(a0)
    5452:	c719                	beqz	a4,5460 <ring_buffer_pop+0x4a>
    5454:	00d7b7b3          	sltu	a5,a5,a3
    5458:	0017c793          	xori	a5,a5,1
    545c:	08f50423          	sb	a5,136(a0)
    5460:	853e                	mv	a0,a5
    5462:	8082                	ret

00005464 <SPI_FullDuplex_Init>:
    5464:	d0dfa2ef          	jal	t0,170 <__riscv_save_0>
    5468:	6505                	lui	a0,0x1
    546a:	1101                	addi	sp,sp,-32
    546c:	4585                	li	a1,1
    546e:	0511                	addi	a0,a0,4 # 1004 <flash_write+0x1c>
    5470:	c002                	sw	zero,0(sp)
    5472:	c202                	sw	zero,4(sp)
    5474:	c402                	sw	zero,8(sp)
    5476:	c602                	sw	zero,12(sp)
    5478:	c802                	sw	zero,16(sp)
    547a:	ca02                	sw	zero,20(sp)
    547c:	cc02                	sw	zero,24(sp)
    547e:	00011e23          	sh	zero,28(sp)
    5482:	4b9010ef          	jal	ra,713a <RCC_APB2PeriphClockCmd>
    5486:	08000793          	li	a5,128
    548a:	00f11023          	sh	a5,0(sp)
    548e:	40011537          	lui	a0,0x40011
    5492:	47e1                	li	a5,24
    5494:	c43e                	sw	a5,8(sp)
    5496:	858a                	mv	a1,sp
    5498:	478d                	li	a5,3
    549a:	80050513          	addi	a0,a0,-2048 # 40010800 <_eusrstack+0x2000b800>
    549e:	c23e                	sw	a5,4(sp)
    54a0:	6a8010ef          	jal	ra,6b48 <GPIO_Init>
    54a4:	0104c7b7          	lui	a5,0x104c
    54a8:	c63e                	sw	a5,12(sp)
    54aa:	020007b7          	lui	a5,0x2000
    54ae:	ca3e                	sw	a5,20(sp)
    54b0:	02000793          	li	a5,32
    54b4:	cc3e                	sw	a5,24(sp)
    54b6:	006c                	addi	a1,sp,12
    54b8:	479d                	li	a5,7
    54ba:	40013537          	lui	a0,0x40013
    54be:	00f11e23          	sh	a5,28(sp)
    54c2:	c802                	sw	zero,16(sp)
    54c4:	51d010ef          	jal	ra,71e0 <SPI_Init>
    54c8:	4605                	li	a2,1
    54ca:	4589                	li	a1,2
    54cc:	40013537          	lui	a0,0x40013
    54d0:	589010ef          	jal	ra,7258 <SPI_I2S_DMACmd>
    54d4:	6105                	addi	sp,sp,32
    54d6:	cbffa06f          	j	194 <__riscv_restore_0>

000054da <spi_DMA_Tx_Init>:
    54da:	c7dfa2ef          	jal	t0,156 <__riscv_save_4>
    54de:	7179                	addi	sp,sp,-48
    54e0:	842a                	mv	s0,a0
    54e2:	89ae                	mv	s3,a1
    54e4:	8932                	mv	s2,a2
    54e6:	4581                	li	a1,0
    54e8:	02c00613          	li	a2,44
    54ec:	0048                	addi	a0,sp,4
    54ee:	84b6                	mv	s1,a3
    54f0:	cc7fa0ef          	jal	ra,1b6 <memset>
    54f4:	4585                	li	a1,1
    54f6:	4505                	li	a0,1
    54f8:	425010ef          	jal	ra,711c <RCC_AHBPeriphClockCmd>
    54fc:	8522                	mv	a0,s0
    54fe:	1b0010ef          	jal	ra,66ae <DMA_DeInit>
    5502:	47c1                	li	a5,16
    5504:	c63e                	sw	a5,12(sp)
    5506:	08000793          	li	a5,128
    550a:	cc3e                	sw	a5,24(sp)
    550c:	10000793          	li	a5,256
    5510:	ce3e                	sw	a5,28(sp)
    5512:	004c                	addi	a1,sp,4
    5514:	6785                	lui	a5,0x1
    5516:	8522                	mv	a0,s0
    5518:	c24e                	sw	s3,4(sp)
    551a:	c44a                	sw	s2,8(sp)
    551c:	c826                	sw	s1,16(sp)
    551e:	d43e                	sw	a5,40(sp)
    5520:	ca02                	sw	zero,20(sp)
    5522:	d002                	sw	zero,32(sp)
    5524:	d202                	sw	zero,36(sp)
    5526:	d602                	sw	zero,44(sp)
    5528:	280010ef          	jal	ra,67a8 <DMA_Init>
    552c:	6145                	addi	sp,sp,48
    552e:	c5dfa06f          	j	18a <__riscv_restore_4>

00005532 <rgb_spi_pkg_gen>:
    5532:	010006b7          	lui	a3,0x1000
    5536:	1141                	addi	sp,sp,-16
    5538:	4701                	li	a4,0
    553a:	4781                	li	a5,0
    553c:	81018593          	addi	a1,gp,-2032 # 200018b8 <spi_rgb_trans>
    5540:	16fd                	addi	a3,a3,-1 # ffffff <_data_lma+0xff3d93>
    5542:	4861                	li	a6,24
    5544:	00157613          	andi	a2,a0,1
    5548:	962e                	add	a2,a2,a1
    554a:	00064603          	lbu	a2,0(a2)
    554e:	8105                	srli	a0,a0,0x1
    5550:	00e61633          	sll	a2,a2,a4
    5554:	8fd1                	or	a5,a5,a2
    5556:	070d                	addi	a4,a4,3
    5558:	8ff5                	and	a5,a5,a3
    555a:	ff0715e3          	bne	a4,a6,5544 <rgb_spi_pkg_gen+0x12>
    555e:	01079513          	slli	a0,a5,0x10
    5562:	8141                	srli	a0,a0,0x10
    5564:	9ca19623          	sh	a0,-1588(gp) # 20001a74 <p.1>
    5568:	83c1                	srli	a5,a5,0x10
    556a:	0ff57513          	zext.b	a0,a0
    556e:	9cc18693          	addi	a3,gp,-1588 # 20001a74 <p.1>
    5572:	00a68123          	sb	a0,2(a3)
    5576:	9cf18623          	sb	a5,-1588(gp) # 20001a74 <p.1>
    557a:	9cc1d783          	lhu	a5,-1588(gp) # 20001a74 <p.1>
    557e:	0542                	slli	a0,a0,0x10
    5580:	8d5d                	or	a0,a0,a5
    5582:	0141                	addi	sp,sp,16
    5584:	8082                	ret

00005586 <set_led_rgb>:
    5586:	bd1fa2ef          	jal	t0,156 <__riscv_save_4>
    558a:	4a8d                	li	s5,3
    558c:	035504b3          	mul	s1,a0,s5
    5590:	20003437          	lui	s0,0x20003
    5594:	8532                	mv	a0,a2
    5596:	4b840413          	addi	s0,s0,1208 # 200034b8 <spi_tx_buf>
    559a:	8a2e                	mv	s4,a1
    559c:	89b6                	mv	s3,a3
    559e:	f95ff0ef          	jal	ra,5532 <rgb_spi_pkg_gen>
    55a2:	00855793          	srli	a5,a0,0x8
    55a6:	00548913          	addi	s2,s1,5
    55aa:	03590933          	mul	s2,s2,s5
    55ae:	9922                	add	s2,s2,s0
    55b0:	00a90023          	sb	a0,0(s2)
    55b4:	8141                	srli	a0,a0,0x10
    55b6:	00f900a3          	sb	a5,1(s2)
    55ba:	00a90123          	sb	a0,2(s2)
    55be:	00648913          	addi	s2,s1,6
    55c2:	03590933          	mul	s2,s2,s5
    55c6:	049d                	addi	s1,s1,7
    55c8:	8552                	mv	a0,s4
    55ca:	f69ff0ef          	jal	ra,5532 <rgb_spi_pkg_gen>
    55ce:	00855793          	srli	a5,a0,0x8
    55d2:	035484b3          	mul	s1,s1,s5
    55d6:	9922                	add	s2,s2,s0
    55d8:	00a90023          	sb	a0,0(s2)
    55dc:	8141                	srli	a0,a0,0x10
    55de:	00a90123          	sb	a0,2(s2)
    55e2:	854e                	mv	a0,s3
    55e4:	00f900a3          	sb	a5,1(s2)
    55e8:	f4bff0ef          	jal	ra,5532 <rgb_spi_pkg_gen>
    55ec:	00855793          	srli	a5,a0,0x8
    55f0:	9426                	add	s0,s0,s1
    55f2:	00a40023          	sb	a0,0(s0)
    55f6:	8141                	srli	a0,a0,0x10
    55f8:	00f400a3          	sb	a5,1(s0)
    55fc:	00a40123          	sb	a0,2(s0)
    5600:	b8bfa06f          	j	18a <__riscv_restore_4>

00005604 <flush_spi_tx_seq>:
    5604:	b53fa2ef          	jal	t0,156 <__riscv_save_4>
    5608:	89aa                	mv	s3,a0
    560a:	6531                	lui	a0,0xc
    560c:	e8850513          	addi	a0,a0,-376 # be88 <__errno+0x79c>
    5610:	1b3020ef          	jal	ra,7fc2 <puts>
    5614:	20003537          	lui	a0,0x20003
    5618:	12300613          	li	a2,291
    561c:	4581                	li	a1,0
    561e:	4b850513          	addi	a0,a0,1208 # 200034b8 <spi_tx_buf>
    5622:	28018413          	addi	s0,gp,640 # 20002328 <user_config>
    5626:	b91fa0ef          	jal	ra,1b6 <memset>
    562a:	4901                	li	s2,0
    562c:	28018493          	addi	s1,gp,640 # 20002328 <user_config>
    5630:	6a31                	lui	s4,0xc
    5632:	0234c783          	lbu	a5,35(s1)
    5636:	06f94c63          	blt	s2,a5,56ae <flush_spi_tx_seq+0xaa>
    563a:	06098863          	beqz	s3,56aa <flush_spi_tx_seq+0xa6>
    563e:	200037b7          	lui	a5,0x20003
    5642:	4927c683          	lbu	a3,1170(a5) # 20003492 <connection_state+0x2>
    5646:	fc800793          	li	a5,-56
    564a:	4501                	li	a0,0
    564c:	02f686b3          	mul	a3,a3,a5
    5650:	0ff6f693          	zext.b	a3,a3
    5654:	8636                	mv	a2,a3
    5656:	85b6                	mv	a1,a3
    5658:	f2fff0ef          	jal	ra,5586 <set_led_rgb>
    565c:	0004c403          	lbu	s0,0(s1)
    5660:	0c800693          	li	a3,200
    5664:	01841793          	slli	a5,s0,0x18
    5668:	87e1                	srai	a5,a5,0x18
    566a:	0007d363          	bgez	a5,5670 <flush_spi_tx_seq+0x6c>
    566e:	4681                	li	a3,0
    5670:	8636                	mv	a2,a3
    5672:	85b6                	mv	a1,a3
    5674:	4505                	li	a0,1
    5676:	f11ff0ef          	jal	ra,5586 <set_led_rgb>
    567a:	02047413          	andi	s0,s0,32
    567e:	4681                	li	a3,0
    5680:	e019                	bnez	s0,5686 <flush_spi_tx_seq+0x82>
    5682:	0c800693          	li	a3,200
    5686:	8636                	mv	a2,a3
    5688:	85b6                	mv	a1,a3
    568a:	4509                	li	a0,2
    568c:	efbff0ef          	jal	ra,5586 <set_led_rgb>
    5690:	9c91c683          	lbu	a3,-1591(gp) # 20001a71 <force_esp32_active>
    5694:	fc800793          	li	a5,-56
    5698:	450d                	li	a0,3
    569a:	02f686b3          	mul	a3,a3,a5
    569e:	0ff6f693          	zext.b	a3,a3
    56a2:	8636                	mv	a2,a3
    56a4:	85b6                	mv	a1,a3
    56a6:	ee1ff0ef          	jal	ra,5586 <set_led_rgb>
    56aa:	ae1fa06f          	j	18a <__riscv_restore_4>
    56ae:	0004c783          	lbu	a5,0(s1)
    56b2:	0ff97513          	zext.b	a0,s2
    56b6:	8b89                	andi	a5,a5,2
    56b8:	e399                	bnez	a5,56be <flush_spi_tx_seq+0xba>
    56ba:	02099563          	bnez	s3,56e4 <flush_spi_tx_seq+0xe0>
    56be:	4681                	li	a3,0
    56c0:	4601                	li	a2,0
    56c2:	4581                	li	a1,0
    56c4:	ec3ff0ef          	jal	ra,5586 <set_led_rgb>
    56c8:	02444703          	lbu	a4,36(s0)
    56cc:	02544683          	lbu	a3,37(s0)
    56d0:	02644603          	lbu	a2,38(s0)
    56d4:	85ca                	mv	a1,s2
    56d6:	ea0a0513          	addi	a0,s4,-352 # bea0 <__errno+0x7b4>
    56da:	0c5020ef          	jal	ra,7f9e <printf>
    56de:	0905                	addi	s2,s2,1
    56e0:	040d                	addi	s0,s0,3
    56e2:	bf81                	j	5632 <flush_spi_tx_seq+0x2e>
    56e4:	02444683          	lbu	a3,36(s0)
    56e8:	02544603          	lbu	a2,37(s0)
    56ec:	02644583          	lbu	a1,38(s0)
    56f0:	bfd1                	j	56c4 <flush_spi_tx_seq+0xc0>

000056f2 <flush_rgb>:
    56f2:	a7ffa2ef          	jal	t0,170 <__riscv_save_0>
    56f6:	f0fff0ef          	jal	ra,5604 <flush_spi_tx_seq>
    56fa:	40020537          	lui	a0,0x40020
    56fe:	200037b7          	lui	a5,0x20003
    5702:	03050513          	addi	a0,a0,48 # 40020030 <_eusrstack+0x2001b030>
    5706:	4b878793          	addi	a5,a5,1208 # 200034b8 <spi_tx_buf>
    570a:	c55c                	sw	a5,12(a0)
    570c:	2a31c783          	lbu	a5,675(gp) # 2000234b <user_config+0x23>
    5710:	470d                	li	a4,3
    5712:	4585                	li	a1,1
    5714:	02e787b3          	mul	a5,a5,a4
    5718:	07a9                	addi	a5,a5,10
    571a:	02e787b3          	mul	a5,a5,a4
    571e:	c15c                	sw	a5,4(a0)
    5720:	0c0010ef          	jal	ra,67e0 <DMA_Cmd>
    5724:	4585                	li	a1,1
    5726:	40013537          	lui	a0,0x40013
    572a:	311010ef          	jal	ra,723a <SPI_Cmd>
    572e:	a67fa06f          	j	194 <__riscv_restore_0>

00005732 <spi_init>:
    5732:	a3ffa2ef          	jal	t0,170 <__riscv_save_0>
    5736:	d2fff0ef          	jal	ra,5464 <SPI_FullDuplex_Init>
    573a:	28018413          	addi	s0,gp,640 # 20002328 <user_config>
    573e:	02344783          	lbu	a5,35(s0)
    5742:	448d                	li	s1,3
    5744:	468d                	li	a3,3
    5746:	029787b3          	mul	a5,a5,s1
    574a:	20003637          	lui	a2,0x20003
    574e:	400135b7          	lui	a1,0x40013
    5752:	40020537          	lui	a0,0x40020
    5756:	4b860613          	addi	a2,a2,1208 # 200034b8 <spi_tx_buf>
    575a:	05b1                	addi	a1,a1,12 # 4001300c <_eusrstack+0x2000e00c>
    575c:	03050513          	addi	a0,a0,48 # 40020030 <_eusrstack+0x2001b030>
    5760:	07a9                	addi	a5,a5,10
    5762:	02d786b3          	mul	a3,a5,a3
    5766:	d75ff0ef          	jal	ra,54da <spi_DMA_Tx_Init>
    576a:	02344603          	lbu	a2,35(s0)
    576e:	6531                	lui	a0,0xc
    5770:	458d                	li	a1,3
    5772:	02960633          	mul	a2,a2,s1
    5776:	ec050513          	addi	a0,a0,-320 # bec0 <__errno+0x7d4>
    577a:	0629                	addi	a2,a2,10
    577c:	02960633          	mul	a2,a2,s1
    5780:	01f020ef          	jal	ra,7f9e <printf>
    5784:	4505                	li	a0,1
    5786:	f6dff0ef          	jal	ra,56f2 <flush_rgb>
    578a:	4501                	li	a0,0
    578c:	a09fa06f          	j	194 <__riscv_restore_0>

00005790 <DMA1_Channel3_IRQHandler>:
    5790:	20000513          	li	a0,512
    5794:	0a2010ef          	jal	ra,6836 <DMA_GetITStatus>
    5798:	c10d                	beqz	a0,57ba <DMA1_Channel3_IRQHandler+0x2a>
    579a:	10000513          	li	a0,256
    579e:	0a4010ef          	jal	ra,6842 <DMA_ClearITPendingBit>
    57a2:	40020537          	lui	a0,0x40020
    57a6:	4581                	li	a1,0
    57a8:	03050513          	addi	a0,a0,48 # 40020030 <_eusrstack+0x2001b030>
    57ac:	034010ef          	jal	ra,67e0 <DMA_Cmd>
    57b0:	4581                	li	a1,0
    57b2:	40013537          	lui	a0,0x40013
    57b6:	285010ef          	jal	ra,723a <SPI_Cmd>
    57ba:	30200073          	mret

000057be <SetSysClockTo72_HSE>:
    57be:	1141                	addi	sp,sp,-16
    57c0:	c402                	sw	zero,8(sp)
    57c2:	40021737          	lui	a4,0x40021
    57c6:	c602                	sw	zero,12(sp)
    57c8:	431c                	lw	a5,0(a4)
    57ca:	66c1                	lui	a3,0x10
    57cc:	00020637          	lui	a2,0x20
    57d0:	8fd5                	or	a5,a5,a3
    57d2:	c31c                	sw	a5,0(a4)
    57d4:	400216b7          	lui	a3,0x40021
    57d8:	50000713          	li	a4,1280
    57dc:	429c                	lw	a5,0(a3)
    57de:	8ff1                	and	a5,a5,a2
    57e0:	c63e                	sw	a5,12(sp)
    57e2:	47a2                	lw	a5,8(sp)
    57e4:	0785                	addi	a5,a5,1
    57e6:	c43e                	sw	a5,8(sp)
    57e8:	47b2                	lw	a5,12(sp)
    57ea:	e781                	bnez	a5,57f2 <SetSysClockTo72_HSE+0x34>
    57ec:	47a2                	lw	a5,8(sp)
    57ee:	fee797e3          	bne	a5,a4,57dc <SetSysClockTo72_HSE+0x1e>
    57f2:	400217b7          	lui	a5,0x40021
    57f6:	439c                	lw	a5,0(a5)
    57f8:	00e79713          	slli	a4,a5,0xe
    57fc:	08075463          	bgez	a4,5884 <SetSysClockTo72_HSE+0xc6>
    5800:	4785                	li	a5,1
    5802:	c63e                	sw	a5,12(sp)
    5804:	4732                	lw	a4,12(sp)
    5806:	4785                	li	a5,1
    5808:	06f71c63          	bne	a4,a5,5880 <SetSysClockTo72_HSE+0xc2>
    580c:	400227b7          	lui	a5,0x40022
    5810:	4398                	lw	a4,0(a5)
    5812:	ffc106b7          	lui	a3,0xffc10
    5816:	16fd                	addi	a3,a3,-1 # ffc0ffff <_eusrstack+0xdfc0afff>
    5818:	01076713          	ori	a4,a4,16
    581c:	c398                	sw	a4,0(a5)
    581e:	4398                	lw	a4,0(a5)
    5820:	9b71                	andi	a4,a4,-4
    5822:	c398                	sw	a4,0(a5)
    5824:	4398                	lw	a4,0(a5)
    5826:	00276713          	ori	a4,a4,2
    582a:	c398                	sw	a4,0(a5)
    582c:	400217b7          	lui	a5,0x40021
    5830:	43d8                	lw	a4,4(a5)
    5832:	c3d8                	sw	a4,4(a5)
    5834:	43d8                	lw	a4,4(a5)
    5836:	c3d8                	sw	a4,4(a5)
    5838:	43d8                	lw	a4,4(a5)
    583a:	40076713          	ori	a4,a4,1024
    583e:	c3d8                	sw	a4,4(a5)
    5840:	43d8                	lw	a4,4(a5)
    5842:	8f75                	and	a4,a4,a3
    5844:	c3d8                	sw	a4,4(a5)
    5846:	43d8                	lw	a4,4(a5)
    5848:	001d06b7          	lui	a3,0x1d0
    584c:	8f55                	or	a4,a4,a3
    584e:	c3d8                	sw	a4,4(a5)
    5850:	4398                	lw	a4,0(a5)
    5852:	010006b7          	lui	a3,0x1000
    5856:	8f55                	or	a4,a4,a3
    5858:	c398                	sw	a4,0(a5)
    585a:	4398                	lw	a4,0(a5)
    585c:	00671693          	slli	a3,a4,0x6
    5860:	fe06dde3          	bgez	a3,585a <SetSysClockTo72_HSE+0x9c>
    5864:	43d8                	lw	a4,4(a5)
    5866:	400216b7          	lui	a3,0x40021
    586a:	9b71                	andi	a4,a4,-4
    586c:	c3d8                	sw	a4,4(a5)
    586e:	43d8                	lw	a4,4(a5)
    5870:	00276713          	ori	a4,a4,2
    5874:	c3d8                	sw	a4,4(a5)
    5876:	4721                	li	a4,8
    5878:	42dc                	lw	a5,4(a3)
    587a:	8bb1                	andi	a5,a5,12
    587c:	fee79ee3          	bne	a5,a4,5878 <SetSysClockTo72_HSE+0xba>
    5880:	0141                	addi	sp,sp,16
    5882:	8082                	ret
    5884:	c602                	sw	zero,12(sp)
    5886:	bfbd                	j	5804 <SetSysClockTo72_HSE+0x46>

00005888 <SystemInit>:
    5888:	8e9fa2ef          	jal	t0,170 <__riscv_save_0>
    588c:	400217b7          	lui	a5,0x40021
    5890:	4398                	lw	a4,0(a5)
    5892:	f8ff06b7          	lui	a3,0xf8ff0
    5896:	00176713          	ori	a4,a4,1
    589a:	c398                	sw	a4,0(a5)
    589c:	43d8                	lw	a4,4(a5)
    589e:	8f75                	and	a4,a4,a3
    58a0:	c3d8                	sw	a4,4(a5)
    58a2:	4398                	lw	a4,0(a5)
    58a4:	fef706b7          	lui	a3,0xfef70
    58a8:	16fd                	addi	a3,a3,-1 # fef6ffff <_eusrstack+0xdef6afff>
    58aa:	8f75                	and	a4,a4,a3
    58ac:	c398                	sw	a4,0(a5)
    58ae:	4398                	lw	a4,0(a5)
    58b0:	fffc06b7          	lui	a3,0xfffc0
    58b4:	16fd                	addi	a3,a3,-1 # fffbffff <_eusrstack+0xdffbafff>
    58b6:	8f75                	and	a4,a4,a3
    58b8:	c398                	sw	a4,0(a5)
    58ba:	43d8                	lw	a4,4(a5)
    58bc:	ff8106b7          	lui	a3,0xff810
    58c0:	16fd                	addi	a3,a3,-1 # ff80ffff <_eusrstack+0xdf80afff>
    58c2:	8f75                	and	a4,a4,a3
    58c4:	c3d8                	sw	a4,4(a5)
    58c6:	009f0737          	lui	a4,0x9f0
    58ca:	c798                	sw	a4,8(a5)
    58cc:	ef3ff0ef          	jal	ra,57be <SetSysClockTo72_HSE>
    58d0:	8c5fa06f          	j	194 <__riscv_restore_0>

000058d4 <SystemCoreClockUpdate>:
    58d4:	400216b7          	lui	a3,0x40021
    58d8:	42dc                	lw	a5,4(a3)
    58da:	4611                	li	a2,4
    58dc:	8bb1                	andi	a5,a5,12
    58de:	81418713          	addi	a4,gp,-2028 # 200018bc <SystemCoreClock>
    58e2:	00c78563          	beq	a5,a2,58ec <SystemCoreClockUpdate+0x18>
    58e6:	4621                	li	a2,8
    58e8:	02c78963          	beq	a5,a2,591a <SystemCoreClockUpdate+0x46>
    58ec:	007a17b7          	lui	a5,0x7a1
    58f0:	20078793          	addi	a5,a5,512 # 7a1200 <_data_lma+0x794f94>
    58f4:	c31c                	sw	a5,0(a4)
    58f6:	400217b7          	lui	a5,0x40021
    58fa:	43dc                	lw	a5,4(a5)
    58fc:	8391                	srli	a5,a5,0x4
    58fe:	00f7f693          	andi	a3,a5,15
    5902:	200017b7          	lui	a5,0x20001
    5906:	7f878793          	addi	a5,a5,2040 # 200017f8 <AHBPrescTable>
    590a:	97b6                	add	a5,a5,a3
    590c:	0007c683          	lbu	a3,0(a5)
    5910:	431c                	lw	a5,0(a4)
    5912:	00d7d7b3          	srl	a5,a5,a3
    5916:	c31c                	sw	a5,0(a4)
    5918:	8082                	ret
    591a:	42dc                	lw	a5,4(a3)
    591c:	42d0                	lw	a2,4(a3)
    591e:	83c9                	srli	a5,a5,0x12
    5920:	8bbd                	andi	a5,a5,15
    5922:	00f61593          	slli	a1,a2,0xf
    5926:	0789                	addi	a5,a5,2
    5928:	0005cd63          	bltz	a1,5942 <SystemCoreClockUpdate+0x6e>
    592c:	400246b7          	lui	a3,0x40024
    5930:	8006a683          	lw	a3,-2048(a3) # 40023800 <_eusrstack+0x2001e800>
    5934:	8ac1                	andi	a3,a3,16
    5936:	ca99                	beqz	a3,594c <SystemCoreClockUpdate+0x78>
    5938:	007a16b7          	lui	a3,0x7a1
    593c:	20068693          	addi	a3,a3,512 # 7a1200 <_data_lma+0x794f94>
    5940:	a811                	j	5954 <SystemCoreClockUpdate+0x80>
    5942:	42d4                	lw	a3,4(a3)
    5944:	00e69613          	slli	a2,a3,0xe
    5948:	fe0658e3          	bgez	a2,5938 <SystemCoreClockUpdate+0x64>
    594c:	003d16b7          	lui	a3,0x3d1
    5950:	90068693          	addi	a3,a3,-1792 # 3d0900 <_data_lma+0x3c4694>
    5954:	02d787b3          	mul	a5,a5,a3
    5958:	bf71                	j	58f4 <SystemCoreClockUpdate+0x20>

0000595a <SetSysClock>:
    595a:	817fa2ef          	jal	t0,170 <__riscv_save_0>
    595e:	e61ff0ef          	jal	ra,57be <SetSysClockTo72_HSE>
    5962:	833fa06f          	j	194 <__riscv_restore_0>

00005966 <TIM2_IRQHandler>:
    5966:	4585                	li	a1,1
    5968:	40000537          	lui	a0,0x40000
    596c:	40d010ef          	jal	ra,7578 <TIM_GetFlagStatus>
    5970:	4785                	li	a5,1
    5972:	00f51c63          	bne	a0,a5,598a <TIM2_IRQHandler+0x24>
    5976:	9d018793          	addi	a5,gp,-1584 # 20001a78 <Systick_MS>
    597a:	4398                	lw	a4,0(a5)
    597c:	4585                	li	a1,1
    597e:	40000537          	lui	a0,0x40000
    5982:	0705                	addi	a4,a4,1 # 9f0001 <_data_lma+0x9e3d95>
    5984:	c398                	sw	a4,0(a5)
    5986:	41b010ef          	jal	ra,75a0 <TIM_ClearITPendingBit>
    598a:	30200073          	mret

0000598e <_systick_init>:
    598e:	fe2fa2ef          	jal	t0,170 <__riscv_save_0>
    5992:	1101                	addi	sp,sp,-32
    5994:	4585                	li	a1,1
    5996:	4505                	li	a0,1
    5998:	7c0010ef          	jal	ra,7158 <RCC_APB1PeriphClockCmd>
    599c:	04700793          	li	a5,71
    59a0:	ca3e                	sw	a5,20(sp)
    59a2:	084c                	addi	a1,sp,20
    59a4:	3e700793          	li	a5,999
    59a8:	40000537          	lui	a0,0x40000
    59ac:	cc3e                	sw	a5,24(sp)
    59ae:	0c1010ef          	jal	ra,726e <TIM_TimeBaseInit>
    59b2:	4605                	li	a2,1
    59b4:	4585                	li	a1,1
    59b6:	40000537          	lui	a0,0x40000
    59ba:	31b010ef          	jal	ra,74d4 <TIM_ITConfig>
    59be:	4585                	li	a1,1
    59c0:	40000537          	lui	a0,0x40000
    59c4:	2df010ef          	jal	ra,74a2 <TIM_Cmd>
    59c8:	12c00793          	li	a5,300
    59cc:	00f11623          	sh	a5,12(sp)
    59d0:	4785                	li	a5,1
    59d2:	00f10723          	sb	a5,14(sp)
    59d6:	0068                	addi	a0,sp,12
    59d8:	4785                	li	a5,1
    59da:	c83e                	sw	a5,16(sp)
    59dc:	4ee010ef          	jal	ra,6eca <NVIC_Init>
    59e0:	6799                	lui	a5,0x6
    59e2:	e000e737          	lui	a4,0xe000e
    59e6:	96678793          	addi	a5,a5,-1690 # 5966 <TIM2_IRQHandler>
    59ea:	c37c                	sw	a5,68(a4)
    59ec:	07b2                	slli	a5,a5,0xc
    59ee:	2c0006b7          	lui	a3,0x2c000
    59f2:	83b1                	srli	a5,a5,0xc
    59f4:	8fd5                	or	a5,a5,a3
    59f6:	d37c                	sw	a5,100(a4)
    59f8:	6105                	addi	sp,sp,32
    59fa:	f9afa06f          	j	194 <__riscv_restore_0>

000059fe <SysTick_Init>:
    59fe:	9d418793          	addi	a5,gp,-1580 # 20001a7c <inited.4594>
    5a02:	4398                	lw	a4,0(a5)
    5a04:	ef11                	bnez	a4,5a20 <SysTick_Init+0x22>
    5a06:	f6afa2ef          	jal	t0,170 <__riscv_save_0>
    5a0a:	4705                	li	a4,1
    5a0c:	c398                	sw	a4,0(a5)
    5a0e:	f81ff0ef          	jal	ra,598e <_systick_init>
    5a12:	6531                	lui	a0,0xc
    5a14:	ed850513          	addi	a0,a0,-296 # bed8 <__errno+0x7ec>
    5a18:	5aa020ef          	jal	ra,7fc2 <puts>
    5a1c:	f78fa06f          	j	194 <__riscv_restore_0>
    5a20:	8082                	ret

00005a22 <Get_Systick_US>:
    5a22:	9d01a783          	lw	a5,-1584(gp) # 20001a78 <Systick_MS>
    5a26:	3e800513          	li	a0,1000
    5a2a:	40000737          	lui	a4,0x40000
    5a2e:	02a787b3          	mul	a5,a5,a0
    5a32:	02475503          	lhu	a0,36(a4) # 40000024 <_eusrstack+0x1fffb024>
    5a36:	953e                	add	a0,a0,a5
    5a38:	8082                	ret

00005a3a <Get_Systick_MS>:
    5a3a:	9d01a503          	lw	a0,-1584(gp) # 20001a78 <Systick_MS>
    5a3e:	8082                	ret

00005a40 <HighPrecisionTimer_Init>:
    5a40:	8141a783          	lw	a5,-2028(gp) # 200018bc <SystemCoreClock>
    5a44:	007a1737          	lui	a4,0x7a1
    5a48:	20070713          	addi	a4,a4,512 # 7a1200 <_data_lma+0x794f94>
    5a4c:	02e7d7b3          	divu	a5,a5,a4
    5a50:	9cf18c23          	sb	a5,-1576(gp) # 20001a80 <p_us>
    5a54:	8082                	ret

00005a56 <execute_blocking_us>:
    5a56:	e519                	bnez	a0,5a64 <execute_blocking_us+0xe>
    5a58:	4501                	li	a0,0
    5a5a:	8082                	ret
    5a5c:	4501                	li	a0,0
    5a5e:	0141                	addi	sp,sp,16
    5a60:	f34fa06f          	j	194 <__riscv_restore_0>
    5a64:	f0cfa2ef          	jal	t0,170 <__riscv_save_0>
    5a68:	1141                	addi	sp,sp,-16
    5a6a:	8432                	mv	s0,a2
    5a6c:	892e                	mv	s2,a1
    5a6e:	84aa                	mv	s1,a0
    5a70:	fb3ff0ef          	jal	ra,5a22 <Get_Systick_US>
    5a74:	c42a                	sw	a0,8(sp)
    5a76:	47a2                	lw	a5,8(sp)
    5a78:	00878633          	add	a2,a5,s0
    5a7c:	c632                	sw	a2,12(sp)
    5a7e:	4432                	lw	s0,12(sp)
    5a80:	47a2                	lw	a5,8(sp)
    5a82:	00f43433          	sltu	s0,s0,a5
    5a86:	00144413          	xori	s0,s0,1
    5a8a:	854a                	mv	a0,s2
    5a8c:	9482                	jalr	s1
    5a8e:	f579                	bnez	a0,5a5c <execute_blocking_us+0x6>
    5a90:	f93ff0ef          	jal	ra,5a22 <Get_Systick_US>
    5a94:	c42a                	sw	a0,8(sp)
    5a96:	4722                	lw	a4,8(sp)
    5a98:	47b2                	lw	a5,12(sp)
    5a9a:	00e7fc63          	bgeu	a5,a4,5ab2 <execute_blocking_us+0x5c>
    5a9e:	d475                	beqz	s0,5a8a <execute_blocking_us+0x34>
    5aa0:	4722                	lw	a4,8(sp)
    5aa2:	47b2                	lw	a5,12(sp)
    5aa4:	fee7f3e3          	bgeu	a5,a4,5a8a <execute_blocking_us+0x34>
    5aa8:	854a                	mv	a0,s2
    5aaa:	9482                	jalr	s1
    5aac:	00153513          	seqz	a0,a0
    5ab0:	b77d                	j	5a5e <execute_blocking_us+0x8>
    5ab2:	4405                	li	s0,1
    5ab4:	bfd9                	j	5a8a <execute_blocking_us+0x34>

00005ab6 <Delay_Us>:
    5ab6:	ebafa2ef          	jal	t0,170 <__riscv_save_0>
    5aba:	1141                	addi	sp,sp,-16
    5abc:	84aa                	mv	s1,a0
    5abe:	f65ff0ef          	jal	ra,5a22 <Get_Systick_US>
    5ac2:	c62a                	sw	a0,12(sp)
    5ac4:	4785                	li	a5,1
    5ac6:	4432                	lw	s0,12(sp)
    5ac8:	00f105a3          	sb	a5,11(sp)
    5acc:	47b2                	lw	a5,12(sp)
    5ace:	9426                	add	s0,s0,s1
    5ad0:	00f47463          	bgeu	s0,a5,5ad8 <Delay_Us+0x22>
    5ad4:	000105a3          	sb	zero,11(sp)
    5ad8:	4485                	li	s1,1
    5ada:	f49ff0ef          	jal	ra,5a22 <Get_Systick_US>
    5ade:	c62a                	sw	a0,12(sp)
    5ae0:	00a47a63          	bgeu	s0,a0,5af4 <Delay_Us+0x3e>
    5ae4:	00b14783          	lbu	a5,11(sp)
    5ae8:	0ff7f793          	zext.b	a5,a5
    5aec:	c781                	beqz	a5,5af4 <Delay_Us+0x3e>
    5aee:	0141                	addi	sp,sp,16
    5af0:	ea4fa06f          	j	194 <__riscv_restore_0>
    5af4:	47b2                	lw	a5,12(sp)
    5af6:	fef462e3          	bltu	s0,a5,5ada <Delay_Us+0x24>
    5afa:	009105a3          	sb	s1,11(sp)
    5afe:	bff1                	j	5ada <Delay_Us+0x24>

00005b00 <Delay_Ms>:
    5b00:	9d018693          	addi	a3,gp,-1584 # 20001a78 <Systick_MS>
    5b04:	429c                	lw	a5,0(a3)
    5b06:	1141                	addi	sp,sp,-16
    5b08:	9d018713          	addi	a4,gp,-1584 # 20001a78 <Systick_MS>
    5b0c:	953e                	add	a0,a0,a5
    5b0e:	4785                	li	a5,1
    5b10:	00f107a3          	sb	a5,15(sp)
    5b14:	429c                	lw	a5,0(a3)
    5b16:	00f57463          	bgeu	a0,a5,5b1e <Delay_Ms+0x1e>
    5b1a:	000107a3          	sb	zero,15(sp)
    5b1e:	4685                	li	a3,1
    5b20:	00f14783          	lbu	a5,15(sp)
    5b24:	0ff7f793          	zext.b	a5,a5
    5b28:	c791                	beqz	a5,5b34 <Delay_Ms+0x34>
    5b2a:	431c                	lw	a5,0(a4)
    5b2c:	00f57463          	bgeu	a0,a5,5b34 <Delay_Ms+0x34>
    5b30:	0141                	addi	sp,sp,16
    5b32:	8082                	ret
    5b34:	431c                	lw	a5,0(a4)
    5b36:	fef565e3          	bltu	a0,a5,5b20 <Delay_Ms+0x20>
    5b3a:	00d107a3          	sb	a3,15(sp)
    5b3e:	b7cd                	j	5b20 <Delay_Ms+0x20>

00005b40 <UART1_DMA_Init>:
    5b40:	e30fa2ef          	jal	t0,170 <__riscv_save_0>
    5b44:	7179                	addi	sp,sp,-48
    5b46:	02c00613          	li	a2,44
    5b4a:	4581                	li	a1,0
    5b4c:	0048                	addi	a0,sp,4
    5b4e:	e68fa0ef          	jal	ra,1b6 <memset>
    5b52:	40020437          	lui	s0,0x40020
    5b56:	4581                	li	a1,0
    5b58:	04440513          	addi	a0,s0,68 # 40020044 <_eusrstack+0x2001b044>
    5b5c:	485000ef          	jal	ra,67e0 <DMA_Cmd>
    5b60:	04440513          	addi	a0,s0,68
    5b64:	34b000ef          	jal	ra,66ae <DMA_DeInit>
    5b68:	40014937          	lui	s2,0x40014
    5b6c:	80490793          	addi	a5,s2,-2044 # 40013804 <_eusrstack+0x2000e804>
    5b70:	c23e                	sw	a5,4(sp)
    5b72:	47c1                	li	a5,16
    5b74:	c63e                	sw	a5,12(sp)
    5b76:	10000793          	li	a5,256
    5b7a:	c83e                	sw	a5,16(sp)
    5b7c:	004c                	addi	a1,sp,4
    5b7e:	08000793          	li	a5,128
    5b82:	04440513          	addi	a0,s0,68
    5b86:	6485                	lui	s1,0x1
    5b88:	cc3e                	sw	a5,24(sp)
    5b8a:	d426                	sw	s1,40(sp)
    5b8c:	c402                	sw	zero,8(sp)
    5b8e:	ca02                	sw	zero,20(sp)
    5b90:	ce02                	sw	zero,28(sp)
    5b92:	d002                	sw	zero,32(sp)
    5b94:	d202                	sw	zero,36(sp)
    5b96:	d602                	sw	zero,44(sp)
    5b98:	411000ef          	jal	ra,67a8 <DMA_Init>
    5b9c:	4581                	li	a1,0
    5b9e:	05840513          	addi	a0,s0,88
    5ba2:	43f000ef          	jal	ra,67e0 <DMA_Cmd>
    5ba6:	05840513          	addi	a0,s0,88
    5baa:	305000ef          	jal	ra,66ae <DMA_DeInit>
    5bae:	200047b7          	lui	a5,0x20004
    5bb2:	87478793          	addi	a5,a5,-1932 # 20003874 <UART1_RxBuffer>
    5bb6:	c43e                	sw	a5,8(sp)
    5bb8:	02000793          	li	a5,32
    5bbc:	d23e                	sw	a5,36(sp)
    5bbe:	004c                	addi	a1,sp,4
    5bc0:	6789                	lui	a5,0x2
    5bc2:	05840513          	addi	a0,s0,88
    5bc6:	80048493          	addi	s1,s1,-2048 # 800 <__stack_size>
    5bca:	d43e                	sw	a5,40(sp)
    5bcc:	c826                	sw	s1,16(sp)
    5bce:	c602                	sw	zero,12(sp)
    5bd0:	3d9000ef          	jal	ra,67a8 <DMA_Init>
    5bd4:	05840513          	addi	a0,s0,88
    5bd8:	4585                	li	a1,1
    5bda:	407000ef          	jal	ra,67e0 <DMA_Cmd>
    5bde:	4605                	li	a2,1
    5be0:	04000593          	li	a1,64
    5be4:	80090513          	addi	a0,s2,-2048
    5be8:	28b010ef          	jal	ra,7672 <USART_DMACmd>
    5bec:	6145                	addi	sp,sp,48
    5bee:	da6fa06f          	j	194 <__riscv_restore_0>

00005bf2 <UART1_Init>:
    5bf2:	d7efa2ef          	jal	t0,170 <__riscv_save_0>
    5bf6:	1101                	addi	sp,sp,-32
    5bf8:	4585                	li	a1,1
    5bfa:	4511                	li	a0,4
    5bfc:	c202                	sw	zero,4(sp)
    5bfe:	c402                	sw	zero,8(sp)
    5c00:	c602                	sw	zero,12(sp)
    5c02:	c802                	sw	zero,16(sp)
    5c04:	ca02                	sw	zero,20(sp)
    5c06:	cc02                	sw	zero,24(sp)
    5c08:	ce02                	sw	zero,28(sp)
    5c0a:	530010ef          	jal	ra,713a <RCC_APB2PeriphClockCmd>
    5c0e:	4585                	li	a1,1
    5c10:	6511                	lui	a0,0x4
    5c12:	528010ef          	jal	ra,713a <RCC_APB2PeriphClockCmd>
    5c16:	20000793          	li	a5,512
    5c1a:	00f11223          	sh	a5,4(sp)
    5c1e:	40011437          	lui	s0,0x40011
    5c22:	478d                	li	a5,3
    5c24:	c43e                	sw	a5,8(sp)
    5c26:	004c                	addi	a1,sp,4
    5c28:	47e1                	li	a5,24
    5c2a:	80040513          	addi	a0,s0,-2048 # 40010800 <_eusrstack+0x2000b800>
    5c2e:	c63e                	sw	a5,12(sp)
    5c30:	719000ef          	jal	ra,6b48 <GPIO_Init>
    5c34:	40000793          	li	a5,1024
    5c38:	00f11223          	sh	a5,4(sp)
    5c3c:	004c                	addi	a1,sp,4
    5c3e:	04800793          	li	a5,72
    5c42:	80040513          	addi	a0,s0,-2048
    5c46:	c63e                	sw	a5,12(sp)
    5c48:	701000ef          	jal	ra,6b48 <GPIO_Init>
    5c4c:	002dc7b7          	lui	a5,0x2dc
    5c50:	40014437          	lui	s0,0x40014
    5c54:	6c078793          	addi	a5,a5,1728 # 2dc6c0 <_data_lma+0x2d0454>
    5c58:	c83e                	sw	a5,16(sp)
    5c5a:	080c                	addi	a1,sp,16
    5c5c:	000c07b7          	lui	a5,0xc0
    5c60:	80040513          	addi	a0,s0,-2048 # 40013800 <_eusrstack+0x2000e800>
    5c64:	cc3e                	sw	a5,24(sp)
    5c66:	ca02                	sw	zero,20(sp)
    5c68:	00011e23          	sh	zero,28(sp)
    5c6c:	143010ef          	jal	ra,75ae <USART_Init>
    5c70:	80040513          	addi	a0,s0,-2048
    5c74:	04000593          	li	a1,64
    5c78:	21d010ef          	jal	ra,7694 <USART_ClearFlag>
    5c7c:	80040513          	addi	a0,s0,-2048
    5c80:	4585                	li	a1,1
    5c82:	1d5010ef          	jal	ra,7656 <USART_Cmd>
    5c86:	200035b7          	lui	a1,0x20003
    5c8a:	20003537          	lui	a0,0x20003
    5c8e:	4699                	li	a3,6
    5c90:	02000613          	li	a2,32
    5c94:	7b458593          	addi	a1,a1,1972 # 200037b4 <uart_rx_rb_buf>
    5c98:	66850513          	addi	a0,a0,1640 # 20003668 <uart_rx_rb>
    5c9c:	e1eff0ef          	jal	ra,52ba <ring_buffer_init>
    5ca0:	200035b7          	lui	a1,0x20003
    5ca4:	20003537          	lui	a0,0x20003
    5ca8:	4699                	li	a3,6
    5caa:	02000613          	li	a2,32
    5cae:	6f458593          	addi	a1,a1,1780 # 200036f4 <uart_tx_rb_buf>
    5cb2:	5dc50513          	addi	a0,a0,1500 # 200035dc <uart_tx_rb>
    5cb6:	e04ff0ef          	jal	ra,52ba <ring_buffer_init>
    5cba:	6105                	addi	sp,sp,32
    5cbc:	cd8fa06f          	j	194 <__riscv_restore_0>

00005cc0 <UART1_DMA_Tx>:
    5cc0:	c96fa2ef          	jal	t0,156 <__riscv_save_4>
    5cc4:	400149b7          	lui	s3,0x40014
    5cc8:	892a                	mv	s2,a0
    5cca:	84ae                	mv	s1,a1
    5ccc:	80098513          	addi	a0,s3,-2048 # 40013800 <_eusrstack+0x2000e800>
    5cd0:	04000593          	li	a1,64
    5cd4:	40020437          	lui	s0,0x40020
    5cd8:	1bd010ef          	jal	ra,7694 <USART_ClearFlag>
    5cdc:	04440513          	addi	a0,s0,68 # 40020044 <_eusrstack+0x2001b044>
    5ce0:	4581                	li	a1,0
    5ce2:	2ff000ef          	jal	ra,67e0 <DMA_Cmd>
    5ce6:	05242823          	sw	s2,80(s0)
    5cea:	04440513          	addi	a0,s0,68
    5cee:	c144                	sw	s1,4(a0)
    5cf0:	4585                	li	a1,1
    5cf2:	2ef000ef          	jal	ra,67e0 <DMA_Cmd>
    5cf6:	4605                	li	a2,1
    5cf8:	08000593          	li	a1,128
    5cfc:	80098513          	addi	a0,s3,-2048
    5d00:	173010ef          	jal	ra,7672 <USART_DMACmd>
    5d04:	c86fa06f          	j	18a <__riscv_restore_4>

00005d08 <UART1_Tx_Service>:
    5d08:	c68fa2ef          	jal	t0,170 <__riscv_save_0>
    5d0c:	9f41c783          	lbu	a5,-1548(gp) # 20001a9c <UART1_Tx_Flag>
    5d10:	cb9d                	beqz	a5,5d46 <UART1_Tx_Service+0x3e>
    5d12:	400144b7          	lui	s1,0x40014
    5d16:	04000593          	li	a1,64
    5d1a:	80048513          	addi	a0,s1,-2048 # 40013800 <_eusrstack+0x2000e800>
    5d1e:	16b010ef          	jal	ra,7688 <USART_GetFlagStatus>
    5d22:	c105                	beqz	a0,5d42 <UART1_Tx_Service+0x3a>
    5d24:	04000593          	li	a1,64
    5d28:	80048513          	addi	a0,s1,-2048
    5d2c:	169010ef          	jal	ra,7694 <USART_ClearFlag>
    5d30:	4601                	li	a2,0
    5d32:	08000593          	li	a1,128
    5d36:	80048513          	addi	a0,s1,-2048
    5d3a:	139010ef          	jal	ra,7672 <USART_DMACmd>
    5d3e:	9e018a23          	sb	zero,-1548(gp) # 20001a9c <UART1_Tx_Flag>
    5d42:	c52fa06f          	j	194 <__riscv_restore_0>
    5d46:	200037b7          	lui	a5,0x20003
    5d4a:	5dc78713          	addi	a4,a5,1500 # 200035dc <uart_tx_rb>
    5d4e:	08774583          	lbu	a1,135(a4)
    5d52:	5dc78793          	addi	a5,a5,1500
    5d56:	d5f5                	beqz	a1,5d42 <UART1_Tx_Service+0x3a>
    5d58:	0847c703          	lbu	a4,132(a5)
    5d5c:	4619                	li	a2,6
    5d5e:	200036b7          	lui	a3,0x20003
    5d62:	02c70533          	mul	a0,a4,a2
    5d66:	6f468693          	addi	a3,a3,1780 # 200036f4 <uart_tx_rb_buf>
    5d6a:	00e58833          	add	a6,a1,a4
    5d6e:	9536                	add	a0,a0,a3
    5d70:	0867c683          	lbu	a3,134(a5)
    5d74:	0506d363          	bge	a3,a6,5dba <UART1_Tx_Service+0xb2>
    5d78:	40e68733          	sub	a4,a3,a4
    5d7c:	01071593          	slli	a1,a4,0x10
    5d80:	0857c703          	lbu	a4,133(a5)
    5d84:	81c1                	srli	a1,a1,0x10
    5d86:	08078223          	sb	zero,132(a5)
    5d8a:	02c75733          	divu	a4,a4,a2
    5d8e:	0705                	addi	a4,a4,1
    5d90:	08e783a3          	sb	a4,135(a5)
    5d94:	0877c703          	lbu	a4,135(a5)
    5d98:	00d73733          	sltu	a4,a4,a3
    5d9c:	00174713          	xori	a4,a4,1
    5da0:	08e78423          	sb	a4,136(a5)
    5da4:	4799                	li	a5,6
    5da6:	02f585b3          	mul	a1,a1,a5
    5daa:	05c2                	slli	a1,a1,0x10
    5dac:	81c1                	srli	a1,a1,0x10
    5dae:	f13ff0ef          	jal	ra,5cc0 <UART1_DMA_Tx>
    5db2:	4785                	li	a5,1
    5db4:	9ef18a23          	sb	a5,-1548(gp) # 20001a9c <UART1_Tx_Flag>
    5db8:	b769                	j	5d42 <UART1_Tx_Service+0x3a>
    5dba:	4705                	li	a4,1
    5dbc:	08e79223          	sh	a4,132(a5)
    5dc0:	080783a3          	sb	zero,135(a5)
    5dc4:	bfc1                	j	5d94 <UART1_Tx_Service+0x8c>

00005dc6 <ck_uart_cap>:
    5dc6:	8082                	ret

00005dc8 <encode_uart_pkt>:
    5dc8:	c12d                	beqz	a0,5e2a <encode_uart_pkt+0x62>
    5dca:	00354683          	lbu	a3,3(a0)
    5dce:	00454703          	lbu	a4,4(a0)
    5dd2:	4066d793          	srai	a5,a3,0x6
    5dd6:	40575613          	srai	a2,a4,0x5
    5dda:	8a11                	andi	a2,a2,4
    5ddc:	8b89                	andi	a5,a5,2
    5dde:	8fd1                	or	a5,a5,a2
    5de0:	00254603          	lbu	a2,2(a0)
    5de4:	06a2                	slli	a3,a3,0x8
    5de6:	0742                	slli	a4,a4,0x10
    5de8:	8ed1                	or	a3,a3,a2
    5dea:	8f55                	or	a4,a4,a3
    5dec:	007f86b7          	lui	a3,0x7f8
    5df0:	00765593          	srli	a1,a2,0x7
    5df4:	f7f68693          	addi	a3,a3,-129 # 7f7f7f <_data_lma+0x7ebd13>
    5df8:	00054603          	lbu	a2,0(a0)
    5dfc:	8ef9                	and	a3,a3,a4
    5dfe:	8fcd                	or	a5,a5,a1
    5e00:	07f77713          	andi	a4,a4,127
    5e04:	0086d593          	srli	a1,a3,0x8
    5e08:	0ff5f593          	zext.b	a1,a1
    5e0c:	00e50123          	sb	a4,2(a0)
    5e10:	8f31                	xor	a4,a4,a2
    5e12:	82c1                	srli	a3,a3,0x10
    5e14:	8f2d                	xor	a4,a4,a1
    5e16:	8f35                	xor	a4,a4,a3
    5e18:	00f500a3          	sb	a5,1(a0)
    5e1c:	8fb9                	xor	a5,a5,a4
    5e1e:	00b501a3          	sb	a1,3(a0)
    5e22:	00d50223          	sb	a3,4(a0)
    5e26:	00f502a3          	sb	a5,5(a0)
    5e2a:	8082                	ret

00005e2c <decode_uart_pkt>:
    5e2c:	c129                	beqz	a0,5e6e <decode_uart_pkt+0x42>
    5e2e:	00154783          	lbu	a5,1(a0)
    5e32:	00254703          	lbu	a4,2(a0)
    5e36:	00779693          	slli	a3,a5,0x7
    5e3a:	8f55                	or	a4,a4,a3
    5e3c:	00354683          	lbu	a3,3(a0)
    5e40:	00e50123          	sb	a4,2(a0)
    5e44:	00679713          	slli	a4,a5,0x6
    5e48:	f8077713          	andi	a4,a4,-128
    5e4c:	8f55                	or	a4,a4,a3
    5e4e:	00e501a3          	sb	a4,3(a0)
    5e52:	00454703          	lbu	a4,4(a0)
    5e56:	0796                	slli	a5,a5,0x5
    5e58:	f807f793          	andi	a5,a5,-128
    5e5c:	8fd9                	or	a5,a5,a4
    5e5e:	00f50223          	sb	a5,4(a0)
    5e62:	00054783          	lbu	a5,0(a0)
    5e66:	07f7f793          	andi	a5,a5,127
    5e6a:	00f50023          	sb	a5,0(a0)
    5e6e:	8082                	ret

00005e70 <check_uart_pkt>:
    5e70:	c51d                	beqz	a0,5e9e <check_uart_pkt+0x2e>
    5e72:	00454703          	lbu	a4,4(a0)
    5e76:	00054783          	lbu	a5,0(a0)
    5e7a:	8fb9                	xor	a5,a5,a4
    5e7c:	00154703          	lbu	a4,1(a0)
    5e80:	8fb9                	xor	a5,a5,a4
    5e82:	00254703          	lbu	a4,2(a0)
    5e86:	8fb9                	xor	a5,a5,a4
    5e88:	00354703          	lbu	a4,3(a0)
    5e8c:	00554503          	lbu	a0,5(a0)
    5e90:	8fb9                	xor	a5,a5,a4
    5e92:	0807c793          	xori	a5,a5,128
    5e96:	8d1d                	sub	a0,a0,a5
    5e98:	00a03533          	snez	a0,a0
    5e9c:	8082                	ret
    5e9e:	0ff00513          	li	a0,255
    5ea2:	8082                	ret

00005ea4 <UART1_Rx_Service>:
    5ea4:	aa4fa2ef          	jal	t0,148 <__riscv_save_10>
    5ea8:	40020537          	lui	a0,0x40020
    5eac:	05850513          	addi	a0,a0,88 # 40020058 <_eusrstack+0x2001b058>
    5eb0:	145000ef          	jal	ra,67f4 <DMA_GetCurrDataCounter>
    5eb4:	9ea19923          	sh	a0,-1550(gp) # 20001a9a <UART1_RX_CurCnt>
    5eb8:	9f01d603          	lhu	a2,-1552(gp) # 20001a98 <UART1_RX_LastCnt>
    5ebc:	9f21d783          	lhu	a5,-1550(gp) # 20001a9a <UART1_RX_CurCnt>
    5ec0:	04f60663          	beq	a2,a5,5f0c <UART1_Rx_Service+0x68>
    5ec4:	9f01d603          	lhu	a2,-1552(gp) # 20001a98 <UART1_RX_LastCnt>
    5ec8:	9f21d783          	lhu	a5,-1550(gp) # 20001a9a <UART1_RX_CurCnt>
    5ecc:	04c7fd63          	bgeu	a5,a2,5f26 <UART1_Rx_Service+0x82>
    5ed0:	9f01d783          	lhu	a5,-1552(gp) # 20001a98 <UART1_RX_LastCnt>
    5ed4:	9f21d603          	lhu	a2,-1550(gp) # 20001a9a <UART1_RX_CurCnt>
    5ed8:	8f91                	sub	a5,a5,a2
    5eda:	9f21d703          	lhu	a4,-1550(gp) # 20001a9a <UART1_RX_CurCnt>
    5ede:	07c2                	slli	a5,a5,0x10
    5ee0:	83c1                	srli	a5,a5,0x10
    5ee2:	0742                	slli	a4,a4,0x10
    5ee4:	8341                	srli	a4,a4,0x10
    5ee6:	9ee19823          	sh	a4,-1552(gp) # 20001a98 <UART1_RX_LastCnt>
    5eea:	9ee1d683          	lhu	a3,-1554(gp) # 20001a96 <UART1_Rx_RemainLen>
    5eee:	6705                	lui	a4,0x1
    5ef0:	80070713          	addi	a4,a4,-2048 # 800 <__stack_size>
    5ef4:	96be                	add	a3,a3,a5
    5ef6:	00d74963          	blt	a4,a3,5f08 <UART1_Rx_Service+0x64>
    5efa:	9ee1d703          	lhu	a4,-1554(gp) # 20001a96 <UART1_Rx_RemainLen>
    5efe:	97ba                	add	a5,a5,a4
    5f00:	07c2                	slli	a5,a5,0x10
    5f02:	83c1                	srli	a5,a5,0x10
    5f04:	9ef19723          	sh	a5,-1554(gp) # 20001a96 <UART1_Rx_RemainLen>
    5f08:	9e019b23          	sh	zero,-1546(gp) # 20001a9e <UART1_TimeOut>
    5f0c:	200049b7          	lui	s3,0x20004
    5f10:	87498993          	addi	s3,s3,-1932 # 20003874 <UART1_RxBuffer>
    5f14:	9e418a93          	addi	s5,gp,-1564 # 20001a8c <rx_filter_buf>
    5f18:	20003b37          	lui	s6,0x20003
    5f1c:	9ee1d783          	lhu	a5,-1554(gp) # 20001a96 <UART1_Rx_RemainLen>
    5f20:	ef89                	bnez	a5,5f3a <UART1_Rx_Service+0x96>
    5f22:	a5efa06f          	j	180 <__riscv_restore_10>
    5f26:	9f01d783          	lhu	a5,-1552(gp) # 20001a98 <UART1_RX_LastCnt>
    5f2a:	6605                	lui	a2,0x1
    5f2c:	9f21d583          	lhu	a1,-1550(gp) # 20001a9a <UART1_RX_CurCnt>
    5f30:	80060613          	addi	a2,a2,-2048 # 800 <__stack_size>
    5f34:	97b2                	add	a5,a5,a2
    5f36:	8f8d                	sub	a5,a5,a1
    5f38:	b74d                	j	5eda <UART1_Rx_Service+0x36>
    5f3a:	9ec1d783          	lhu	a5,-1556(gp) # 20001a94 <UART1_Rx_Deal_Ptr>
    5f3e:	97ce                	add	a5,a5,s3
    5f40:	00078783          	lb	a5,0(a5)
    5f44:	0407d363          	bgez	a5,5f8a <UART1_Rx_Service+0xe6>
    5f48:	4785                	li	a5,1
    5f4a:	9ef18523          	sb	a5,-1558(gp) # 20001a92 <rx_ptr>
    5f4e:	9ec1d783          	lhu	a5,-1556(gp) # 20001a94 <UART1_Rx_Deal_Ptr>
    5f52:	97ce                	add	a5,a5,s3
    5f54:	0007c783          	lbu	a5,0(a5)
    5f58:	00fa8023          	sb	a5,0(s5)
    5f5c:	9ee1d783          	lhu	a5,-1554(gp) # 20001a96 <UART1_Rx_RemainLen>
    5f60:	17fd                	addi	a5,a5,-1
    5f62:	07c2                	slli	a5,a5,0x10
    5f64:	83c1                	srli	a5,a5,0x10
    5f66:	9ef19723          	sh	a5,-1554(gp) # 20001a96 <UART1_Rx_RemainLen>
    5f6a:	9ec1d783          	lhu	a5,-1556(gp) # 20001a94 <UART1_Rx_Deal_Ptr>
    5f6e:	0785                	addi	a5,a5,1
    5f70:	07c2                	slli	a5,a5,0x10
    5f72:	83c1                	srli	a5,a5,0x10
    5f74:	9ef19623          	sh	a5,-1556(gp) # 20001a94 <UART1_Rx_Deal_Ptr>
    5f78:	9ec1d703          	lhu	a4,-1556(gp) # 20001a94 <UART1_Rx_Deal_Ptr>
    5f7c:	7ff00793          	li	a5,2047
    5f80:	f8e7fee3          	bgeu	a5,a4,5f1c <UART1_Rx_Service+0x78>
    5f84:	9e019623          	sh	zero,-1556(gp) # 20001a94 <UART1_Rx_Deal_Ptr>
    5f88:	bf51                	j	5f1c <UART1_Rx_Service+0x78>
    5f8a:	9ea18783          	lb	a5,-1558(gp) # 20001a92 <rx_ptr>
    5f8e:	04f05e63          	blez	a5,5fea <UART1_Rx_Service+0x146>
    5f92:	9ec1d703          	lhu	a4,-1556(gp) # 20001a94 <UART1_Rx_Deal_Ptr>
    5f96:	00178693          	addi	a3,a5,1
    5f9a:	97d6                	add	a5,a5,s5
    5f9c:	974e                	add	a4,a4,s3
    5f9e:	00074703          	lbu	a4,0(a4)
    5fa2:	9ed18523          	sb	a3,-1558(gp) # 20001a92 <rx_ptr>
    5fa6:	4b95                	li	s7,5
    5fa8:	00e78023          	sb	a4,0(a5)
    5fac:	9ea18783          	lb	a5,-1558(gp) # 20001a92 <rx_ptr>
    5fb0:	fafbd6e3          	bge	s7,a5,5f5c <UART1_Rx_Service+0xb8>
    5fb4:	9e418513          	addi	a0,gp,-1564 # 20001a8c <rx_filter_buf>
    5fb8:	9e018523          	sb	zero,-1558(gp) # 20001a92 <rx_ptr>
    5fbc:	eb5ff0ef          	jal	ra,5e70 <check_uart_pkt>
    5fc0:	fd51                	bnez	a0,5f5c <UART1_Rx_Service+0xb8>
    5fc2:	9e418513          	addi	a0,gp,-1564 # 20001a8c <rx_filter_buf>
    5fc6:	e67ff0ef          	jal	ra,5e2c <decode_uart_pkt>
    5fca:	9e418593          	addi	a1,gp,-1564 # 20001a8c <rx_filter_buf>
    5fce:	4681                	li	a3,0
    5fd0:	4619                	li	a2,6
    5fd2:	668b0513          	addi	a0,s6,1640 # 20003668 <uart_rx_rb>
    5fd6:	b2aff0ef          	jal	ra,5300 <ring_buffer_push>
    5fda:	85aa                	mv	a1,a0
    5fdc:	d961                	beqz	a0,5fac <UART1_Rx_Service+0x108>
    5fde:	6531                	lui	a0,0xc
    5fe0:	eec50513          	addi	a0,a0,-276 # beec <__errno+0x800>
    5fe4:	7bb010ef          	jal	ra,7f9e <printf>
    5fe8:	b7d1                	j	5fac <UART1_Rx_Service+0x108>
    5fea:	9e018523          	sb	zero,-1558(gp) # 20001a92 <rx_ptr>
    5fee:	b7bd                	j	5f5c <UART1_Rx_Service+0xb8>

00005ff0 <send_uart_pkt>:
    5ff0:	c129                	beqz	a0,6032 <send_uart_pkt+0x42>
    5ff2:	97efa2ef          	jal	t0,170 <__riscv_save_0>
    5ff6:	85aa                	mv	a1,a0
    5ff8:	4619                	li	a2,6
    5ffa:	9dc18513          	addi	a0,gp,-1572 # 20001a84 <send_buf>
    5ffe:	9a2fa0ef          	jal	ra,1a0 <memcpy>
    6002:	9dc18513          	addi	a0,gp,-1572 # 20001a84 <send_buf>
    6006:	dc3ff0ef          	jal	ra,5dc8 <encode_uart_pkt>
    600a:	9dc18493          	addi	s1,gp,-1572 # 20001a84 <send_buf>
    600e:	0004c783          	lbu	a5,0(s1)
    6012:	20003537          	lui	a0,0x20003
    6016:	4681                	li	a3,0
    6018:	f807e793          	ori	a5,a5,-128
    601c:	4619                	li	a2,6
    601e:	9dc18593          	addi	a1,gp,-1572 # 20001a84 <send_buf>
    6022:	5dc50513          	addi	a0,a0,1500 # 200035dc <uart_tx_rb>
    6026:	00f48023          	sb	a5,0(s1)
    602a:	ad6ff0ef          	jal	ra,5300 <ring_buffer_push>
    602e:	966fa06f          	j	194 <__riscv_restore_0>
    6032:	0fe00513          	li	a0,254
    6036:	8082                	ret

00006038 <ns_set_peripheral_data_getter>:
    6038:	a0a1aa23          	sw	a0,-1516(gp) # 20001abc <get_peripheral_data>
    603c:	8082                	ret

0000603e <ns_hid_get_packet_timer>:
    603e:	932fa2ef          	jal	t0,170 <__riscv_save_0>
    6042:	29d1c783          	lbu	a5,669(gp) # 20002345 <user_config+0x1d>
    6046:	4705                	li	a4,1
    6048:	00e78b63          	beq	a5,a4,605e <ns_hid_get_packet_timer+0x20>
    604c:	4709                	li	a4,2
    604e:	00e78d63          	beq	a5,a4,6068 <ns_hid_get_packet_timer+0x2a>
    6052:	9e9ff0ef          	jal	ra,5a3a <Get_Systick_MS>
    6056:	4795                	li	a5,5
    6058:	02f55533          	divu	a0,a0,a5
    605c:	a019                	j	6062 <ns_hid_get_packet_timer+0x24>
    605e:	9ddff0ef          	jal	ra,5a3a <Get_Systick_MS>
    6062:	0ff57513          	zext.b	a0,a0
    6066:	a039                	j	6074 <ns_hid_get_packet_timer+0x36>
    6068:	a101c503          	lbu	a0,-1520(gp) # 20001ab8 <ns_hid_pkt_cnt>
    606c:	00150713          	addi	a4,a0,1
    6070:	a0e18823          	sb	a4,-1520(gp) # 20001ab8 <ns_hid_pkt_cnt>
    6074:	920fa06f          	j	194 <__riscv_restore_0>

00006078 <rpt_warpper>:
    6078:	8f8fa2ef          	jal	t0,170 <__riscv_save_0>
    607c:	842a                	mv	s0,a0
    607e:	84ae                	mv	s1,a1
    6080:	8932                	mv	s2,a2
    6082:	4581                	li	a1,0
    6084:	03100613          	li	a2,49
    6088:	0505                	addi	a0,a0,1
    608a:	92cfa0ef          	jal	ra,1b6 <memset>
    608e:	03000793          	li	a5,48
    6092:	00f40023          	sb	a5,0(s0)
    6096:	cc89                	beqz	s1,60b0 <rpt_warpper+0x38>
    6098:	00090c63          	beqz	s2,60b0 <rpt_warpper+0x38>
    609c:	864a                	mv	a2,s2
    609e:	85a6                	mv	a1,s1
    60a0:	00d40513          	addi	a0,s0,13
    60a4:	8fcfa0ef          	jal	ra,1a0 <memcpy>
    60a8:	02100793          	li	a5,33
    60ac:	00f40023          	sb	a5,0(s0)
    60b0:	200045b7          	lui	a1,0x20004
    60b4:	4625                	li	a2,9
    60b6:	0b458593          	addi	a1,a1,180 # 200040b4 <global_input_data>
    60ba:	00340513          	addi	a0,s0,3
    60be:	8e2fa0ef          	jal	ra,1a0 <memcpy>
    60c2:	f7dff0ef          	jal	ra,603e <ns_hid_get_packet_timer>
    60c6:	f9100793          	li	a5,-111
    60ca:	00f40123          	sb	a5,2(s0)
    60ce:	f8000793          	li	a5,-128
    60d2:	00a400a3          	sb	a0,1(s0)
    60d6:	00f40623          	sb	a5,12(s0)
    60da:	8bafa06f          	j	194 <__riscv_restore_0>

000060de <set_imu_available>:
    60de:	a0a1a023          	sw	a0,-1536(gp) # 20001aa8 <rep>
    60e2:	8082                	ret

000060e4 <hid_init>:
    60e4:	a201a783          	lw	a5,-1504(gp) # 20001ac8 <pEP1_RAM_Addr>
    60e8:	04078793          	addi	a5,a5,64
    60ec:	a0f1a223          	sw	a5,-1532(gp) # 20001aac <rpt>
    60f0:	8082                	ret

000060f2 <hid_tx_service>:
    60f2:	864fa2ef          	jal	t0,156 <__riscv_save_4>
    60f6:	88c18793          	addi	a5,gp,-1908 # 20001934 <USBFS_Endp_Busy>
    60fa:	0017c783          	lbu	a5,1(a5)
    60fe:	e7c1                	bnez	a5,6186 <hid_tx_service+0x94>
    6100:	20003537          	lui	a0,0x20003
    6104:	40450793          	addi	a5,a0,1028 # 20003404 <ns_usb_send_rb>
    6108:	0877c703          	lbu	a4,135(a5)
    610c:	88c18913          	addi	s2,gp,-1908 # 20001934 <USBFS_Endp_Busy>
    6110:	c361                	beqz	a4,61d0 <hid_tx_service+0xde>
    6112:	0847c683          	lbu	a3,132(a5)
    6116:	4398                	lw	a4,0(a5)
    6118:	00669613          	slli	a2,a3,0x6
    611c:	9732                	add	a4,a4,a2
    611e:	97b6                	add	a5,a5,a3
    6120:	a0e1a623          	sw	a4,-1524(gp) # 20001ab4 <pkg_ptr>
    6124:	0047c703          	lbu	a4,4(a5)
    6128:	0447c783          	lbu	a5,68(a5)
    612c:	40450513          	addi	a0,a0,1028
    6130:	a0e184a3          	sb	a4,-1527(gp) # 20001ab1 <pkg_len>
    6134:	a0f18423          	sb	a5,-1528(gp) # 20001ab0 <pkg_typ>
    6138:	adeff0ef          	jal	ra,5416 <ring_buffer_pop>
    613c:	a081c783          	lbu	a5,-1528(gp) # 20001ab0 <pkg_typ>
    6140:	4709                	li	a4,2
    6142:	04e78d63          	beq	a5,a4,619c <hid_tx_service+0xaa>
    6146:	00f76c63          	bltu	a4,a5,615e <hid_tx_service+0x6c>
    614a:	e3a1                	bnez	a5,618a <hid_tx_service+0x98>
    614c:	a091c603          	lbu	a2,-1527(gp) # 20001ab1 <pkg_len>
    6150:	a0c1a583          	lw	a1,-1524(gp) # 20001ab4 <pkg_ptr>
    6154:	a041a503          	lw	a0,-1532(gp) # 20001aac <rpt>
    6158:	f21ff0ef          	jal	ra,6078 <rpt_warpper>
    615c:	a021                	j	6164 <hid_tx_service+0x72>
    615e:	470d                	li	a4,3
    6160:	04e78b63          	beq	a5,a4,61b6 <hid_tx_service+0xc4>
    6164:	04000713          	li	a4,64
    6168:	a0e184a3          	sb	a4,-1527(gp) # 20001ab1 <pkg_len>
    616c:	400237b7          	lui	a5,0x40023
    6170:	42e79a23          	sh	a4,1076(a5) # 40023434 <_eusrstack+0x2001e434>
    6174:	4705                	li	a4,1
    6176:	00e900a3          	sb	a4,1(s2)
    617a:	4367c703          	lbu	a4,1078(a5)
    617e:	0fc77713          	andi	a4,a4,252
    6182:	42e78b23          	sb	a4,1078(a5)
    6186:	804fa06f          	j	18a <__riscv_restore_4>
    618a:	a091c603          	lbu	a2,-1527(gp) # 20001ab1 <pkg_len>
    618e:	a0c1a583          	lw	a1,-1524(gp) # 20001ab4 <pkg_ptr>
    6192:	a041a503          	lw	a0,-1532(gp) # 20001aac <rpt>
    6196:	80afa0ef          	jal	ra,1a0 <memcpy>
    619a:	b7e9                	j	6164 <hid_tx_service+0x72>
    619c:	a091c603          	lbu	a2,-1527(gp) # 20001ab1 <pkg_len>
    61a0:	a0c1a583          	lw	a1,-1524(gp) # 20001ab4 <pkg_ptr>
    61a4:	a041a503          	lw	a0,-1532(gp) # 20001aac <rpt>
    61a8:	ed1ff0ef          	jal	ra,6078 <rpt_warpper>
    61ac:	a041a783          	lw	a5,-1532(gp) # 20001aac <rpt>
    61b0:	a0f1a623          	sw	a5,-1524(gp) # 20001ab4 <pkg_ptr>
    61b4:	bf45                	j	6164 <hid_tx_service+0x72>
    61b6:	a041a783          	lw	a5,-1532(gp) # 20001aac <rpt>
    61ba:	04000613          	li	a2,64
    61be:	4581                	li	a1,0
    61c0:	853e                	mv	a0,a5
    61c2:	ff5f90ef          	jal	ra,1b6 <memset>
    61c6:	a091c603          	lbu	a2,-1527(gp) # 20001ab1 <pkg_len>
    61ca:	a0c1a583          	lw	a1,-1524(gp) # 20001ab4 <pkg_ptr>
    61ce:	b7e1                	j	6196 <hid_tx_service+0xa4>
    61d0:	a041a503          	lw	a0,-1532(gp) # 20001aac <rpt>
    61d4:	4601                	li	a2,0
    61d6:	4581                	li	a1,0
    61d8:	ea1ff0ef          	jal	ra,6078 <rpt_warpper>
    61dc:	9681c783          	lbu	a5,-1688(gp) # 20001a10 <imu_mode>
    61e0:	d7f1                	beqz	a5,61ac <hid_tx_service+0xba>
    61e2:	9421c783          	lbu	a5,-1726(gp) # 200019ea <i2c_status>
    61e6:	d3f9                	beqz	a5,61ac <hid_tx_service+0xba>
    61e8:	a001a583          	lw	a1,-1536(gp) # 20001aa8 <rep>
    61ec:	d1e1                	beqz	a1,61ac <hid_tx_service+0xba>
    61ee:	a041a503          	lw	a0,-1532(gp) # 20001aac <rpt>
    61f2:	02500613          	li	a2,37
    61f6:	0535                	addi	a0,a0,13
    61f8:	fa9f90ef          	jal	ra,1a0 <memcpy>
    61fc:	bf45                	j	61ac <hid_tx_service+0xba>

000061fe <hid_rx_service>:
    61fe:	f73f92ef          	jal	t0,170 <__riscv_save_0>
    6202:	02418793          	addi	a5,gp,36 # 200020cc <RingBuffer_Comm>
    6206:	0027c783          	lbu	a5,2(a5)
    620a:	02418413          	addi	s0,gp,36 # 200020cc <RingBuffer_Comm>
    620e:	c3d5                	beqz	a5,62b2 <hid_rx_service+0xb4>
    6210:	00144783          	lbu	a5,1(s0)
    6214:	97a2                	add	a5,a5,s0
    6216:	0037c703          	lbu	a4,3(a5)
    621a:	0ff77793          	zext.b	a5,a4
    621e:	c379                	beqz	a4,62e4 <hid_rx_service+0xe6>
    6220:	04000713          	li	a4,64
    6224:	0ff7f493          	zext.b	s1,a5
    6228:	00f77463          	bgeu	a4,a5,6230 <hid_rx_service+0x32>
    622c:	04000493          	li	s1,64
    6230:	e000e7b7          	lui	a5,0xe000e
    6234:	43b8                	lw	a4,64(a5)
    6236:	46c1                	li	a3,16
    6238:	c3b4                	sw	a3,64(a5)
    623a:	08000637          	lui	a2,0x8000
    623e:	18078693          	addi	a3,a5,384 # e000e180 <_eusrstack+0xc0009180>
    6242:	c2d0                	sw	a2,4(a3)
    6244:	c3b8                	sw	a4,64(a5)
    6246:	00244783          	lbu	a5,2(s0)
    624a:	200025b7          	lui	a1,0x20002
    624e:	20004937          	lui	s2,0x20004
    6252:	17fd                	addi	a5,a5,-1
    6254:	0ff7f793          	zext.b	a5,a5
    6258:	00f40123          	sb	a5,2(s0)
    625c:	00144783          	lbu	a5,1(s0)
    6260:	acc58593          	addi	a1,a1,-1332 # 20001acc <Data_Buffer>
    6264:	8626                	mv	a2,s1
    6266:	079a                	slli	a5,a5,0x6
    6268:	95be                	add	a1,a1,a5
    626a:	07490513          	addi	a0,s2,116 # 20004074 <usb_rx_buf>
    626e:	f33f90ef          	jal	ra,1a0 <memcpy>
    6272:	00144783          	lbu	a5,1(s0)
    6276:	0785                	addi	a5,a5,1
    6278:	0ff7f793          	zext.b	a5,a5
    627c:	00f400a3          	sb	a5,1(s0)
    6280:	00144703          	lbu	a4,1(s0)
    6284:	47e1                	li	a5,24
    6286:	00f71463          	bne	a4,a5,628e <hid_rx_service+0x90>
    628a:	000400a3          	sb	zero,1(s0)
    628e:	9f818793          	addi	a5,gp,-1544 # 20001aa0 <pkt.0>
    6292:	07490913          	addi	s2,s2,116
    6296:	0127a023          	sw	s2,0(a5)
    629a:	00978223          	sb	s1,4(a5)
    629e:	08000737          	lui	a4,0x8000
    62a2:	e000e7b7          	lui	a5,0xe000e
    62a6:	10e7a223          	sw	a4,260(a5) # e000e104 <_eusrstack+0xc0009104>
    62aa:	9f818513          	addi	a0,gp,-1544 # 20001aa0 <pkt.0>
    62ae:	e9dfe0ef          	jal	ra,514a <hid_dispatch>
    62b2:	00244703          	lbu	a4,2(s0)
    62b6:	47bd                	li	a5,15
    62b8:	02e7e463          	bltu	a5,a4,62e0 <hid_rx_service+0xe2>
    62bc:	01b44783          	lbu	a5,27(s0)
    62c0:	c385                	beqz	a5,62e0 <hid_rx_service+0xe2>
    62c2:	6531                	lui	a0,0xc
    62c4:	04850513          	addi	a0,a0,72 # c048 <MySerNumInfo+0x18>
    62c8:	4fb010ef          	jal	ra,7fc2 <puts>
    62cc:	40023737          	lui	a4,0x40023
    62d0:	00040da3          	sb	zero,27(s0)
    62d4:	43674783          	lbu	a5,1078(a4) # 40023436 <_eusrstack+0x2001e436>
    62d8:	0f37f793          	andi	a5,a5,243
    62dc:	42f70b23          	sb	a5,1078(a4)
    62e0:	eb5f906f          	j	194 <__riscv_restore_0>
    62e4:	e000e7b7          	lui	a5,0xe000e
    62e8:	43b8                	lw	a4,64(a5)
    62ea:	46c1                	li	a3,16
    62ec:	c3b4                	sw	a3,64(a5)
    62ee:	08000637          	lui	a2,0x8000
    62f2:	18078693          	addi	a3,a5,384 # e000e180 <_eusrstack+0xc0009180>
    62f6:	c2d0                	sw	a2,4(a3)
    62f8:	c3b8                	sw	a4,64(a5)
    62fa:	00244783          	lbu	a5,2(s0)
    62fe:	17fd                	addi	a5,a5,-1
    6300:	0ff7f793          	zext.b	a5,a5
    6304:	00f40123          	sb	a5,2(s0)
    6308:	00144783          	lbu	a5,1(s0)
    630c:	0785                	addi	a5,a5,1
    630e:	0ff7f793          	zext.b	a5,a5
    6312:	00f400a3          	sb	a5,1(s0)
    6316:	00144703          	lbu	a4,1(s0)
    631a:	47e1                	li	a5,24
    631c:	00f71463          	bne	a4,a5,6324 <hid_rx_service+0x126>
    6320:	000400a3          	sb	zero,1(s0)
    6324:	e000e7b7          	lui	a5,0xe000e
    6328:	08000737          	lui	a4,0x8000
    632c:	10e7a223          	sw	a4,260(a5) # e000e104 <_eusrstack+0xc0009104>
    6330:	b749                	j	62b2 <hid_rx_service+0xb4>

00006332 <ADC1_2_IRQHandler>:
    6332:	a001                	j	6332 <ADC1_2_IRQHandler>

00006334 <handle_reset>:
    6334:	1fffc197          	auipc	gp,0x1fffc
    6338:	d7418193          	addi	gp,gp,-652 # 200020a8 <__global_pointer$>
    633c:	1ffff117          	auipc	sp,0x1ffff
    6340:	cc410113          	addi	sp,sp,-828 # 20005000 <_eusrstack>
    6344:	00006517          	auipc	a0,0x6
    6348:	f2850513          	addi	a0,a0,-216 # c26c <_data_lma>
    634c:	1fffa597          	auipc	a1,0x1fffa
    6350:	cb458593          	addi	a1,a1,-844 # 20000000 <CommandTable>
    6354:	88418613          	addi	a2,gp,-1916 # 2000192c <_edata>
    6358:	00c5fa63          	bgeu	a1,a2,636c <handle_reset+0x38>
    635c:	00052283          	lw	t0,0(a0)
    6360:	0055a023          	sw	t0,0(a1)
    6364:	0511                	addi	a0,a0,4
    6366:	0591                	addi	a1,a1,4
    6368:	fec5eae3          	bltu	a1,a2,635c <handle_reset+0x28>
    636c:	88818513          	addi	a0,gp,-1912 # 20001930 <USBFS_DevAddr>
    6370:	1fffe597          	auipc	a1,0x1fffe
    6374:	d9058593          	addi	a1,a1,-624 # 20004100 <_ebss>
    6378:	00b57763          	bgeu	a0,a1,6386 <handle_reset+0x52>
    637c:	00052023          	sw	zero,0(a0)
    6380:	0511                	addi	a0,a0,4
    6382:	feb56de3          	bltu	a0,a1,637c <handle_reset+0x48>
    6386:	08800293          	li	t0,136
    638a:	30029073          	csrw	mstatus,t0
    638e:	ffffa297          	auipc	t0,0xffffa
    6392:	caa28293          	addi	t0,t0,-854 # 38 <_einit>
    6396:	0012e293          	ori	t0,t0,1
    639a:	30529073          	csrw	mtvec,t0
    639e:	ceaff0ef          	jal	ra,5888 <SystemInit>
    63a2:	ffffe297          	auipc	t0,0xffffe
    63a6:	ca628293          	addi	t0,t0,-858 # 4048 <main>
    63aa:	34129073          	csrw	mepc,t0
    63ae:	30200073          	mret

000063b2 <ADC_DeInit>:
    63b2:	400127b7          	lui	a5,0x40012
    63b6:	40078793          	addi	a5,a5,1024 # 40012400 <_eusrstack+0x2000d400>
    63ba:	02f51063          	bne	a0,a5,63da <ADC_DeInit+0x28>
    63be:	db3f92ef          	jal	t0,170 <__riscv_save_0>
    63c2:	4585                	li	a1,1
    63c4:	20000513          	li	a0,512
    63c8:	5af000ef          	jal	ra,7176 <RCC_APB2PeriphResetCmd>
    63cc:	4581                	li	a1,0
    63ce:	20000513          	li	a0,512
    63d2:	5a5000ef          	jal	ra,7176 <RCC_APB2PeriphResetCmd>
    63d6:	dbff906f          	j	194 <__riscv_restore_0>
    63da:	8082                	ret

000063dc <ADC_Init>:
    63dc:	415c                	lw	a5,4(a0)
    63de:	fff10737          	lui	a4,0xfff10
    63e2:	eff70713          	addi	a4,a4,-257 # fff0feff <_eusrstack+0xdff0aeff>
    63e6:	8f7d                	and	a4,a4,a5
    63e8:	41dc                	lw	a5,4(a1)
    63ea:	4194                	lw	a3,0(a1)
    63ec:	07a2                	slli	a5,a5,0x8
    63ee:	8fd5                	or	a5,a5,a3
    63f0:	8fd9                	or	a5,a5,a4
    63f2:	c15c                	sw	a5,4(a0)
    63f4:	451c                	lw	a5,8(a0)
    63f6:	fff1f737          	lui	a4,0xfff1f
    63fa:	7fd70713          	addi	a4,a4,2045 # fff1f7fd <_eusrstack+0xdff1a7fd>
    63fe:	45d4                	lw	a3,12(a1)
    6400:	8f7d                	and	a4,a4,a5
    6402:	499c                	lw	a5,16(a1)
    6404:	8fd5                	or	a5,a5,a3
    6406:	4594                	lw	a3,8(a1)
    6408:	0686                	slli	a3,a3,0x1
    640a:	8fd5                	or	a5,a5,a3
    640c:	8fd9                	or	a5,a5,a4
    640e:	c51c                	sw	a5,8(a0)
    6410:	555c                	lw	a5,44(a0)
    6412:	ff100737          	lui	a4,0xff100
    6416:	177d                	addi	a4,a4,-1 # ff0fffff <_eusrstack+0xdf0fafff>
    6418:	8f7d                	and	a4,a4,a5
    641a:	0145c783          	lbu	a5,20(a1)
    641e:	17fd                	addi	a5,a5,-1
    6420:	0ff7f793          	zext.b	a5,a5
    6424:	07d2                	slli	a5,a5,0x14
    6426:	8fd9                	or	a5,a5,a4
    6428:	d55c                	sw	a5,44(a0)
    642a:	8082                	ret

0000642c <ADC_Cmd>:
    642c:	451c                	lw	a5,8(a0)
    642e:	c589                	beqz	a1,6438 <ADC_Cmd+0xc>
    6430:	0017e793          	ori	a5,a5,1
    6434:	c51c                	sw	a5,8(a0)
    6436:	8082                	ret
    6438:	9bf9                	andi	a5,a5,-2
    643a:	bfed                	j	6434 <ADC_Cmd+0x8>

0000643c <ADC_DMACmd>:
    643c:	451c                	lw	a5,8(a0)
    643e:	c589                	beqz	a1,6448 <ADC_DMACmd+0xc>
    6440:	1007e793          	ori	a5,a5,256
    6444:	c51c                	sw	a5,8(a0)
    6446:	8082                	ret
    6448:	eff7f793          	andi	a5,a5,-257
    644c:	bfe5                	j	6444 <ADC_DMACmd+0x8>

0000644e <ADC_ResetCalibration>:
    644e:	451c                	lw	a5,8(a0)
    6450:	0087e793          	ori	a5,a5,8
    6454:	c51c                	sw	a5,8(a0)
    6456:	8082                	ret

00006458 <ADC_GetResetCalibrationStatus>:
    6458:	4508                	lw	a0,8(a0)
    645a:	810d                	srli	a0,a0,0x3
    645c:	8905                	andi	a0,a0,1
    645e:	8082                	ret

00006460 <ADC_StartCalibration>:
    6460:	451c                	lw	a5,8(a0)
    6462:	0047e793          	ori	a5,a5,4
    6466:	c51c                	sw	a5,8(a0)
    6468:	8082                	ret

0000646a <ADC_GetCalibrationStatus>:
    646a:	4508                	lw	a0,8(a0)
    646c:	8109                	srli	a0,a0,0x2
    646e:	8905                	andi	a0,a0,1
    6470:	8082                	ret

00006472 <ADC_SoftwareStartConvCmd>:
    6472:	451c                	lw	a5,8(a0)
    6474:	c591                	beqz	a1,6480 <ADC_SoftwareStartConvCmd+0xe>
    6476:	00500737          	lui	a4,0x500
    647a:	8fd9                	or	a5,a5,a4
    647c:	c51c                	sw	a5,8(a0)
    647e:	8082                	ret
    6480:	ffb00737          	lui	a4,0xffb00
    6484:	177d                	addi	a4,a4,-1 # ffafffff <_eusrstack+0xdfafafff>
    6486:	8ff9                	and	a5,a5,a4
    6488:	bfd5                	j	647c <ADC_SoftwareStartConvCmd+0xa>

0000648a <ADC_RegularChannelConfig>:
    648a:	47a5                	li	a5,9
    648c:	04b7f763          	bgeu	a5,a1,64da <ADC_RegularChannelConfig+0x50>
    6490:	478d                	li	a5,3
    6492:	ff658713          	addi	a4,a1,-10
    6496:	02f70733          	mul	a4,a4,a5
    649a:	00c52803          	lw	a6,12(a0)
    649e:	479d                	li	a5,7
    64a0:	00e797b3          	sll	a5,a5,a4
    64a4:	fff7c793          	not	a5,a5
    64a8:	0107f7b3          	and	a5,a5,a6
    64ac:	00e696b3          	sll	a3,a3,a4
    64b0:	8edd                	or	a3,a3,a5
    64b2:	c554                	sw	a3,12(a0)
    64b4:	4799                	li	a5,6
    64b6:	04c7e363          	bltu	a5,a2,64fc <ADC_RegularChannelConfig+0x72>
    64ba:	4795                	li	a5,5
    64bc:	167d                	addi	a2,a2,-1 # 7ffffff <_data_lma+0x7ff3d93>
    64be:	02f60633          	mul	a2,a2,a5
    64c2:	5958                	lw	a4,52(a0)
    64c4:	47fd                	li	a5,31
    64c6:	00c797b3          	sll	a5,a5,a2
    64ca:	fff7c793          	not	a5,a5
    64ce:	8ff9                	and	a5,a5,a4
    64d0:	00c59633          	sll	a2,a1,a2
    64d4:	8e5d                	or	a2,a2,a5
    64d6:	d950                	sw	a2,52(a0)
    64d8:	8082                	ret
    64da:	470d                	li	a4,3
    64dc:	02e58733          	mul	a4,a1,a4
    64e0:	01052803          	lw	a6,16(a0)
    64e4:	479d                	li	a5,7
    64e6:	00e797b3          	sll	a5,a5,a4
    64ea:	fff7c793          	not	a5,a5
    64ee:	0107f7b3          	and	a5,a5,a6
    64f2:	00e696b3          	sll	a3,a3,a4
    64f6:	8edd                	or	a3,a3,a5
    64f8:	c914                	sw	a3,16(a0)
    64fa:	bf6d                	j	64b4 <ADC_RegularChannelConfig+0x2a>
    64fc:	47b1                	li	a5,12
    64fe:	02c7e263          	bltu	a5,a2,6522 <ADC_RegularChannelConfig+0x98>
    6502:	4795                	li	a5,5
    6504:	1665                	addi	a2,a2,-7
    6506:	02f60633          	mul	a2,a2,a5
    650a:	5918                	lw	a4,48(a0)
    650c:	47fd                	li	a5,31
    650e:	00c797b3          	sll	a5,a5,a2
    6512:	fff7c793          	not	a5,a5
    6516:	8ff9                	and	a5,a5,a4
    6518:	00c59633          	sll	a2,a1,a2
    651c:	8e5d                	or	a2,a2,a5
    651e:	d910                	sw	a2,48(a0)
    6520:	8082                	ret
    6522:	4795                	li	a5,5
    6524:	164d                	addi	a2,a2,-13
    6526:	02f60633          	mul	a2,a2,a5
    652a:	5558                	lw	a4,44(a0)
    652c:	47fd                	li	a5,31
    652e:	00c797b3          	sll	a5,a5,a2
    6532:	fff7c793          	not	a5,a5
    6536:	8ff9                	and	a5,a5,a4
    6538:	00c595b3          	sll	a1,a1,a2
    653c:	8ddd                	or	a1,a1,a5
    653e:	d54c                	sw	a1,44(a0)
    6540:	8082                	ret

00006542 <Get_CalibrationValue>:
    6542:	c2ff92ef          	jal	t0,170 <__riscv_save_0>
    6546:	1101                	addi	sp,sp,-32
    6548:	842a                	mv	s0,a0
    654a:	00010423          	sb	zero,8(sp)
    654e:	44a5                	li	s1,9
    6550:	00814783          	lbu	a5,8(sp)
    6554:	04f4ff63          	bgeu	s1,a5,65b2 <Get_CalibrationValue+0x70>
    6558:	00010423          	sb	zero,8(sp)
    655c:	46a5                	li	a3,9
    655e:	4621                	li	a2,8
    6560:	00814783          	lbu	a5,8(sp)
    6564:	08f6f763          	bgeu	a3,a5,65f2 <Get_CalibrationValue+0xb0>
    6568:	00011523          	sh	zero,10(sp)
    656c:	00010423          	sb	zero,8(sp)
    6570:	4695                	li	a3,5
    6572:	00814783          	lbu	a5,8(sp)
    6576:	10f6f563          	bgeu	a3,a5,6680 <Get_CalibrationValue+0x13e>
    657a:	00a15703          	lhu	a4,10(sp)
    657e:	00a15783          	lhu	a5,10(sp)
    6582:	4699                	li	a3,6
    6584:	460d                	li	a2,3
    6586:	02d7f7b3          	remu	a5,a5,a3
    658a:	6505                	lui	a0,0x1
    658c:	80050513          	addi	a0,a0,-2048 # 800 <__stack_size>
    6590:	02c7d7b3          	divu	a5,a5,a2
    6594:	02d75733          	divu	a4,a4,a3
    6598:	97ba                	add	a5,a5,a4
    659a:	07c2                	slli	a5,a5,0x10
    659c:	83c1                	srli	a5,a5,0x10
    659e:	00f11523          	sh	a5,10(sp)
    65a2:	00a15783          	lhu	a5,10(sp)
    65a6:	6105                	addi	sp,sp,32
    65a8:	8d1d                	sub	a0,a0,a5
    65aa:	0542                	slli	a0,a0,0x10
    65ac:	8541                	srai	a0,a0,0x10
    65ae:	be7f906f          	j	194 <__riscv_restore_0>
    65b2:	441c                	lw	a5,8(s0)
    65b4:	0087e793          	ori	a5,a5,8
    65b8:	c41c                	sw	a5,8(s0)
    65ba:	8522                	mv	a0,s0
    65bc:	e9dff0ef          	jal	ra,6458 <ADC_GetResetCalibrationStatus>
    65c0:	fd6d                	bnez	a0,65ba <Get_CalibrationValue+0x78>
    65c2:	441c                	lw	a5,8(s0)
    65c4:	0047e793          	ori	a5,a5,4
    65c8:	c41c                	sw	a5,8(s0)
    65ca:	8522                	mv	a0,s0
    65cc:	e9fff0ef          	jal	ra,646a <ADC_GetCalibrationStatus>
    65d0:	fd6d                	bnez	a0,65ca <Get_CalibrationValue+0x88>
    65d2:	4478                	lw	a4,76(s0)
    65d4:	00814783          	lbu	a5,8(sp)
    65d8:	1014                	addi	a3,sp,32
    65da:	0786                	slli	a5,a5,0x1
    65dc:	97b6                	add	a5,a5,a3
    65de:	fee79623          	sh	a4,-20(a5)
    65e2:	00814783          	lbu	a5,8(sp)
    65e6:	0785                	addi	a5,a5,1
    65e8:	0ff7f793          	zext.b	a5,a5
    65ec:	00f10423          	sb	a5,8(sp)
    65f0:	b785                	j	6550 <Get_CalibrationValue+0xe>
    65f2:	000104a3          	sb	zero,9(sp)
    65f6:	00914783          	lbu	a5,9(sp)
    65fa:	00f67a63          	bgeu	a2,a5,660e <Get_CalibrationValue+0xcc>
    65fe:	00814783          	lbu	a5,8(sp)
    6602:	0785                	addi	a5,a5,1
    6604:	0ff7f793          	zext.b	a5,a5
    6608:	00f10423          	sb	a5,8(sp)
    660c:	bf91                	j	6560 <Get_CalibrationValue+0x1e>
    660e:	00914703          	lbu	a4,9(sp)
    6612:	00914783          	lbu	a5,9(sp)
    6616:	100c                	addi	a1,sp,32
    6618:	0706                	slli	a4,a4,0x1
    661a:	0785                	addi	a5,a5,1
    661c:	0786                	slli	a5,a5,0x1
    661e:	972e                	add	a4,a4,a1
    6620:	97ae                	add	a5,a5,a1
    6622:	fec75703          	lhu	a4,-20(a4)
    6626:	fec7d783          	lhu	a5,-20(a5)
    662a:	04e7f363          	bgeu	a5,a4,6670 <Get_CalibrationValue+0x12e>
    662e:	00914783          	lbu	a5,9(sp)
    6632:	0786                	slli	a5,a5,0x1
    6634:	97ae                	add	a5,a5,a1
    6636:	fec7d783          	lhu	a5,-20(a5)
    663a:	00f11523          	sh	a5,10(sp)
    663e:	00914783          	lbu	a5,9(sp)
    6642:	00914703          	lbu	a4,9(sp)
    6646:	0785                	addi	a5,a5,1
    6648:	0786                	slli	a5,a5,0x1
    664a:	97ae                	add	a5,a5,a1
    664c:	fec7d583          	lhu	a1,-20(a5)
    6650:	00171793          	slli	a5,a4,0x1
    6654:	1018                	addi	a4,sp,32
    6656:	97ba                	add	a5,a5,a4
    6658:	feb79623          	sh	a1,-20(a5)
    665c:	00914783          	lbu	a5,9(sp)
    6660:	00a15703          	lhu	a4,10(sp)
    6664:	100c                	addi	a1,sp,32
    6666:	0785                	addi	a5,a5,1
    6668:	0786                	slli	a5,a5,0x1
    666a:	97ae                	add	a5,a5,a1
    666c:	fee79623          	sh	a4,-20(a5)
    6670:	00914783          	lbu	a5,9(sp)
    6674:	0785                	addi	a5,a5,1
    6676:	0ff7f793          	zext.b	a5,a5
    667a:	00f104a3          	sb	a5,9(sp)
    667e:	bfa5                	j	65f6 <Get_CalibrationValue+0xb4>
    6680:	00814783          	lbu	a5,8(sp)
    6684:	1010                	addi	a2,sp,32
    6686:	00a15703          	lhu	a4,10(sp)
    668a:	0789                	addi	a5,a5,2
    668c:	0786                	slli	a5,a5,0x1
    668e:	97b2                	add	a5,a5,a2
    6690:	fec7d783          	lhu	a5,-20(a5)
    6694:	97ba                	add	a5,a5,a4
    6696:	07c2                	slli	a5,a5,0x10
    6698:	83c1                	srli	a5,a5,0x10
    669a:	00f11523          	sh	a5,10(sp)
    669e:	00814783          	lbu	a5,8(sp)
    66a2:	0785                	addi	a5,a5,1
    66a4:	0ff7f793          	zext.b	a5,a5
    66a8:	00f10423          	sb	a5,8(sp)
    66ac:	b5d9                	j	6572 <Get_CalibrationValue+0x30>

000066ae <DMA_DeInit>:
    66ae:	411c                	lw	a5,0(a0)
    66b0:	6741                	lui	a4,0x10
    66b2:	1779                	addi	a4,a4,-2 # fffe <_data_lma+0x3d92>
    66b4:	8ff9                	and	a5,a5,a4
    66b6:	c11c                	sw	a5,0(a0)
    66b8:	00052023          	sw	zero,0(a0)
    66bc:	00052223          	sw	zero,4(a0)
    66c0:	00052423          	sw	zero,8(a0)
    66c4:	400207b7          	lui	a5,0x40020
    66c8:	00052623          	sw	zero,12(a0)
    66cc:	00878713          	addi	a4,a5,8 # 40020008 <_eusrstack+0x2001b008>
    66d0:	00e51763          	bne	a0,a4,66de <DMA_DeInit+0x30>
    66d4:	43d8                	lw	a4,4(a5)
    66d6:	00f76713          	ori	a4,a4,15
    66da:	c3d8                	sw	a4,4(a5)
    66dc:	8082                	ret
    66de:	01c78713          	addi	a4,a5,28
    66e2:	00e51663          	bne	a0,a4,66ee <DMA_DeInit+0x40>
    66e6:	43d8                	lw	a4,4(a5)
    66e8:	0f076713          	ori	a4,a4,240
    66ec:	b7fd                	j	66da <DMA_DeInit+0x2c>
    66ee:	03078713          	addi	a4,a5,48
    66f2:	00e51863          	bne	a0,a4,6702 <DMA_DeInit+0x54>
    66f6:	43d8                	lw	a4,4(a5)
    66f8:	6685                	lui	a3,0x1
    66fa:	f0068693          	addi	a3,a3,-256 # f00 <conf_init+0x116>
    66fe:	8f55                	or	a4,a4,a3
    6700:	bfe9                	j	66da <DMA_DeInit+0x2c>
    6702:	04478713          	addi	a4,a5,68
    6706:	00e51563          	bne	a0,a4,6710 <DMA_DeInit+0x62>
    670a:	43d8                	lw	a4,4(a5)
    670c:	66bd                	lui	a3,0xf
    670e:	bfc5                	j	66fe <DMA_DeInit+0x50>
    6710:	05878713          	addi	a4,a5,88
    6714:	00e51663          	bne	a0,a4,6720 <DMA_DeInit+0x72>
    6718:	43d8                	lw	a4,4(a5)
    671a:	000f06b7          	lui	a3,0xf0
    671e:	b7c5                	j	66fe <DMA_DeInit+0x50>
    6720:	06c78713          	addi	a4,a5,108
    6724:	00e51663          	bne	a0,a4,6730 <DMA_DeInit+0x82>
    6728:	43d8                	lw	a4,4(a5)
    672a:	00f006b7          	lui	a3,0xf00
    672e:	bfc1                	j	66fe <DMA_DeInit+0x50>
    6730:	08078713          	addi	a4,a5,128
    6734:	00e51663          	bne	a0,a4,6740 <DMA_DeInit+0x92>
    6738:	43d8                	lw	a4,4(a5)
    673a:	0f0006b7          	lui	a3,0xf000
    673e:	b7c1                	j	66fe <DMA_DeInit+0x50>
    6740:	40878713          	addi	a4,a5,1032
    6744:	00e51963          	bne	a0,a4,6756 <DMA_DeInit+0xa8>
    6748:	4047a703          	lw	a4,1028(a5)
    674c:	00f76713          	ori	a4,a4,15
    6750:	40e7a223          	sw	a4,1028(a5)
    6754:	8082                	ret
    6756:	41c78713          	addi	a4,a5,1052
    675a:	00e51763          	bne	a0,a4,6768 <DMA_DeInit+0xba>
    675e:	4047a703          	lw	a4,1028(a5)
    6762:	0f076713          	ori	a4,a4,240
    6766:	b7ed                	j	6750 <DMA_DeInit+0xa2>
    6768:	43078793          	addi	a5,a5,1072
    676c:	00f51b63          	bne	a0,a5,6782 <DMA_DeInit+0xd4>
    6770:	400207b7          	lui	a5,0x40020
    6774:	4047a703          	lw	a4,1028(a5) # 40020404 <_eusrstack+0x2001b404>
    6778:	6685                	lui	a3,0x1
    677a:	f0068693          	addi	a3,a3,-256 # f00 <conf_init+0x116>
    677e:	8f55                	or	a4,a4,a3
    6780:	bfc1                	j	6750 <DMA_DeInit+0xa2>
    6782:	400207b7          	lui	a5,0x40020
    6786:	44478713          	addi	a4,a5,1092 # 40020444 <_eusrstack+0x2001b444>
    678a:	00e51663          	bne	a0,a4,6796 <DMA_DeInit+0xe8>
    678e:	4047a703          	lw	a4,1028(a5)
    6792:	66bd                	lui	a3,0xf
    6794:	b7ed                	j	677e <DMA_DeInit+0xd0>
    6796:	45878713          	addi	a4,a5,1112
    679a:	fae51de3          	bne	a0,a4,6754 <DMA_DeInit+0xa6>
    679e:	4047a703          	lw	a4,1028(a5)
    67a2:	000f06b7          	lui	a3,0xf0
    67a6:	bfe1                	j	677e <DMA_DeInit+0xd0>

000067a8 <DMA_Init>:
    67a8:	411c                	lw	a5,0(a0)
    67aa:	7761                	lui	a4,0xffff8
    67ac:	073d                	addi	a4,a4,15 # ffff800f <_eusrstack+0xdfff300f>
    67ae:	5194                	lw	a3,32(a1)
    67b0:	8f7d                	and	a4,a4,a5
    67b2:	459c                	lw	a5,8(a1)
    67b4:	8fd5                	or	a5,a5,a3
    67b6:	4994                	lw	a3,16(a1)
    67b8:	8fd5                	or	a5,a5,a3
    67ba:	49d4                	lw	a3,20(a1)
    67bc:	8fd5                	or	a5,a5,a3
    67be:	4d94                	lw	a3,24(a1)
    67c0:	8fd5                	or	a5,a5,a3
    67c2:	4dd4                	lw	a3,28(a1)
    67c4:	8fd5                	or	a5,a5,a3
    67c6:	51d4                	lw	a3,36(a1)
    67c8:	8fd5                	or	a5,a5,a3
    67ca:	5594                	lw	a3,40(a1)
    67cc:	8fd5                	or	a5,a5,a3
    67ce:	8fd9                	or	a5,a5,a4
    67d0:	c11c                	sw	a5,0(a0)
    67d2:	45dc                	lw	a5,12(a1)
    67d4:	c15c                	sw	a5,4(a0)
    67d6:	419c                	lw	a5,0(a1)
    67d8:	c51c                	sw	a5,8(a0)
    67da:	41dc                	lw	a5,4(a1)
    67dc:	c55c                	sw	a5,12(a0)
    67de:	8082                	ret

000067e0 <DMA_Cmd>:
    67e0:	411c                	lw	a5,0(a0)
    67e2:	c589                	beqz	a1,67ec <DMA_Cmd+0xc>
    67e4:	0017e793          	ori	a5,a5,1
    67e8:	c11c                	sw	a5,0(a0)
    67ea:	8082                	ret
    67ec:	6741                	lui	a4,0x10
    67ee:	1779                	addi	a4,a4,-2 # fffe <_data_lma+0x3d92>
    67f0:	8ff9                	and	a5,a5,a4
    67f2:	bfdd                	j	67e8 <DMA_Cmd+0x8>

000067f4 <DMA_GetCurrDataCounter>:
    67f4:	4148                	lw	a0,4(a0)
    67f6:	0542                	slli	a0,a0,0x10
    67f8:	8141                	srli	a0,a0,0x10
    67fa:	8082                	ret

000067fc <DMA_GetFlagStatus>:
    67fc:	00351793          	slli	a5,a0,0x3
    6800:	0007da63          	bgez	a5,6814 <DMA_GetFlagStatus+0x18>
    6804:	400207b7          	lui	a5,0x40020
    6808:	4007a783          	lw	a5,1024(a5) # 40020400 <_eusrstack+0x2001b400>
    680c:	8d7d                	and	a0,a0,a5
    680e:	00a03533          	snez	a0,a0
    6812:	8082                	ret
    6814:	400207b7          	lui	a5,0x40020
    6818:	439c                	lw	a5,0(a5)
    681a:	bfcd                	j	680c <DMA_GetFlagStatus+0x10>

0000681c <DMA_ClearFlag>:
    681c:	00351793          	slli	a5,a0,0x3
    6820:	0007d763          	bgez	a5,682e <DMA_ClearFlag+0x12>
    6824:	400207b7          	lui	a5,0x40020
    6828:	40a7a223          	sw	a0,1028(a5) # 40020404 <_eusrstack+0x2001b404>
    682c:	8082                	ret
    682e:	400207b7          	lui	a5,0x40020
    6832:	c3c8                	sw	a0,4(a5)
    6834:	8082                	ret

00006836 <DMA_GetITStatus>:
    6836:	93bf92ef          	jal	t0,170 <__riscv_save_0>
    683a:	fc3ff0ef          	jal	ra,67fc <DMA_GetFlagStatus>
    683e:	957f906f          	j	194 <__riscv_restore_0>

00006842 <DMA_ClearITPendingBit>:
    6842:	92ff92ef          	jal	t0,170 <__riscv_save_0>
    6846:	fd7ff0ef          	jal	ra,681c <DMA_ClearFlag>
    684a:	94bf906f          	j	194 <__riscv_restore_0>

0000684e <EXTI_Init>:
    684e:	4158                	lw	a4,4(a0)
    6850:	00052803          	lw	a6,0(a0)
    6854:	454c                	lw	a1,12(a0)
    6856:	40010637          	lui	a2,0x40010
    685a:	40060793          	addi	a5,a2,1024 # 40010400 <_eusrstack+0x2000b400>
    685e:	973e                	add	a4,a4,a5
    6860:	fff84693          	not	a3,a6
    6864:	c5b1                	beqz	a1,68b0 <EXTI_Init+0x62>
    6866:	40062583          	lw	a1,1024(a2)
    686a:	8df5                	and	a1,a1,a3
    686c:	40b62023          	sw	a1,1024(a2)
    6870:	43d0                	lw	a2,4(a5)
    6872:	8ef1                	and	a3,a3,a2
    6874:	c3d4                	sw	a3,4(a5)
    6876:	4314                	lw	a3,0(a4)
    6878:	0106e6b3          	or	a3,a3,a6
    687c:	c314                	sw	a3,0(a4)
    687e:	4118                	lw	a4,0(a0)
    6880:	4790                	lw	a2,8(a5)
    6882:	fff74693          	not	a3,a4
    6886:	8e75                	and	a2,a2,a3
    6888:	c790                	sw	a2,8(a5)
    688a:	47d0                	lw	a2,12(a5)
    688c:	8ef1                	and	a3,a3,a2
    688e:	c7d4                	sw	a3,12(a5)
    6890:	4514                	lw	a3,8(a0)
    6892:	4641                	li	a2,16
    6894:	00c69963          	bne	a3,a2,68a6 <EXTI_Init+0x58>
    6898:	4794                	lw	a3,8(a5)
    689a:	8ed9                	or	a3,a3,a4
    689c:	c794                	sw	a3,8(a5)
    689e:	47d4                	lw	a3,12(a5)
    68a0:	8f55                	or	a4,a4,a3
    68a2:	c7d8                	sw	a4,12(a5)
    68a4:	8082                	ret
    68a6:	97b6                	add	a5,a5,a3
    68a8:	4394                	lw	a3,0(a5)
    68aa:	8f55                	or	a4,a4,a3
    68ac:	c398                	sw	a4,0(a5)
    68ae:	8082                	ret
    68b0:	431c                	lw	a5,0(a4)
    68b2:	8ff5                	and	a5,a5,a3
    68b4:	c31c                	sw	a5,0(a4)
    68b6:	8082                	ret

000068b8 <ROM_ERASE>:
    68b8:	7701                	lui	a4,0xfffe0
    68ba:	40000813          	li	a6,1024
    68be:	08000893          	li	a7,128
    68c2:	400227b7          	lui	a5,0x40022
    68c6:	00020e37          	lui	t3,0x20
    68ca:	6305                	lui	t1,0x1
    68cc:	177d                	addi	a4,a4,-1 # fffdffff <_eusrstack+0xdffdafff>
    68ce:	03061e63          	bne	a2,a6,690a <ROM_ERASE+0x52>
    68d2:	4b94                	lw	a3,16(a5)
    68d4:	0026e693          	ori	a3,a3,2
    68d8:	cb94                	sw	a3,16(a5)
    68da:	cbc8                	sw	a0,20(a5)
    68dc:	4b94                	lw	a3,16(a5)
    68de:	0406e693          	ori	a3,a3,64
    68e2:	cb94                	sw	a3,16(a5)
    68e4:	47d4                	lw	a3,12(a5)
    68e6:	8a85                	andi	a3,a3,1
    68e8:	fef5                	bnez	a3,68e4 <ROM_ERASE+0x2c>
    68ea:	ffc57693          	andi	a3,a0,-4
    68ee:	0066c6b3          	xor	a3,a3,t1
    68f2:	4294                	lw	a3,0(a3)
    68f4:	dbd4                	sw	a3,52(a5)
    68f6:	03061063          	bne	a2,a6,6916 <ROM_ERASE+0x5e>
    68fa:	4b94                	lw	a3,16(a5)
    68fc:	40050513          	addi	a0,a0,1024
    6900:	9af5                	andi	a3,a3,-3
    6902:	cb94                	sw	a3,16(a5)
    6904:	15fd                	addi	a1,a1,-1
    6906:	f5e1                	bnez	a1,68ce <ROM_ERASE+0x16>
    6908:	8082                	ret
    690a:	fd1618e3          	bne	a2,a7,68da <ROM_ERASE+0x22>
    690e:	4b94                	lw	a3,16(a5)
    6910:	01c6e6b3          	or	a3,a3,t3
    6914:	b7d1                	j	68d8 <ROM_ERASE+0x20>
    6916:	ff1617e3          	bne	a2,a7,6904 <ROM_ERASE+0x4c>
    691a:	4b94                	lw	a3,16(a5)
    691c:	08050513          	addi	a0,a0,128
    6920:	8ef9                	and	a3,a3,a4
    6922:	cb94                	sw	a3,16(a5)
    6924:	b7c5                	j	6904 <ROM_ERASE+0x4c>

00006926 <FLASH_ROM_ERASE>:
    6926:	f8000737          	lui	a4,0xf8000
    692a:	972a                	add	a4,a4,a0
    692c:	66c1                	lui	a3,0x10
    692e:	0ed77d63          	bgeu	a4,a3,6a28 <FLASH_ROM_ERASE+0x102>
    6932:	825f92ef          	jal	t0,156 <__riscv_save_4>
    6936:	00b506b3          	add	a3,a0,a1
    693a:	08010637          	lui	a2,0x8010
    693e:	84aa                	mv	s1,a0
    6940:	0fd00713          	li	a4,253
    6944:	06d66d63          	bltu	a2,a3,69be <FLASH_ROM_ERASE+0x98>
    6948:	00b566b3          	or	a3,a0,a1
    694c:	07f6f693          	andi	a3,a3,127
    6950:	0fe00713          	li	a4,254
    6954:	e6ad                	bnez	a3,69be <FLASH_ROM_ERASE+0x98>
    6956:	c5a5                	beqz	a1,69be <FLASH_ROM_ERASE+0x98>
    6958:	456706b7          	lui	a3,0x45670
    695c:	400227b7          	lui	a5,0x40022
    6960:	12368693          	addi	a3,a3,291 # 45670123 <_eusrstack+0x2566b123>
    6964:	cdef9737          	lui	a4,0xcdef9
    6968:	c3d4                	sw	a3,4(a5)
    696a:	9ab70713          	addi	a4,a4,-1621 # cdef89ab <_eusrstack+0xadef39ab>
    696e:	c3d8                	sw	a4,4(a5)
    6970:	d3d4                	sw	a3,36(a5)
    6972:	d3d8                	sw	a4,36(a5)
    6974:	3ff00913          	li	s2,1023
    6978:	02b97463          	bgeu	s2,a1,69a0 <FLASH_ROM_ERASE+0x7a>
    697c:	3ff57413          	andi	s0,a0,1023
    6980:	40000793          	li	a5,1024
    6984:	408789b3          	sub	s3,a5,s0
    6988:	c0058593          	addi	a1,a1,-1024
    698c:	01350ab3          	add	s5,a0,s3
    6990:	942e                	add	s0,s0,a1
    6992:	02f98963          	beq	s3,a5,69c4 <FLASH_ROM_ERASE+0x9e>
    6996:	04896063          	bltu	s2,s0,69d6 <FLASH_ROM_ERASE+0xb0>
    699a:	8922                	mv	s2,s0
    699c:	8a56                	mv	s4,s5
    699e:	a085                	j	69fe <FLASH_ROM_ERASE+0xd8>
    69a0:	07f00793          	li	a5,127
    69a4:	06b7ee63          	bltu	a5,a1,6a20 <FLASH_ROM_ERASE+0xfa>
    69a8:	400227b7          	lui	a5,0x40022
    69ac:	4b98                	lw	a4,16(a5)
    69ae:	66a1                	lui	a3,0x8
    69b0:	8f55                	or	a4,a4,a3
    69b2:	cb98                	sw	a4,16(a5)
    69b4:	4b98                	lw	a4,16(a5)
    69b6:	08076713          	ori	a4,a4,128
    69ba:	cb98                	sw	a4,16(a5)
    69bc:	4711                	li	a4,4
    69be:	853a                	mv	a0,a4
    69c0:	fcaf906f          	j	18a <__riscv_restore_4>
    69c4:	40000613          	li	a2,1024
    69c8:	4585                	li	a1,1
    69ca:	eefff0ef          	jal	ra,68b8 <ROM_ERASE>
    69ce:	8a56                	mv	s4,s5
    69d0:	02897f63          	bgeu	s2,s0,6a0e <FLASH_ROM_ERASE+0xe8>
    69d4:	4981                	li	s3,0
    69d6:	008a87b3          	add	a5,s5,s0
    69da:	3ff7f913          	andi	s2,a5,1023
    69de:	8a56                	mv	s4,s5
    69e0:	00090463          	beqz	s2,69e8 <FLASH_ROM_ERASE+0xc2>
    69e4:	c007fa13          	andi	s4,a5,-1024
    69e8:	412405b3          	sub	a1,s0,s2
    69ec:	40000613          	li	a2,1024
    69f0:	81a9                	srli	a1,a1,0xa
    69f2:	8556                	mv	a0,s5
    69f4:	ec5ff0ef          	jal	ra,68b8 <ROM_ERASE>
    69f8:	844a                	mv	s0,s2
    69fa:	00098a63          	beqz	s3,6a0e <FLASH_ROM_ERASE+0xe8>
    69fe:	08000613          	li	a2,128
    6a02:	0079d593          	srli	a1,s3,0x7
    6a06:	8526                	mv	a0,s1
    6a08:	eb1ff0ef          	jal	ra,68b8 <ROM_ERASE>
    6a0c:	844a                	mv	s0,s2
    6a0e:	dc49                	beqz	s0,69a8 <FLASH_ROM_ERASE+0x82>
    6a10:	08000613          	li	a2,128
    6a14:	00745593          	srli	a1,s0,0x7
    6a18:	8552                	mv	a0,s4
    6a1a:	e9fff0ef          	jal	ra,68b8 <ROM_ERASE>
    6a1e:	b769                	j	69a8 <FLASH_ROM_ERASE+0x82>
    6a20:	89ae                	mv	s3,a1
    6a22:	4901                	li	s2,0
    6a24:	4a01                	li	s4,0
    6a26:	bfe1                	j	69fe <FLASH_ROM_ERASE+0xd8>
    6a28:	0ff00713          	li	a4,255
    6a2c:	853a                	mv	a0,a4
    6a2e:	8082                	ret

00006a30 <FLASH_ROM_WRITE>:
    6a30:	f80007b7          	lui	a5,0xf8000
    6a34:	97aa                	add	a5,a5,a0
    6a36:	66c1                	lui	a3,0x10
    6a38:	872a                	mv	a4,a0
    6a3a:	10d7f463          	bgeu	a5,a3,6b42 <FLASH_ROM_WRITE+0x112>
    6a3e:	00c507b3          	add	a5,a0,a2
    6a42:	080106b7          	lui	a3,0x8010
    6a46:	0fd00513          	li	a0,253
    6a4a:	0ef6ee63          	bltu	a3,a5,6b46 <FLASH_ROM_WRITE+0x116>
    6a4e:	00c767b3          	or	a5,a4,a2
    6a52:	07f7f793          	andi	a5,a5,127
    6a56:	0fe00513          	li	a0,254
    6a5a:	e7f5                	bnez	a5,6b46 <FLASH_ROM_WRITE+0x116>
    6a5c:	c66d                	beqz	a2,6b46 <FLASH_ROM_WRITE+0x116>
    6a5e:	45670537          	lui	a0,0x45670
    6a62:	400227b7          	lui	a5,0x40022
    6a66:	12350513          	addi	a0,a0,291 # 45670123 <_eusrstack+0x2566b123>
    6a6a:	cdef96b7          	lui	a3,0xcdef9
    6a6e:	c3c8                	sw	a0,4(a5)
    6a70:	9ab68693          	addi	a3,a3,-1621 # cdef89ab <_eusrstack+0xadef39ab>
    6a74:	c3d4                	sw	a3,4(a5)
    6a76:	d3c8                	sw	a0,36(a5)
    6a78:	7841                	lui	a6,0xffff0
    6a7a:	821d                	srli	a2,a2,0x7
    6a7c:	d3d4                	sw	a3,36(a5)
    6a7e:	08058593          	addi	a1,a1,128
    6a82:	6e41                	lui	t3,0x10
    6a84:	00080eb7          	lui	t4,0x80
    6a88:	00040f37          	lui	t5,0x40
    6a8c:	6305                	lui	t1,0x1
    6a8e:	187d                	addi	a6,a6,-1 # fffeffff <_eusrstack+0xdffeafff>
    6a90:	4b88                	lw	a0,16(a5)
    6a92:	f8058693          	addi	a3,a1,-128
    6a96:	01c56533          	or	a0,a0,t3
    6a9a:	cb88                	sw	a0,16(a5)
    6a9c:	4b88                	lw	a0,16(a5)
    6a9e:	01d56533          	or	a0,a0,t4
    6aa2:	cb88                	sw	a0,16(a5)
    6aa4:	47c8                	lw	a0,12(a5)
    6aa6:	8905                	andi	a0,a0,1
    6aa8:	fd75                	bnez	a0,6aa4 <FLASH_ROM_WRITE+0x74>
    6aaa:	853a                	mv	a0,a4
    6aac:	0006a883          	lw	a7,0(a3)
    6ab0:	06c1                	addi	a3,a3,16
    6ab2:	01152023          	sw	a7,0(a0)
    6ab6:	ff46a883          	lw	a7,-12(a3)
    6aba:	01152223          	sw	a7,4(a0)
    6abe:	ff86a883          	lw	a7,-8(a3)
    6ac2:	01152423          	sw	a7,8(a0)
    6ac6:	ffc6a883          	lw	a7,-4(a3)
    6aca:	01152623          	sw	a7,12(a0)
    6ace:	0107a883          	lw	a7,16(a5) # 40022010 <_eusrstack+0x2001d010>
    6ad2:	01e8e8b3          	or	a7,a7,t5
    6ad6:	0117a823          	sw	a7,16(a5)
    6ada:	00c7a883          	lw	a7,12(a5)
    6ade:	0018f893          	andi	a7,a7,1
    6ae2:	fe089ce3          	bnez	a7,6ada <FLASH_ROM_WRITE+0xaa>
    6ae6:	ffc57893          	andi	a7,a0,-4
    6aea:	0068c8b3          	xor	a7,a7,t1
    6aee:	0008a883          	lw	a7,0(a7)
    6af2:	0541                	addi	a0,a0,16
    6af4:	0317aa23          	sw	a7,52(a5)
    6af8:	fab69ae3          	bne	a3,a1,6aac <FLASH_ROM_WRITE+0x7c>
    6afc:	cbd8                	sw	a4,20(a5)
    6afe:	4b94                	lw	a3,16(a5)
    6b00:	08070513          	addi	a0,a4,128
    6b04:	0406e693          	ori	a3,a3,64
    6b08:	cb94                	sw	a3,16(a5)
    6b0a:	47d4                	lw	a3,12(a5)
    6b0c:	8a85                	andi	a3,a3,1
    6b0e:	fef5                	bnez	a3,6b0a <FLASH_ROM_WRITE+0xda>
    6b10:	4b94                	lw	a3,16(a5)
    6b12:	9b71                	andi	a4,a4,-4
    6b14:	00674733          	xor	a4,a4,t1
    6b18:	0106f6b3          	and	a3,a3,a6
    6b1c:	cb94                	sw	a3,16(a5)
    6b1e:	4318                	lw	a4,0(a4)
    6b20:	167d                	addi	a2,a2,-1 # 800ffff <_data_lma+0x8003d93>
    6b22:	08058593          	addi	a1,a1,128
    6b26:	dbd8                	sw	a4,52(a5)
    6b28:	ea19                	bnez	a2,6b3e <FLASH_ROM_WRITE+0x10e>
    6b2a:	4b98                	lw	a4,16(a5)
    6b2c:	66a1                	lui	a3,0x8
    6b2e:	4511                	li	a0,4
    6b30:	8f55                	or	a4,a4,a3
    6b32:	cb98                	sw	a4,16(a5)
    6b34:	4b98                	lw	a4,16(a5)
    6b36:	08076713          	ori	a4,a4,128
    6b3a:	cb98                	sw	a4,16(a5)
    6b3c:	8082                	ret
    6b3e:	872a                	mv	a4,a0
    6b40:	bf81                	j	6a90 <FLASH_ROM_WRITE+0x60>
    6b42:	0ff00513          	li	a0,255
    6b46:	8082                	ret

00006b48 <GPIO_Init>:
    6b48:	459c                	lw	a5,8(a1)
    6b4a:	0107f713          	andi	a4,a5,16
    6b4e:	00f7f813          	andi	a6,a5,15
    6b52:	c701                	beqz	a4,6b5a <GPIO_Init+0x12>
    6b54:	41d8                	lw	a4,4(a1)
    6b56:	00e86833          	or	a6,a6,a4
    6b5a:	0005d583          	lhu	a1,0(a1)
    6b5e:	0ff5f713          	zext.b	a4,a1
    6b62:	c339                	beqz	a4,6ba8 <GPIO_Init+0x60>
    6b64:	4118                	lw	a4,0(a0)
    6b66:	4681                	li	a3,0
    6b68:	4e85                	li	t4,1
    6b6a:	4f3d                	li	t5,15
    6b6c:	02800f93          	li	t6,40
    6b70:	04800293          	li	t0,72
    6b74:	4e21                	li	t3,8
    6b76:	00de9633          	sll	a2,t4,a3
    6b7a:	00c5f8b3          	and	a7,a1,a2
    6b7e:	03161163          	bne	a2,a7,6ba0 <GPIO_Init+0x58>
    6b82:	00269893          	slli	a7,a3,0x2
    6b86:	011f1333          	sll	t1,t5,a7
    6b8a:	fff34313          	not	t1,t1
    6b8e:	00e37733          	and	a4,t1,a4
    6b92:	011818b3          	sll	a7,a6,a7
    6b96:	00e8e733          	or	a4,a7,a4
    6b9a:	05f79f63          	bne	a5,t6,6bf8 <GPIO_Init+0xb0>
    6b9e:	c950                	sw	a2,20(a0)
    6ba0:	0685                	addi	a3,a3,1 # 8001 <puts+0x3f>
    6ba2:	fdc69ae3          	bne	a3,t3,6b76 <GPIO_Init+0x2e>
    6ba6:	c118                	sw	a4,0(a0)
    6ba8:	0ff00713          	li	a4,255
    6bac:	04b77563          	bgeu	a4,a1,6bf6 <GPIO_Init+0xae>
    6bb0:	4154                	lw	a3,4(a0)
    6bb2:	4621                	li	a2,8
    6bb4:	4e85                	li	t4,1
    6bb6:	4f3d                	li	t5,15
    6bb8:	02800f93          	li	t6,40
    6bbc:	04800293          	li	t0,72
    6bc0:	4e41                	li	t3,16
    6bc2:	00ce98b3          	sll	a7,t4,a2
    6bc6:	0115f733          	and	a4,a1,a7
    6bca:	02e89263          	bne	a7,a4,6bee <GPIO_Init+0xa6>
    6bce:	00261713          	slli	a4,a2,0x2
    6bd2:	1701                	addi	a4,a4,-32
    6bd4:	00ef1333          	sll	t1,t5,a4
    6bd8:	fff34313          	not	t1,t1
    6bdc:	00d376b3          	and	a3,t1,a3
    6be0:	00e81733          	sll	a4,a6,a4
    6be4:	8ed9                	or	a3,a3,a4
    6be6:	01f79d63          	bne	a5,t6,6c00 <GPIO_Init+0xb8>
    6bea:	01152a23          	sw	a7,20(a0)
    6bee:	0605                	addi	a2,a2,1
    6bf0:	fdc619e3          	bne	a2,t3,6bc2 <GPIO_Init+0x7a>
    6bf4:	c154                	sw	a3,4(a0)
    6bf6:	8082                	ret
    6bf8:	fa5794e3          	bne	a5,t0,6ba0 <GPIO_Init+0x58>
    6bfc:	c910                	sw	a2,16(a0)
    6bfe:	b74d                	j	6ba0 <GPIO_Init+0x58>
    6c00:	fe5797e3          	bne	a5,t0,6bee <GPIO_Init+0xa6>
    6c04:	01152823          	sw	a7,16(a0)
    6c08:	b7dd                	j	6bee <GPIO_Init+0xa6>

00006c0a <GPIO_ReadInputDataBit>:
    6c0a:	4508                	lw	a0,8(a0)
    6c0c:	8d6d                	and	a0,a0,a1
    6c0e:	00a03533          	snez	a0,a0
    6c12:	8082                	ret

00006c14 <GPIO_SetBits>:
    6c14:	c90c                	sw	a1,16(a0)
    6c16:	8082                	ret

00006c18 <GPIO_ResetBits>:
    6c18:	c94c                	sw	a1,20(a0)
    6c1a:	8082                	ret

00006c1c <GPIO_WriteBit>:
    6c1c:	c219                	beqz	a2,6c22 <GPIO_WriteBit+0x6>
    6c1e:	c90c                	sw	a1,16(a0)
    6c20:	8082                	ret
    6c22:	c94c                	sw	a1,20(a0)
    6c24:	8082                	ret

00006c26 <GPIO_EXTILineConfig>:
    6c26:	0fc5f713          	andi	a4,a1,252
    6c2a:	0035f793          	andi	a5,a1,3
    6c2e:	400105b7          	lui	a1,0x40010
    6c32:	95ba                	add	a1,a1,a4
    6c34:	4594                	lw	a3,8(a1)
    6c36:	078a                	slli	a5,a5,0x2
    6c38:	473d                	li	a4,15
    6c3a:	00f71733          	sll	a4,a4,a5
    6c3e:	fff74713          	not	a4,a4
    6c42:	8f75                	and	a4,a4,a3
    6c44:	c598                	sw	a4,8(a1)
    6c46:	4598                	lw	a4,8(a1)
    6c48:	00f51533          	sll	a0,a0,a5
    6c4c:	8d59                	or	a0,a0,a4
    6c4e:	c588                	sw	a0,8(a1)
    6c50:	8082                	ret

00006c52 <I2C_DeInit>:
    6c52:	d1ef92ef          	jal	t0,170 <__riscv_save_0>
    6c56:	400057b7          	lui	a5,0x40005
    6c5a:	40078793          	addi	a5,a5,1024 # 40005400 <_eusrstack+0x20000400>
    6c5e:	4585                	li	a1,1
    6c60:	00f51b63          	bne	a0,a5,6c76 <I2C_DeInit+0x24>
    6c64:	00200537          	lui	a0,0x200
    6c68:	2335                	jal	7194 <RCC_APB1PeriphResetCmd>
    6c6a:	4581                	li	a1,0
    6c6c:	00200537          	lui	a0,0x200
    6c70:	2315                	jal	7194 <RCC_APB1PeriphResetCmd>
    6c72:	d22f906f          	j	194 <__riscv_restore_0>
    6c76:	00400537          	lui	a0,0x400
    6c7a:	2b29                	jal	7194 <RCC_APB1PeriphResetCmd>
    6c7c:	4581                	li	a1,0
    6c7e:	00400537          	lui	a0,0x400
    6c82:	b7fd                	j	6c70 <I2C_DeInit+0x1e>

00006c84 <I2C_Init>:
    6c84:	cecf92ef          	jal	t0,170 <__riscv_save_0>
    6c88:	7179                	addi	sp,sp,-48
    6c8a:	842a                	mv	s0,a0
    6c8c:	00455483          	lhu	s1,4(a0) # 400004 <_data_lma+0x3f3d98>
    6c90:	0868                	addi	a0,sp,28
    6c92:	c62e                	sw	a1,12(sp)
    6c94:	26f1                	jal	7060 <RCC_GetClocksFreq>
    6c96:	5792                	lw	a5,36(sp)
    6c98:	000f4737          	lui	a4,0xf4
    6c9c:	24070713          	addi	a4,a4,576 # f4240 <_data_lma+0xe7fd4>
    6ca0:	02e7d733          	divu	a4,a5,a4
    6ca4:	04c2                	slli	s1,s1,0x10
    6ca6:	80c1                	srli	s1,s1,0x10
    6ca8:	fc04f493          	andi	s1,s1,-64
    6cac:	04c2                	slli	s1,s1,0x10
    6cae:	80c1                	srli	s1,s1,0x10
    6cb0:	45b2                	lw	a1,12(sp)
    6cb2:	6561                	lui	a0,0x18
    6cb4:	6a050513          	addi	a0,a0,1696 # 186a0 <_data_lma+0xc434>
    6cb8:	01071613          	slli	a2,a4,0x10
    6cbc:	8241                	srli	a2,a2,0x10
    6cbe:	8cd1                	or	s1,s1,a2
    6cc0:	00941223          	sh	s1,4(s0)
    6cc4:	00045683          	lhu	a3,0(s0)
    6cc8:	06c2                	slli	a3,a3,0x10
    6cca:	82c1                	srli	a3,a3,0x10
    6ccc:	9af9                	andi	a3,a3,-2
    6cce:	06c2                	slli	a3,a3,0x10
    6cd0:	82c1                	srli	a3,a3,0x10
    6cd2:	00d41023          	sh	a3,0(s0)
    6cd6:	4194                	lw	a3,0(a1)
    6cd8:	06d56463          	bltu	a0,a3,6d40 <I2C_Init+0xbc>
    6cdc:	0686                	slli	a3,a3,0x1
    6cde:	02d7d7b3          	divu	a5,a5,a3
    6ce2:	4691                	li	a3,4
    6ce4:	01079713          	slli	a4,a5,0x10
    6ce8:	8341                	srli	a4,a4,0x10
    6cea:	87ba                	mv	a5,a4
    6cec:	00d77363          	bgeu	a4,a3,6cf2 <I2C_Init+0x6e>
    6cf0:	4791                	li	a5,4
    6cf2:	0605                	addi	a2,a2,1
    6cf4:	0642                	slli	a2,a2,0x10
    6cf6:	07c2                	slli	a5,a5,0x10
    6cf8:	8241                	srli	a2,a2,0x10
    6cfa:	83c1                	srli	a5,a5,0x10
    6cfc:	02c41023          	sh	a2,32(s0)
    6d00:	00f41e23          	sh	a5,28(s0)
    6d04:	00045783          	lhu	a5,0(s0)
    6d08:	0045d703          	lhu	a4,4(a1) # 40010004 <_eusrstack+0x2000b004>
    6d0c:	00a5d683          	lhu	a3,10(a1)
    6d10:	0017e793          	ori	a5,a5,1
    6d14:	00f41023          	sh	a5,0(s0)
    6d18:	00045783          	lhu	a5,0(s0)
    6d1c:	8f55                	or	a4,a4,a3
    6d1e:	07c2                	slli	a5,a5,0x10
    6d20:	83c1                	srli	a5,a5,0x10
    6d22:	bf57f793          	andi	a5,a5,-1035
    6d26:	8fd9                	or	a5,a5,a4
    6d28:	00f41023          	sh	a5,0(s0)
    6d2c:	0085d703          	lhu	a4,8(a1)
    6d30:	00c5d783          	lhu	a5,12(a1)
    6d34:	8fd9                	or	a5,a5,a4
    6d36:	00f41423          	sh	a5,8(s0)
    6d3a:	6145                	addi	sp,sp,48
    6d3c:	c58f906f          	j	194 <__riscv_restore_0>
    6d40:	0065d503          	lhu	a0,6(a1)
    6d44:	6631                	lui	a2,0xc
    6d46:	167d                	addi	a2,a2,-1 # bfff <MyManuInfo+0x7>
    6d48:	02c51e63          	bne	a0,a2,6d84 <I2C_Init+0x100>
    6d4c:	460d                	li	a2,3
    6d4e:	02c686b3          	mul	a3,a3,a2
    6d52:	02d7d7b3          	divu	a5,a5,a3
    6d56:	07c2                	slli	a5,a5,0x10
    6d58:	83c1                	srli	a5,a5,0x10
    6d5a:	01479693          	slli	a3,a5,0x14
    6d5e:	e299                	bnez	a3,6d64 <I2C_Init+0xe0>
    6d60:	0017e793          	ori	a5,a5,1
    6d64:	66a1                	lui	a3,0x8
    6d66:	8fd5                	or	a5,a5,a3
    6d68:	12c00693          	li	a3,300
    6d6c:	02d70733          	mul	a4,a4,a3
    6d70:	3e800693          	li	a3,1000
    6d74:	02d74733          	div	a4,a4,a3
    6d78:	0705                	addi	a4,a4,1
    6d7a:	0742                	slli	a4,a4,0x10
    6d7c:	8341                	srli	a4,a4,0x10
    6d7e:	02e41023          	sh	a4,32(s0)
    6d82:	bfbd                	j	6d00 <I2C_Init+0x7c>
    6d84:	4665                	li	a2,25
    6d86:	02c686b3          	mul	a3,a3,a2
    6d8a:	02d7d7b3          	divu	a5,a5,a3
    6d8e:	6691                	lui	a3,0x4
    6d90:	07c2                	slli	a5,a5,0x10
    6d92:	83c1                	srli	a5,a5,0x10
    6d94:	8fd5                	or	a5,a5,a3
    6d96:	b7d1                	j	6d5a <I2C_Init+0xd6>

00006d98 <I2C_Cmd>:
    6d98:	00055783          	lhu	a5,0(a0)
    6d9c:	c591                	beqz	a1,6da8 <I2C_Cmd+0x10>
    6d9e:	0017e793          	ori	a5,a5,1
    6da2:	00f51023          	sh	a5,0(a0)
    6da6:	8082                	ret
    6da8:	07c2                	slli	a5,a5,0x10
    6daa:	83c1                	srli	a5,a5,0x10
    6dac:	9bf9                	andi	a5,a5,-2
    6dae:	07c2                	slli	a5,a5,0x10
    6db0:	83c1                	srli	a5,a5,0x10
    6db2:	bfc5                	j	6da2 <I2C_Cmd+0xa>

00006db4 <I2C_GenerateSTART>:
    6db4:	00055783          	lhu	a5,0(a0)
    6db8:	c591                	beqz	a1,6dc4 <I2C_GenerateSTART+0x10>
    6dba:	1007e793          	ori	a5,a5,256
    6dbe:	00f51023          	sh	a5,0(a0)
    6dc2:	8082                	ret
    6dc4:	07c2                	slli	a5,a5,0x10
    6dc6:	83c1                	srli	a5,a5,0x10
    6dc8:	eff7f793          	andi	a5,a5,-257
    6dcc:	07c2                	slli	a5,a5,0x10
    6dce:	83c1                	srli	a5,a5,0x10
    6dd0:	b7fd                	j	6dbe <I2C_GenerateSTART+0xa>

00006dd2 <I2C_GenerateSTOP>:
    6dd2:	00055783          	lhu	a5,0(a0)
    6dd6:	c591                	beqz	a1,6de2 <I2C_GenerateSTOP+0x10>
    6dd8:	2007e793          	ori	a5,a5,512
    6ddc:	00f51023          	sh	a5,0(a0)
    6de0:	8082                	ret
    6de2:	07c2                	slli	a5,a5,0x10
    6de4:	83c1                	srli	a5,a5,0x10
    6de6:	dff7f793          	andi	a5,a5,-513
    6dea:	07c2                	slli	a5,a5,0x10
    6dec:	83c1                	srli	a5,a5,0x10
    6dee:	b7fd                	j	6ddc <I2C_GenerateSTOP+0xa>

00006df0 <I2C_AcknowledgeConfig>:
    6df0:	00055783          	lhu	a5,0(a0)
    6df4:	c591                	beqz	a1,6e00 <I2C_AcknowledgeConfig+0x10>
    6df6:	4007e793          	ori	a5,a5,1024
    6dfa:	00f51023          	sh	a5,0(a0)
    6dfe:	8082                	ret
    6e00:	07c2                	slli	a5,a5,0x10
    6e02:	83c1                	srli	a5,a5,0x10
    6e04:	bff7f793          	andi	a5,a5,-1025
    6e08:	07c2                	slli	a5,a5,0x10
    6e0a:	83c1                	srli	a5,a5,0x10
    6e0c:	b7fd                	j	6dfa <I2C_AcknowledgeConfig+0xa>

00006e0e <I2C_SendData>:
    6e0e:	00b51823          	sh	a1,16(a0)
    6e12:	8082                	ret

00006e14 <I2C_ReceiveData>:
    6e14:	01055503          	lhu	a0,16(a0)
    6e18:	0ff57513          	zext.b	a0,a0
    6e1c:	8082                	ret

00006e1e <I2C_Send7bitAddress>:
    6e1e:	0fe5f793          	andi	a5,a1,254
    6e22:	c219                	beqz	a2,6e28 <I2C_Send7bitAddress+0xa>
    6e24:	0015e793          	ori	a5,a1,1
    6e28:	07c2                	slli	a5,a5,0x10
    6e2a:	83c1                	srli	a5,a5,0x10
    6e2c:	00f51823          	sh	a5,16(a0)
    6e30:	8082                	ret

00006e32 <I2C_SoftwareResetCmd>:
    6e32:	00055783          	lhu	a5,0(a0)
    6e36:	c591                	beqz	a1,6e42 <I2C_SoftwareResetCmd+0x10>
    6e38:	6721                	lui	a4,0x8
    6e3a:	8fd9                	or	a5,a5,a4
    6e3c:	00f51023          	sh	a5,0(a0)
    6e40:	8082                	ret
    6e42:	07c6                	slli	a5,a5,0x11
    6e44:	83c5                	srli	a5,a5,0x11
    6e46:	bfdd                	j	6e3c <I2C_SoftwareResetCmd+0xa>

00006e48 <I2C_NACKPositionConfig>:
    6e48:	00055703          	lhu	a4,0(a0)
    6e4c:	80058593          	addi	a1,a1,-2048
    6e50:	e991                	bnez	a1,6e64 <I2C_NACKPositionConfig+0x1c>
    6e52:	6785                	lui	a5,0x1
    6e54:	80078793          	addi	a5,a5,-2048 # 800 <__stack_size>
    6e58:	8fd9                	or	a5,a5,a4
    6e5a:	07c2                	slli	a5,a5,0x10
    6e5c:	83c1                	srli	a5,a5,0x10
    6e5e:	00f51023          	sh	a5,0(a0)
    6e62:	8082                	ret
    6e64:	77fd                	lui	a5,0xfffff
    6e66:	7ff78793          	addi	a5,a5,2047 # fffff7ff <_eusrstack+0xdfffa7ff>
    6e6a:	8ff9                	and	a5,a5,a4
    6e6c:	bfcd                	j	6e5e <I2C_NACKPositionConfig+0x16>

00006e6e <I2C_CheckEvent>:
    6e6e:	01455783          	lhu	a5,20(a0)
    6e72:	01855503          	lhu	a0,24(a0)
    6e76:	0542                	slli	a0,a0,0x10
    6e78:	8d5d                	or	a0,a0,a5
    6e7a:	8d6d                	and	a0,a0,a1
    6e7c:	0522                	slli	a0,a0,0x8
    6e7e:	8121                	srli	a0,a0,0x8
    6e80:	8d0d                	sub	a0,a0,a1
    6e82:	00153513          	seqz	a0,a0
    6e86:	8082                	ret

00006e88 <I2C_GetFlagStatus>:
    6e88:	1141                	addi	sp,sp,-16
    6e8a:	c402                	sw	zero,8(sp)
    6e8c:	c602                	sw	zero,12(sp)
    6e8e:	01c5d793          	srli	a5,a1,0x1c
    6e92:	c62a                	sw	a0,12(sp)
    6e94:	c43e                	sw	a5,8(sp)
    6e96:	47a2                	lw	a5,8(sp)
    6e98:	05a2                	slli	a1,a1,0x8
    6e9a:	81a1                	srli	a1,a1,0x8
    6e9c:	cb99                	beqz	a5,6eb2 <I2C_GetFlagStatus+0x2a>
    6e9e:	47b2                	lw	a5,12(sp)
    6ea0:	07d1                	addi	a5,a5,20
    6ea2:	c63e                	sw	a5,12(sp)
    6ea4:	47b2                	lw	a5,12(sp)
    6ea6:	4388                	lw	a0,0(a5)
    6ea8:	0141                	addi	sp,sp,16
    6eaa:	8d6d                	and	a0,a0,a1
    6eac:	00a03533          	snez	a0,a0
    6eb0:	8082                	ret
    6eb2:	47b2                	lw	a5,12(sp)
    6eb4:	81c1                	srli	a1,a1,0x10
    6eb6:	07e1                	addi	a5,a5,24
    6eb8:	b7ed                	j	6ea2 <I2C_GetFlagStatus+0x1a>

00006eba <NVIC_PriorityGroupConfig>:
    6eba:	e000e7b7          	lui	a5,0xe000e
    6ebe:	fa050737          	lui	a4,0xfa050
    6ec2:	c7b8                	sw	a4,72(a5)
    6ec4:	a0a1ae23          	sw	a0,-1508(gp) # 20001ac4 <NVIC_Priority_Group>
    6ec8:	8082                	ret

00006eca <NVIC_Init>:
    6eca:	a1c1a683          	lw	a3,-1508(gp) # 20001ac4 <NVIC_Priority_Group>
    6ece:	4785                	li	a5,1
    6ed0:	00054703          	lbu	a4,0(a0)
    6ed4:	02f69263          	bne	a3,a5,6ef8 <NVIC_Init+0x2e>
    6ed8:	00154783          	lbu	a5,1(a0)
    6edc:	02d79d63          	bne	a5,a3,6f16 <NVIC_Init+0x4c>
    6ee0:	00254783          	lbu	a5,2(a0)
    6ee4:	0792                	slli	a5,a5,0x4
    6ee6:	f807e793          	ori	a5,a5,-128
    6eea:	e000e6b7          	lui	a3,0xe000e
    6eee:	0ff7f793          	zext.b	a5,a5
    6ef2:	96ba                	add	a3,a3,a4
    6ef4:	40f68023          	sb	a5,1024(a3) # e000e400 <_eusrstack+0xc0009400>
    6ef8:	4685                	li	a3,1
    6efa:	00575793          	srli	a5,a4,0x5
    6efe:	00e696b3          	sll	a3,a3,a4
    6f02:	4158                	lw	a4,4(a0)
    6f04:	cf11                	beqz	a4,6f20 <NVIC_Init+0x56>
    6f06:	04078793          	addi	a5,a5,64 # e000e040 <_eusrstack+0xc0009040>
    6f0a:	078a                	slli	a5,a5,0x2
    6f0c:	e000e737          	lui	a4,0xe000e
    6f10:	97ba                	add	a5,a5,a4
    6f12:	c394                	sw	a3,0(a5)
    6f14:	8082                	ret
    6f16:	f3ed                	bnez	a5,6ef8 <NVIC_Init+0x2e>
    6f18:	00254783          	lbu	a5,2(a0)
    6f1c:	0792                	slli	a5,a5,0x4
    6f1e:	b7f1                	j	6eea <NVIC_Init+0x20>
    6f20:	e000e737          	lui	a4,0xe000e
    6f24:	06078793          	addi	a5,a5,96
    6f28:	4330                	lw	a2,64(a4)
    6f2a:	45c1                	li	a1,16
    6f2c:	078a                	slli	a5,a5,0x2
    6f2e:	c32c                	sw	a1,64(a4)
    6f30:	97ba                	add	a5,a5,a4
    6f32:	c394                	sw	a3,0(a5)
    6f34:	c330                	sw	a2,64(a4)
    6f36:	8082                	ret

00006f38 <PWR_PVDCmd>:
    6f38:	40007737          	lui	a4,0x40007
    6f3c:	431c                	lw	a5,0(a4)
    6f3e:	c509                	beqz	a0,6f48 <PWR_PVDCmd+0x10>
    6f40:	0107e793          	ori	a5,a5,16
    6f44:	c31c                	sw	a5,0(a4)
    6f46:	8082                	ret
    6f48:	9bbd                	andi	a5,a5,-17
    6f4a:	bfed                	j	6f44 <PWR_PVDCmd+0xc>

00006f4c <PWR_PVDLevelConfig>:
    6f4c:	40007737          	lui	a4,0x40007
    6f50:	431c                	lw	a5,0(a4)
    6f52:	f1f7f793          	andi	a5,a5,-225
    6f56:	8d5d                	or	a0,a0,a5
    6f58:	c308                	sw	a0,0(a4)
    6f5a:	8082                	ret

00006f5c <PWR_EnterSTOPMode>:
    6f5c:	40007737          	lui	a4,0x40007
    6f60:	431c                	lw	a5,0(a4)
    6f62:	9bf1                	andi	a5,a5,-4
    6f64:	8d5d                	or	a0,a0,a5
    6f66:	c308                	sw	a0,0(a4)
    6f68:	e000f7b7          	lui	a5,0xe000f
    6f6c:	d107a703          	lw	a4,-752(a5) # e000ed10 <_eusrstack+0xc0009d10>
    6f70:	00476713          	ori	a4,a4,4
    6f74:	d0e7a823          	sw	a4,-752(a5)
    6f78:	4705                	li	a4,1
    6f7a:	02e59163          	bne	a1,a4,6f9c <PWR_EnterSTOPMode+0x40>
    6f7e:	d107a703          	lw	a4,-752(a5)
    6f82:	9b5d                	andi	a4,a4,-9
    6f84:	d0e7a823          	sw	a4,-752(a5)
    6f88:	10500073          	wfi
    6f8c:	e000f737          	lui	a4,0xe000f
    6f90:	d1072783          	lw	a5,-752(a4) # e000ed10 <_eusrstack+0xc0009d10>
    6f94:	9bed                	andi	a5,a5,-5
    6f96:	d0f72823          	sw	a5,-752(a4)
    6f9a:	8082                	ret
    6f9c:	d107a703          	lw	a4,-752(a5)
    6fa0:	02876713          	ori	a4,a4,40
    6fa4:	d0e7a823          	sw	a4,-752(a5)
    6fa8:	d107a703          	lw	a4,-752(a5)
    6fac:	00876713          	ori	a4,a4,8
    6fb0:	d0e7a823          	sw	a4,-752(a5)
    6fb4:	10500073          	wfi
    6fb8:	d107a703          	lw	a4,-752(a5)
    6fbc:	00876713          	ori	a4,a4,8
    6fc0:	b7d1                	j	6f84 <PWR_EnterSTOPMode+0x28>

00006fc2 <PWR_GetFlagStatus>:
    6fc2:	400077b7          	lui	a5,0x40007
    6fc6:	43dc                	lw	a5,4(a5)
    6fc8:	8d7d                	and	a0,a0,a5
    6fca:	00a03533          	snez	a0,a0
    6fce:	8082                	ret

00006fd0 <PWR_VDD_SupplyVoltage>:
    6fd0:	9a0f92ef          	jal	t0,170 <__riscv_save_0>
    6fd4:	a2bfe0ef          	jal	ra,59fe <SysTick_Init>
    6fd8:	4585                	li	a1,1
    6fda:	10000537          	lui	a0,0x10000
    6fde:	2aad                	jal	7158 <RCC_APB1PeriphClockCmd>
    6fe0:	0c000513          	li	a0,192
    6fe4:	f69ff0ef          	jal	ra,6f4c <PWR_PVDLevelConfig>
    6fe8:	40007737          	lui	a4,0x40007
    6fec:	431c                	lw	a5,0(a4)
    6fee:	4529                	li	a0,10
    6ff0:	0107e793          	ori	a5,a5,16
    6ff4:	c31c                	sw	a5,0(a4)
    6ff6:	ac1fe0ef          	jal	ra,5ab6 <Delay_Us>
    6ffa:	4511                	li	a0,4
    6ffc:	fc7ff0ef          	jal	ra,6fc2 <PWR_GetFlagStatus>
    7000:	842a                	mv	s0,a0
    7002:	4501                	li	a0,0
    7004:	f49ff0ef          	jal	ra,6f4c <PWR_PVDLevelConfig>
    7008:	4501                	li	a0,0
    700a:	f2fff0ef          	jal	ra,6f38 <PWR_PVDCmd>
    700e:	00803533          	snez	a0,s0
    7012:	982f906f          	j	194 <__riscv_restore_0>

00007016 <RCC_USBCLKConfig>:
    7016:	c909                	beqz	a0,7028 <RCC_USBCLKConfig+0x12>
    7018:	40021737          	lui	a4,0x40021
    701c:	435c                	lw	a5,4(a4)
    701e:	004006b7          	lui	a3,0x400
    7022:	8fd5                	or	a5,a5,a3
    7024:	c35c                	sw	a5,4(a4)
    7026:	8082                	ret
    7028:	400216b7          	lui	a3,0x40021
    702c:	42dc                	lw	a5,4(a3)
    702e:	ffc00737          	lui	a4,0xffc00
    7032:	177d                	addi	a4,a4,-1 # ffbfffff <_eusrstack+0xdfbfafff>
    7034:	8ff9                	and	a5,a5,a4
    7036:	c2dc                	sw	a5,4(a3)
    7038:	8082                	ret

0000703a <RCC_ADCCLKConfig>:
    703a:	400216b7          	lui	a3,0x40021
    703e:	42dc                	lw	a5,4(a3)
    7040:	7751                	lui	a4,0xffff4
    7042:	177d                	addi	a4,a4,-1 # ffff3fff <_eusrstack+0xdffeefff>
    7044:	8ff9                	and	a5,a5,a4
    7046:	8d5d                	or	a0,a0,a5
    7048:	c2c8                	sw	a0,4(a3)
    704a:	8082                	ret

0000704c <RCC_LSICmd>:
    704c:	40021737          	lui	a4,0x40021
    7050:	535c                	lw	a5,36(a4)
    7052:	c509                	beqz	a0,705c <RCC_LSICmd+0x10>
    7054:	0017e793          	ori	a5,a5,1
    7058:	d35c                	sw	a5,36(a4)
    705a:	8082                	ret
    705c:	9bf9                	andi	a5,a5,-2
    705e:	bfed                	j	7058 <RCC_LSICmd+0xc>

00007060 <RCC_GetClocksFreq>:
    7060:	40021737          	lui	a4,0x40021
    7064:	435c                	lw	a5,4(a4)
    7066:	4691                	li	a3,4
    7068:	8bb1                	andi	a5,a5,12
    706a:	00d78563          	beq	a5,a3,7074 <RCC_GetClocksFreq+0x14>
    706e:	46a1                	li	a3,8
    7070:	06d78663          	beq	a5,a3,70dc <RCC_GetClocksFreq+0x7c>
    7074:	007a17b7          	lui	a5,0x7a1
    7078:	20078793          	addi	a5,a5,512 # 7a1200 <_data_lma+0x794f94>
    707c:	c11c                	sw	a5,0(a0)
    707e:	40021637          	lui	a2,0x40021
    7082:	425c                	lw	a5,4(a2)
    7084:	20002737          	lui	a4,0x20002
    7088:	83470713          	addi	a4,a4,-1996 # 20001834 <APBAHBPrescTable>
    708c:	8391                	srli	a5,a5,0x4
    708e:	8bbd                	andi	a5,a5,15
    7090:	97ba                	add	a5,a5,a4
    7092:	0007c683          	lbu	a3,0(a5)
    7096:	411c                	lw	a5,0(a0)
    7098:	00d7d7b3          	srl	a5,a5,a3
    709c:	c15c                	sw	a5,4(a0)
    709e:	4254                	lw	a3,4(a2)
    70a0:	82a1                	srli	a3,a3,0x8
    70a2:	8a9d                	andi	a3,a3,7
    70a4:	96ba                	add	a3,a3,a4
    70a6:	0006c683          	lbu	a3,0(a3) # 40021000 <_eusrstack+0x2001c000>
    70aa:	00d7d6b3          	srl	a3,a5,a3
    70ae:	c514                	sw	a3,8(a0)
    70b0:	4254                	lw	a3,4(a2)
    70b2:	82ad                	srli	a3,a3,0xb
    70b4:	8a9d                	andi	a3,a3,7
    70b6:	9736                	add	a4,a4,a3
    70b8:	00074703          	lbu	a4,0(a4)
    70bc:	00e7d7b3          	srl	a5,a5,a4
    70c0:	c55c                	sw	a5,12(a0)
    70c2:	4258                	lw	a4,4(a2)
    70c4:	8339                	srli	a4,a4,0xe
    70c6:	00377693          	andi	a3,a4,3
    70ca:	81818713          	addi	a4,gp,-2024 # 200018c0 <ADCPrescTable>
    70ce:	9736                	add	a4,a4,a3
    70d0:	00074703          	lbu	a4,0(a4)
    70d4:	02e7d7b3          	divu	a5,a5,a4
    70d8:	c91c                	sw	a5,16(a0)
    70da:	8082                	ret
    70dc:	435c                	lw	a5,4(a4)
    70de:	4354                	lw	a3,4(a4)
    70e0:	83c9                	srli	a5,a5,0x12
    70e2:	8bbd                	andi	a5,a5,15
    70e4:	00f69613          	slli	a2,a3,0xf
    70e8:	0789                	addi	a5,a5,2
    70ea:	00064d63          	bltz	a2,7104 <RCC_GetClocksFreq+0xa4>
    70ee:	40024737          	lui	a4,0x40024
    70f2:	80072703          	lw	a4,-2048(a4) # 40023800 <_eusrstack+0x2001e800>
    70f6:	8b41                	andi	a4,a4,16
    70f8:	cb19                	beqz	a4,710e <RCC_GetClocksFreq+0xae>
    70fa:	007a1737          	lui	a4,0x7a1
    70fe:	20070713          	addi	a4,a4,512 # 7a1200 <_data_lma+0x794f94>
    7102:	a811                	j	7116 <RCC_GetClocksFreq+0xb6>
    7104:	4358                	lw	a4,4(a4)
    7106:	00e71693          	slli	a3,a4,0xe
    710a:	fe06d8e3          	bgez	a3,70fa <RCC_GetClocksFreq+0x9a>
    710e:	003d1737          	lui	a4,0x3d1
    7112:	90070713          	addi	a4,a4,-1792 # 3d0900 <_data_lma+0x3c4694>
    7116:	02e787b3          	mul	a5,a5,a4
    711a:	b78d                	j	707c <RCC_GetClocksFreq+0x1c>

0000711c <RCC_AHBPeriphClockCmd>:
    711c:	c599                	beqz	a1,712a <RCC_AHBPeriphClockCmd+0xe>
    711e:	40021737          	lui	a4,0x40021
    7122:	4b5c                	lw	a5,20(a4)
    7124:	8d5d                	or	a0,a0,a5
    7126:	cb48                	sw	a0,20(a4)
    7128:	8082                	ret
    712a:	400217b7          	lui	a5,0x40021
    712e:	4bd8                	lw	a4,20(a5)
    7130:	fff54513          	not	a0,a0
    7134:	8d79                	and	a0,a0,a4
    7136:	cbc8                	sw	a0,20(a5)
    7138:	8082                	ret

0000713a <RCC_APB2PeriphClockCmd>:
    713a:	c599                	beqz	a1,7148 <RCC_APB2PeriphClockCmd+0xe>
    713c:	40021737          	lui	a4,0x40021
    7140:	4f1c                	lw	a5,24(a4)
    7142:	8d5d                	or	a0,a0,a5
    7144:	cf08                	sw	a0,24(a4)
    7146:	8082                	ret
    7148:	400217b7          	lui	a5,0x40021
    714c:	4f98                	lw	a4,24(a5)
    714e:	fff54513          	not	a0,a0
    7152:	8d79                	and	a0,a0,a4
    7154:	cf88                	sw	a0,24(a5)
    7156:	8082                	ret

00007158 <RCC_APB1PeriphClockCmd>:
    7158:	c599                	beqz	a1,7166 <RCC_APB1PeriphClockCmd+0xe>
    715a:	40021737          	lui	a4,0x40021
    715e:	4f5c                	lw	a5,28(a4)
    7160:	8d5d                	or	a0,a0,a5
    7162:	cf48                	sw	a0,28(a4)
    7164:	8082                	ret
    7166:	400217b7          	lui	a5,0x40021
    716a:	4fd8                	lw	a4,28(a5)
    716c:	fff54513          	not	a0,a0
    7170:	8d79                	and	a0,a0,a4
    7172:	cfc8                	sw	a0,28(a5)
    7174:	8082                	ret

00007176 <RCC_APB2PeriphResetCmd>:
    7176:	c599                	beqz	a1,7184 <RCC_APB2PeriphResetCmd+0xe>
    7178:	40021737          	lui	a4,0x40021
    717c:	475c                	lw	a5,12(a4)
    717e:	8d5d                	or	a0,a0,a5
    7180:	c748                	sw	a0,12(a4)
    7182:	8082                	ret
    7184:	400217b7          	lui	a5,0x40021
    7188:	47d8                	lw	a4,12(a5)
    718a:	fff54513          	not	a0,a0
    718e:	8d79                	and	a0,a0,a4
    7190:	c7c8                	sw	a0,12(a5)
    7192:	8082                	ret

00007194 <RCC_APB1PeriphResetCmd>:
    7194:	c599                	beqz	a1,71a2 <RCC_APB1PeriphResetCmd+0xe>
    7196:	40021737          	lui	a4,0x40021
    719a:	4b1c                	lw	a5,16(a4)
    719c:	8d5d                	or	a0,a0,a5
    719e:	cb08                	sw	a0,16(a4)
    71a0:	8082                	ret
    71a2:	400217b7          	lui	a5,0x40021
    71a6:	4b98                	lw	a4,16(a5)
    71a8:	fff54513          	not	a0,a0
    71ac:	8d79                	and	a0,a0,a4
    71ae:	cb88                	sw	a0,16(a5)
    71b0:	8082                	ret

000071b2 <RCC_GetFlagStatus>:
    71b2:	00555793          	srli	a5,a0,0x5
    71b6:	4705                	li	a4,1
    71b8:	00e79963          	bne	a5,a4,71ca <RCC_GetFlagStatus+0x18>
    71bc:	400217b7          	lui	a5,0x40021
    71c0:	439c                	lw	a5,0(a5)
    71c2:	00a7d533          	srl	a0,a5,a0
    71c6:	8905                	andi	a0,a0,1
    71c8:	8082                	ret
    71ca:	4709                	li	a4,2
    71cc:	00e79663          	bne	a5,a4,71d8 <RCC_GetFlagStatus+0x26>
    71d0:	400217b7          	lui	a5,0x40021
    71d4:	539c                	lw	a5,32(a5)
    71d6:	b7f5                	j	71c2 <RCC_GetFlagStatus+0x10>
    71d8:	400217b7          	lui	a5,0x40021
    71dc:	53dc                	lw	a5,36(a5)
    71de:	b7d5                	j	71c2 <RCC_GetFlagStatus+0x10>

000071e0 <SPI_Init>:
    71e0:	00055703          	lhu	a4,0(a0) # 10000000 <_data_lma+0xfff3d94>
    71e4:	678d                	lui	a5,0x3
    71e6:	04078793          	addi	a5,a5,64 # 3040 <_imu_update_quaternion+0x10a>
    71ea:	0025d683          	lhu	a3,2(a1)
    71ee:	8f7d                	and	a4,a4,a5
    71f0:	0005d783          	lhu	a5,0(a1)
    71f4:	8fd5                	or	a5,a5,a3
    71f6:	0045d683          	lhu	a3,4(a1)
    71fa:	8fd5                	or	a5,a5,a3
    71fc:	0065d683          	lhu	a3,6(a1)
    7200:	8fd5                	or	a5,a5,a3
    7202:	0085d683          	lhu	a3,8(a1)
    7206:	8fd5                	or	a5,a5,a3
    7208:	00a5d683          	lhu	a3,10(a1)
    720c:	8fd5                	or	a5,a5,a3
    720e:	00c5d683          	lhu	a3,12(a1)
    7212:	8fd5                	or	a5,a5,a3
    7214:	00e5d683          	lhu	a3,14(a1)
    7218:	8fd5                	or	a5,a5,a3
    721a:	8fd9                	or	a5,a5,a4
    721c:	00f51023          	sh	a5,0(a0)
    7220:	01c55703          	lhu	a4,28(a0)
    7224:	77fd                	lui	a5,0xfffff
    7226:	7ff78793          	addi	a5,a5,2047 # fffff7ff <_eusrstack+0xdfffa7ff>
    722a:	8ff9                	and	a5,a5,a4
    722c:	00f51e23          	sh	a5,28(a0)
    7230:	0105d783          	lhu	a5,16(a1)
    7234:	00f51823          	sh	a5,16(a0)
    7238:	8082                	ret

0000723a <SPI_Cmd>:
    723a:	00055783          	lhu	a5,0(a0)
    723e:	c591                	beqz	a1,724a <SPI_Cmd+0x10>
    7240:	0407e793          	ori	a5,a5,64
    7244:	00f51023          	sh	a5,0(a0)
    7248:	8082                	ret
    724a:	07c2                	slli	a5,a5,0x10
    724c:	83c1                	srli	a5,a5,0x10
    724e:	fbf7f793          	andi	a5,a5,-65
    7252:	07c2                	slli	a5,a5,0x10
    7254:	83c1                	srli	a5,a5,0x10
    7256:	b7fd                	j	7244 <SPI_Cmd+0xa>

00007258 <SPI_I2S_DMACmd>:
    7258:	00455783          	lhu	a5,4(a0)
    725c:	c609                	beqz	a2,7266 <SPI_I2S_DMACmd+0xe>
    725e:	8ddd                	or	a1,a1,a5
    7260:	00b51223          	sh	a1,4(a0)
    7264:	8082                	ret
    7266:	fff5c593          	not	a1,a1
    726a:	8dfd                	and	a1,a1,a5
    726c:	bfd5                	j	7260 <SPI_I2S_DMACmd+0x8>

0000726e <TIM_TimeBaseInit>:
    726e:	00055783          	lhu	a5,0(a0)
    7272:	40013737          	lui	a4,0x40013
    7276:	c0070713          	addi	a4,a4,-1024 # 40012c00 <_eusrstack+0x2000dc00>
    727a:	07c2                	slli	a5,a5,0x10
    727c:	83c1                	srli	a5,a5,0x10
    727e:	02e50063          	beq	a0,a4,729e <TIM_TimeBaseInit+0x30>
    7282:	40000737          	lui	a4,0x40000
    7286:	00e50c63          	beq	a0,a4,729e <TIM_TimeBaseInit+0x30>
    728a:	40070713          	addi	a4,a4,1024 # 40000400 <_eusrstack+0x1fffb400>
    728e:	00e50863          	beq	a0,a4,729e <TIM_TimeBaseInit+0x30>
    7292:	40001737          	lui	a4,0x40001
    7296:	80070713          	addi	a4,a4,-2048 # 40000800 <_eusrstack+0x1fffb800>
    729a:	00e51763          	bne	a0,a4,72a8 <TIM_TimeBaseInit+0x3a>
    729e:	0025d703          	lhu	a4,2(a1)
    72a2:	f8f7f793          	andi	a5,a5,-113
    72a6:	8fd9                	or	a5,a5,a4
    72a8:	0065d703          	lhu	a4,6(a1)
    72ac:	cff7f793          	andi	a5,a5,-769
    72b0:	07c2                	slli	a5,a5,0x10
    72b2:	83c1                	srli	a5,a5,0x10
    72b4:	8fd9                	or	a5,a5,a4
    72b6:	00f51023          	sh	a5,0(a0)
    72ba:	0045d783          	lhu	a5,4(a1)
    72be:	02f51623          	sh	a5,44(a0)
    72c2:	0005d783          	lhu	a5,0(a1)
    72c6:	02f51423          	sh	a5,40(a0)
    72ca:	400137b7          	lui	a5,0x40013
    72ce:	c0078793          	addi	a5,a5,-1024 # 40012c00 <_eusrstack+0x2000dc00>
    72d2:	00f51663          	bne	a0,a5,72de <TIM_TimeBaseInit+0x70>
    72d6:	0085c783          	lbu	a5,8(a1)
    72da:	02f51823          	sh	a5,48(a0)
    72de:	4785                	li	a5,1
    72e0:	00f51a23          	sh	a5,20(a0)
    72e4:	8082                	ret

000072e6 <TIM_OC1Init>:
    72e6:	02055783          	lhu	a5,32(a0)
    72ea:	0005d603          	lhu	a2,0(a1)
    72ee:	0025d803          	lhu	a6,2(a1)
    72f2:	07c2                	slli	a5,a5,0x10
    72f4:	83c1                	srli	a5,a5,0x10
    72f6:	9bf9                	andi	a5,a5,-2
    72f8:	07c2                	slli	a5,a5,0x10
    72fa:	83c1                	srli	a5,a5,0x10
    72fc:	02f51023          	sh	a5,32(a0)
    7300:	02055783          	lhu	a5,32(a0)
    7304:	00455683          	lhu	a3,4(a0)
    7308:	01855703          	lhu	a4,24(a0)
    730c:	07c2                	slli	a5,a5,0x10
    730e:	83c1                	srli	a5,a5,0x10
    7310:	0742                	slli	a4,a4,0x10
    7312:	8341                	srli	a4,a4,0x10
    7314:	f8c77713          	andi	a4,a4,-116
    7318:	8f51                	or	a4,a4,a2
    731a:	0085d603          	lhu	a2,8(a1)
    731e:	9bf5                	andi	a5,a5,-3
    7320:	06c2                	slli	a3,a3,0x10
    7322:	01066633          	or	a2,a2,a6
    7326:	8fd1                	or	a5,a5,a2
    7328:	40013637          	lui	a2,0x40013
    732c:	c0060613          	addi	a2,a2,-1024 # 40012c00 <_eusrstack+0x2000dc00>
    7330:	82c1                	srli	a3,a3,0x10
    7332:	02c51363          	bne	a0,a2,7358 <TIM_OC1Init+0x72>
    7336:	00a5d603          	lhu	a2,10(a1)
    733a:	9bdd                	andi	a5,a5,-9
    733c:	00e5d803          	lhu	a6,14(a1)
    7340:	8fd1                	or	a5,a5,a2
    7342:	0045d603          	lhu	a2,4(a1)
    7346:	9bed                	andi	a5,a5,-5
    7348:	cff6f693          	andi	a3,a3,-769
    734c:	8fd1                	or	a5,a5,a2
    734e:	00c5d603          	lhu	a2,12(a1)
    7352:	01066633          	or	a2,a2,a6
    7356:	8ed1                	or	a3,a3,a2
    7358:	00d51223          	sh	a3,4(a0)
    735c:	00e51c23          	sh	a4,24(a0)
    7360:	0065d703          	lhu	a4,6(a1)
    7364:	02e51a23          	sh	a4,52(a0)
    7368:	02f51023          	sh	a5,32(a0)
    736c:	8082                	ret

0000736e <TIM_OC3Init>:
    736e:	02055783          	lhu	a5,32(a0)
    7372:	0085d803          	lhu	a6,8(a1)
    7376:	07c2                	slli	a5,a5,0x10
    7378:	83c1                	srli	a5,a5,0x10
    737a:	eff7f793          	andi	a5,a5,-257
    737e:	07c2                	slli	a5,a5,0x10
    7380:	83c1                	srli	a5,a5,0x10
    7382:	02f51023          	sh	a5,32(a0)
    7386:	02055783          	lhu	a5,32(a0)
    738a:	00455683          	lhu	a3,4(a0)
    738e:	01c55703          	lhu	a4,28(a0)
    7392:	07c2                	slli	a5,a5,0x10
    7394:	01069613          	slli	a2,a3,0x10
    7398:	0742                	slli	a4,a4,0x10
    739a:	0005d683          	lhu	a3,0(a1)
    739e:	8341                	srli	a4,a4,0x10
    73a0:	f8c77713          	andi	a4,a4,-116
    73a4:	8f55                	or	a4,a4,a3
    73a6:	0025d683          	lhu	a3,2(a1)
    73aa:	83c1                	srli	a5,a5,0x10
    73ac:	dff7f793          	andi	a5,a5,-513
    73b0:	0106e6b3          	or	a3,a3,a6
    73b4:	06a2                	slli	a3,a3,0x8
    73b6:	8fd5                	or	a5,a5,a3
    73b8:	400136b7          	lui	a3,0x40013
    73bc:	07c2                	slli	a5,a5,0x10
    73be:	c0068693          	addi	a3,a3,-1024 # 40012c00 <_eusrstack+0x2000dc00>
    73c2:	8241                	srli	a2,a2,0x10
    73c4:	83c1                	srli	a5,a5,0x10
    73c6:	04d51263          	bne	a0,a3,740a <TIM_OC3Init+0x9c>
    73ca:	76fd                	lui	a3,0xfffff
    73cc:	7ff68693          	addi	a3,a3,2047 # fffff7ff <_eusrstack+0xdfffa7ff>
    73d0:	8ff5                	and	a5,a5,a3
    73d2:	00a5d683          	lhu	a3,10(a1)
    73d6:	00c5d803          	lhu	a6,12(a1)
    73da:	06a2                	slli	a3,a3,0x8
    73dc:	8fd5                	or	a5,a5,a3
    73de:	0045d683          	lhu	a3,4(a1)
    73e2:	07c2                	slli	a5,a5,0x10
    73e4:	83c1                	srli	a5,a5,0x10
    73e6:	06a2                	slli	a3,a3,0x8
    73e8:	bff7f793          	andi	a5,a5,-1025
    73ec:	8fd5                	or	a5,a5,a3
    73ee:	76f5                	lui	a3,0xffffd
    73f0:	16fd                	addi	a3,a3,-1 # ffffcfff <_eusrstack+0xdfff7fff>
    73f2:	8ef1                	and	a3,a3,a2
    73f4:	00e5d603          	lhu	a2,14(a1)
    73f8:	07c2                	slli	a5,a5,0x10
    73fa:	83c1                	srli	a5,a5,0x10
    73fc:	01066633          	or	a2,a2,a6
    7400:	0612                	slli	a2,a2,0x4
    7402:	8ed1                	or	a3,a3,a2
    7404:	01069613          	slli	a2,a3,0x10
    7408:	8241                	srli	a2,a2,0x10
    740a:	00c51223          	sh	a2,4(a0)
    740e:	00e51e23          	sh	a4,28(a0)
    7412:	0065d703          	lhu	a4,6(a1)
    7416:	02e51e23          	sh	a4,60(a0)
    741a:	02f51023          	sh	a5,32(a0)
    741e:	8082                	ret

00007420 <TIM_OC4Init>:
    7420:	02055703          	lhu	a4,32(a0)
    7424:	77fd                	lui	a5,0xfffff
    7426:	17fd                	addi	a5,a5,-1 # ffffefff <_eusrstack+0xdfff9fff>
    7428:	8ff9                	and	a5,a5,a4
    742a:	02f51023          	sh	a5,32(a0)
    742e:	02055803          	lhu	a6,32(a0)
    7432:	00455683          	lhu	a3,4(a0)
    7436:	01c55783          	lhu	a5,28(a0)
    743a:	7765                	lui	a4,0xffff9
    743c:	0005d603          	lhu	a2,0(a1)
    7440:	cff70713          	addi	a4,a4,-769 # ffff8cff <_eusrstack+0xdfff3cff>
    7444:	8f7d                	and	a4,a4,a5
    7446:	77f9                	lui	a5,0xffffe
    7448:	0622                	slli	a2,a2,0x8
    744a:	17fd                	addi	a5,a5,-1 # ffffdfff <_eusrstack+0xdfff8fff>
    744c:	8f51                	or	a4,a4,a2
    744e:	0107f7b3          	and	a5,a5,a6
    7452:	0025d603          	lhu	a2,2(a1)
    7456:	0085d803          	lhu	a6,8(a1)
    745a:	06c2                	slli	a3,a3,0x10
    745c:	0742                	slli	a4,a4,0x10
    745e:	01066633          	or	a2,a2,a6
    7462:	0632                	slli	a2,a2,0xc
    7464:	8fd1                	or	a5,a5,a2
    7466:	40013637          	lui	a2,0x40013
    746a:	07c2                	slli	a5,a5,0x10
    746c:	c0060613          	addi	a2,a2,-1024 # 40012c00 <_eusrstack+0x2000dc00>
    7470:	82c1                	srli	a3,a3,0x10
    7472:	8341                	srli	a4,a4,0x10
    7474:	83c1                	srli	a5,a5,0x10
    7476:	00c51b63          	bne	a0,a2,748c <TIM_OC4Init+0x6c>
    747a:	7671                	lui	a2,0xffffc
    747c:	167d                	addi	a2,a2,-1 # ffffbfff <_eusrstack+0xdfff6fff>
    747e:	8ef1                	and	a3,a3,a2
    7480:	00c5d603          	lhu	a2,12(a1)
    7484:	061a                	slli	a2,a2,0x6
    7486:	8ed1                	or	a3,a3,a2
    7488:	06c2                	slli	a3,a3,0x10
    748a:	82c1                	srli	a3,a3,0x10
    748c:	00d51223          	sh	a3,4(a0)
    7490:	00e51e23          	sh	a4,28(a0)
    7494:	0065d703          	lhu	a4,6(a1)
    7498:	04e51023          	sh	a4,64(a0)
    749c:	02f51023          	sh	a5,32(a0)
    74a0:	8082                	ret

000074a2 <TIM_Cmd>:
    74a2:	00055783          	lhu	a5,0(a0)
    74a6:	c591                	beqz	a1,74b2 <TIM_Cmd+0x10>
    74a8:	0017e793          	ori	a5,a5,1
    74ac:	00f51023          	sh	a5,0(a0)
    74b0:	8082                	ret
    74b2:	07c2                	slli	a5,a5,0x10
    74b4:	83c1                	srli	a5,a5,0x10
    74b6:	9bf9                	andi	a5,a5,-2
    74b8:	07c2                	slli	a5,a5,0x10
    74ba:	83c1                	srli	a5,a5,0x10
    74bc:	bfc5                	j	74ac <TIM_Cmd+0xa>

000074be <TIM_CtrlPWMOutputs>:
    74be:	04455783          	lhu	a5,68(a0)
    74c2:	c591                	beqz	a1,74ce <TIM_CtrlPWMOutputs+0x10>
    74c4:	6721                	lui	a4,0x8
    74c6:	8fd9                	or	a5,a5,a4
    74c8:	04f51223          	sh	a5,68(a0)
    74cc:	8082                	ret
    74ce:	07c6                	slli	a5,a5,0x11
    74d0:	83c5                	srli	a5,a5,0x11
    74d2:	bfdd                	j	74c8 <TIM_CtrlPWMOutputs+0xa>

000074d4 <TIM_ITConfig>:
    74d4:	00c55783          	lhu	a5,12(a0)
    74d8:	c609                	beqz	a2,74e2 <TIM_ITConfig+0xe>
    74da:	8ddd                	or	a1,a1,a5
    74dc:	00b51623          	sh	a1,12(a0)
    74e0:	8082                	ret
    74e2:	fff5c593          	not	a1,a1
    74e6:	8dfd                	and	a1,a1,a5
    74e8:	bfd5                	j	74dc <TIM_ITConfig+0x8>

000074ea <TIM_ARRPreloadConfig>:
    74ea:	00055783          	lhu	a5,0(a0)
    74ee:	c591                	beqz	a1,74fa <TIM_ARRPreloadConfig+0x10>
    74f0:	0807e793          	ori	a5,a5,128
    74f4:	00f51023          	sh	a5,0(a0)
    74f8:	8082                	ret
    74fa:	07c2                	slli	a5,a5,0x10
    74fc:	83c1                	srli	a5,a5,0x10
    74fe:	f7f7f793          	andi	a5,a5,-129
    7502:	07c2                	slli	a5,a5,0x10
    7504:	83c1                	srli	a5,a5,0x10
    7506:	b7fd                	j	74f4 <TIM_ARRPreloadConfig+0xa>

00007508 <TIM_OC1PreloadConfig>:
    7508:	01855783          	lhu	a5,24(a0)
    750c:	07c2                	slli	a5,a5,0x10
    750e:	83c1                	srli	a5,a5,0x10
    7510:	9bdd                	andi	a5,a5,-9
    7512:	8ddd                	or	a1,a1,a5
    7514:	00b51c23          	sh	a1,24(a0)
    7518:	8082                	ret

0000751a <TIM_OC2PreloadConfig>:
    751a:	01855703          	lhu	a4,24(a0)
    751e:	77fd                	lui	a5,0xfffff
    7520:	7ff78793          	addi	a5,a5,2047 # fffff7ff <_eusrstack+0xdfffa7ff>
    7524:	8ff9                	and	a5,a5,a4
    7526:	05a2                	slli	a1,a1,0x8
    7528:	8fcd                	or	a5,a5,a1
    752a:	07c2                	slli	a5,a5,0x10
    752c:	83c1                	srli	a5,a5,0x10
    752e:	00f51c23          	sh	a5,24(a0)
    7532:	8082                	ret

00007534 <TIM_OC3PreloadConfig>:
    7534:	01c55783          	lhu	a5,28(a0)
    7538:	07c2                	slli	a5,a5,0x10
    753a:	83c1                	srli	a5,a5,0x10
    753c:	9bdd                	andi	a5,a5,-9
    753e:	8ddd                	or	a1,a1,a5
    7540:	00b51e23          	sh	a1,28(a0)
    7544:	8082                	ret

00007546 <TIM_OC4PreloadConfig>:
    7546:	01c55703          	lhu	a4,28(a0)
    754a:	77fd                	lui	a5,0xfffff
    754c:	7ff78793          	addi	a5,a5,2047 # fffff7ff <_eusrstack+0xdfffa7ff>
    7550:	8ff9                	and	a5,a5,a4
    7552:	05a2                	slli	a1,a1,0x8
    7554:	8fcd                	or	a5,a5,a1
    7556:	07c2                	slli	a5,a5,0x10
    7558:	83c1                	srli	a5,a5,0x10
    755a:	00f51e23          	sh	a5,28(a0)
    755e:	8082                	ret

00007560 <TIM_SetCompare1>:
    7560:	02b51a23          	sh	a1,52(a0)
    7564:	8082                	ret

00007566 <TIM_SetCompare2>:
    7566:	02b51c23          	sh	a1,56(a0)
    756a:	8082                	ret

0000756c <TIM_SetCompare3>:
    756c:	02b51e23          	sh	a1,60(a0)
    7570:	8082                	ret

00007572 <TIM_SetCompare4>:
    7572:	04b51023          	sh	a1,64(a0)
    7576:	8082                	ret

00007578 <TIM_GetFlagStatus>:
    7578:	01055503          	lhu	a0,16(a0)
    757c:	8d6d                	and	a0,a0,a1
    757e:	00a03533          	snez	a0,a0
    7582:	8082                	ret

00007584 <TIM_GetITStatus>:
    7584:	01055783          	lhu	a5,16(a0)
    7588:	00c55503          	lhu	a0,12(a0)
    758c:	8fed                	and	a5,a5,a1
    758e:	0542                	slli	a0,a0,0x10
    7590:	8141                	srli	a0,a0,0x10
    7592:	c789                	beqz	a5,759c <TIM_GetITStatus+0x18>
    7594:	8d6d                	and	a0,a0,a1
    7596:	00a03533          	snez	a0,a0
    759a:	8082                	ret
    759c:	4501                	li	a0,0
    759e:	8082                	ret

000075a0 <TIM_ClearITPendingBit>:
    75a0:	fff5c593          	not	a1,a1
    75a4:	05c2                	slli	a1,a1,0x10
    75a6:	81c1                	srli	a1,a1,0x10
    75a8:	00b51823          	sh	a1,16(a0)
    75ac:	8082                	ret

000075ae <USART_Init>:
    75ae:	bc3f82ef          	jal	t0,170 <__riscv_save_0>
    75b2:	01055683          	lhu	a3,16(a0)
    75b6:	77f5                	lui	a5,0xffffd
    75b8:	17fd                	addi	a5,a5,-1 # ffffcfff <_eusrstack+0xdfff7fff>
    75ba:	8ff5                	and	a5,a5,a3
    75bc:	0065d683          	lhu	a3,6(a1)
    75c0:	00c5d703          	lhu	a4,12(a1)
    75c4:	7179                	addi	sp,sp,-48
    75c6:	8fd5                	or	a5,a5,a3
    75c8:	00f51823          	sh	a5,16(a0)
    75cc:	00c55683          	lhu	a3,12(a0)
    75d0:	77fd                	lui	a5,0xfffff
    75d2:	9f378793          	addi	a5,a5,-1549 # ffffe9f3 <_eusrstack+0xdfff99f3>
    75d6:	8ff5                	and	a5,a5,a3
    75d8:	0045d683          	lhu	a3,4(a1)
    75dc:	842a                	mv	s0,a0
    75de:	c62e                	sw	a1,12(sp)
    75e0:	8fd5                	or	a5,a5,a3
    75e2:	0085d683          	lhu	a3,8(a1)
    75e6:	8fd5                	or	a5,a5,a3
    75e8:	00a5d683          	lhu	a3,10(a1)
    75ec:	8fd5                	or	a5,a5,a3
    75ee:	00f51623          	sh	a5,12(a0)
    75f2:	01455783          	lhu	a5,20(a0)
    75f6:	07c2                	slli	a5,a5,0x10
    75f8:	83c1                	srli	a5,a5,0x10
    75fa:	cff7f793          	andi	a5,a5,-769
    75fe:	8fd9                	or	a5,a5,a4
    7600:	00f51a23          	sh	a5,20(a0)
    7604:	0868                	addi	a0,sp,28
    7606:	a5bff0ef          	jal	ra,7060 <RCC_GetClocksFreq>
    760a:	400147b7          	lui	a5,0x40014
    760e:	80078793          	addi	a5,a5,-2048 # 40013800 <_eusrstack+0x2000e800>
    7612:	45b2                	lw	a1,12(sp)
    7614:	02f41f63          	bne	s0,a5,7652 <USART_Init+0xa4>
    7618:	57a2                	lw	a5,40(sp)
    761a:	4765                	li	a4,25
    761c:	02e787b3          	mul	a5,a5,a4
    7620:	4198                	lw	a4,0(a1)
    7622:	06400693          	li	a3,100
    7626:	070a                	slli	a4,a4,0x2
    7628:	02e7d7b3          	divu	a5,a5,a4
    762c:	02d7d733          	divu	a4,a5,a3
    7630:	02d7f7b3          	remu	a5,a5,a3
    7634:	0712                	slli	a4,a4,0x4
    7636:	0792                	slli	a5,a5,0x4
    7638:	03278793          	addi	a5,a5,50
    763c:	02d7d7b3          	divu	a5,a5,a3
    7640:	8bbd                	andi	a5,a5,15
    7642:	8fd9                	or	a5,a5,a4
    7644:	07c2                	slli	a5,a5,0x10
    7646:	83c1                	srli	a5,a5,0x10
    7648:	00f41423          	sh	a5,8(s0)
    764c:	6145                	addi	sp,sp,48
    764e:	b47f806f          	j	194 <__riscv_restore_0>
    7652:	5792                	lw	a5,36(sp)
    7654:	b7d9                	j	761a <USART_Init+0x6c>

00007656 <USART_Cmd>:
    7656:	c981                	beqz	a1,7666 <USART_Cmd+0x10>
    7658:	00c55783          	lhu	a5,12(a0)
    765c:	6709                	lui	a4,0x2
    765e:	8fd9                	or	a5,a5,a4
    7660:	00f51623          	sh	a5,12(a0)
    7664:	8082                	ret
    7666:	00c55703          	lhu	a4,12(a0)
    766a:	77f9                	lui	a5,0xffffe
    766c:	17fd                	addi	a5,a5,-1 # ffffdfff <_eusrstack+0xdfff8fff>
    766e:	8ff9                	and	a5,a5,a4
    7670:	bfc5                	j	7660 <USART_Cmd+0xa>

00007672 <USART_DMACmd>:
    7672:	01455783          	lhu	a5,20(a0)
    7676:	c609                	beqz	a2,7680 <USART_DMACmd+0xe>
    7678:	8ddd                	or	a1,a1,a5
    767a:	00b51a23          	sh	a1,20(a0)
    767e:	8082                	ret
    7680:	fff5c593          	not	a1,a1
    7684:	8dfd                	and	a1,a1,a5
    7686:	bfd5                	j	767a <USART_DMACmd+0x8>

00007688 <USART_GetFlagStatus>:
    7688:	00055503          	lhu	a0,0(a0)
    768c:	8d6d                	and	a0,a0,a1
    768e:	00a03533          	snez	a0,a0
    7692:	8082                	ret

00007694 <USART_ClearFlag>:
    7694:	fff5c593          	not	a1,a1
    7698:	05c2                	slli	a1,a1,0x10
    769a:	81c1                	srli	a1,a1,0x10
    769c:	00b51023          	sh	a1,0(a0)
    76a0:	8082                	ret

000076a2 <USART_Printf_Init>:
    76a2:	8082                	ret

000076a4 <_write>:
    76a4:	8532                	mv	a0,a2
    76a6:	8082                	ret

000076a8 <sqrtf>:
    76a8:	1141                	addi	sp,sp,-16
    76aa:	c422                	sw	s0,8(sp)
    76ac:	c226                	sw	s1,4(sp)
    76ae:	c606                	sw	ra,12(sp)
    76b0:	84aa                	mv	s1,a0
    76b2:	283d                	jal	76f0 <__ieee754_sqrtf>
    76b4:	842a                	mv	s0,a0
    76b6:	85a6                	mv	a1,s1
    76b8:	8526                	mv	a0,s1
    76ba:	3ab030ef          	jal	ra,b264 <__unordsf2>
    76be:	e11d                	bnez	a0,76e4 <sqrtf+0x3c>
    76c0:	00000593          	li	a1,0
    76c4:	8526                	mv	a0,s1
    76c6:	49e030ef          	jal	ra,ab64 <__lesf2>
    76ca:	00055d63          	bgez	a0,76e4 <sqrtf+0x3c>
    76ce:	01e040ef          	jal	ra,b6ec <__errno>
    76d2:	02100793          	li	a5,33
    76d6:	00000593          	li	a1,0
    76da:	c11c                	sw	a5,0(a0)
    76dc:	852e                	mv	a0,a1
    76de:	106030ef          	jal	ra,a7e4 <__divsf3>
    76e2:	842a                	mv	s0,a0
    76e4:	40b2                	lw	ra,12(sp)
    76e6:	8522                	mv	a0,s0
    76e8:	4422                	lw	s0,8(sp)
    76ea:	4492                	lw	s1,4(sp)
    76ec:	0141                	addi	sp,sp,16
    76ee:	8082                	ret

000076f0 <__ieee754_sqrtf>:
    76f0:	1101                	addi	sp,sp,-32
    76f2:	00151793          	slli	a5,a0,0x1
    76f6:	cc22                	sw	s0,24(sp)
    76f8:	ce06                	sw	ra,28(sp)
    76fa:	ca26                	sw	s1,20(sp)
    76fc:	c84a                	sw	s2,16(sp)
    76fe:	c64e                	sw	s3,12(sp)
    7700:	c452                	sw	s4,8(sp)
    7702:	8385                	srli	a5,a5,0x1
    7704:	7f8006b7          	lui	a3,0x7f800
    7708:	842a                	mv	s0,a0
    770a:	02d7e363          	bltu	a5,a3,7730 <__ieee754_sqrtf+0x40>
    770e:	85aa                	mv	a1,a0
    7710:	4ec030ef          	jal	ra,abfc <__mulsf3>
    7714:	85aa                	mv	a1,a0
    7716:	8522                	mv	a0,s0
    7718:	565020ef          	jal	ra,a47c <__addsf3>
    771c:	842a                	mv	s0,a0
    771e:	40f2                	lw	ra,28(sp)
    7720:	8522                	mv	a0,s0
    7722:	4462                	lw	s0,24(sp)
    7724:	44d2                	lw	s1,20(sp)
    7726:	4942                	lw	s2,16(sp)
    7728:	49b2                	lw	s3,12(sp)
    772a:	4a22                	lw	s4,8(sp)
    772c:	6105                	addi	sp,sp,32
    772e:	8082                	ret
    7730:	d7fd                	beqz	a5,771e <__ieee754_sqrtf+0x2e>
    7732:	87aa                	mv	a5,a0
    7734:	00055963          	bgez	a0,7746 <__ieee754_sqrtf+0x56>
    7738:	85aa                	mv	a1,a0
    773a:	79e030ef          	jal	ra,aed8 <__subsf3>
    773e:	85aa                	mv	a1,a0
    7740:	0a4030ef          	jal	ra,a7e4 <__divsf3>
    7744:	bfe1                	j	771c <__ieee754_sqrtf+0x2c>
    7746:	8ee9                	and	a3,a3,a0
    7748:	41755713          	srai	a4,a0,0x17
    774c:	c6cd                	beqz	a3,77f6 <__ieee754_sqrtf+0x106>
    774e:	008006b7          	lui	a3,0x800
    7752:	fff68613          	addi	a2,a3,-1 # 7fffff <_data_lma+0x7f3d93>
    7756:	f8170713          	addi	a4,a4,-127 # 1f81 <rumble_pattern_check+0xb>
    775a:	8ff1                	and	a5,a5,a2
    775c:	8fd5                	or	a5,a5,a3
    775e:	00177693          	andi	a3,a4,1
    7762:	c291                	beqz	a3,7766 <__ieee754_sqrtf+0x76>
    7764:	0786                	slli	a5,a5,0x1
    7766:	40175413          	srai	s0,a4,0x1
    776a:	0786                	slli	a5,a5,0x1
    776c:	4665                	li	a2,25
    776e:	4481                	li	s1,0
    7770:	4501                	li	a0,0
    7772:	010006b7          	lui	a3,0x1000
    7776:	00d505b3          	add	a1,a0,a3
    777a:	873e                	mv	a4,a5
    777c:	00b7c763          	blt	a5,a1,778a <__ieee754_sqrtf+0x9a>
    7780:	00d58533          	add	a0,a1,a3
    7784:	40b78733          	sub	a4,a5,a1
    7788:	94b6                	add	s1,s1,a3
    778a:	167d                	addi	a2,a2,-1
    778c:	00171793          	slli	a5,a4,0x1
    7790:	8285                	srli	a3,a3,0x1
    7792:	f275                	bnez	a2,7776 <__ieee754_sqrtf+0x86>
    7794:	c331                	beqz	a4,77d8 <__ieee754_sqrtf+0xe8>
    7796:	82018913          	addi	s2,gp,-2016 # 200018c8 <one>
    779a:	81c18993          	addi	s3,gp,-2020 # 200018c4 <tiny>
    779e:	00092503          	lw	a0,0(s2)
    77a2:	0009a583          	lw	a1,0(s3)
    77a6:	00092a03          	lw	s4,0(s2)
    77aa:	72e030ef          	jal	ra,aed8 <__subsf3>
    77ae:	85aa                	mv	a1,a0
    77b0:	8552                	mv	a0,s4
    77b2:	3b2030ef          	jal	ra,ab64 <__lesf2>
    77b6:	02a04163          	bgtz	a0,77d8 <__ieee754_sqrtf+0xe8>
    77ba:	00092503          	lw	a0,0(s2)
    77be:	0009a583          	lw	a1,0(s3)
    77c2:	00092903          	lw	s2,0(s2)
    77c6:	4b7020ef          	jal	ra,a47c <__addsf3>
    77ca:	85aa                	mv	a1,a0
    77cc:	854a                	mv	a0,s2
    77ce:	396030ef          	jal	ra,ab64 <__lesf2>
    77d2:	02055663          	bgez	a0,77fe <__ieee754_sqrtf+0x10e>
    77d6:	0489                	addi	s1,s1,2
    77d8:	8485                	srai	s1,s1,0x1
    77da:	3f0007b7          	lui	a5,0x3f000
    77de:	94be                	add	s1,s1,a5
    77e0:	045e                	slli	s0,s0,0x17
    77e2:	9426                	add	s0,s0,s1
    77e4:	bf2d                	j	771e <__ieee754_sqrtf+0x2e>
    77e6:	0786                	slli	a5,a5,0x1
    77e8:	0685                	addi	a3,a3,1 # 1000001 <_data_lma+0xff3d95>
    77ea:	00b7f633          	and	a2,a5,a1
    77ee:	de65                	beqz	a2,77e6 <__ieee754_sqrtf+0xf6>
    77f0:	16fd                	addi	a3,a3,-1
    77f2:	8f15                	sub	a4,a4,a3
    77f4:	bfa9                	j	774e <__ieee754_sqrtf+0x5e>
    77f6:	4681                	li	a3,0
    77f8:	008005b7          	lui	a1,0x800
    77fc:	b7fd                	j	77ea <__ieee754_sqrtf+0xfa>
    77fe:	0485                	addi	s1,s1,1
    7800:	98f9                	andi	s1,s1,-2
    7802:	bfd9                	j	77d8 <__ieee754_sqrtf+0xe8>

00007804 <printchar>:
    7804:	1101                	addi	sp,sp,-32
    7806:	ce06                	sw	ra,28(sp)
    7808:	c62e                	sw	a1,12(sp)
    780a:	cd15                	beqz	a0,7846 <printchar+0x42>
    780c:	4118                	lw	a4,0(a0)
    780e:	87aa                	mv	a5,a0
    7810:	c305                	beqz	a4,7830 <printchar+0x2c>
    7812:	4158                	lw	a4,4(a0)
    7814:	557d                	li	a0,-1
    7816:	cb11                	beqz	a4,782a <printchar+0x26>
    7818:	4685                	li	a3,1
    781a:	00d71b63          	bne	a4,a3,7830 <printchar+0x2c>
    781e:	4798                	lw	a4,8(a5)
    7820:	00070023          	sb	zero,0(a4)
    7824:	0007a223          	sw	zero,4(a5) # 3f000004 <_eusrstack+0x1effb004>
    7828:	4505                	li	a0,1
    782a:	40f2                	lw	ra,28(sp)
    782c:	6105                	addi	sp,sp,32
    782e:	8082                	ret
    7830:	4798                	lw	a4,8(a5)
    7832:	46b2                	lw	a3,12(sp)
    7834:	00d70023          	sb	a3,0(a4)
    7838:	4798                	lw	a4,8(a5)
    783a:	0705                	addi	a4,a4,1
    783c:	c798                	sw	a4,8(a5)
    783e:	43d8                	lw	a4,4(a5)
    7840:	177d                	addi	a4,a4,-1
    7842:	c3d8                	sw	a4,4(a5)
    7844:	b7d5                	j	7828 <printchar+0x24>
    7846:	4605                	li	a2,1
    7848:	006c                	addi	a1,sp,12
    784a:	e5bff0ef          	jal	ra,76a4 <_write>
    784e:	bfe9                	j	7828 <printchar+0x24>

00007850 <prints>:
    7850:	7179                	addi	sp,sp,-48
    7852:	d422                	sw	s0,40(sp)
    7854:	d226                	sw	s1,36(sp)
    7856:	ce4e                	sw	s3,28(sp)
    7858:	cc52                	sw	s4,24(sp)
    785a:	ca56                	sw	s5,20(sp)
    785c:	d606                	sw	ra,44(sp)
    785e:	d04a                	sw	s2,32(sp)
    7860:	c85a                	sw	s6,16(sp)
    7862:	8a2a                	mv	s4,a0
    7864:	8aae                	mv	s5,a1
    7866:	8432                	mv	s0,a2
    7868:	4481                	li	s1,0
    786a:	02000993          	li	s3,32
    786e:	02064463          	bltz	a2,7896 <prints+0x46>
    7872:	009a87b3          	add	a5,s5,s1
    7876:	00078783          	lb	a5,0(a5)
    787a:	e39d                	bnez	a5,78a0 <prints+0x50>
    787c:	0284d663          	bge	s1,s0,78a8 <prints+0x58>
    7880:	02e4d263          	bge	s1,a4,78a4 <prints+0x54>
    7884:	8c19                	sub	s0,s0,a4
    7886:	0026f793          	andi	a5,a3,2
    788a:	02000993          	li	s3,32
    788e:	c781                	beqz	a5,7896 <prints+0x46>
    7890:	e319                	bnez	a4,7896 <prints+0x46>
    7892:	03000993          	li	s3,48
    7896:	8a85                	andi	a3,a3,1
    7898:	4901                	li	s2,0
    789a:	ea85                	bnez	a3,78ca <prints+0x7a>
    789c:	8922                	mv	s2,s0
    789e:	a831                	j	78ba <prints+0x6a>
    78a0:	0485                	addi	s1,s1,1
    78a2:	bfc1                	j	7872 <prints+0x22>
    78a4:	8c05                	sub	s0,s0,s1
    78a6:	b7c5                	j	7886 <prints+0x36>
    78a8:	4401                	li	s0,0
    78aa:	bff1                	j	7886 <prints+0x36>
    78ac:	85ce                	mv	a1,s3
    78ae:	8552                	mv	a0,s4
    78b0:	c63a                	sw	a4,12(sp)
    78b2:	f53ff0ef          	jal	ra,7804 <printchar>
    78b6:	4732                	lw	a4,12(sp)
    78b8:	197d                	addi	s2,s2,-1
    78ba:	ff2049e3          	bgtz	s2,78ac <prints+0x5c>
    78be:	8922                	mv	s2,s0
    78c0:	00045363          	bgez	s0,78c6 <prints+0x76>
    78c4:	4901                	li	s2,0
    78c6:	41240433          	sub	s0,s0,s2
    78ca:	02e4cb63          	blt	s1,a4,7900 <prints+0xb0>
    78ce:	84ca                	mv	s1,s2
    78d0:	412487b3          	sub	a5,s1,s2
    78d4:	97d6                	add	a5,a5,s5
    78d6:	00078583          	lb	a1,0(a5)
    78da:	e1a1                	bnez	a1,791a <prints+0xca>
    78dc:	8922                	mv	s2,s0
    78de:	05204363          	bgtz	s2,7924 <prints+0xd4>
    78e2:	00045363          	bgez	s0,78e8 <prints+0x98>
    78e6:	4401                	li	s0,0
    78e8:	00940533          	add	a0,s0,s1
    78ec:	50b2                	lw	ra,44(sp)
    78ee:	5422                	lw	s0,40(sp)
    78f0:	5492                	lw	s1,36(sp)
    78f2:	5902                	lw	s2,32(sp)
    78f4:	49f2                	lw	s3,28(sp)
    78f6:	4a62                	lw	s4,24(sp)
    78f8:	4ad2                	lw	s5,20(sp)
    78fa:	4b42                	lw	s6,16(sp)
    78fc:	6145                	addi	sp,sp,48
    78fe:	8082                	ret
    7900:	409704b3          	sub	s1,a4,s1
    7904:	8b26                	mv	s6,s1
    7906:	03000593          	li	a1,48
    790a:	8552                	mv	a0,s4
    790c:	1b7d                	addi	s6,s6,-1
    790e:	ef7ff0ef          	jal	ra,7804 <printchar>
    7912:	fe0b1ae3          	bnez	s6,7906 <prints+0xb6>
    7916:	9926                	add	s2,s2,s1
    7918:	bf5d                	j	78ce <prints+0x7e>
    791a:	8552                	mv	a0,s4
    791c:	ee9ff0ef          	jal	ra,7804 <printchar>
    7920:	0485                	addi	s1,s1,1
    7922:	b77d                	j	78d0 <prints+0x80>
    7924:	85ce                	mv	a1,s3
    7926:	8552                	mv	a0,s4
    7928:	eddff0ef          	jal	ra,7804 <printchar>
    792c:	197d                	addi	s2,s2,-1
    792e:	bf45                	j	78de <prints+0x8e>

00007930 <printInt>:
    7930:	715d                	addi	sp,sp,-80
    7932:	c2a6                	sw	s1,68(sp)
    7934:	dc52                	sw	s4,56(sp)
    7936:	c686                	sw	ra,76(sp)
    7938:	c4a2                	sw	s0,72(sp)
    793a:	c0ca                	sw	s2,64(sp)
    793c:	de4e                	sw	s3,60(sp)
    793e:	da56                	sw	s5,52(sp)
    7940:	84ba                	mv	s1,a4
    7942:	8a3e                	mv	s4,a5
    7944:	e585                	bnez	a1,796c <printInt+0x3c>
    7946:	03000793          	li	a5,48
    794a:	4701                	li	a4,0
    794c:	86d2                	mv	a3,s4
    794e:	8626                	mv	a2,s1
    7950:	082c                	addi	a1,sp,24
    7952:	00f11c23          	sh	a5,24(sp)
    7956:	efbff0ef          	jal	ra,7850 <prints>
    795a:	40b6                	lw	ra,76(sp)
    795c:	4426                	lw	s0,72(sp)
    795e:	4496                	lw	s1,68(sp)
    7960:	4906                	lw	s2,64(sp)
    7962:	59f2                	lw	s3,60(sp)
    7964:	5a62                	lw	s4,56(sp)
    7966:	5ad2                	lw	s5,52(sp)
    7968:	6161                	addi	sp,sp,80
    796a:	8082                	ret
    796c:	892a                	mv	s2,a0
    796e:	8436                	mv	s0,a3
    7970:	8ac6                	mv	s5,a7
    7972:	ca91                	beqz	a3,7986 <printInt+0x56>
    7974:	47a9                	li	a5,10
    7976:	4401                	li	s0,0
    7978:	00f61763          	bne	a2,a5,7986 <printInt+0x56>
    797c:	0005d563          	bgez	a1,7986 <printInt+0x56>
    7980:	40b005b3          	neg	a1,a1
    7984:	4405                	li	s0,1
    7986:	020107a3          	sb	zero,47(sp)
    798a:	02f10793          	addi	a5,sp,47
    798e:	46a5                	li	a3,9
    7990:	fc680513          	addi	a0,a6,-58
    7994:	02c5f733          	remu	a4,a1,a2
    7998:	00e6d363          	bge	a3,a4,799e <printInt+0x6e>
    799c:	972a                	add	a4,a4,a0
    799e:	03070713          	addi	a4,a4,48
    79a2:	fee78fa3          	sb	a4,-1(a5)
    79a6:	fff78993          	addi	s3,a5,-1
    79aa:	02c5d733          	divu	a4,a1,a2
    79ae:	04c5fb63          	bgeu	a1,a2,7a04 <printInt+0xd4>
    79b2:	cc09                	beqz	s0,79cc <printInt+0x9c>
    79b4:	c8b9                	beqz	s1,7a0a <printInt+0xda>
    79b6:	002a7713          	andi	a4,s4,2
    79ba:	cb21                	beqz	a4,7a0a <printInt+0xda>
    79bc:	02d00593          	li	a1,45
    79c0:	854a                	mv	a0,s2
    79c2:	c642                	sw	a6,12(sp)
    79c4:	e41ff0ef          	jal	ra,7804 <printchar>
    79c8:	4832                	lw	a6,12(sp)
    79ca:	14fd                	addi	s1,s1,-1
    79cc:	004a7793          	andi	a5,s4,4
    79d0:	c38d                	beqz	a5,79f2 <printInt+0xc2>
    79d2:	06100793          	li	a5,97
    79d6:	03000593          	li	a1,48
    79da:	854a                	mv	a0,s2
    79dc:	02f81f63          	bne	a6,a5,7a1a <printInt+0xea>
    79e0:	e25ff0ef          	jal	ra,7804 <printchar>
    79e4:	07800593          	li	a1,120
    79e8:	854a                	mv	a0,s2
    79ea:	e1bff0ef          	jal	ra,7804 <printchar>
    79ee:	0409                	addi	s0,s0,2
    79f0:	14f9                	addi	s1,s1,-2
    79f2:	8756                	mv	a4,s5
    79f4:	86d2                	mv	a3,s4
    79f6:	8626                	mv	a2,s1
    79f8:	85ce                	mv	a1,s3
    79fa:	854a                	mv	a0,s2
    79fc:	e55ff0ef          	jal	ra,7850 <prints>
    7a00:	9522                	add	a0,a0,s0
    7a02:	bfa1                	j	795a <printInt+0x2a>
    7a04:	85ba                	mv	a1,a4
    7a06:	87ce                	mv	a5,s3
    7a08:	b771                	j	7994 <printInt+0x64>
    7a0a:	02d00713          	li	a4,45
    7a0e:	fee98fa3          	sb	a4,-1(s3)
    7a12:	4401                	li	s0,0
    7a14:	ffe78993          	addi	s3,a5,-2
    7a18:	bf55                	j	79cc <printInt+0x9c>
    7a1a:	debff0ef          	jal	ra,7804 <printchar>
    7a1e:	05800593          	li	a1,88
    7a22:	b7d9                	j	79e8 <printInt+0xb8>

00007a24 <printLongLongInt>:
    7a24:	711d                	addi	sp,sp,-96
    7a26:	c8ca                	sw	s2,80(sp)
    7a28:	c6ce                	sw	s3,76(sp)
    7a2a:	c2d6                	sw	s5,68(sp)
    7a2c:	c0da                	sw	s6,64(sp)
    7a2e:	893a                	mv	s2,a4
    7a30:	ce86                	sw	ra,92(sp)
    7a32:	cca2                	sw	s0,88(sp)
    7a34:	caa6                	sw	s1,84(sp)
    7a36:	c4d2                	sw	s4,72(sp)
    7a38:	de5e                	sw	s7,60(sp)
    7a3a:	dc62                	sw	s8,56(sp)
    7a3c:	da66                	sw	s9,52(sp)
    7a3e:	d86a                	sw	s10,48(sp)
    7a40:	d66e                	sw	s11,44(sp)
    7a42:	00c5e733          	or	a4,a1,a2
    7a46:	89be                	mv	s3,a5
    7a48:	8aaa                	mv	s5,a0
    7a4a:	8b42                	mv	s6,a6
    7a4c:	06014783          	lbu	a5,96(sp)
    7a50:	e721                	bnez	a4,7a98 <printLongLongInt+0x74>
    7a52:	cf95                	beqz	a5,7a8e <printLongLongInt+0x6a>
    7a54:	678d                	lui	a5,0x3
    7a56:	02d78793          	addi	a5,a5,45 # 302d <_imu_update_quaternion+0xf7>
    7a5a:	00f11423          	sh	a5,8(sp)
    7a5e:	00010523          	sb	zero,10(sp)
    7a62:	4701                	li	a4,0
    7a64:	86da                	mv	a3,s6
    7a66:	864e                	mv	a2,s3
    7a68:	002c                	addi	a1,sp,8
    7a6a:	8556                	mv	a0,s5
    7a6c:	de5ff0ef          	jal	ra,7850 <prints>
    7a70:	40f6                	lw	ra,92(sp)
    7a72:	4466                	lw	s0,88(sp)
    7a74:	44d6                	lw	s1,84(sp)
    7a76:	4946                	lw	s2,80(sp)
    7a78:	49b6                	lw	s3,76(sp)
    7a7a:	4a26                	lw	s4,72(sp)
    7a7c:	4a96                	lw	s5,68(sp)
    7a7e:	4b06                	lw	s6,64(sp)
    7a80:	5bf2                	lw	s7,60(sp)
    7a82:	5c62                	lw	s8,56(sp)
    7a84:	5cd2                	lw	s9,52(sp)
    7a86:	5d42                	lw	s10,48(sp)
    7a88:	5db2                	lw	s11,44(sp)
    7a8a:	6125                	addi	sp,sp,96
    7a8c:	8082                	ret
    7a8e:	03000793          	li	a5,48
    7a92:	00f11423          	sh	a5,8(sp)
    7a96:	b7f1                	j	7a62 <printLongLongInt+0x3e>
    7a98:	8a36                	mv	s4,a3
    7a9a:	84ae                	mv	s1,a1
    7a9c:	8432                	mv	s0,a2
    7a9e:	02090063          	beqz	s2,7abe <printLongLongInt+0x9a>
    7aa2:	47a9                	li	a5,10
    7aa4:	4901                	li	s2,0
    7aa6:	00f69c63          	bne	a3,a5,7abe <printLongLongInt+0x9a>
    7aaa:	00065a63          	bgez	a2,7abe <printLongLongInt+0x9a>
    7aae:	40b004b3          	neg	s1,a1
    7ab2:	009037b3          	snez	a5,s1
    7ab6:	40c00433          	neg	s0,a2
    7aba:	8c1d                	sub	s0,s0,a5
    7abc:	4905                	li	s2,1
    7abe:	00010fa3          	sb	zero,31(sp)
    7ac2:	01f10d13          	addi	s10,sp,31
    7ac6:	41fa5d93          	srai	s11,s4,0x1f
    7aca:	4ca5                	li	s9,9
    7acc:	fc688c13          	addi	s8,a7,-58
    7ad0:	8652                	mv	a2,s4
    7ad2:	86ee                	mv	a3,s11
    7ad4:	8526                	mv	a0,s1
    7ad6:	85a2                	mv	a1,s0
    7ad8:	0ef000ef          	jal	ra,83c6 <__umoddi3>
    7adc:	00acd363          	bge	s9,a0,7ae2 <printLongLongInt+0xbe>
    7ae0:	9562                	add	a0,a0,s8
    7ae2:	03050513          	addi	a0,a0,48
    7ae6:	fead0fa3          	sb	a0,-1(s10)
    7aea:	8652                	mv	a2,s4
    7aec:	86ee                	mv	a3,s11
    7aee:	8526                	mv	a0,s1
    7af0:	85a2                	mv	a1,s0
    7af2:	fffd0b93          	addi	s7,s10,-1
    7af6:	2305                	jal	8016 <__udivdi3>
    7af8:	01b46663          	bltu	s0,s11,7b04 <printLongLongInt+0xe0>
    7afc:	028d9a63          	bne	s11,s0,7b30 <printLongLongInt+0x10c>
    7b00:	0344f863          	bgeu	s1,s4,7b30 <printLongLongInt+0x10c>
    7b04:	00090d63          	beqz	s2,7b1e <printLongLongInt+0xfa>
    7b08:	02098863          	beqz	s3,7b38 <printLongLongInt+0x114>
    7b0c:	002b7793          	andi	a5,s6,2
    7b10:	c785                	beqz	a5,7b38 <printLongLongInt+0x114>
    7b12:	02d00593          	li	a1,45
    7b16:	8556                	mv	a0,s5
    7b18:	cedff0ef          	jal	ra,7804 <printchar>
    7b1c:	19fd                	addi	s3,s3,-1
    7b1e:	4701                	li	a4,0
    7b20:	86da                	mv	a3,s6
    7b22:	864e                	mv	a2,s3
    7b24:	85de                	mv	a1,s7
    7b26:	8556                	mv	a0,s5
    7b28:	d29ff0ef          	jal	ra,7850 <prints>
    7b2c:	954a                	add	a0,a0,s2
    7b2e:	b789                	j	7a70 <printLongLongInt+0x4c>
    7b30:	84aa                	mv	s1,a0
    7b32:	842e                	mv	s0,a1
    7b34:	8d5e                	mv	s10,s7
    7b36:	bf69                	j	7ad0 <printLongLongInt+0xac>
    7b38:	02d00793          	li	a5,45
    7b3c:	fefb8fa3          	sb	a5,-1(s7)
    7b40:	4901                	li	s2,0
    7b42:	ffed0b93          	addi	s7,s10,-2
    7b46:	bfe1                	j	7b1e <printLongLongInt+0xfa>

00007b48 <printDouble>:
    7b48:	715d                	addi	sp,sp,-80
    7b4a:	c2a6                	sw	s1,68(sp)
    7b4c:	c0ca                	sw	s2,64(sp)
    7b4e:	84aa                	mv	s1,a0
    7b50:	892e                	mv	s2,a1
    7b52:	852e                	mv	a0,a1
    7b54:	85b2                	mv	a1,a2
    7b56:	c686                	sw	ra,76(sp)
    7b58:	ce3a                	sw	a4,28(sp)
    7b5a:	cc42                	sw	a6,24(sp)
    7b5c:	c4a2                	sw	s0,72(sp)
    7b5e:	de4e                	sw	s3,60(sp)
    7b60:	dc52                	sw	s4,56(sp)
    7b62:	89b2                	mv	s3,a2
    7b64:	8a36                	mv	s4,a3
    7b66:	da56                	sw	s5,52(sp)
    7b68:	d85a                	sw	s6,48(sp)
    7b6a:	8abe                	mv	s5,a5
    7b6c:	d65e                	sw	s7,44(sp)
    7b6e:	d462                	sw	s8,40(sp)
    7b70:	d266                	sw	s9,36(sp)
    7b72:	8c46                	mv	s8,a7
    7b74:	d06a                	sw	s10,32(sp)
    7b76:	69c020ef          	jal	ra,a212 <__fixdfdi>
    7b7a:	8b2a                	mv	s6,a0
    7b7c:	8bae                	mv	s7,a1
    7b7e:	4601                	li	a2,0
    7b80:	4681                	li	a3,0
    7b82:	85ce                	mv	a1,s3
    7b84:	854a                	mv	a0,s2
    7b86:	071010ef          	jal	ra,93f6 <__ledf2>
    7b8a:	4772                	lw	a4,28(sp)
    7b8c:	4862                	lw	a6,24(sp)
    7b8e:	817d                	srli	a0,a0,0x1f
    7b90:	87ba                	mv	a5,a4
    7b92:	c02a                	sw	a0,0(sp)
    7b94:	4705                	li	a4,1
    7b96:	88e2                	mv	a7,s8
    7b98:	86d2                	mv	a3,s4
    7b9a:	85da                	mv	a1,s6
    7b9c:	865e                	mv	a2,s7
    7b9e:	8526                	mv	a0,s1
    7ba0:	e85ff0ef          	jal	ra,7a24 <printLongLongInt>
    7ba4:	8d2a                	mv	s10,a0
    7ba6:	02e00593          	li	a1,46
    7baa:	8526                	mv	a0,s1
    7bac:	c59ff0ef          	jal	ra,7804 <printchar>
    7bb0:	0d05                	addi	s10,s10,1
    7bb2:	4781                	li	a5,0
    7bb4:	4c85                	li	s9,1
    7bb6:	4401                	li	s0,0
    7bb8:	4729                	li	a4,10
    7bba:	0757ce63          	blt	a5,s5,7c36 <printDouble+0xee>
    7bbe:	855a                	mv	a0,s6
    7bc0:	85de                	mv	a1,s7
    7bc2:	70c020ef          	jal	ra,a2ce <__floatdidf>
    7bc6:	862a                	mv	a2,a0
    7bc8:	86ae                	mv	a3,a1
    7bca:	854a                	mv	a0,s2
    7bcc:	85ce                	mv	a1,s3
    7bce:	62f010ef          	jal	ra,99fc <__subdf3>
    7bd2:	892a                	mv	s2,a0
    7bd4:	89ae                	mv	s3,a1
    7bd6:	8566                	mv	a0,s9
    7bd8:	85a2                	mv	a1,s0
    7bda:	6f4020ef          	jal	ra,a2ce <__floatdidf>
    7bde:	862a                	mv	a2,a0
    7be0:	86ae                	mv	a3,a1
    7be2:	854a                	mv	a0,s2
    7be4:	85ce                	mv	a1,s3
    7be6:	0cd010ef          	jal	ra,94b2 <__muldf3>
    7bea:	628020ef          	jal	ra,a212 <__fixdfdi>
    7bee:	41f5d613          	srai	a2,a1,0x1f
    7bf2:	8d31                	xor	a0,a0,a2
    7bf4:	00b647b3          	xor	a5,a2,a1
    7bf8:	40c505b3          	sub	a1,a0,a2
    7bfc:	00b53533          	sltu	a0,a0,a1
    7c00:	40c78633          	sub	a2,a5,a2
    7c04:	c002                	sw	zero,0(sp)
    7c06:	88e2                	mv	a7,s8
    7c08:	87d6                	mv	a5,s5
    7c0a:	86d2                	mv	a3,s4
    7c0c:	8e09                	sub	a2,a2,a0
    7c0e:	4809                	li	a6,2
    7c10:	8526                	mv	a0,s1
    7c12:	4705                	li	a4,1
    7c14:	e11ff0ef          	jal	ra,7a24 <printLongLongInt>
    7c18:	40b6                	lw	ra,76(sp)
    7c1a:	4426                	lw	s0,72(sp)
    7c1c:	956a                	add	a0,a0,s10
    7c1e:	4496                	lw	s1,68(sp)
    7c20:	4906                	lw	s2,64(sp)
    7c22:	59f2                	lw	s3,60(sp)
    7c24:	5a62                	lw	s4,56(sp)
    7c26:	5ad2                	lw	s5,52(sp)
    7c28:	5b42                	lw	s6,48(sp)
    7c2a:	5bb2                	lw	s7,44(sp)
    7c2c:	5c22                	lw	s8,40(sp)
    7c2e:	5c92                	lw	s9,36(sp)
    7c30:	5d02                	lw	s10,32(sp)
    7c32:	6161                	addi	sp,sp,80
    7c34:	8082                	ret
    7c36:	028706b3          	mul	a3,a4,s0
    7c3a:	0785                	addi	a5,a5,1
    7c3c:	03973433          	mulhu	s0,a4,s9
    7c40:	03970cb3          	mul	s9,a4,s9
    7c44:	9436                	add	s0,s0,a3
    7c46:	bf95                	j	7bba <printDouble+0x72>

00007c48 <print>:
    7c48:	715d                	addi	sp,sp,-80
    7c4a:	d85a                	sw	s6,48(sp)
    7c4c:	6b31                	lui	s6,0xc
    7c4e:	c4a2                	sw	s0,72(sp)
    7c50:	c2a6                	sw	s1,68(sp)
    7c52:	c0ca                	sw	s2,64(sp)
    7c54:	de4e                	sw	s3,60(sp)
    7c56:	dc52                	sw	s4,56(sp)
    7c58:	da56                	sw	s5,52(sp)
    7c5a:	d65e                	sw	s7,44(sp)
    7c5c:	d462                	sw	s8,40(sp)
    7c5e:	c686                	sw	ra,76(sp)
    7c60:	d266                	sw	s9,36(sp)
    7c62:	89aa                	mv	s3,a0
    7c64:	892e                	mv	s2,a1
    7c66:	8432                	mv	s0,a2
    7c68:	4a01                	li	s4,0
    7c6a:	4481                	li	s1,0
    7c6c:	02500b93          	li	s7,37
    7c70:	02b00a93          	li	s5,43
    7c74:	4c29                	li	s8,10
    7c76:	07cb0b13          	addi	s6,s6,124 # c07c <MySerNumInfo+0x4c>
    7c7a:	00090583          	lb	a1,0(s2)
    7c7e:	e58d                	bnez	a1,7ca8 <print+0x60>
    7c80:	00098663          	beqz	s3,7c8c <print+0x44>
    7c84:	4581                	li	a1,0
    7c86:	854e                	mv	a0,s3
    7c88:	b7dff0ef          	jal	ra,7804 <printchar>
    7c8c:	40b6                	lw	ra,76(sp)
    7c8e:	4426                	lw	s0,72(sp)
    7c90:	8526                	mv	a0,s1
    7c92:	4906                	lw	s2,64(sp)
    7c94:	4496                	lw	s1,68(sp)
    7c96:	59f2                	lw	s3,60(sp)
    7c98:	5a62                	lw	s4,56(sp)
    7c9a:	5ad2                	lw	s5,52(sp)
    7c9c:	5b42                	lw	s6,48(sp)
    7c9e:	5bb2                	lw	s7,44(sp)
    7ca0:	5c22                	lw	s8,40(sp)
    7ca2:	5c92                	lw	s9,36(sp)
    7ca4:	6161                	addi	sp,sp,80
    7ca6:	8082                	ret
    7ca8:	01758863          	beq	a1,s7,7cb8 <print+0x70>
    7cac:	854e                	mv	a0,s3
    7cae:	b57ff0ef          	jal	ra,7804 <printchar>
    7cb2:	0485                	addi	s1,s1,1
    7cb4:	0905                	addi	s2,s2,1
    7cb6:	b7d1                	j	7c7a <print+0x32>
    7cb8:	00190783          	lb	a5,1(s2)
    7cbc:	00190c93          	addi	s9,s2,1
    7cc0:	01779a63          	bne	a5,s7,7cd4 <print+0x8c>
    7cc4:	02500593          	li	a1,37
    7cc8:	854e                	mv	a0,s3
    7cca:	b3bff0ef          	jal	ra,7804 <printchar>
    7cce:	0485                	addi	s1,s1,1
    7cd0:	8966                	mv	s2,s9
    7cd2:	b7cd                	j	7cb4 <print+0x6c>
    7cd4:	d7d5                	beqz	a5,7c80 <print+0x38>
    7cd6:	05578763          	beq	a5,s5,7d24 <print+0xdc>
    7cda:	00fac863          	blt	s5,a5,7cea <print+0xa2>
    7cde:	02300713          	li	a4,35
    7ce2:	04e78463          	beq	a5,a4,7d2a <print+0xe2>
    7ce6:	4781                	li	a5,0
    7ce8:	a005                	j	7d08 <print+0xc0>
    7cea:	02d00713          	li	a4,45
    7cee:	00e78a63          	beq	a5,a4,7d02 <print+0xba>
    7cf2:	03000713          	li	a4,48
    7cf6:	fee798e3          	bne	a5,a4,7ce6 <print+0x9e>
    7cfa:	00290c93          	addi	s9,s2,2
    7cfe:	4789                	li	a5,2
    7d00:	a021                	j	7d08 <print+0xc0>
    7d02:	00290c93          	addi	s9,s2,2
    7d06:	4785                	li	a5,1
    7d08:	000c8703          	lb	a4,0(s9)
    7d0c:	05570363          	beq	a4,s5,7d52 <print+0x10a>
    7d10:	02eac163          	blt	s5,a4,7d32 <print+0xea>
    7d14:	02300693          	li	a3,35
    7d18:	02d70b63          	beq	a4,a3,7d4e <print+0x106>
    7d1c:	8966                	mv	s2,s9
    7d1e:	4501                	li	a0,0
    7d20:	45a5                	li	a1,9
    7d22:	a835                	j	7d5e <print+0x116>
    7d24:	00290c93          	addi	s9,s2,2
    7d28:	bf7d                	j	7ce6 <print+0x9e>
    7d2a:	00290c93          	addi	s9,s2,2
    7d2e:	4791                	li	a5,4
    7d30:	bfe1                	j	7d08 <print+0xc0>
    7d32:	02d00693          	li	a3,45
    7d36:	00d70963          	beq	a4,a3,7d48 <print+0x100>
    7d3a:	03000693          	li	a3,48
    7d3e:	fcd71fe3          	bne	a4,a3,7d1c <print+0xd4>
    7d42:	0027e793          	ori	a5,a5,2
    7d46:	a031                	j	7d52 <print+0x10a>
    7d48:	0c85                	addi	s9,s9,1
    7d4a:	4785                	li	a5,1
    7d4c:	bfc1                	j	7d1c <print+0xd4>
    7d4e:	0047e793          	ori	a5,a5,4
    7d52:	0c85                	addi	s9,s9,1
    7d54:	b7e1                	j	7d1c <print+0xd4>
    7d56:	03850533          	mul	a0,a0,s8
    7d5a:	0905                	addi	s2,s2,1
    7d5c:	9536                	add	a0,a0,a3
    7d5e:	00090703          	lb	a4,0(s2)
    7d62:	fd070693          	addi	a3,a4,-48
    7d66:	0ff6f613          	zext.b	a2,a3
    7d6a:	fec5f6e3          	bgeu	a1,a2,7d56 <print+0x10e>
    7d6e:	02e00613          	li	a2,46
    7d72:	4699                	li	a3,6
    7d74:	00c71e63          	bne	a4,a2,7d90 <print+0x148>
    7d78:	0905                	addi	s2,s2,1
    7d7a:	4681                	li	a3,0
    7d7c:	4625                	li	a2,9
    7d7e:	00090703          	lb	a4,0(s2)
    7d82:	fd070713          	addi	a4,a4,-48
    7d86:	0ff77593          	zext.b	a1,a4
    7d8a:	02b67563          	bgeu	a2,a1,7db4 <print+0x16c>
    7d8e:	8a36                	mv	s4,a3
    7d90:	00090703          	lb	a4,0(s2)
    7d94:	06a00613          	li	a2,106
    7d98:	0ac70963          	beq	a4,a2,7e4a <print+0x202>
    7d9c:	02e64163          	blt	a2,a4,7dbe <print+0x176>
    7da0:	04c00613          	li	a2,76
    7da4:	0ac70363          	beq	a4,a2,7e4a <print+0x202>
    7da8:	06800613          	li	a2,104
    7dac:	08c70863          	beq	a4,a2,7e3c <print+0x1f4>
    7db0:	4601                	li	a2,0
    7db2:	a81d                	j	7de8 <print+0x1a0>
    7db4:	038686b3          	mul	a3,a3,s8
    7db8:	0905                	addi	s2,s2,1
    7dba:	96ba                	add	a3,a3,a4
    7dbc:	b7c9                	j	7d7e <print+0x136>
    7dbe:	07400613          	li	a2,116
    7dc2:	08c70463          	beq	a4,a2,7e4a <print+0x202>
    7dc6:	07a00613          	li	a2,122
    7dca:	08c70063          	beq	a4,a2,7e4a <print+0x202>
    7dce:	06c00593          	li	a1,108
    7dd2:	4601                	li	a2,0
    7dd4:	00b71a63          	bne	a4,a1,7de8 <print+0x1a0>
    7dd8:	00190583          	lb	a1,1(s2)
    7ddc:	460d                	li	a2,3
    7dde:	00e59463          	bne	a1,a4,7de6 <print+0x19e>
    7de2:	0905                	addi	s2,s2,1
    7de4:	4611                	li	a2,4
    7de6:	0905                	addi	s2,s2,1
    7de8:	00090703          	lb	a4,0(s2)
    7dec:	06000593          	li	a1,96
    7df0:	06100813          	li	a6,97
    7df4:	00e5c463          	blt	a1,a4,7dfc <print+0x1b4>
    7df8:	04100813          	li	a6,65
    7dfc:	06700593          	li	a1,103
    7e00:	06e5c263          	blt	a1,a4,7e64 <print+0x21c>
    7e04:	06500593          	li	a1,101
    7e08:	16b75963          	bge	a4,a1,7f7a <print+0x332>
    7e0c:	04700593          	li	a1,71
    7e10:	02e5cf63          	blt	a1,a4,7e4e <print+0x206>
    7e14:	04500613          	li	a2,69
    7e18:	16c75163          	bge	a4,a2,7f7a <print+0x332>
    7e1c:	04300693          	li	a3,67
    7e20:	e8d71ae3          	bne	a4,a3,7cb4 <print+0x6c>
    7e24:	4018                	lw	a4,0(s0)
    7e26:	00440c93          	addi	s9,s0,4
    7e2a:	00010ea3          	sb	zero,29(sp)
    7e2e:	00e10e23          	sb	a4,28(sp)
    7e32:	86be                	mv	a3,a5
    7e34:	4701                	li	a4,0
    7e36:	862a                	mv	a2,a0
    7e38:	086c                	addi	a1,sp,28
    7e3a:	a071                	j	7ec6 <print+0x27e>
    7e3c:	00190583          	lb	a1,1(s2)
    7e40:	4601                	li	a2,0
    7e42:	fae593e3          	bne	a1,a4,7de8 <print+0x1a0>
    7e46:	0909                	addi	s2,s2,2
    7e48:	b745                	j	7de8 <print+0x1a0>
    7e4a:	0905                	addi	s2,s2,1
    7e4c:	b795                	j	7db0 <print+0x168>
    7e4e:	06300693          	li	a3,99
    7e52:	fcd709e3          	beq	a4,a3,7e24 <print+0x1dc>
    7e56:	06e6ce63          	blt	a3,a4,7ed2 <print+0x28a>
    7e5a:	05800693          	li	a3,88
    7e5e:	02d70363          	beq	a4,a3,7e84 <print+0x23c>
    7e62:	bd89                	j	7cb4 <print+0x6c>
    7e64:	07300693          	li	a3,115
    7e68:	04d70663          	beq	a4,a3,7eb4 <print+0x26c>
    7e6c:	02e6cd63          	blt	a3,a4,7ea6 <print+0x25e>
    7e70:	06f00693          	li	a3,111
    7e74:	0cd70b63          	beq	a4,a3,7f4a <print+0x302>
    7e78:	07000693          	li	a3,112
    7e7c:	0047e793          	ori	a5,a5,4
    7e80:	e2d71ae3          	bne	a4,a3,7cb4 <print+0x6c>
    7e84:	4711                	li	a4,4
    7e86:	0ae61b63          	bne	a2,a4,7f3c <print+0x2f4>
    7e8a:	041d                	addi	s0,s0,7
    7e8c:	ff847713          	andi	a4,s0,-8
    7e90:	430c                	lw	a1,0(a4)
    7e92:	4350                	lw	a2,4(a4)
    7e94:	00870413          	addi	s0,a4,8
    7e98:	88c2                	mv	a7,a6
    7e9a:	c002                	sw	zero,0(sp)
    7e9c:	883e                	mv	a6,a5
    7e9e:	4701                	li	a4,0
    7ea0:	87aa                	mv	a5,a0
    7ea2:	46c1                	li	a3,16
    7ea4:	a0b9                	j	7ef2 <print+0x2aa>
    7ea6:	07500693          	li	a3,117
    7eaa:	06d70363          	beq	a4,a3,7f10 <print+0x2c8>
    7eae:	07800693          	li	a3,120
    7eb2:	b775                	j	7e5e <print+0x216>
    7eb4:	4018                	lw	a4,0(s0)
    7eb6:	00440c93          	addi	s9,s0,4
    7eba:	85da                	mv	a1,s6
    7ebc:	c311                	beqz	a4,7ec0 <print+0x278>
    7ebe:	85ba                	mv	a1,a4
    7ec0:	8752                	mv	a4,s4
    7ec2:	86be                	mv	a3,a5
    7ec4:	862a                	mv	a2,a0
    7ec6:	854e                	mv	a0,s3
    7ec8:	989ff0ef          	jal	ra,7850 <prints>
    7ecc:	94aa                	add	s1,s1,a0
    7ece:	8466                	mv	s0,s9
    7ed0:	b3d5                	j	7cb4 <print+0x6c>
    7ed2:	4711                	li	a4,4
    7ed4:	02e61463          	bne	a2,a4,7efc <print+0x2b4>
    7ed8:	041d                	addi	s0,s0,7
    7eda:	ff847713          	andi	a4,s0,-8
    7ede:	430c                	lw	a1,0(a4)
    7ee0:	4350                	lw	a2,4(a4)
    7ee2:	00870413          	addi	s0,a4,8
    7ee6:	88c2                	mv	a7,a6
    7ee8:	c002                	sw	zero,0(sp)
    7eea:	883e                	mv	a6,a5
    7eec:	4705                	li	a4,1
    7eee:	87aa                	mv	a5,a0
    7ef0:	46a9                	li	a3,10
    7ef2:	854e                	mv	a0,s3
    7ef4:	b31ff0ef          	jal	ra,7a24 <printLongLongInt>
    7ef8:	94aa                	add	s1,s1,a0
    7efa:	bb6d                	j	7cb4 <print+0x6c>
    7efc:	400c                	lw	a1,0(s0)
    7efe:	88d2                	mv	a7,s4
    7f00:	0411                	addi	s0,s0,4
    7f02:	872a                	mv	a4,a0
    7f04:	4685                	li	a3,1
    7f06:	4629                	li	a2,10
    7f08:	854e                	mv	a0,s3
    7f0a:	a27ff0ef          	jal	ra,7930 <printInt>
    7f0e:	b7ed                	j	7ef8 <print+0x2b0>
    7f10:	4711                	li	a4,4
    7f12:	00e61f63          	bne	a2,a4,7f30 <print+0x2e8>
    7f16:	041d                	addi	s0,s0,7
    7f18:	ff847713          	andi	a4,s0,-8
    7f1c:	430c                	lw	a1,0(a4)
    7f1e:	4350                	lw	a2,4(a4)
    7f20:	00870413          	addi	s0,a4,8
    7f24:	88c2                	mv	a7,a6
    7f26:	c002                	sw	zero,0(sp)
    7f28:	883e                	mv	a6,a5
    7f2a:	4701                	li	a4,0
    7f2c:	87aa                	mv	a5,a0
    7f2e:	b7c9                	j	7ef0 <print+0x2a8>
    7f30:	400c                	lw	a1,0(s0)
    7f32:	88d2                	mv	a7,s4
    7f34:	0411                	addi	s0,s0,4
    7f36:	872a                	mv	a4,a0
    7f38:	4681                	li	a3,0
    7f3a:	b7f1                	j	7f06 <print+0x2be>
    7f3c:	400c                	lw	a1,0(s0)
    7f3e:	88d2                	mv	a7,s4
    7f40:	0411                	addi	s0,s0,4
    7f42:	872a                	mv	a4,a0
    7f44:	4681                	li	a3,0
    7f46:	4641                	li	a2,16
    7f48:	b7c1                	j	7f08 <print+0x2c0>
    7f4a:	4711                	li	a4,4
    7f4c:	02e61063          	bne	a2,a4,7f6c <print+0x324>
    7f50:	041d                	addi	s0,s0,7
    7f52:	ff847713          	andi	a4,s0,-8
    7f56:	430c                	lw	a1,0(a4)
    7f58:	4350                	lw	a2,4(a4)
    7f5a:	00870413          	addi	s0,a4,8
    7f5e:	88c2                	mv	a7,a6
    7f60:	c002                	sw	zero,0(sp)
    7f62:	883e                	mv	a6,a5
    7f64:	4701                	li	a4,0
    7f66:	87aa                	mv	a5,a0
    7f68:	46a1                	li	a3,8
    7f6a:	b761                	j	7ef2 <print+0x2aa>
    7f6c:	400c                	lw	a1,0(s0)
    7f6e:	88d2                	mv	a7,s4
    7f70:	0411                	addi	s0,s0,4
    7f72:	872a                	mv	a4,a0
    7f74:	4681                	li	a3,0
    7f76:	4621                	li	a2,8
    7f78:	bf41                	j	7f08 <print+0x2c0>
    7f7a:	041d                	addi	s0,s0,7
    7f7c:	ff847613          	andi	a2,s0,-8
    7f80:	00860413          	addi	s0,a2,8
    7f84:	420c                	lw	a1,0(a2)
    7f86:	4250                	lw	a2,4(a2)
    7f88:	40d50733          	sub	a4,a0,a3
    7f8c:	88c2                	mv	a7,a6
    7f8e:	177d                	addi	a4,a4,-1
    7f90:	883e                	mv	a6,a5
    7f92:	854e                	mv	a0,s3
    7f94:	87b6                	mv	a5,a3
    7f96:	46a9                	li	a3,10
    7f98:	bb1ff0ef          	jal	ra,7b48 <printDouble>
    7f9c:	bfb1                	j	7ef8 <print+0x2b0>

00007f9e <printf>:
    7f9e:	7139                	addi	sp,sp,-64
    7fa0:	d22e                	sw	a1,36(sp)
    7fa2:	d432                	sw	a2,40(sp)
    7fa4:	85aa                	mv	a1,a0
    7fa6:	1050                	addi	a2,sp,36
    7fa8:	4501                	li	a0,0
    7faa:	ce06                	sw	ra,28(sp)
    7fac:	d636                	sw	a3,44(sp)
    7fae:	d83a                	sw	a4,48(sp)
    7fb0:	da3e                	sw	a5,52(sp)
    7fb2:	dc42                	sw	a6,56(sp)
    7fb4:	de46                	sw	a7,60(sp)
    7fb6:	c632                	sw	a2,12(sp)
    7fb8:	c91ff0ef          	jal	ra,7c48 <print>
    7fbc:	40f2                	lw	ra,28(sp)
    7fbe:	6121                	addi	sp,sp,64
    7fc0:	8082                	ret

00007fc2 <puts>:
    7fc2:	1101                	addi	sp,sp,-32
    7fc4:	cc22                	sw	s0,24(sp)
    7fc6:	ca26                	sw	s1,20(sp)
    7fc8:	ce06                	sw	ra,28(sp)
    7fca:	00054783          	lbu	a5,0(a0)
    7fce:	84aa                	mv	s1,a0
    7fd0:	4401                	li	s0,0
    7fd2:	00f107a3          	sb	a5,15(sp)
    7fd6:	00f10783          	lb	a5,15(sp)
    7fda:	0405                	addi	s0,s0,1
    7fdc:	e385                	bnez	a5,7ffc <puts+0x3a>
    7fde:	47a9                	li	a5,10
    7fe0:	00f10593          	addi	a1,sp,15
    7fe4:	4605                	li	a2,1
    7fe6:	4501                	li	a0,0
    7fe8:	00f107a3          	sb	a5,15(sp)
    7fec:	eb8ff0ef          	jal	ra,76a4 <_write>
    7ff0:	8522                	mv	a0,s0
    7ff2:	40f2                	lw	ra,28(sp)
    7ff4:	4462                	lw	s0,24(sp)
    7ff6:	44d2                	lw	s1,20(sp)
    7ff8:	6105                	addi	sp,sp,32
    7ffa:	8082                	ret
    7ffc:	4605                	li	a2,1
    7ffe:	00f10593          	addi	a1,sp,15
    8002:	4501                	li	a0,0
    8004:	ea0ff0ef          	jal	ra,76a4 <_write>
    8008:	008487b3          	add	a5,s1,s0
    800c:	0007c783          	lbu	a5,0(a5)
    8010:	00f107a3          	sb	a5,15(sp)
    8014:	b7c9                	j	7fd6 <puts+0x14>

00008016 <__udivdi3>:
    8016:	8832                	mv	a6,a2
    8018:	88aa                	mv	a7,a0
    801a:	872e                	mv	a4,a1
    801c:	eec5                	bnez	a3,80d4 <__udivdi3+0xbe>
    801e:	10c5f363          	bgeu	a1,a2,8124 <__udivdi3+0x10e>
    8022:	67c1                	lui	a5,0x10
    8024:	1af66063          	bltu	a2,a5,81c4 <__udivdi3+0x1ae>
    8028:	010007b7          	lui	a5,0x1000
    802c:	00f637b3          	sltu	a5,a2,a5
    8030:	40f007b3          	neg	a5,a5
    8034:	9be1                	andi	a5,a5,-8
    8036:	07e1                	addi	a5,a5,24 # 1000018 <_data_lma+0xff3dac>
    8038:	00f65333          	srl	t1,a2,a5
    803c:	00004697          	auipc	a3,0x4
    8040:	13068693          	addi	a3,a3,304 # c16c <__clz_tab>
    8044:	969a                	add	a3,a3,t1
    8046:	0006c683          	lbu	a3,0(a3)
    804a:	02000313          	li	t1,32
    804e:	97b6                	add	a5,a5,a3
    8050:	40f306b3          	sub	a3,t1,a5
    8054:	00f30b63          	beq	t1,a5,806a <__udivdi3+0x54>
    8058:	00d59733          	sll	a4,a1,a3
    805c:	00f557b3          	srl	a5,a0,a5
    8060:	00d61833          	sll	a6,a2,a3
    8064:	8f5d                	or	a4,a4,a5
    8066:	00d518b3          	sll	a7,a0,a3
    806a:	01085613          	srli	a2,a6,0x10
    806e:	02c75533          	divu	a0,a4,a2
    8072:	01081693          	slli	a3,a6,0x10
    8076:	82c1                	srli	a3,a3,0x10
    8078:	0108d793          	srli	a5,a7,0x10
    807c:	02c77733          	remu	a4,a4,a2
    8080:	02a685b3          	mul	a1,a3,a0
    8084:	0742                	slli	a4,a4,0x10
    8086:	8fd9                	or	a5,a5,a4
    8088:	00b7fa63          	bgeu	a5,a1,809c <__udivdi3+0x86>
    808c:	97c2                	add	a5,a5,a6
    808e:	fff50713          	addi	a4,a0,-1
    8092:	0107e463          	bltu	a5,a6,809a <__udivdi3+0x84>
    8096:	32b7e163          	bltu	a5,a1,83b8 <__udivdi3+0x3a2>
    809a:	853a                	mv	a0,a4
    809c:	8f8d                	sub	a5,a5,a1
    809e:	02c7d733          	divu	a4,a5,a2
    80a2:	08c2                	slli	a7,a7,0x10
    80a4:	0108d893          	srli	a7,a7,0x10
    80a8:	02c7f7b3          	remu	a5,a5,a2
    80ac:	02e686b3          	mul	a3,a3,a4
    80b0:	07c2                	slli	a5,a5,0x10
    80b2:	00f8e8b3          	or	a7,a7,a5
    80b6:	00d8fb63          	bgeu	a7,a3,80cc <__udivdi3+0xb6>
    80ba:	98c2                	add	a7,a7,a6
    80bc:	fff70793          	addi	a5,a4,-1
    80c0:	0108e563          	bltu	a7,a6,80ca <__udivdi3+0xb4>
    80c4:	1779                	addi	a4,a4,-2
    80c6:	00d8e363          	bltu	a7,a3,80cc <__udivdi3+0xb6>
    80ca:	873e                	mv	a4,a5
    80cc:	0542                	slli	a0,a0,0x10
    80ce:	8d59                	or	a0,a0,a4
    80d0:	4581                	li	a1,0
    80d2:	8082                	ret
    80d4:	00d5f563          	bgeu	a1,a3,80de <__udivdi3+0xc8>
    80d8:	4581                	li	a1,0
    80da:	4501                	li	a0,0
    80dc:	8082                	ret
    80de:	67c1                	lui	a5,0x10
    80e0:	18f6ea63          	bltu	a3,a5,8274 <__udivdi3+0x25e>
    80e4:	010007b7          	lui	a5,0x1000
    80e8:	00f6b7b3          	sltu	a5,a3,a5
    80ec:	40f007b3          	neg	a5,a5
    80f0:	9be1                	andi	a5,a5,-8
    80f2:	07e1                	addi	a5,a5,24 # 1000018 <_data_lma+0xff3dac>
    80f4:	00f6d833          	srl	a6,a3,a5
    80f8:	00004717          	auipc	a4,0x4
    80fc:	07470713          	addi	a4,a4,116 # c16c <__clz_tab>
    8100:	9742                	add	a4,a4,a6
    8102:	00074703          	lbu	a4,0(a4)
    8106:	02000893          	li	a7,32
    810a:	973e                	add	a4,a4,a5
    810c:	40e88833          	sub	a6,a7,a4
    8110:	18e89763          	bne	a7,a4,829e <__udivdi3+0x288>
    8114:	28b6e463          	bltu	a3,a1,839c <__udivdi3+0x386>
    8118:	00c53533          	sltu	a0,a0,a2
    811c:	00154513          	xori	a0,a0,1
    8120:	4581                	li	a1,0
    8122:	8082                	ret
    8124:	c655                	beqz	a2,81d0 <__udivdi3+0x1ba>
    8126:	67c1                	lui	a5,0x10
    8128:	26f67263          	bgeu	a2,a5,838c <__udivdi3+0x376>
    812c:	10063713          	sltiu	a4,a2,256
    8130:	00174713          	xori	a4,a4,1
    8134:	070e                	slli	a4,a4,0x3
    8136:	00e656b3          	srl	a3,a2,a4
    813a:	00004797          	auipc	a5,0x4
    813e:	03278793          	addi	a5,a5,50 # c16c <__clz_tab>
    8142:	97b6                	add	a5,a5,a3
    8144:	0007c783          	lbu	a5,0(a5)
    8148:	02000693          	li	a3,32
    814c:	97ba                	add	a5,a5,a4
    814e:	40f68eb3          	sub	t4,a3,a5
    8152:	08f69f63          	bne	a3,a5,81f0 <__udivdi3+0x1da>
    8156:	40c587b3          	sub	a5,a1,a2
    815a:	01065693          	srli	a3,a2,0x10
    815e:	0642                	slli	a2,a2,0x10
    8160:	8241                	srli	a2,a2,0x10
    8162:	4585                	li	a1,1
    8164:	02d7d533          	divu	a0,a5,a3
    8168:	0108d713          	srli	a4,a7,0x10
    816c:	02d7f7b3          	remu	a5,a5,a3
    8170:	02c50333          	mul	t1,a0,a2
    8174:	07c2                	slli	a5,a5,0x10
    8176:	8fd9                	or	a5,a5,a4
    8178:	0067fa63          	bgeu	a5,t1,818c <__udivdi3+0x176>
    817c:	97c2                	add	a5,a5,a6
    817e:	fff50713          	addi	a4,a0,-1
    8182:	0107e463          	bltu	a5,a6,818a <__udivdi3+0x174>
    8186:	2267e663          	bltu	a5,t1,83b2 <__udivdi3+0x39c>
    818a:	853a                	mv	a0,a4
    818c:	406787b3          	sub	a5,a5,t1
    8190:	02d7d733          	divu	a4,a5,a3
    8194:	08c2                	slli	a7,a7,0x10
    8196:	0108d893          	srli	a7,a7,0x10
    819a:	02d7f7b3          	remu	a5,a5,a3
    819e:	02c70633          	mul	a2,a4,a2
    81a2:	07c2                	slli	a5,a5,0x10
    81a4:	00f8e8b3          	or	a7,a7,a5
    81a8:	00c8fb63          	bgeu	a7,a2,81be <__udivdi3+0x1a8>
    81ac:	98c2                	add	a7,a7,a6
    81ae:	fff70793          	addi	a5,a4,-1
    81b2:	0108e563          	bltu	a7,a6,81bc <__udivdi3+0x1a6>
    81b6:	1779                	addi	a4,a4,-2
    81b8:	00c8e363          	bltu	a7,a2,81be <__udivdi3+0x1a8>
    81bc:	873e                	mv	a4,a5
    81be:	0542                	slli	a0,a0,0x10
    81c0:	8d59                	or	a0,a0,a4
    81c2:	8082                	ret
    81c4:	10063793          	sltiu	a5,a2,256
    81c8:	0017c793          	xori	a5,a5,1
    81cc:	078e                	slli	a5,a5,0x3
    81ce:	b5ad                	j	8038 <__udivdi3+0x22>
    81d0:	4681                	li	a3,0
    81d2:	00004797          	auipc	a5,0x4
    81d6:	f9a78793          	addi	a5,a5,-102 # c16c <__clz_tab>
    81da:	97b6                	add	a5,a5,a3
    81dc:	0007c783          	lbu	a5,0(a5)
    81e0:	4701                	li	a4,0
    81e2:	02000693          	li	a3,32
    81e6:	97ba                	add	a5,a5,a4
    81e8:	40f68eb3          	sub	t4,a3,a5
    81ec:	f6f685e3          	beq	a3,a5,8156 <__udivdi3+0x140>
    81f0:	01d61833          	sll	a6,a2,t4
    81f4:	00f5d333          	srl	t1,a1,a5
    81f8:	01085693          	srli	a3,a6,0x10
    81fc:	02d35e33          	divu	t3,t1,a3
    8200:	01081613          	slli	a2,a6,0x10
    8204:	01d595b3          	sll	a1,a1,t4
    8208:	8241                	srli	a2,a2,0x10
    820a:	00f557b3          	srl	a5,a0,a5
    820e:	8fcd                	or	a5,a5,a1
    8210:	0107d713          	srli	a4,a5,0x10
    8214:	01d518b3          	sll	a7,a0,t4
    8218:	02d37333          	remu	t1,t1,a3
    821c:	03c605b3          	mul	a1,a2,t3
    8220:	0342                	slli	t1,t1,0x10
    8222:	00676733          	or	a4,a4,t1
    8226:	00b77b63          	bgeu	a4,a1,823c <__udivdi3+0x226>
    822a:	9742                	add	a4,a4,a6
    822c:	fffe0513          	addi	a0,t3,-1 # ffff <_data_lma+0x3d93>
    8230:	17076d63          	bltu	a4,a6,83aa <__udivdi3+0x394>
    8234:	16b77b63          	bgeu	a4,a1,83aa <__udivdi3+0x394>
    8238:	1e79                	addi	t3,t3,-2
    823a:	9742                	add	a4,a4,a6
    823c:	8f0d                	sub	a4,a4,a1
    823e:	02d75533          	divu	a0,a4,a3
    8242:	07c2                	slli	a5,a5,0x10
    8244:	83c1                	srli	a5,a5,0x10
    8246:	02d77733          	remu	a4,a4,a3
    824a:	02a60333          	mul	t1,a2,a0
    824e:	0742                	slli	a4,a4,0x10
    8250:	8fd9                	or	a5,a5,a4
    8252:	0067fb63          	bgeu	a5,t1,8268 <__udivdi3+0x252>
    8256:	97c2                	add	a5,a5,a6
    8258:	fff50713          	addi	a4,a0,-1
    825c:	1507e363          	bltu	a5,a6,83a2 <__udivdi3+0x38c>
    8260:	1467f163          	bgeu	a5,t1,83a2 <__udivdi3+0x38c>
    8264:	1579                	addi	a0,a0,-2
    8266:	97c2                	add	a5,a5,a6
    8268:	010e1593          	slli	a1,t3,0x10
    826c:	406787b3          	sub	a5,a5,t1
    8270:	8dc9                	or	a1,a1,a0
    8272:	bdcd                	j	8164 <__udivdi3+0x14e>
    8274:	1006b793          	sltiu	a5,a3,256
    8278:	0017c793          	xori	a5,a5,1
    827c:	078e                	slli	a5,a5,0x3
    827e:	00f6d833          	srl	a6,a3,a5
    8282:	00004717          	auipc	a4,0x4
    8286:	eea70713          	addi	a4,a4,-278 # c16c <__clz_tab>
    828a:	9742                	add	a4,a4,a6
    828c:	00074703          	lbu	a4,0(a4)
    8290:	02000893          	li	a7,32
    8294:	973e                	add	a4,a4,a5
    8296:	40e88833          	sub	a6,a7,a4
    829a:	e6e88de3          	beq	a7,a4,8114 <__udivdi3+0xfe>
    829e:	00e65e33          	srl	t3,a2,a4
    82a2:	010696b3          	sll	a3,a3,a6
    82a6:	00de6e33          	or	t3,t3,a3
    82aa:	00e5d8b3          	srl	a7,a1,a4
    82ae:	010e5e93          	srli	t4,t3,0x10
    82b2:	03d8d7b3          	divu	a5,a7,t4
    82b6:	010e1313          	slli	t1,t3,0x10
    82ba:	010595b3          	sll	a1,a1,a6
    82be:	01035313          	srli	t1,t1,0x10
    82c2:	00e55733          	srl	a4,a0,a4
    82c6:	8f4d                	or	a4,a4,a1
    82c8:	01075693          	srli	a3,a4,0x10
    82cc:	01061633          	sll	a2,a2,a6
    82d0:	03d8f8b3          	remu	a7,a7,t4
    82d4:	02f305b3          	mul	a1,t1,a5
    82d8:	08c2                	slli	a7,a7,0x10
    82da:	0116e6b3          	or	a3,a3,a7
    82de:	00b6fb63          	bgeu	a3,a1,82f4 <__udivdi3+0x2de>
    82e2:	96f2                	add	a3,a3,t3
    82e4:	fff78893          	addi	a7,a5,-1
    82e8:	0dc6e363          	bltu	a3,t3,83ae <__udivdi3+0x398>
    82ec:	0cb6f163          	bgeu	a3,a1,83ae <__udivdi3+0x398>
    82f0:	17f9                	addi	a5,a5,-2
    82f2:	96f2                	add	a3,a3,t3
    82f4:	8e8d                	sub	a3,a3,a1
    82f6:	03d6d5b3          	divu	a1,a3,t4
    82fa:	0742                	slli	a4,a4,0x10
    82fc:	8341                	srli	a4,a4,0x10
    82fe:	03d6f6b3          	remu	a3,a3,t4
    8302:	02b308b3          	mul	a7,t1,a1
    8306:	06c2                	slli	a3,a3,0x10
    8308:	8f55                	or	a4,a4,a3
    830a:	01177b63          	bgeu	a4,a7,8320 <__udivdi3+0x30a>
    830e:	9772                	add	a4,a4,t3
    8310:	fff58693          	addi	a3,a1,-1 # 7fffff <_data_lma+0x7f3d93>
    8314:	09c76963          	bltu	a4,t3,83a6 <__udivdi3+0x390>
    8318:	09177763          	bgeu	a4,a7,83a6 <__udivdi3+0x390>
    831c:	15f9                	addi	a1,a1,-2
    831e:	9772                	add	a4,a4,t3
    8320:	07c2                	slli	a5,a5,0x10
    8322:	6ec1                	lui	t4,0x10
    8324:	8fcd                	or	a5,a5,a1
    8326:	fffe8693          	addi	a3,t4,-1 # ffff <_data_lma+0x3d93>
    832a:	00d7f5b3          	and	a1,a5,a3
    832e:	0107d313          	srli	t1,a5,0x10
    8332:	8ef1                	and	a3,a3,a2
    8334:	8241                	srli	a2,a2,0x10
    8336:	02d58e33          	mul	t3,a1,a3
    833a:	41170733          	sub	a4,a4,a7
    833e:	02d306b3          	mul	a3,t1,a3
    8342:	010e5893          	srli	a7,t3,0x10
    8346:	02c585b3          	mul	a1,a1,a2
    834a:	95b6                	add	a1,a1,a3
    834c:	95c6                	add	a1,a1,a7
    834e:	02c30333          	mul	t1,t1,a2
    8352:	00d5f363          	bgeu	a1,a3,8358 <__udivdi3+0x342>
    8356:	9376                	add	t1,t1,t4
    8358:	0105d693          	srli	a3,a1,0x10
    835c:	969a                	add	a3,a3,t1
    835e:	02d76363          	bltu	a4,a3,8384 <__udivdi3+0x36e>
    8362:	00d70563          	beq	a4,a3,836c <__udivdi3+0x356>
    8366:	853e                	mv	a0,a5
    8368:	4581                	li	a1,0
    836a:	8082                	ret
    836c:	66c1                	lui	a3,0x10
    836e:	16fd                	addi	a3,a3,-1 # ffff <_data_lma+0x3d93>
    8370:	00d5f733          	and	a4,a1,a3
    8374:	0742                	slli	a4,a4,0x10
    8376:	00de7e33          	and	t3,t3,a3
    837a:	01051533          	sll	a0,a0,a6
    837e:	9772                	add	a4,a4,t3
    8380:	fee573e3          	bgeu	a0,a4,8366 <__udivdi3+0x350>
    8384:	fff78513          	addi	a0,a5,-1
    8388:	4581                	li	a1,0
    838a:	8082                	ret
    838c:	010007b7          	lui	a5,0x1000
    8390:	02f67763          	bgeu	a2,a5,83be <__udivdi3+0x3a8>
    8394:	01065693          	srli	a3,a2,0x10
    8398:	4741                	li	a4,16
    839a:	b345                	j	813a <__udivdi3+0x124>
    839c:	4581                	li	a1,0
    839e:	4505                	li	a0,1
    83a0:	8082                	ret
    83a2:	853a                	mv	a0,a4
    83a4:	b5d1                	j	8268 <__udivdi3+0x252>
    83a6:	85b6                	mv	a1,a3
    83a8:	bfa5                	j	8320 <__udivdi3+0x30a>
    83aa:	8e2a                	mv	t3,a0
    83ac:	bd41                	j	823c <__udivdi3+0x226>
    83ae:	87c6                	mv	a5,a7
    83b0:	b791                	j	82f4 <__udivdi3+0x2de>
    83b2:	1579                	addi	a0,a0,-2
    83b4:	97c2                	add	a5,a5,a6
    83b6:	bbd9                	j	818c <__udivdi3+0x176>
    83b8:	1579                	addi	a0,a0,-2
    83ba:	97c2                	add	a5,a5,a6
    83bc:	b1c5                	j	809c <__udivdi3+0x86>
    83be:	01865693          	srli	a3,a2,0x18
    83c2:	4761                	li	a4,24
    83c4:	bb9d                	j	813a <__udivdi3+0x124>

000083c6 <__umoddi3>:
    83c6:	8832                	mv	a6,a2
    83c8:	88aa                	mv	a7,a0
    83ca:	832e                	mv	t1,a1
    83cc:	872e                	mv	a4,a1
    83ce:	e6dd                	bnez	a3,847c <__umoddi3+0xb6>
    83d0:	10c5f363          	bgeu	a1,a2,84d6 <__umoddi3+0x110>
    83d4:	67c1                	lui	a5,0x10
    83d6:	18f66663          	bltu	a2,a5,8562 <__umoddi3+0x19c>
    83da:	010007b7          	lui	a5,0x1000
    83de:	00f637b3          	sltu	a5,a2,a5
    83e2:	40f007b3          	neg	a5,a5
    83e6:	9be1                	andi	a5,a5,-8
    83e8:	07e1                	addi	a5,a5,24 # 1000018 <_data_lma+0xff3dac>
    83ea:	00f65333          	srl	t1,a2,a5
    83ee:	00004697          	auipc	a3,0x4
    83f2:	d7e68693          	addi	a3,a3,-642 # c16c <__clz_tab>
    83f6:	969a                	add	a3,a3,t1
    83f8:	0006c683          	lbu	a3,0(a3)
    83fc:	02000313          	li	t1,32
    8400:	97b6                	add	a5,a5,a3
    8402:	40f306b3          	sub	a3,t1,a5
    8406:	00f30b63          	beq	t1,a5,841c <__umoddi3+0x56>
    840a:	00d59733          	sll	a4,a1,a3
    840e:	00f557b3          	srl	a5,a0,a5
    8412:	00d61833          	sll	a6,a2,a3
    8416:	8f5d                	or	a4,a4,a5
    8418:	00d518b3          	sll	a7,a0,a3
    841c:	01085593          	srli	a1,a6,0x10
    8420:	02b75633          	divu	a2,a4,a1
    8424:	01081313          	slli	t1,a6,0x10
    8428:	01035313          	srli	t1,t1,0x10
    842c:	0108d793          	srli	a5,a7,0x10
    8430:	02b77733          	remu	a4,a4,a1
    8434:	02660633          	mul	a2,a2,t1
    8438:	0742                	slli	a4,a4,0x10
    843a:	8fd9                	or	a5,a5,a4
    843c:	00c7f763          	bgeu	a5,a2,844a <__umoddi3+0x84>
    8440:	97c2                	add	a5,a5,a6
    8442:	0107e463          	bltu	a5,a6,844a <__umoddi3+0x84>
    8446:	30c7e763          	bltu	a5,a2,8754 <__umoddi3+0x38e>
    844a:	8f91                	sub	a5,a5,a2
    844c:	02b7d733          	divu	a4,a5,a1
    8450:	01089513          	slli	a0,a7,0x10
    8454:	8141                	srli	a0,a0,0x10
    8456:	02b7f7b3          	remu	a5,a5,a1
    845a:	02670733          	mul	a4,a4,t1
    845e:	07c2                	slli	a5,a5,0x10
    8460:	8d5d                	or	a0,a0,a5
    8462:	00e57863          	bgeu	a0,a4,8472 <__umoddi3+0xac>
    8466:	9542                	add	a0,a0,a6
    8468:	01056563          	bltu	a0,a6,8472 <__umoddi3+0xac>
    846c:	00e57363          	bgeu	a0,a4,8472 <__umoddi3+0xac>
    8470:	9542                	add	a0,a0,a6
    8472:	8d19                	sub	a0,a0,a4
    8474:	00d55533          	srl	a0,a0,a3
    8478:	4581                	li	a1,0
    847a:	8082                	ret
    847c:	00d5f363          	bgeu	a1,a3,8482 <__umoddi3+0xbc>
    8480:	8082                	ret
    8482:	67c1                	lui	a5,0x10
    8484:	16f6ed63          	bltu	a3,a5,85fe <__umoddi3+0x238>
    8488:	010007b7          	lui	a5,0x1000
    848c:	00f6b7b3          	sltu	a5,a3,a5
    8490:	40f007b3          	neg	a5,a5
    8494:	9be1                	andi	a5,a5,-8
    8496:	07e1                	addi	a5,a5,24 # 1000018 <_data_lma+0xff3dac>
    8498:	00f6d833          	srl	a6,a3,a5
    849c:	00004717          	auipc	a4,0x4
    84a0:	cd070713          	addi	a4,a4,-816 # c16c <__clz_tab>
    84a4:	9742                	add	a4,a4,a6
    84a6:	00074703          	lbu	a4,0(a4)
    84aa:	02000e13          	li	t3,32
    84ae:	973e                	add	a4,a4,a5
    84b0:	40ee0833          	sub	a6,t3,a4
    84b4:	16ee1a63          	bne	t3,a4,8628 <__umoddi3+0x262>
    84b8:	00b6e463          	bltu	a3,a1,84c0 <__umoddi3+0xfa>
    84bc:	00c56a63          	bltu	a0,a2,84d0 <__umoddi3+0x10a>
    84c0:	40c508b3          	sub	a7,a0,a2
    84c4:	40d586b3          	sub	a3,a1,a3
    84c8:	01153333          	sltu	t1,a0,a7
    84cc:	40668333          	sub	t1,a3,t1
    84d0:	8546                	mv	a0,a7
    84d2:	859a                	mv	a1,t1
    84d4:	8082                	ret
    84d6:	ce41                	beqz	a2,856e <__umoddi3+0x1a8>
    84d8:	67c1                	lui	a5,0x10
    84da:	26f67163          	bgeu	a2,a5,873c <__umoddi3+0x376>
    84de:	10063713          	sltiu	a4,a2,256
    84e2:	00174713          	xori	a4,a4,1
    84e6:	070e                	slli	a4,a4,0x3
    84e8:	00e656b3          	srl	a3,a2,a4
    84ec:	00004797          	auipc	a5,0x4
    84f0:	c8078793          	addi	a5,a5,-896 # c16c <__clz_tab>
    84f4:	97b6                	add	a5,a5,a3
    84f6:	0007c783          	lbu	a5,0(a5)
    84fa:	02000313          	li	t1,32
    84fe:	97ba                	add	a5,a5,a4
    8500:	40f306b3          	sub	a3,t1,a5
    8504:	08f31563          	bne	t1,a5,858e <__umoddi3+0x1c8>
    8508:	40c58733          	sub	a4,a1,a2
    850c:	01065313          	srli	t1,a2,0x10
    8510:	0642                	slli	a2,a2,0x10
    8512:	8241                	srli	a2,a2,0x10
    8514:	026755b3          	divu	a1,a4,t1
    8518:	0108d793          	srli	a5,a7,0x10
    851c:	02677733          	remu	a4,a4,t1
    8520:	02c585b3          	mul	a1,a1,a2
    8524:	0742                	slli	a4,a4,0x10
    8526:	8fd9                	or	a5,a5,a4
    8528:	00b7f863          	bgeu	a5,a1,8538 <__umoddi3+0x172>
    852c:	97c2                	add	a5,a5,a6
    852e:	0107e563          	bltu	a5,a6,8538 <__umoddi3+0x172>
    8532:	00b7f363          	bgeu	a5,a1,8538 <__umoddi3+0x172>
    8536:	97c2                	add	a5,a5,a6
    8538:	8f8d                	sub	a5,a5,a1
    853a:	0267d733          	divu	a4,a5,t1
    853e:	08c2                	slli	a7,a7,0x10
    8540:	0108d893          	srli	a7,a7,0x10
    8544:	0267f7b3          	remu	a5,a5,t1
    8548:	02c70733          	mul	a4,a4,a2
    854c:	01079513          	slli	a0,a5,0x10
    8550:	00a8e533          	or	a0,a7,a0
    8554:	f0e569e3          	bltu	a0,a4,8466 <__umoddi3+0xa0>
    8558:	8d19                	sub	a0,a0,a4
    855a:	00d55533          	srl	a0,a0,a3
    855e:	4581                	li	a1,0
    8560:	8082                	ret
    8562:	10063793          	sltiu	a5,a2,256
    8566:	0017c793          	xori	a5,a5,1
    856a:	078e                	slli	a5,a5,0x3
    856c:	bdbd                	j	83ea <__umoddi3+0x24>
    856e:	4681                	li	a3,0
    8570:	00004797          	auipc	a5,0x4
    8574:	bfc78793          	addi	a5,a5,-1028 # c16c <__clz_tab>
    8578:	97b6                	add	a5,a5,a3
    857a:	0007c783          	lbu	a5,0(a5)
    857e:	4701                	li	a4,0
    8580:	02000313          	li	t1,32
    8584:	97ba                	add	a5,a5,a4
    8586:	40f306b3          	sub	a3,t1,a5
    858a:	f6f30fe3          	beq	t1,a5,8508 <__umoddi3+0x142>
    858e:	00d61833          	sll	a6,a2,a3
    8592:	00f5de33          	srl	t3,a1,a5
    8596:	01085313          	srli	t1,a6,0x10
    859a:	026e5eb3          	divu	t4,t3,t1
    859e:	01081613          	slli	a2,a6,0x10
    85a2:	00d595b3          	sll	a1,a1,a3
    85a6:	00f55733          	srl	a4,a0,a5
    85aa:	8241                	srli	a2,a2,0x10
    85ac:	8f4d                	or	a4,a4,a1
    85ae:	01075793          	srli	a5,a4,0x10
    85b2:	00d518b3          	sll	a7,a0,a3
    85b6:	026e7e33          	remu	t3,t3,t1
    85ba:	02ce85b3          	mul	a1,t4,a2
    85be:	0e42                	slli	t3,t3,0x10
    85c0:	01c7e7b3          	or	a5,a5,t3
    85c4:	00b7f863          	bgeu	a5,a1,85d4 <__umoddi3+0x20e>
    85c8:	97c2                	add	a5,a5,a6
    85ca:	0107e563          	bltu	a5,a6,85d4 <__umoddi3+0x20e>
    85ce:	00b7f363          	bgeu	a5,a1,85d4 <__umoddi3+0x20e>
    85d2:	97c2                	add	a5,a5,a6
    85d4:	8f8d                	sub	a5,a5,a1
    85d6:	0267d5b3          	divu	a1,a5,t1
    85da:	0742                	slli	a4,a4,0x10
    85dc:	8341                	srli	a4,a4,0x10
    85de:	0267f7b3          	remu	a5,a5,t1
    85e2:	02c585b3          	mul	a1,a1,a2
    85e6:	07c2                	slli	a5,a5,0x10
    85e8:	8f5d                	or	a4,a4,a5
    85ea:	00b77863          	bgeu	a4,a1,85fa <__umoddi3+0x234>
    85ee:	9742                	add	a4,a4,a6
    85f0:	01076563          	bltu	a4,a6,85fa <__umoddi3+0x234>
    85f4:	00b77363          	bgeu	a4,a1,85fa <__umoddi3+0x234>
    85f8:	9742                	add	a4,a4,a6
    85fa:	8f0d                	sub	a4,a4,a1
    85fc:	bf21                	j	8514 <__umoddi3+0x14e>
    85fe:	1006b793          	sltiu	a5,a3,256
    8602:	0017c793          	xori	a5,a5,1
    8606:	078e                	slli	a5,a5,0x3
    8608:	00f6d833          	srl	a6,a3,a5
    860c:	00004717          	auipc	a4,0x4
    8610:	b6070713          	addi	a4,a4,-1184 # c16c <__clz_tab>
    8614:	9742                	add	a4,a4,a6
    8616:	00074703          	lbu	a4,0(a4)
    861a:	02000e13          	li	t3,32
    861e:	973e                	add	a4,a4,a5
    8620:	40ee0833          	sub	a6,t3,a4
    8624:	e8ee0ae3          	beq	t3,a4,84b8 <__umoddi3+0xf2>
    8628:	010696b3          	sll	a3,a3,a6
    862c:	00e658b3          	srl	a7,a2,a4
    8630:	00d8e8b3          	or	a7,a7,a3
    8634:	00e5de33          	srl	t3,a1,a4
    8638:	0108df13          	srli	t5,a7,0x10
    863c:	03ee57b3          	divu	a5,t3,t5
    8640:	01089e93          	slli	t4,a7,0x10
    8644:	010ede93          	srli	t4,t4,0x10
    8648:	00e556b3          	srl	a3,a0,a4
    864c:	01051333          	sll	t1,a0,a6
    8650:	010595b3          	sll	a1,a1,a6
    8654:	8dd5                	or	a1,a1,a3
    8656:	0105d693          	srli	a3,a1,0x10
    865a:	01061633          	sll	a2,a2,a6
    865e:	03ee7e33          	remu	t3,t3,t5
    8662:	02fe8533          	mul	a0,t4,a5
    8666:	0e42                	slli	t3,t3,0x10
    8668:	01c6e6b3          	or	a3,a3,t3
    866c:	00a6fb63          	bgeu	a3,a0,8682 <__umoddi3+0x2bc>
    8670:	96c6                	add	a3,a3,a7
    8672:	fff78e13          	addi	t3,a5,-1
    8676:	0d16ed63          	bltu	a3,a7,8750 <__umoddi3+0x38a>
    867a:	0ca6fb63          	bgeu	a3,a0,8750 <__umoddi3+0x38a>
    867e:	17f9                	addi	a5,a5,-2
    8680:	96c6                	add	a3,a3,a7
    8682:	8e89                	sub	a3,a3,a0
    8684:	03e6d533          	divu	a0,a3,t5
    8688:	05c2                	slli	a1,a1,0x10
    868a:	81c1                	srli	a1,a1,0x10
    868c:	03e6f6b3          	remu	a3,a3,t5
    8690:	02ae8eb3          	mul	t4,t4,a0
    8694:	06c2                	slli	a3,a3,0x10
    8696:	8dd5                	or	a1,a1,a3
    8698:	01d5fb63          	bgeu	a1,t4,86ae <__umoddi3+0x2e8>
    869c:	95c6                	add	a1,a1,a7
    869e:	fff50693          	addi	a3,a0,-1
    86a2:	0b15e563          	bltu	a1,a7,874c <__umoddi3+0x386>
    86a6:	0bd5f363          	bgeu	a1,t4,874c <__umoddi3+0x386>
    86aa:	1579                	addi	a0,a0,-2
    86ac:	95c6                	add	a1,a1,a7
    86ae:	01079693          	slli	a3,a5,0x10
    86b2:	62c1                	lui	t0,0x10
    86b4:	8ec9                	or	a3,a3,a0
    86b6:	fff28513          	addi	a0,t0,-1 # ffff <_data_lma+0x3d93>
    86ba:	00a6fe33          	and	t3,a3,a0
    86be:	01065f93          	srli	t6,a2,0x10
    86c2:	82c1                	srli	a3,a3,0x10
    86c4:	8d71                	and	a0,a0,a2
    86c6:	02ae0f33          	mul	t5,t3,a0
    86ca:	41d585b3          	sub	a1,a1,t4
    86ce:	02a68533          	mul	a0,a3,a0
    86d2:	010f5793          	srli	a5,t5,0x10
    86d6:	03fe0e33          	mul	t3,t3,t6
    86da:	9e2a                	add	t3,t3,a0
    86dc:	97f2                	add	a5,a5,t3
    86de:	03f686b3          	mul	a3,a3,t6
    86e2:	00a7f363          	bgeu	a5,a0,86e8 <__umoddi3+0x322>
    86e6:	9696                	add	a3,a3,t0
    86e8:	6ec1                	lui	t4,0x10
    86ea:	1efd                	addi	t4,t4,-1 # ffff <_data_lma+0x3d93>
    86ec:	01d7f533          	and	a0,a5,t4
    86f0:	0107de13          	srli	t3,a5,0x10
    86f4:	0542                	slli	a0,a0,0x10
    86f6:	01df7f33          	and	t5,t5,t4
    86fa:	00de07b3          	add	a5,t3,a3
    86fe:	957a                	add	a0,a0,t5
    8700:	02f5e563          	bltu	a1,a5,872a <__umoddi3+0x364>
    8704:	02f58163          	beq	a1,a5,8726 <__umoddi3+0x360>
    8708:	40a30533          	sub	a0,t1,a0
    870c:	00a33333          	sltu	t1,t1,a0
    8710:	8d9d                	sub	a1,a1,a5
    8712:	406585b3          	sub	a1,a1,t1
    8716:	00e59733          	sll	a4,a1,a4
    871a:	01055533          	srl	a0,a0,a6
    871e:	8d59                	or	a0,a0,a4
    8720:	0105d5b3          	srl	a1,a1,a6
    8724:	8082                	ret
    8726:	fea371e3          	bgeu	t1,a0,8708 <__umoddi3+0x342>
    872a:	40c50633          	sub	a2,a0,a2
    872e:	00c53533          	sltu	a0,a0,a2
    8732:	98aa                	add	a7,a7,a0
    8734:	411787b3          	sub	a5,a5,a7
    8738:	8532                	mv	a0,a2
    873a:	b7f9                	j	8708 <__umoddi3+0x342>
    873c:	010007b7          	lui	a5,0x1000
    8740:	00f67c63          	bgeu	a2,a5,8758 <__umoddi3+0x392>
    8744:	01065693          	srli	a3,a2,0x10
    8748:	4741                	li	a4,16
    874a:	b34d                	j	84ec <__umoddi3+0x126>
    874c:	8536                	mv	a0,a3
    874e:	b785                	j	86ae <__umoddi3+0x2e8>
    8750:	87f2                	mv	a5,t3
    8752:	bf05                	j	8682 <__umoddi3+0x2bc>
    8754:	97c2                	add	a5,a5,a6
    8756:	b9d5                	j	844a <__umoddi3+0x84>
    8758:	01865693          	srli	a3,a2,0x18
    875c:	4761                	li	a4,24
    875e:	b379                	j	84ec <__umoddi3+0x126>

00008760 <__adddf3>:
    8760:	001007b7          	lui	a5,0x100
    8764:	1101                	addi	sp,sp,-32
    8766:	17fd                	addi	a5,a5,-1 # fffff <_data_lma+0xf3d93>
    8768:	00b7f833          	and	a6,a5,a1
    876c:	0146d893          	srli	a7,a3,0x14
    8770:	8ff5                	and	a5,a5,a3
    8772:	cc22                	sw	s0,24(sp)
    8774:	0145d413          	srli	s0,a1,0x14
    8778:	00379713          	slli	a4,a5,0x3
    877c:	080e                	slli	a6,a6,0x3
    877e:	c84a                	sw	s2,16(sp)
    8780:	c64e                	sw	s3,12(sp)
    8782:	01d65793          	srli	a5,a2,0x1d
    8786:	01d55993          	srli	s3,a0,0x1d
    878a:	01f5d913          	srli	s2,a1,0x1f
    878e:	7ff47413          	andi	s0,s0,2047
    8792:	7ff8f893          	andi	a7,a7,2047
    8796:	ce06                	sw	ra,28(sp)
    8798:	ca26                	sw	s1,20(sp)
    879a:	82fd                	srli	a3,a3,0x1f
    879c:	0109e9b3          	or	s3,s3,a6
    87a0:	8fd9                	or	a5,a5,a4
    87a2:	00351593          	slli	a1,a0,0x3
    87a6:	00361813          	slli	a6,a2,0x3
    87aa:	41140733          	sub	a4,s0,a7
    87ae:	18d90463          	beq	s2,a3,8936 <__adddf3+0x1d6>
    87b2:	10e05e63          	blez	a4,88ce <__adddf3+0x16e>
    87b6:	20088863          	beqz	a7,89c6 <__adddf3+0x266>
    87ba:	7ff00693          	li	a3,2047
    87be:	52d40663          	beq	s0,a3,8cea <__adddf3+0x58a>
    87c2:	03800693          	li	a3,56
    87c6:	4485                	li	s1,1
    87c8:	02e6c963          	blt	a3,a4,87fa <__adddf3+0x9a>
    87cc:	008006b7          	lui	a3,0x800
    87d0:	8fd5                	or	a5,a5,a3
    87d2:	46fd                	li	a3,31
    87d4:	42e6c763          	blt	a3,a4,8c02 <__adddf3+0x4a2>
    87d8:	02000693          	li	a3,32
    87dc:	8e99                	sub	a3,a3,a4
    87de:	00d794b3          	sll	s1,a5,a3
    87e2:	00e85633          	srl	a2,a6,a4
    87e6:	00d816b3          	sll	a3,a6,a3
    87ea:	8cd1                	or	s1,s1,a2
    87ec:	00d036b3          	snez	a3,a3
    87f0:	00e7d733          	srl	a4,a5,a4
    87f4:	8cd5                	or	s1,s1,a3
    87f6:	40e989b3          	sub	s3,s3,a4
    87fa:	409584b3          	sub	s1,a1,s1
    87fe:	0095b7b3          	sltu	a5,a1,s1
    8802:	40f989b3          	sub	s3,s3,a5
    8806:	008007b7          	lui	a5,0x800
    880a:	00f9f733          	and	a4,s3,a5
    880e:	24070863          	beqz	a4,8a5e <__adddf3+0x2fe>
    8812:	17fd                	addi	a5,a5,-1 # 7fffff <_data_lma+0x7f3d93>
    8814:	00f9f9b3          	and	s3,s3,a5
    8818:	2a098663          	beqz	s3,8ac4 <__adddf3+0x364>
    881c:	854e                	mv	a0,s3
    881e:	661020ef          	jal	ra,b67e <__clzsi2>
    8822:	ff850713          	addi	a4,a0,-8
    8826:	02000693          	li	a3,32
    882a:	40e687b3          	sub	a5,a3,a4
    882e:	00f4d7b3          	srl	a5,s1,a5
    8832:	00e999b3          	sll	s3,s3,a4
    8836:	0137e7b3          	or	a5,a5,s3
    883a:	00e494b3          	sll	s1,s1,a4
    883e:	32874563          	blt	a4,s0,8b68 <__adddf3+0x408>
    8842:	8f01                	sub	a4,a4,s0
    8844:	0705                	addi	a4,a4,1
    8846:	8e99                	sub	a3,a3,a4
    8848:	00d49633          	sll	a2,s1,a3
    884c:	00e4d9b3          	srl	s3,s1,a4
    8850:	00c03633          	snez	a2,a2
    8854:	01366633          	or	a2,a2,s3
    8858:	00d796b3          	sll	a3,a5,a3
    885c:	00c6e4b3          	or	s1,a3,a2
    8860:	00e7d9b3          	srl	s3,a5,a4
    8864:	4401                	li	s0,0
    8866:	0074f793          	andi	a5,s1,7
    886a:	cf81                	beqz	a5,8882 <__adddf3+0x122>
    886c:	00f4f793          	andi	a5,s1,15
    8870:	4711                	li	a4,4
    8872:	00e78863          	beq	a5,a4,8882 <__adddf3+0x122>
    8876:	00448793          	addi	a5,s1,4
    887a:	0097b4b3          	sltu	s1,a5,s1
    887e:	99a6                	add	s3,s3,s1
    8880:	84be                	mv	s1,a5
    8882:	008007b7          	lui	a5,0x800
    8886:	00f9f7b3          	and	a5,s3,a5
    888a:	28078763          	beqz	a5,8b18 <__adddf3+0x3b8>
    888e:	0405                	addi	s0,s0,1
    8890:	7ff00793          	li	a5,2047
    8894:	1cf40063          	beq	s0,a5,8a54 <__adddf3+0x2f4>
    8898:	ff8007b7          	lui	a5,0xff800
    889c:	17fd                	addi	a5,a5,-1 # ff7fffff <_eusrstack+0xdf7fafff>
    889e:	00f9f7b3          	and	a5,s3,a5
    88a2:	01d79713          	slli	a4,a5,0x1d
    88a6:	808d                	srli	s1,s1,0x3
    88a8:	07a6                	slli	a5,a5,0x9
    88aa:	8f45                	or	a4,a4,s1
    88ac:	83b1                	srli	a5,a5,0xc
    88ae:	7ff47413          	andi	s0,s0,2047
    88b2:	0452                	slli	s0,s0,0x14
    88b4:	097e                	slli	s2,s2,0x1f
    88b6:	8c5d                	or	s0,s0,a5
    88b8:	01246433          	or	s0,s0,s2
    88bc:	40f2                	lw	ra,28(sp)
    88be:	85a2                	mv	a1,s0
    88c0:	4462                	lw	s0,24(sp)
    88c2:	44d2                	lw	s1,20(sp)
    88c4:	4942                	lw	s2,16(sp)
    88c6:	49b2                	lw	s3,12(sp)
    88c8:	853a                	mv	a0,a4
    88ca:	6105                	addi	sp,sp,32
    88cc:	8082                	ret
    88ce:	10070f63          	beqz	a4,89ec <__adddf3+0x28c>
    88d2:	40888733          	sub	a4,a7,s0
    88d6:	30041863          	bnez	s0,8be6 <__adddf3+0x486>
    88da:	00b9e533          	or	a0,s3,a1
    88de:	26050e63          	beqz	a0,8b5a <__adddf3+0x3fa>
    88e2:	fff70513          	addi	a0,a4,-1
    88e6:	48050e63          	beqz	a0,8d82 <__adddf3+0x622>
    88ea:	7ff00313          	li	t1,2047
    88ee:	42670a63          	beq	a4,t1,8d22 <__adddf3+0x5c2>
    88f2:	03800713          	li	a4,56
    88f6:	4485                	li	s1,1
    88f8:	02a74663          	blt	a4,a0,8924 <__adddf3+0x1c4>
    88fc:	872a                	mv	a4,a0
    88fe:	467d                	li	a2,31
    8900:	44e64063          	blt	a2,a4,8d40 <__adddf3+0x5e0>
    8904:	02000613          	li	a2,32
    8908:	8e19                	sub	a2,a2,a4
    890a:	00c994b3          	sll	s1,s3,a2
    890e:	00e5d533          	srl	a0,a1,a4
    8912:	00c59633          	sll	a2,a1,a2
    8916:	8cc9                	or	s1,s1,a0
    8918:	00c03633          	snez	a2,a2
    891c:	00e9d733          	srl	a4,s3,a4
    8920:	8cd1                	or	s1,s1,a2
    8922:	8f99                	sub	a5,a5,a4
    8924:	409804b3          	sub	s1,a6,s1
    8928:	00983833          	sltu	a6,a6,s1
    892c:	410789b3          	sub	s3,a5,a6
    8930:	8446                	mv	s0,a7
    8932:	8936                	mv	s2,a3
    8934:	bdc9                	j	8806 <__adddf3+0xa6>
    8936:	12e05963          	blez	a4,8a68 <__adddf3+0x308>
    893a:	10089063          	bnez	a7,8a3a <__adddf3+0x2da>
    893e:	0107e6b3          	or	a3,a5,a6
    8942:	20068f63          	beqz	a3,8b60 <__adddf3+0x400>
    8946:	fff70613          	addi	a2,a4,-1
    894a:	36060563          	beqz	a2,8cb4 <__adddf3+0x554>
    894e:	7ff00693          	li	a3,2047
    8952:	44d70e63          	beq	a4,a3,8dae <__adddf3+0x64e>
    8956:	03800713          	li	a4,56
    895a:	4685                	li	a3,1
    895c:	02c74663          	blt	a4,a2,8988 <__adddf3+0x228>
    8960:	8732                	mv	a4,a2
    8962:	46fd                	li	a3,31
    8964:	38e6cb63          	blt	a3,a4,8cfa <__adddf3+0x59a>
    8968:	02000613          	li	a2,32
    896c:	8e19                	sub	a2,a2,a4
    896e:	00c796b3          	sll	a3,a5,a2
    8972:	00e85533          	srl	a0,a6,a4
    8976:	00c81633          	sll	a2,a6,a2
    897a:	8ec9                	or	a3,a3,a0
    897c:	00c03633          	snez	a2,a2
    8980:	00e7d733          	srl	a4,a5,a4
    8984:	8ed1                	or	a3,a3,a2
    8986:	99ba                	add	s3,s3,a4
    8988:	00b687b3          	add	a5,a3,a1
    898c:	00d7b6b3          	sltu	a3,a5,a3
    8990:	84be                	mv	s1,a5
    8992:	99b6                	add	s3,s3,a3
    8994:	008007b7          	lui	a5,0x800
    8998:	00f9f7b3          	and	a5,s3,a5
    899c:	c3e9                	beqz	a5,8a5e <__adddf3+0x2fe>
    899e:	0405                	addi	s0,s0,1
    89a0:	7ff00793          	li	a5,2047
    89a4:	0af40863          	beq	s0,a5,8a54 <__adddf3+0x2f4>
    89a8:	ff8007b7          	lui	a5,0xff800
    89ac:	17fd                	addi	a5,a5,-1 # ff7fffff <_eusrstack+0xdf7fafff>
    89ae:	00f9f7b3          	and	a5,s3,a5
    89b2:	0014d713          	srli	a4,s1,0x1
    89b6:	8885                	andi	s1,s1,1
    89b8:	8f45                	or	a4,a4,s1
    89ba:	01f79493          	slli	s1,a5,0x1f
    89be:	8cd9                	or	s1,s1,a4
    89c0:	0017d993          	srli	s3,a5,0x1
    89c4:	b54d                	j	8866 <__adddf3+0x106>
    89c6:	0107e6b3          	or	a3,a5,a6
    89ca:	18068b63          	beqz	a3,8b60 <__adddf3+0x400>
    89ce:	fff70693          	addi	a3,a4,-1
    89d2:	30068163          	beqz	a3,8cd4 <__adddf3+0x574>
    89d6:	7ff00613          	li	a2,2047
    89da:	14c70f63          	beq	a4,a2,8b38 <__adddf3+0x3d8>
    89de:	03800713          	li	a4,56
    89e2:	4485                	li	s1,1
    89e4:	e0d74be3          	blt	a4,a3,87fa <__adddf3+0x9a>
    89e8:	8736                	mv	a4,a3
    89ea:	b3e5                	j	87d2 <__adddf3+0x72>
    89ec:	00140713          	addi	a4,s0,1
    89f0:	7fe77713          	andi	a4,a4,2046
    89f4:	1c071563          	bnez	a4,8bbe <__adddf3+0x45e>
    89f8:	00b9e8b3          	or	a7,s3,a1
    89fc:	0107e733          	or	a4,a5,a6
    8a00:	2a041063          	bnez	s0,8ca0 <__adddf3+0x540>
    8a04:	38088b63          	beqz	a7,8d9a <__adddf3+0x63a>
    8a08:	3a070c63          	beqz	a4,8dc0 <__adddf3+0x660>
    8a0c:	410584b3          	sub	s1,a1,a6
    8a10:	0095b733          	sltu	a4,a1,s1
    8a14:	40f98633          	sub	a2,s3,a5
    8a18:	8e19                	sub	a2,a2,a4
    8a1a:	00800737          	lui	a4,0x800
    8a1e:	8f71                	and	a4,a4,a2
    8a20:	40070163          	beqz	a4,8e22 <__adddf3+0x6c2>
    8a24:	40b805b3          	sub	a1,a6,a1
    8a28:	413787b3          	sub	a5,a5,s3
    8a2c:	00b83833          	sltu	a6,a6,a1
    8a30:	84ae                	mv	s1,a1
    8a32:	410789b3          	sub	s3,a5,a6
    8a36:	8936                	mv	s2,a3
    8a38:	b53d                	j	8866 <__adddf3+0x106>
    8a3a:	7ff00693          	li	a3,2047
    8a3e:	0ed40d63          	beq	s0,a3,8b38 <__adddf3+0x3d8>
    8a42:	03800613          	li	a2,56
    8a46:	4685                	li	a3,1
    8a48:	f4e640e3          	blt	a2,a4,8988 <__adddf3+0x228>
    8a4c:	008006b7          	lui	a3,0x800
    8a50:	8fd5                	or	a5,a5,a3
    8a52:	bf01                	j	8962 <__adddf3+0x202>
    8a54:	7ff00413          	li	s0,2047
    8a58:	4781                	li	a5,0
    8a5a:	4701                	li	a4,0
    8a5c:	bd99                	j	88b2 <__adddf3+0x152>
    8a5e:	0074f713          	andi	a4,s1,7
    8a62:	e00715e3          	bnez	a4,886c <__adddf3+0x10c>
    8a66:	aa89                	j	8bb8 <__adddf3+0x458>
    8a68:	10070763          	beqz	a4,8b76 <__adddf3+0x416>
    8a6c:	40888733          	sub	a4,a7,s0
    8a70:	1a040d63          	beqz	s0,8c2a <__adddf3+0x4ca>
    8a74:	7ff00693          	li	a3,2047
    8a78:	2ad88d63          	beq	a7,a3,8d32 <__adddf3+0x5d2>
    8a7c:	03800613          	li	a2,56
    8a80:	4685                	li	a3,1
    8a82:	02e64963          	blt	a2,a4,8ab4 <__adddf3+0x354>
    8a86:	008006b7          	lui	a3,0x800
    8a8a:	00d9e9b3          	or	s3,s3,a3
    8a8e:	46fd                	li	a3,31
    8a90:	36e6c663          	blt	a3,a4,8dfc <__adddf3+0x69c>
    8a94:	02000613          	li	a2,32
    8a98:	8e19                	sub	a2,a2,a4
    8a9a:	00c996b3          	sll	a3,s3,a2
    8a9e:	00e5d533          	srl	a0,a1,a4
    8aa2:	00c59633          	sll	a2,a1,a2
    8aa6:	8ec9                	or	a3,a3,a0
    8aa8:	00c03633          	snez	a2,a2
    8aac:	00e9d733          	srl	a4,s3,a4
    8ab0:	8ed1                	or	a3,a3,a2
    8ab2:	97ba                	add	a5,a5,a4
    8ab4:	9836                	add	a6,a6,a3
    8ab6:	00d836b3          	sltu	a3,a6,a3
    8aba:	84c2                	mv	s1,a6
    8abc:	00f689b3          	add	s3,a3,a5
    8ac0:	8446                	mv	s0,a7
    8ac2:	bdc9                	j	8994 <__adddf3+0x234>
    8ac4:	8526                	mv	a0,s1
    8ac6:	3b9020ef          	jal	ra,b67e <__clzsi2>
    8aca:	01850713          	addi	a4,a0,24
    8ace:	46fd                	li	a3,31
    8ad0:	d4e6dbe3          	bge	a3,a4,8826 <__adddf3+0xc6>
    8ad4:	ff850793          	addi	a5,a0,-8
    8ad8:	00f497b3          	sll	a5,s1,a5
    8adc:	16874963          	blt	a4,s0,8c4e <__adddf3+0x4ee>
    8ae0:	408704b3          	sub	s1,a4,s0
    8ae4:	00148713          	addi	a4,s1,1
    8ae8:	34e6db63          	bge	a3,a4,8e3e <__adddf3+0x6de>
    8aec:	1485                	addi	s1,s1,-31
    8aee:	02000693          	li	a3,32
    8af2:	0097d4b3          	srl	s1,a5,s1
    8af6:	00d70b63          	beq	a4,a3,8b0c <__adddf3+0x3ac>
    8afa:	04000693          	li	a3,64
    8afe:	40e68733          	sub	a4,a3,a4
    8b02:	00e797b3          	sll	a5,a5,a4
    8b06:	00f037b3          	snez	a5,a5
    8b0a:	8cdd                	or	s1,s1,a5
    8b0c:	0074f713          	andi	a4,s1,7
    8b10:	4401                	li	s0,0
    8b12:	d4071de3          	bnez	a4,886c <__adddf3+0x10c>
    8b16:	a04d                	j	8bb8 <__adddf3+0x458>
    8b18:	0034d793          	srli	a5,s1,0x3
    8b1c:	01d99713          	slli	a4,s3,0x1d
    8b20:	7ff00693          	li	a3,2047
    8b24:	8f5d                	or	a4,a4,a5
    8b26:	0039d793          	srli	a5,s3,0x3
    8b2a:	00d40f63          	beq	s0,a3,8b48 <__adddf3+0x3e8>
    8b2e:	07b2                	slli	a5,a5,0xc
    8b30:	83b1                	srli	a5,a5,0xc
    8b32:	7ff47413          	andi	s0,s0,2047
    8b36:	bbb5                	j	88b2 <__adddf3+0x152>
    8b38:	050e                	slli	a0,a0,0x3
    8b3a:	01d99793          	slli	a5,s3,0x1d
    8b3e:	00355713          	srli	a4,a0,0x3
    8b42:	8f5d                	or	a4,a4,a5
    8b44:	0039d793          	srli	a5,s3,0x3
    8b48:	8f5d                	or	a4,a4,a5
    8b4a:	d709                	beqz	a4,8a54 <__adddf3+0x2f4>
    8b4c:	4901                	li	s2,0
    8b4e:	7ff00413          	li	s0,2047
    8b52:	000807b7          	lui	a5,0x80
    8b56:	4701                	li	a4,0
    8b58:	bba9                	j	88b2 <__adddf3+0x152>
    8b5a:	85c2                	mv	a1,a6
    8b5c:	89be                	mv	s3,a5
    8b5e:	8936                	mv	s2,a3
    8b60:	0035d793          	srli	a5,a1,0x3
    8b64:	843a                	mv	s0,a4
    8b66:	bf5d                	j	8b1c <__adddf3+0x3bc>
    8b68:	ff8009b7          	lui	s3,0xff800
    8b6c:	19fd                	addi	s3,s3,-1 # ff7fffff <_eusrstack+0xdf7fafff>
    8b6e:	8c19                	sub	s0,s0,a4
    8b70:	0137f9b3          	and	s3,a5,s3
    8b74:	b9cd                	j	8866 <__adddf3+0x106>
    8b76:	00140693          	addi	a3,s0,1
    8b7a:	7fe6f713          	andi	a4,a3,2046
    8b7e:	e36d                	bnez	a4,8c60 <__adddf3+0x500>
    8b80:	00b9e733          	or	a4,s3,a1
    8b84:	1e041163          	bnez	s0,8d66 <__adddf3+0x606>
    8b88:	24070a63          	beqz	a4,8ddc <__adddf3+0x67c>
    8b8c:	0107e733          	or	a4,a5,a6
    8b90:	24070d63          	beqz	a4,8dea <__adddf3+0x68a>
    8b94:	982e                	add	a6,a6,a1
    8b96:	97ce                	add	a5,a5,s3
    8b98:	00b835b3          	sltu	a1,a6,a1
    8b9c:	00b789b3          	add	s3,a5,a1
    8ba0:	00800737          	lui	a4,0x800
    8ba4:	00e9f733          	and	a4,s3,a4
    8ba8:	84c2                	mv	s1,a6
    8baa:	c719                	beqz	a4,8bb8 <__adddf3+0x458>
    8bac:	ff8007b7          	lui	a5,0xff800
    8bb0:	17fd                	addi	a5,a5,-1 # ff7fffff <_eusrstack+0xdf7fafff>
    8bb2:	00f9f9b3          	and	s3,s3,a5
    8bb6:	4405                	li	s0,1
    8bb8:	85a6                	mv	a1,s1
    8bba:	8722                	mv	a4,s0
    8bbc:	b755                	j	8b60 <__adddf3+0x400>
    8bbe:	410584b3          	sub	s1,a1,a6
    8bc2:	0095b733          	sltu	a4,a1,s1
    8bc6:	40f98633          	sub	a2,s3,a5
    8bca:	8e19                	sub	a2,a2,a4
    8bcc:	00800737          	lui	a4,0x800
    8bd0:	8f71                	and	a4,a4,a2
    8bd2:	ef45                	bnez	a4,8c8a <__adddf3+0x52a>
    8bd4:	00c4e733          	or	a4,s1,a2
    8bd8:	89b2                	mv	s3,a2
    8bda:	c2071fe3          	bnez	a4,8818 <__adddf3+0xb8>
    8bde:	4901                	li	s2,0
    8be0:	4401                	li	s0,0
    8be2:	4781                	li	a5,0
    8be4:	b1f9                	j	88b2 <__adddf3+0x152>
    8be6:	7ff00513          	li	a0,2047
    8bea:	12a88c63          	beq	a7,a0,8d22 <__adddf3+0x5c2>
    8bee:	03800613          	li	a2,56
    8bf2:	4485                	li	s1,1
    8bf4:	d2e648e3          	blt	a2,a4,8924 <__adddf3+0x1c4>
    8bf8:	00800637          	lui	a2,0x800
    8bfc:	00c9e9b3          	or	s3,s3,a2
    8c00:	b9fd                	j	88fe <__adddf3+0x19e>
    8c02:	fe070693          	addi	a3,a4,-32 # 7fffe0 <_data_lma+0x7f3d74>
    8c06:	02000613          	li	a2,32
    8c0a:	00d7d6b3          	srl	a3,a5,a3
    8c0e:	00c70a63          	beq	a4,a2,8c22 <__adddf3+0x4c2>
    8c12:	04000613          	li	a2,64
    8c16:	40e60733          	sub	a4,a2,a4
    8c1a:	00e797b3          	sll	a5,a5,a4
    8c1e:	00f86833          	or	a6,a6,a5
    8c22:	010034b3          	snez	s1,a6
    8c26:	8cd5                	or	s1,s1,a3
    8c28:	bec9                	j	87fa <__adddf3+0x9a>
    8c2a:	00b9e6b3          	or	a3,s3,a1
    8c2e:	1a068263          	beqz	a3,8dd2 <__adddf3+0x672>
    8c32:	fff70513          	addi	a0,a4,-1
    8c36:	cd3d                	beqz	a0,8cb4 <__adddf3+0x554>
    8c38:	7ff00693          	li	a3,2047
    8c3c:	0ed70b63          	beq	a4,a3,8d32 <__adddf3+0x5d2>
    8c40:	03800713          	li	a4,56
    8c44:	4685                	li	a3,1
    8c46:	e6a747e3          	blt	a4,a0,8ab4 <__adddf3+0x354>
    8c4a:	872a                	mv	a4,a0
    8c4c:	b589                	j	8a8e <__adddf3+0x32e>
    8c4e:	ff8006b7          	lui	a3,0xff800
    8c52:	16fd                	addi	a3,a3,-1 # ff7fffff <_eusrstack+0xdf7fafff>
    8c54:	8ff5                	and	a5,a5,a3
    8c56:	8c19                	sub	s0,s0,a4
    8c58:	01d79713          	slli	a4,a5,0x1d
    8c5c:	838d                	srli	a5,a5,0x3
    8c5e:	bdc1                	j	8b2e <__adddf3+0x3ce>
    8c60:	7ff00713          	li	a4,2047
    8c64:	dee688e3          	beq	a3,a4,8a54 <__adddf3+0x2f4>
    8c68:	01058733          	add	a4,a1,a6
    8c6c:	97ce                	add	a5,a5,s3
    8c6e:	00b735b3          	sltu	a1,a4,a1
    8c72:	97ae                	add	a5,a5,a1
    8c74:	8305                	srli	a4,a4,0x1
    8c76:	01f79493          	slli	s1,a5,0x1f
    8c7a:	8cd9                	or	s1,s1,a4
    8c7c:	8b1d                	andi	a4,a4,7
    8c7e:	0017d993          	srli	s3,a5,0x1
    8c82:	8436                	mv	s0,a3
    8c84:	be0714e3          	bnez	a4,886c <__adddf3+0x10c>
    8c88:	bf05                	j	8bb8 <__adddf3+0x458>
    8c8a:	40b805b3          	sub	a1,a6,a1
    8c8e:	413787b3          	sub	a5,a5,s3
    8c92:	00b83833          	sltu	a6,a6,a1
    8c96:	84ae                	mv	s1,a1
    8c98:	410789b3          	sub	s3,a5,a6
    8c9c:	8936                	mv	s2,a3
    8c9e:	bead                	j	8818 <__adddf3+0xb8>
    8ca0:	12089c63          	bnez	a7,8dd8 <__adddf3+0x678>
    8ca4:	18071563          	bnez	a4,8e2e <__adddf3+0x6ce>
    8ca8:	4901                	li	s2,0
    8caa:	7ff00413          	li	s0,2047
    8cae:	000807b7          	lui	a5,0x80
    8cb2:	b101                	j	88b2 <__adddf3+0x152>
    8cb4:	982e                	add	a6,a6,a1
    8cb6:	97ce                	add	a5,a5,s3
    8cb8:	00b835b3          	sltu	a1,a6,a1
    8cbc:	00b789b3          	add	s3,a5,a1
    8cc0:	008007b7          	lui	a5,0x800
    8cc4:	00f9f7b3          	and	a5,s3,a5
    8cc8:	84c2                	mv	s1,a6
    8cca:	4405                	li	s0,1
    8ccc:	d80789e3          	beqz	a5,8a5e <__adddf3+0x2fe>
    8cd0:	4409                	li	s0,2
    8cd2:	b9d9                	j	89a8 <__adddf3+0x248>
    8cd4:	41058833          	sub	a6,a1,a6
    8cd8:	40f987b3          	sub	a5,s3,a5
    8cdc:	0105b5b3          	sltu	a1,a1,a6
    8ce0:	84c2                	mv	s1,a6
    8ce2:	40b789b3          	sub	s3,a5,a1
    8ce6:	4405                	li	s0,1
    8ce8:	be39                	j	8806 <__adddf3+0xa6>
    8cea:	050e                	slli	a0,a0,0x3
    8cec:	810d                	srli	a0,a0,0x3
    8cee:	01d99713          	slli	a4,s3,0x1d
    8cf2:	8f49                	or	a4,a4,a0
    8cf4:	0039d793          	srli	a5,s3,0x3
    8cf8:	bd81                	j	8b48 <__adddf3+0x3e8>
    8cfa:	fe070613          	addi	a2,a4,-32
    8cfe:	02000693          	li	a3,32
    8d02:	00c7d633          	srl	a2,a5,a2
    8d06:	00d70a63          	beq	a4,a3,8d1a <__adddf3+0x5ba>
    8d0a:	04000693          	li	a3,64
    8d0e:	40e68733          	sub	a4,a3,a4
    8d12:	00e797b3          	sll	a5,a5,a4
    8d16:	00f86833          	or	a6,a6,a5
    8d1a:	010036b3          	snez	a3,a6
    8d1e:	8ed1                	or	a3,a3,a2
    8d20:	b1a5                	j	8988 <__adddf3+0x228>
    8d22:	060e                	slli	a2,a2,0x3
    8d24:	01d79713          	slli	a4,a5,0x1d
    8d28:	820d                	srli	a2,a2,0x3
    8d2a:	8f51                	or	a4,a4,a2
    8d2c:	838d                	srli	a5,a5,0x3
    8d2e:	8936                	mv	s2,a3
    8d30:	bd21                	j	8b48 <__adddf3+0x3e8>
    8d32:	060e                	slli	a2,a2,0x3
    8d34:	01d79713          	slli	a4,a5,0x1d
    8d38:	820d                	srli	a2,a2,0x3
    8d3a:	8f51                	or	a4,a4,a2
    8d3c:	838d                	srli	a5,a5,0x3
    8d3e:	b529                	j	8b48 <__adddf3+0x3e8>
    8d40:	fe070613          	addi	a2,a4,-32
    8d44:	02000513          	li	a0,32
    8d48:	00c9d633          	srl	a2,s3,a2
    8d4c:	00a70963          	beq	a4,a0,8d5e <__adddf3+0x5fe>
    8d50:	04000513          	li	a0,64
    8d54:	40e50733          	sub	a4,a0,a4
    8d58:	00e99733          	sll	a4,s3,a4
    8d5c:	8dd9                	or	a1,a1,a4
    8d5e:	00b034b3          	snez	s1,a1
    8d62:	8cd1                	or	s1,s1,a2
    8d64:	b6c1                	j	8924 <__adddf3+0x1c4>
    8d66:	d771                	beqz	a4,8d32 <__adddf3+0x5d2>
    8d68:	0107e833          	or	a6,a5,a6
    8d6c:	de0810e3          	bnez	a6,8b4c <__adddf3+0x3ec>
    8d70:	050e                	slli	a0,a0,0x3
    8d72:	01d99793          	slli	a5,s3,0x1d
    8d76:	810d                	srli	a0,a0,0x3
    8d78:	00f56733          	or	a4,a0,a5
    8d7c:	0039d793          	srli	a5,s3,0x3
    8d80:	b3e1                	j	8b48 <__adddf3+0x3e8>
    8d82:	40b805b3          	sub	a1,a6,a1
    8d86:	413787b3          	sub	a5,a5,s3
    8d8a:	00b83833          	sltu	a6,a6,a1
    8d8e:	84ae                	mv	s1,a1
    8d90:	410789b3          	sub	s3,a5,a6
    8d94:	8936                	mv	s2,a3
    8d96:	4405                	li	s0,1
    8d98:	b4bd                	j	8806 <__adddf3+0xa6>
    8d9a:	e40702e3          	beqz	a4,8bde <__adddf3+0x47e>
    8d9e:	060e                	slli	a2,a2,0x3
    8da0:	01d79713          	slli	a4,a5,0x1d
    8da4:	820d                	srli	a2,a2,0x3
    8da6:	8f51                	or	a4,a4,a2
    8da8:	838d                	srli	a5,a5,0x3
    8daa:	8936                	mv	s2,a3
    8dac:	b349                	j	8b2e <__adddf3+0x3ce>
    8dae:	00351793          	slli	a5,a0,0x3
    8db2:	838d                	srli	a5,a5,0x3
    8db4:	01d99713          	slli	a4,s3,0x1d
    8db8:	8f5d                	or	a4,a4,a5
    8dba:	0039d793          	srli	a5,s3,0x3
    8dbe:	b369                	j	8b48 <__adddf3+0x3e8>
    8dc0:	00351793          	slli	a5,a0,0x3
    8dc4:	838d                	srli	a5,a5,0x3
    8dc6:	01d99713          	slli	a4,s3,0x1d
    8dca:	8f5d                	or	a4,a4,a5
    8dcc:	0039d793          	srli	a5,s3,0x3
    8dd0:	bbb9                	j	8b2e <__adddf3+0x3ce>
    8dd2:	85c2                	mv	a1,a6
    8dd4:	89be                	mv	s3,a5
    8dd6:	b369                	j	8b60 <__adddf3+0x400>
    8dd8:	df41                	beqz	a4,8d70 <__adddf3+0x610>
    8dda:	bb8d                	j	8b4c <__adddf3+0x3ec>
    8ddc:	060e                	slli	a2,a2,0x3
    8dde:	01d79713          	slli	a4,a5,0x1d
    8de2:	820d                	srli	a2,a2,0x3
    8de4:	8f51                	or	a4,a4,a2
    8de6:	838d                	srli	a5,a5,0x3
    8de8:	b399                	j	8b2e <__adddf3+0x3ce>
    8dea:	050e                	slli	a0,a0,0x3
    8dec:	01d99793          	slli	a5,s3,0x1d
    8df0:	810d                	srli	a0,a0,0x3
    8df2:	00f56733          	or	a4,a0,a5
    8df6:	0039d793          	srli	a5,s3,0x3
    8dfa:	bb15                	j	8b2e <__adddf3+0x3ce>
    8dfc:	fe070613          	addi	a2,a4,-32
    8e00:	02000693          	li	a3,32
    8e04:	00c9d633          	srl	a2,s3,a2
    8e08:	00d70963          	beq	a4,a3,8e1a <__adddf3+0x6ba>
    8e0c:	04000693          	li	a3,64
    8e10:	40e68733          	sub	a4,a3,a4
    8e14:	00e99733          	sll	a4,s3,a4
    8e18:	8dd9                	or	a1,a1,a4
    8e1a:	00b036b3          	snez	a3,a1
    8e1e:	8ed1                	or	a3,a3,a2
    8e20:	b951                	j	8ab4 <__adddf3+0x354>
    8e22:	00c4e733          	or	a4,s1,a2
    8e26:	89b2                	mv	s3,a2
    8e28:	d80718e3          	bnez	a4,8bb8 <__adddf3+0x458>
    8e2c:	bb4d                	j	8bde <__adddf3+0x47e>
    8e2e:	060e                	slli	a2,a2,0x3
    8e30:	01d79713          	slli	a4,a5,0x1d
    8e34:	820d                	srli	a2,a2,0x3
    8e36:	8f51                	or	a4,a4,a2
    8e38:	838d                	srli	a5,a5,0x3
    8e3a:	8936                	mv	s2,a3
    8e3c:	b331                	j	8b48 <__adddf3+0x3e8>
    8e3e:	02000693          	li	a3,32
    8e42:	8e99                	sub	a3,a3,a4
    8e44:	4601                	li	a2,0
    8e46:	b439                	j	8854 <__adddf3+0xf4>

00008e48 <__divdf3>:
    8e48:	7179                	addi	sp,sp,-48
    8e4a:	0145d793          	srli	a5,a1,0x14
    8e4e:	d422                	sw	s0,40(sp)
    8e50:	d226                	sw	s1,36(sp)
    8e52:	d04a                	sw	s2,32(sp)
    8e54:	ca56                	sw	s5,20(sp)
    8e56:	c65e                	sw	s7,12(sp)
    8e58:	00c59493          	slli	s1,a1,0xc
    8e5c:	d606                	sw	ra,44(sp)
    8e5e:	ce4e                	sw	s3,28(sp)
    8e60:	cc52                	sw	s4,24(sp)
    8e62:	c85a                	sw	s6,16(sp)
    8e64:	c462                	sw	s8,8(sp)
    8e66:	7ff7f793          	andi	a5,a5,2047
    8e6a:	842a                	mv	s0,a0
    8e6c:	8bb2                	mv	s7,a2
    8e6e:	8936                	mv	s2,a3
    8e70:	80b1                	srli	s1,s1,0xc
    8e72:	01f5da93          	srli	s5,a1,0x1f
    8e76:	10078c63          	beqz	a5,8f8e <__divdf3+0x146>
    8e7a:	7ff00713          	li	a4,2047
    8e7e:	14e78763          	beq	a5,a4,8fcc <__divdf3+0x184>
    8e82:	048e                	slli	s1,s1,0x3
    8e84:	01d55b13          	srli	s6,a0,0x1d
    8e88:	009b6b33          	or	s6,s6,s1
    8e8c:	00800737          	lui	a4,0x800
    8e90:	00eb6b33          	or	s6,s6,a4
    8e94:	00351a13          	slli	s4,a0,0x3
    8e98:	c0178993          	addi	s3,a5,-1023 # 7ffc01 <_data_lma+0x7f3995>
    8e9c:	4481                	li	s1,0
    8e9e:	4c01                	li	s8,0
    8ea0:	01495793          	srli	a5,s2,0x14
    8ea4:	00c91413          	slli	s0,s2,0xc
    8ea8:	7ff7f793          	andi	a5,a5,2047
    8eac:	8031                	srli	s0,s0,0xc
    8eae:	01f95913          	srli	s2,s2,0x1f
    8eb2:	c3d5                	beqz	a5,8f56 <__divdf3+0x10e>
    8eb4:	7ff00713          	li	a4,2047
    8eb8:	08e78463          	beq	a5,a4,8f40 <__divdf3+0xf8>
    8ebc:	040e                	slli	s0,s0,0x3
    8ebe:	01dbd713          	srli	a4,s7,0x1d
    8ec2:	8f41                	or	a4,a4,s0
    8ec4:	c0178793          	addi	a5,a5,-1023
    8ec8:	00800437          	lui	s0,0x800
    8ecc:	8c59                	or	s0,s0,a4
    8ece:	003b9893          	slli	a7,s7,0x3
    8ed2:	40f989b3          	sub	s3,s3,a5
    8ed6:	4601                	li	a2,0
    8ed8:	473d                	li	a4,15
    8eda:	012ac6b3          	xor	a3,s5,s2
    8ede:	18976863          	bltu	a4,s1,906e <__divdf3+0x226>
    8ee2:	00003717          	auipc	a4,0x3
    8ee6:	1a270713          	addi	a4,a4,418 # c084 <MySerNumInfo+0x54>
    8eea:	048a                	slli	s1,s1,0x2
    8eec:	94ba                	add	s1,s1,a4
    8eee:	409c                	lw	a5,0(s1)
    8ef0:	97ba                	add	a5,a5,a4
    8ef2:	8782                	jr	a5
    8ef4:	8f1d                	sub	a4,a4,a5
    8ef6:	03800613          	li	a2,56
    8efa:	40e65c63          	bge	a2,a4,9312 <__divdf3+0x4ca>
    8efe:	4781                	li	a5,0
    8f00:	4601                	li	a2,0
    8f02:	4701                	li	a4,0
    8f04:	50b2                	lw	ra,44(sp)
    8f06:	5422                	lw	s0,40(sp)
    8f08:	07d2                	slli	a5,a5,0x14
    8f0a:	8fd1                	or	a5,a5,a2
    8f0c:	06fe                	slli	a3,a3,0x1f
    8f0e:	8fd5                	or	a5,a5,a3
    8f10:	5492                	lw	s1,36(sp)
    8f12:	5902                	lw	s2,32(sp)
    8f14:	49f2                	lw	s3,28(sp)
    8f16:	4a62                	lw	s4,24(sp)
    8f18:	4ad2                	lw	s5,20(sp)
    8f1a:	4b42                	lw	s6,16(sp)
    8f1c:	4bb2                	lw	s7,12(sp)
    8f1e:	4c22                	lw	s8,8(sp)
    8f20:	853a                	mv	a0,a4
    8f22:	85be                	mv	a1,a5
    8f24:	6145                	addi	sp,sp,48
    8f26:	8082                	ret
    8f28:	7ff00793          	li	a5,2047
    8f2c:	4601                	li	a2,0
    8f2e:	4701                	li	a4,0
    8f30:	bfd1                	j	8f04 <__divdf3+0xbc>
    8f32:	4681                	li	a3,0
    8f34:	7ff00793          	li	a5,2047
    8f38:	00080637          	lui	a2,0x80
    8f3c:	4701                	li	a4,0
    8f3e:	b7d9                	j	8f04 <__divdf3+0xbc>
    8f40:	017468b3          	or	a7,s0,s7
    8f44:	80198993          	addi	s3,s3,-2047
    8f48:	10089963          	bnez	a7,905a <__divdf3+0x212>
    8f4c:	0024e493          	ori	s1,s1,2
    8f50:	4401                	li	s0,0
    8f52:	4609                	li	a2,2
    8f54:	b751                	j	8ed8 <__divdf3+0x90>
    8f56:	017468b3          	or	a7,s0,s7
    8f5a:	0e088b63          	beqz	a7,9050 <__divdf3+0x208>
    8f5e:	36040663          	beqz	s0,92ca <__divdf3+0x482>
    8f62:	8522                	mv	a0,s0
    8f64:	71a020ef          	jal	ra,b67e <__clzsi2>
    8f68:	87aa                	mv	a5,a0
    8f6a:	ff550693          	addi	a3,a0,-11
    8f6e:	4775                	li	a4,29
    8f70:	ff878893          	addi	a7,a5,-8
    8f74:	8f15                	sub	a4,a4,a3
    8f76:	01141433          	sll	s0,s0,a7
    8f7a:	00ebd733          	srl	a4,s7,a4
    8f7e:	8c59                	or	s0,s0,a4
    8f80:	011b98b3          	sll	a7,s7,a7
    8f84:	97ce                	add	a5,a5,s3
    8f86:	3f378993          	addi	s3,a5,1011
    8f8a:	4601                	li	a2,0
    8f8c:	b7b1                	j	8ed8 <__divdf3+0x90>
    8f8e:	00a4eb33          	or	s6,s1,a0
    8f92:	0c0b0963          	beqz	s6,9064 <__divdf3+0x21c>
    8f96:	30048b63          	beqz	s1,92ac <__divdf3+0x464>
    8f9a:	8526                	mv	a0,s1
    8f9c:	6e2020ef          	jal	ra,b67e <__clzsi2>
    8fa0:	872a                	mv	a4,a0
    8fa2:	ff550693          	addi	a3,a0,-11
    8fa6:	47f5                	li	a5,29
    8fa8:	ff870a13          	addi	s4,a4,-8
    8fac:	8f95                	sub	a5,a5,a3
    8fae:	014494b3          	sll	s1,s1,s4
    8fb2:	00f457b3          	srl	a5,s0,a5
    8fb6:	0097eb33          	or	s6,a5,s1
    8fba:	01441a33          	sll	s4,s0,s4
    8fbe:	c0d00793          	li	a5,-1011
    8fc2:	40e789b3          	sub	s3,a5,a4
    8fc6:	4481                	li	s1,0
    8fc8:	4c01                	li	s8,0
    8fca:	bdd9                	j	8ea0 <__divdf3+0x58>
    8fcc:	00a4eb33          	or	s6,s1,a0
    8fd0:	060b1963          	bnez	s6,9042 <__divdf3+0x1fa>
    8fd4:	4a01                	li	s4,0
    8fd6:	44a1                	li	s1,8
    8fd8:	7ff00993          	li	s3,2047
    8fdc:	4c09                	li	s8,2
    8fde:	b5c9                	j	8ea0 <__divdf3+0x58>
    8fe0:	8c32                	mv	s8,a2
    8fe2:	4789                	li	a5,2
    8fe4:	3efc0263          	beq	s8,a5,93c8 <__divdf3+0x580>
    8fe8:	478d                	li	a5,3
    8fea:	f4fc04e3          	beq	s8,a5,8f32 <__divdf3+0xea>
    8fee:	4785                	li	a5,1
    8ff0:	86ca                	mv	a3,s2
    8ff2:	f0fc06e3          	beq	s8,a5,8efe <__divdf3+0xb6>
    8ff6:	3ff98793          	addi	a5,s3,1023
    8ffa:	22f05063          	blez	a5,921a <__divdf3+0x3d2>
    8ffe:	0078f713          	andi	a4,a7,7
    9002:	3a071963          	bnez	a4,93b4 <__divdf3+0x56c>
    9006:	01000737          	lui	a4,0x1000
    900a:	8f61                	and	a4,a4,s0
    900c:	c719                	beqz	a4,901a <__divdf3+0x1d2>
    900e:	ff0007b7          	lui	a5,0xff000
    9012:	17fd                	addi	a5,a5,-1 # feffffff <_eusrstack+0xdeffafff>
    9014:	8c7d                	and	s0,s0,a5
    9016:	40098793          	addi	a5,s3,1024
    901a:	7fe00713          	li	a4,2046
    901e:	f0f745e3          	blt	a4,a5,8f28 <__divdf3+0xe0>
    9022:	0038d893          	srli	a7,a7,0x3
    9026:	01d41713          	slli	a4,s0,0x1d
    902a:	00941613          	slli	a2,s0,0x9
    902e:	01176733          	or	a4,a4,a7
    9032:	8231                	srli	a2,a2,0xc
    9034:	7ff7f793          	andi	a5,a5,2047
    9038:	b5f1                	j	8f04 <__divdf3+0xbc>
    903a:	8956                	mv	s2,s5
    903c:	845a                	mv	s0,s6
    903e:	88d2                	mv	a7,s4
    9040:	b74d                	j	8fe2 <__divdf3+0x19a>
    9042:	8b26                	mv	s6,s1
    9044:	8a2a                	mv	s4,a0
    9046:	44b1                	li	s1,12
    9048:	7ff00993          	li	s3,2047
    904c:	4c0d                	li	s8,3
    904e:	bd89                	j	8ea0 <__divdf3+0x58>
    9050:	0014e493          	ori	s1,s1,1
    9054:	4401                	li	s0,0
    9056:	4605                	li	a2,1
    9058:	b541                	j	8ed8 <__divdf3+0x90>
    905a:	0034e493          	ori	s1,s1,3
    905e:	88de                	mv	a7,s7
    9060:	460d                	li	a2,3
    9062:	bd9d                	j	8ed8 <__divdf3+0x90>
    9064:	4a01                	li	s4,0
    9066:	4491                	li	s1,4
    9068:	4981                	li	s3,0
    906a:	4c05                	li	s8,1
    906c:	bd15                	j	8ea0 <__divdf3+0x58>
    906e:	23646563          	bltu	s0,s6,9298 <__divdf3+0x450>
    9072:	228b0163          	beq	s6,s0,9294 <__divdf3+0x44c>
    9076:	8352                	mv	t1,s4
    9078:	19fd                	addi	s3,s3,-1
    907a:	87da                	mv	a5,s6
    907c:	4a01                	li	s4,0
    907e:	00841713          	slli	a4,s0,0x8
    9082:	01075513          	srli	a0,a4,0x10
    9086:	02a7d433          	divu	s0,a5,a0
    908a:	0188d613          	srli	a2,a7,0x18
    908e:	8e59                	or	a2,a2,a4
    9090:	01061813          	slli	a6,a2,0x10
    9094:	01085813          	srli	a6,a6,0x10
    9098:	00889593          	slli	a1,a7,0x8
    909c:	01035713          	srli	a4,t1,0x10
    90a0:	02a7f7b3          	remu	a5,a5,a0
    90a4:	028808b3          	mul	a7,a6,s0
    90a8:	07c2                	slli	a5,a5,0x10
    90aa:	8fd9                	or	a5,a5,a4
    90ac:	0117f863          	bgeu	a5,a7,90bc <__divdf3+0x274>
    90b0:	97b2                	add	a5,a5,a2
    90b2:	fff40713          	addi	a4,s0,-1 # 7fffff <_data_lma+0x7f3d93>
    90b6:	24c7f963          	bgeu	a5,a2,9308 <__divdf3+0x4c0>
    90ba:	843a                	mv	s0,a4
    90bc:	411787b3          	sub	a5,a5,a7
    90c0:	02a7d8b3          	divu	a7,a5,a0
    90c4:	01031713          	slli	a4,t1,0x10
    90c8:	8341                	srli	a4,a4,0x10
    90ca:	02a7f7b3          	remu	a5,a5,a0
    90ce:	03180fb3          	mul	t6,a6,a7
    90d2:	07c2                	slli	a5,a5,0x10
    90d4:	8f5d                	or	a4,a4,a5
    90d6:	01f77863          	bgeu	a4,t6,90e6 <__divdf3+0x29e>
    90da:	9732                	add	a4,a4,a2
    90dc:	fff88793          	addi	a5,a7,-1
    90e0:	20c77f63          	bgeu	a4,a2,92fe <__divdf3+0x4b6>
    90e4:	88be                	mv	a7,a5
    90e6:	0442                	slli	s0,s0,0x10
    90e8:	62c1                	lui	t0,0x10
    90ea:	01146433          	or	s0,s0,a7
    90ee:	fff28313          	addi	t1,t0,-1 # ffff <_data_lma+0x3d93>
    90f2:	006478b3          	and	a7,s0,t1
    90f6:	01045e93          	srli	t4,s0,0x10
    90fa:	0105de13          	srli	t3,a1,0x10
    90fe:	0065f333          	and	t1,a1,t1
    9102:	03130f33          	mul	t5,t1,a7
    9106:	41f70733          	sub	a4,a4,t6
    910a:	031e08b3          	mul	a7,t3,a7
    910e:	010f5793          	srli	a5,t5,0x10
    9112:	026e8fb3          	mul	t6,t4,t1
    9116:	98fe                	add	a7,a7,t6
    9118:	97c6                	add	a5,a5,a7
    911a:	03ce8eb3          	mul	t4,t4,t3
    911e:	01f7f363          	bgeu	a5,t6,9124 <__divdf3+0x2dc>
    9122:	9e96                	add	t4,t4,t0
    9124:	6fc1                	lui	t6,0x10
    9126:	1ffd                	addi	t6,t6,-1 # ffff <_data_lma+0x3d93>
    9128:	0107d893          	srli	a7,a5,0x10
    912c:	01f7f7b3          	and	a5,a5,t6
    9130:	07c2                	slli	a5,a5,0x10
    9132:	01ff7f33          	and	t5,t5,t6
    9136:	98f6                	add	a7,a7,t4
    9138:	97fa                	add	a5,a5,t5
    913a:	13176b63          	bltu	a4,a7,9270 <__divdf3+0x428>
    913e:	13170763          	beq	a4,a7,926c <__divdf3+0x424>
    9142:	40fa07b3          	sub	a5,s4,a5
    9146:	41170733          	sub	a4,a4,a7
    914a:	00fa3a33          	sltu	s4,s4,a5
    914e:	41470733          	sub	a4,a4,s4
    9152:	24e60363          	beq	a2,a4,9398 <__divdf3+0x550>
    9156:	02a758b3          	divu	a7,a4,a0
    915a:	0107de93          	srli	t4,a5,0x10
    915e:	02a77733          	remu	a4,a4,a0
    9162:	03180f33          	mul	t5,a6,a7
    9166:	0742                	slli	a4,a4,0x10
    9168:	00eee733          	or	a4,t4,a4
    916c:	01e77b63          	bgeu	a4,t5,9182 <__divdf3+0x33a>
    9170:	9732                	add	a4,a4,a2
    9172:	fff88e93          	addi	t4,a7,-1
    9176:	24c76763          	bltu	a4,a2,93c4 <__divdf3+0x57c>
    917a:	25e77563          	bgeu	a4,t5,93c4 <__divdf3+0x57c>
    917e:	18f9                	addi	a7,a7,-2
    9180:	9732                	add	a4,a4,a2
    9182:	41e70733          	sub	a4,a4,t5
    9186:	02a75eb3          	divu	t4,a4,a0
    918a:	07c2                	slli	a5,a5,0x10
    918c:	83c1                	srli	a5,a5,0x10
    918e:	02a77733          	remu	a4,a4,a0
    9192:	03d80833          	mul	a6,a6,t4
    9196:	0742                	slli	a4,a4,0x10
    9198:	8fd9                	or	a5,a5,a4
    919a:	0107fb63          	bgeu	a5,a6,91b0 <__divdf3+0x368>
    919e:	97b2                	add	a5,a5,a2
    91a0:	fffe8713          	addi	a4,t4,-1
    91a4:	20c7ee63          	bltu	a5,a2,93c0 <__divdf3+0x578>
    91a8:	2107fc63          	bgeu	a5,a6,93c0 <__divdf3+0x578>
    91ac:	1ef9                	addi	t4,t4,-2
    91ae:	97b2                	add	a5,a5,a2
    91b0:	08c2                	slli	a7,a7,0x10
    91b2:	01d8e8b3          	or	a7,a7,t4
    91b6:	01089513          	slli	a0,a7,0x10
    91ba:	0108df13          	srli	t5,a7,0x10
    91be:	8141                	srli	a0,a0,0x10
    91c0:	02650eb3          	mul	t4,a0,t1
    91c4:	410787b3          	sub	a5,a5,a6
    91c8:	02ae0533          	mul	a0,t3,a0
    91cc:	010ed713          	srli	a4,t4,0x10
    91d0:	026f0333          	mul	t1,t5,t1
    91d4:	951a                	add	a0,a0,t1
    91d6:	972a                	add	a4,a4,a0
    91d8:	03ee0e33          	mul	t3,t3,t5
    91dc:	00677463          	bgeu	a4,t1,91e4 <__divdf3+0x39c>
    91e0:	6541                	lui	a0,0x10
    91e2:	9e2a                	add	t3,t3,a0
    91e4:	6841                	lui	a6,0x10
    91e6:	187d                	addi	a6,a6,-1 # ffff <_data_lma+0x3d93>
    91e8:	01075513          	srli	a0,a4,0x10
    91ec:	01077733          	and	a4,a4,a6
    91f0:	0742                	slli	a4,a4,0x10
    91f2:	010efeb3          	and	t4,t4,a6
    91f6:	9572                	add	a0,a0,t3
    91f8:	9776                	add	a4,a4,t4
    91fa:	0ea7f763          	bgeu	a5,a0,92e8 <__divdf3+0x4a0>
    91fe:	97b2                	add	a5,a5,a2
    9200:	fff88313          	addi	t1,a7,-1
    9204:	883e                	mv	a6,a5
    9206:	16c7e763          	bltu	a5,a2,9374 <__divdf3+0x52c>
    920a:	1ca7e563          	bltu	a5,a0,93d4 <__divdf3+0x58c>
    920e:	1ca78e63          	beq	a5,a0,93ea <__divdf3+0x5a2>
    9212:	889a                	mv	a7,t1
    9214:	0018e893          	ori	a7,a7,1
    9218:	bbf9                	j	8ff6 <__divdf3+0x1ae>
    921a:	4705                	li	a4,1
    921c:	cc079ce3          	bnez	a5,8ef4 <__divdf3+0xac>
    9220:	41e98793          	addi	a5,s3,1054
    9224:	00f89633          	sll	a2,a7,a5
    9228:	00c03633          	snez	a2,a2
    922c:	00f417b3          	sll	a5,s0,a5
    9230:	8fd1                	or	a5,a5,a2
    9232:	00e8d8b3          	srl	a7,a7,a4
    9236:	00f8e8b3          	or	a7,a7,a5
    923a:	0078f793          	andi	a5,a7,7
    923e:	00e45433          	srl	s0,s0,a4
    9242:	cf81                	beqz	a5,925a <__divdf3+0x412>
    9244:	00f8f793          	andi	a5,a7,15
    9248:	4711                	li	a4,4
    924a:	00e78863          	beq	a5,a4,925a <__divdf3+0x412>
    924e:	00488793          	addi	a5,a7,4
    9252:	0117b8b3          	sltu	a7,a5,a7
    9256:	9446                	add	s0,s0,a7
    9258:	88be                	mv	a7,a5
    925a:	008005b7          	lui	a1,0x800
    925e:	8de1                	and	a1,a1,s0
    9260:	4785                	li	a5,1
    9262:	4601                	li	a2,0
    9264:	4701                	li	a4,0
    9266:	c8059fe3          	bnez	a1,8f04 <__divdf3+0xbc>
    926a:	a8d5                	j	935e <__divdf3+0x516>
    926c:	ecfa7be3          	bgeu	s4,a5,9142 <__divdf3+0x2fa>
    9270:	00ba0eb3          	add	t4,s4,a1
    9274:	014ebf33          	sltu	t5,t4,s4
    9278:	00cf0fb3          	add	t6,t5,a2
    927c:	977e                	add	a4,a4,t6
    927e:	8a76                	mv	s4,t4
    9280:	fff40f93          	addi	t6,s0,-1
    9284:	06e67763          	bgeu	a2,a4,92f2 <__divdf3+0x4aa>
    9288:	11176063          	bltu	a4,a7,9388 <__divdf3+0x540>
    928c:	0ee88c63          	beq	a7,a4,9384 <__divdf3+0x53c>
    9290:	847e                	mv	s0,t6
    9292:	bd45                	j	9142 <__divdf3+0x2fa>
    9294:	df1a61e3          	bltu	s4,a7,9076 <__divdf3+0x22e>
    9298:	001a5713          	srli	a4,s4,0x1
    929c:	01fb1313          	slli	t1,s6,0x1f
    92a0:	001b5793          	srli	a5,s6,0x1
    92a4:	00e36333          	or	t1,t1,a4
    92a8:	0a7e                	slli	s4,s4,0x1f
    92aa:	bbd1                	j	907e <__divdf3+0x236>
    92ac:	3d2020ef          	jal	ra,b67e <__clzsi2>
    92b0:	01550693          	addi	a3,a0,21 # 10015 <_data_lma+0x3da9>
    92b4:	47f1                	li	a5,28
    92b6:	02050713          	addi	a4,a0,32
    92ba:	ced7d6e3          	bge	a5,a3,8fa6 <__divdf3+0x15e>
    92be:	ff850793          	addi	a5,a0,-8
    92c2:	00f41b33          	sll	s6,s0,a5
    92c6:	4a01                	li	s4,0
    92c8:	b9dd                	j	8fbe <__divdf3+0x176>
    92ca:	855e                	mv	a0,s7
    92cc:	3b2020ef          	jal	ra,b67e <__clzsi2>
    92d0:	01550693          	addi	a3,a0,21
    92d4:	4771                	li	a4,28
    92d6:	02050793          	addi	a5,a0,32
    92da:	c8d75ae3          	bge	a4,a3,8f6e <__divdf3+0x126>
    92de:	1561                	addi	a0,a0,-8
    92e0:	4881                	li	a7,0
    92e2:	00ab9433          	sll	s0,s7,a0
    92e6:	b979                	j	8f84 <__divdf3+0x13c>
    92e8:	f2a796e3          	bne	a5,a0,9214 <__divdf3+0x3cc>
    92ec:	d00705e3          	beqz	a4,8ff6 <__divdf3+0x1ae>
    92f0:	b739                	j	91fe <__divdf3+0x3b6>
    92f2:	f8e61fe3          	bne	a2,a4,9290 <__divdf3+0x448>
    92f6:	f80f09e3          	beqz	t5,9288 <__divdf3+0x440>
    92fa:	847e                	mv	s0,t6
    92fc:	b599                	j	9142 <__divdf3+0x2fa>
    92fe:	dff773e3          	bgeu	a4,t6,90e4 <__divdf3+0x29c>
    9302:	18f9                	addi	a7,a7,-2
    9304:	9732                	add	a4,a4,a2
    9306:	b3c5                	j	90e6 <__divdf3+0x29e>
    9308:	db17f9e3          	bgeu	a5,a7,90ba <__divdf3+0x272>
    930c:	1479                	addi	s0,s0,-2
    930e:	97b2                	add	a5,a5,a2
    9310:	b375                	j	90bc <__divdf3+0x274>
    9312:	467d                	li	a2,31
    9314:	f0e656e3          	bge	a2,a4,9220 <__divdf3+0x3d8>
    9318:	5605                	li	a2,-31
    931a:	8e1d                	sub	a2,a2,a5
    931c:	02000793          	li	a5,32
    9320:	00c45633          	srl	a2,s0,a2
    9324:	00f70863          	beq	a4,a5,9334 <__divdf3+0x4ec>
    9328:	43e98793          	addi	a5,s3,1086
    932c:	00f417b3          	sll	a5,s0,a5
    9330:	00f8e8b3          	or	a7,a7,a5
    9334:	011038b3          	snez	a7,a7
    9338:	00c8e8b3          	or	a7,a7,a2
    933c:	0078f713          	andi	a4,a7,7
    9340:	4601                	li	a2,0
    9342:	c31d                	beqz	a4,9368 <__divdf3+0x520>
    9344:	00f8f793          	andi	a5,a7,15
    9348:	4711                	li	a4,4
    934a:	4401                	li	s0,0
    934c:	00e78963          	beq	a5,a4,935e <__divdf3+0x516>
    9350:	00488793          	addi	a5,a7,4
    9354:	0117b8b3          	sltu	a7,a5,a7
    9358:	01103433          	snez	s0,a7
    935c:	88be                	mv	a7,a5
    935e:	00941613          	slli	a2,s0,0x9
    9362:	01d41713          	slli	a4,s0,0x1d
    9366:	8231                	srli	a2,a2,0xc
    9368:	0038d893          	srli	a7,a7,0x3
    936c:	00e8e733          	or	a4,a7,a4
    9370:	4781                	li	a5,0
    9372:	be49                	j	8f04 <__divdf3+0xbc>
    9374:	889a                	mv	a7,t1
    9376:	e8a81fe3          	bne	a6,a0,9214 <__divdf3+0x3cc>
    937a:	c6b70ee3          	beq	a4,a1,8ff6 <__divdf3+0x1ae>
    937e:	0018e893          	ori	a7,a7,1
    9382:	b995                	j	8ff6 <__divdf3+0x1ae>
    9384:	f0fef6e3          	bgeu	t4,a5,9290 <__divdf3+0x448>
    9388:	9eae                	add	t4,t4,a1
    938a:	00bebf33          	sltu	t5,t4,a1
    938e:	9f32                	add	t5,t5,a2
    9390:	1479                	addi	s0,s0,-2
    9392:	8a76                	mv	s4,t4
    9394:	977a                	add	a4,a4,t5
    9396:	b375                	j	9142 <__divdf3+0x2fa>
    9398:	c0200713          	li	a4,-1022
    939c:	3ff98793          	addi	a5,s3,1023
    93a0:	58fd                	li	a7,-1
    93a2:	e6e9cce3          	blt	s3,a4,921a <__divdf3+0x3d2>
    93a6:	00488713          	addi	a4,a7,4
    93aa:	011738b3          	sltu	a7,a4,a7
    93ae:	9446                	add	s0,s0,a7
    93b0:	88ba                	mv	a7,a4
    93b2:	b991                	j	9006 <__divdf3+0x1be>
    93b4:	00f8f713          	andi	a4,a7,15
    93b8:	4611                	li	a2,4
    93ba:	c4c706e3          	beq	a4,a2,9006 <__divdf3+0x1be>
    93be:	b7e5                	j	93a6 <__divdf3+0x55e>
    93c0:	8eba                	mv	t4,a4
    93c2:	b3fd                	j	91b0 <__divdf3+0x368>
    93c4:	88f6                	mv	a7,t4
    93c6:	bb75                	j	9182 <__divdf3+0x33a>
    93c8:	86ca                	mv	a3,s2
    93ca:	7ff00793          	li	a5,2047
    93ce:	4601                	li	a2,0
    93d0:	4701                	li	a4,0
    93d2:	be0d                	j	8f04 <__divdf3+0xbc>
    93d4:	00159313          	slli	t1,a1,0x1
    93d8:	00b33833          	sltu	a6,t1,a1
    93dc:	9832                	add	a6,a6,a2
    93de:	983e                	add	a6,a6,a5
    93e0:	18f9                	addi	a7,a7,-2
    93e2:	859a                	mv	a1,t1
    93e4:	f8a80be3          	beq	a6,a0,937a <__divdf3+0x532>
    93e8:	b535                	j	9214 <__divdf3+0x3cc>
    93ea:	fee5e5e3          	bltu	a1,a4,93d4 <__divdf3+0x58c>
    93ee:	889a                	mv	a7,t1
    93f0:	f8b717e3          	bne	a4,a1,937e <__divdf3+0x536>
    93f4:	b109                	j	8ff6 <__divdf3+0x1ae>

000093f6 <__ledf2>:
    93f6:	0145d813          	srli	a6,a1,0x14
    93fa:	001007b7          	lui	a5,0x100
    93fe:	17fd                	addi	a5,a5,-1 # fffff <_data_lma+0xf3d93>
    9400:	0146d893          	srli	a7,a3,0x14
    9404:	7ff87813          	andi	a6,a6,2047
    9408:	7ff00313          	li	t1,2047
    940c:	00b7fe33          	and	t3,a5,a1
    9410:	872a                	mv	a4,a0
    9412:	8eaa                	mv	t4,a0
    9414:	81fd                	srli	a1,a1,0x1f
    9416:	8f32                	mv	t5,a2
    9418:	8ff5                	and	a5,a5,a3
    941a:	7ff8f893          	andi	a7,a7,2047
    941e:	01f6d513          	srli	a0,a3,0x1f
    9422:	02680d63          	beq	a6,t1,945c <__ledf2+0x66>
    9426:	00688d63          	beq	a7,t1,9440 <__ledf2+0x4a>
    942a:	04081363          	bnez	a6,9470 <__ledf2+0x7a>
    942e:	00ee6733          	or	a4,t3,a4
    9432:	06089363          	bnez	a7,9498 <__ledf2+0xa2>
    9436:	8e5d                	or	a2,a2,a5
    9438:	c23d                	beqz	a2,949e <__ledf2+0xa8>
    943a:	eb2d                	bnez	a4,94ac <__ledf2+0xb6>
    943c:	cd11                	beqz	a0,9458 <__ledf2+0x62>
    943e:	8082                	ret
    9440:	8e5d                	or	a2,a2,a5
    9442:	e60d                	bnez	a2,946c <__ledf2+0x76>
    9444:	00081663          	bnez	a6,9450 <__ledf2+0x5a>
    9448:	00ee6e33          	or	t3,t3,a4
    944c:	fe0e08e3          	beqz	t3,943c <__ledf2+0x46>
    9450:	04a58163          	beq	a1,a0,9492 <__ledf2+0x9c>
    9454:	4505                	li	a0,1
    9456:	d5e5                	beqz	a1,943e <__ledf2+0x48>
    9458:	557d                	li	a0,-1
    945a:	8082                	ret
    945c:	00ee6e33          	or	t3,t3,a4
    9460:	000e1663          	bnez	t3,946c <__ledf2+0x76>
    9464:	ff0898e3          	bne	a7,a6,9454 <__ledf2+0x5e>
    9468:	8fd1                	or	a5,a5,a2
    946a:	cf8d                	beqz	a5,94a4 <__ledf2+0xae>
    946c:	4509                	li	a0,2
    946e:	8082                	ret
    9470:	fe0882e3          	beqz	a7,9454 <__ledf2+0x5e>
    9474:	fea590e3          	bne	a1,a0,9454 <__ledf2+0x5e>
    9478:	fd08cee3          	blt	a7,a6,9454 <__ledf2+0x5e>
    947c:	01184b63          	blt	a6,a7,9492 <__ledf2+0x9c>
    9480:	fdc7eae3          	bltu	a5,t3,9454 <__ledf2+0x5e>
    9484:	00fe1763          	bne	t3,a5,9492 <__ledf2+0x9c>
    9488:	fddf66e3          	bltu	t5,t4,9454 <__ledf2+0x5e>
    948c:	4501                	li	a0,0
    948e:	fbeef8e3          	bgeu	t4,t5,943e <__ledf2+0x48>
    9492:	d1f9                	beqz	a1,9458 <__ledf2+0x62>
    9494:	852e                	mv	a0,a1
    9496:	8082                	ret
    9498:	ff45                	bnez	a4,9450 <__ledf2+0x5a>
    949a:	f155                	bnez	a0,943e <__ledf2+0x48>
    949c:	bf75                	j	9458 <__ledf2+0x62>
    949e:	4501                	li	a0,0
    94a0:	fb55                	bnez	a4,9454 <__ledf2+0x5e>
    94a2:	8082                	ret
    94a4:	faa598e3          	bne	a1,a0,9454 <__ledf2+0x5e>
    94a8:	4501                	li	a0,0
    94aa:	8082                	ret
    94ac:	fca58ae3          	beq	a1,a0,9480 <__ledf2+0x8a>
    94b0:	b755                	j	9454 <__ledf2+0x5e>

000094b2 <__muldf3>:
    94b2:	7139                	addi	sp,sp,-64
    94b4:	0145d793          	srli	a5,a1,0x14
    94b8:	dc22                	sw	s0,56(sp)
    94ba:	da26                	sw	s1,52(sp)
    94bc:	d64e                	sw	s3,44(sp)
    94be:	cc62                	sw	s8,24(sp)
    94c0:	00c59493          	slli	s1,a1,0xc
    94c4:	de06                	sw	ra,60(sp)
    94c6:	d84a                	sw	s2,48(sp)
    94c8:	d452                	sw	s4,40(sp)
    94ca:	d256                	sw	s5,36(sp)
    94cc:	d05a                	sw	s6,32(sp)
    94ce:	ce5e                	sw	s7,28(sp)
    94d0:	7ff7f793          	andi	a5,a5,2047
    94d4:	842a                	mv	s0,a0
    94d6:	8c32                	mv	s8,a2
    94d8:	80b1                	srli	s1,s1,0xc
    94da:	01f5d993          	srli	s3,a1,0x1f
    94de:	16078663          	beqz	a5,964a <__muldf3+0x198>
    94e2:	7ff00813          	li	a6,2047
    94e6:	1b078263          	beq	a5,a6,968a <__muldf3+0x1d8>
    94ea:	048e                	slli	s1,s1,0x3
    94ec:	01d55593          	srli	a1,a0,0x1d
    94f0:	8dc5                	or	a1,a1,s1
    94f2:	008004b7          	lui	s1,0x800
    94f6:	8ccd                	or	s1,s1,a1
    94f8:	00351a13          	slli	s4,a0,0x3
    94fc:	c0178b93          	addi	s7,a5,-1023
    9500:	4b01                	li	s6,0
    9502:	4a81                	li	s5,0
    9504:	0146d793          	srli	a5,a3,0x14
    9508:	00c69813          	slli	a6,a3,0xc
    950c:	7ff7f793          	andi	a5,a5,2047
    9510:	8ee2                	mv	t4,s8
    9512:	00c85413          	srli	s0,a6,0xc
    9516:	01f6d913          	srli	s2,a3,0x1f
    951a:	c7f5                	beqz	a5,9606 <__muldf3+0x154>
    951c:	7ff00813          	li	a6,2047
    9520:	07078e63          	beq	a5,a6,959c <__muldf3+0xea>
    9524:	00341693          	slli	a3,s0,0x3
    9528:	c0178793          	addi	a5,a5,-1023
    952c:	01dc5593          	srli	a1,s8,0x1d
    9530:	8dd5                	or	a1,a1,a3
    9532:	01778e33          	add	t3,a5,s7
    9536:	008006b7          	lui	a3,0x800
    953a:	47a9                	li	a5,10
    953c:	00d5e433          	or	s0,a1,a3
    9540:	003c1e93          	slli	t4,s8,0x3
    9544:	4501                	li	a0,0
    9546:	001e0313          	addi	t1,t3,1
    954a:	1967c663          	blt	a5,s6,96d6 <__muldf3+0x224>
    954e:	0129c833          	xor	a6,s3,s2
    9552:	86c2                	mv	a3,a6
    9554:	4609                	li	a2,2
    9556:	07664763          	blt	a2,s6,95c4 <__muldf3+0x112>
    955a:	fffb0893          	addi	a7,s6,-1
    955e:	4585                	li	a1,1
    9560:	1b15eb63          	bltu	a1,a7,9716 <__muldf3+0x264>
    9564:	12c50d63          	beq	a0,a2,969e <__muldf3+0x1ec>
    9568:	4785                	li	a5,1
    956a:	8836                	mv	a6,a3
    956c:	06f51f63          	bne	a0,a5,95ea <__muldf3+0x138>
    9570:	4781                	li	a5,0
    9572:	4681                	li	a3,0
    9574:	4701                	li	a4,0
    9576:	50f2                	lw	ra,60(sp)
    9578:	5462                	lw	s0,56(sp)
    957a:	07d2                	slli	a5,a5,0x14
    957c:	8fd5                	or	a5,a5,a3
    957e:	087e                	slli	a6,a6,0x1f
    9580:	0107e7b3          	or	a5,a5,a6
    9584:	54d2                	lw	s1,52(sp)
    9586:	5942                	lw	s2,48(sp)
    9588:	59b2                	lw	s3,44(sp)
    958a:	5a22                	lw	s4,40(sp)
    958c:	5a92                	lw	s5,36(sp)
    958e:	5b02                	lw	s6,32(sp)
    9590:	4bf2                	lw	s7,28(sp)
    9592:	4c62                	lw	s8,24(sp)
    9594:	853a                	mv	a0,a4
    9596:	85be                	mv	a1,a5
    9598:	6121                	addi	sp,sp,64
    959a:	8082                	ret
    959c:	01846733          	or	a4,s0,s8
    95a0:	7ffb8e13          	addi	t3,s7,2047
    95a4:	10070963          	beqz	a4,96b6 <__muldf3+0x204>
    95a8:	6705                	lui	a4,0x1
    95aa:	0129c833          	xor	a6,s3,s2
    95ae:	80070713          	addi	a4,a4,-2048 # 800 <__stack_size>
    95b2:	003b6b13          	ori	s6,s6,3
    95b6:	4629                	li	a2,10
    95b8:	86c2                	mv	a3,a6
    95ba:	00eb8333          	add	t1,s7,a4
    95be:	43664363          	blt	a2,s6,99e4 <__muldf3+0x532>
    95c2:	450d                	li	a0,3
    95c4:	4605                	li	a2,1
    95c6:	01661633          	sll	a2,a2,s6
    95ca:	53067713          	andi	a4,a2,1328
    95ce:	c305                	beqz	a4,95ee <__muldf3+0x13c>
    95d0:	4789                	li	a5,2
    95d2:	0cfa8663          	beq	s5,a5,969e <__muldf3+0x1ec>
    95d6:	478d                	li	a5,3
    95d8:	12fa8863          	beq	s5,a5,9708 <__muldf3+0x256>
    95dc:	8556                	mv	a0,s5
    95de:	4785                	li	a5,1
    95e0:	8426                	mv	s0,s1
    95e2:	8ed2                	mv	t4,s4
    95e4:	8836                	mv	a6,a3
    95e6:	f8f505e3          	beq	a0,a5,9570 <__muldf3+0xbe>
    95ea:	8e1a                	mv	t3,t1
    95ec:	a479                	j	987a <__muldf3+0x3c8>
    95ee:	24067793          	andi	a5,a2,576
    95f2:	efc5                	bnez	a5,96aa <__muldf3+0x1f8>
    95f4:	08867613          	andi	a2,a2,136
    95f8:	10060f63          	beqz	a2,9716 <__muldf3+0x264>
    95fc:	86ca                	mv	a3,s2
    95fe:	84a2                	mv	s1,s0
    9600:	8a76                	mv	s4,t4
    9602:	8aaa                	mv	s5,a0
    9604:	b7f1                	j	95d0 <__muldf3+0x11e>
    9606:	018467b3          	or	a5,s0,s8
    960a:	c3fd                	beqz	a5,96f0 <__muldf3+0x23e>
    960c:	32040b63          	beqz	s0,9942 <__muldf3+0x490>
    9610:	8522                	mv	a0,s0
    9612:	06c020ef          	jal	ra,b67e <__clzsi2>
    9616:	8e2a                	mv	t3,a0
    9618:	ff550713          	addi	a4,a0,-11
    961c:	47f5                	li	a5,29
    961e:	ff8e0e93          	addi	t4,t3,-8
    9622:	8f99                	sub	a5,a5,a4
    9624:	01d416b3          	sll	a3,s0,t4
    9628:	00fc57b3          	srl	a5,s8,a5
    962c:	00d7e433          	or	s0,a5,a3
    9630:	01dc1eb3          	sll	t4,s8,t4
    9634:	41cb8e33          	sub	t3,s7,t3
    9638:	c0de0e13          	addi	t3,t3,-1011
    963c:	47a9                	li	a5,10
    963e:	4501                	li	a0,0
    9640:	001e0313          	addi	t1,t3,1
    9644:	f167d5e3          	bge	a5,s6,954e <__muldf3+0x9c>
    9648:	a079                	j	96d6 <__muldf3+0x224>
    964a:	00a4ea33          	or	s4,s1,a0
    964e:	080a0c63          	beqz	s4,96e6 <__muldf3+0x234>
    9652:	c636                	sw	a3,12(sp)
    9654:	2c048863          	beqz	s1,9924 <__muldf3+0x472>
    9658:	8526                	mv	a0,s1
    965a:	024020ef          	jal	ra,b67e <__clzsi2>
    965e:	46b2                	lw	a3,12(sp)
    9660:	872a                	mv	a4,a0
    9662:	ff550613          	addi	a2,a0,-11
    9666:	47f5                	li	a5,29
    9668:	ff870a13          	addi	s4,a4,-8
    966c:	8f91                	sub	a5,a5,a2
    966e:	014494b3          	sll	s1,s1,s4
    9672:	00f457b3          	srl	a5,s0,a5
    9676:	8cdd                	or	s1,s1,a5
    9678:	01441a33          	sll	s4,s0,s4
    967c:	c0d00793          	li	a5,-1011
    9680:	40e78bb3          	sub	s7,a5,a4
    9684:	4b01                	li	s6,0
    9686:	4a81                	li	s5,0
    9688:	bdb5                	j	9504 <__muldf3+0x52>
    968a:	00a4ea33          	or	s4,s1,a0
    968e:	040a1663          	bnez	s4,96da <__muldf3+0x228>
    9692:	4481                	li	s1,0
    9694:	4b21                	li	s6,8
    9696:	7ff00b93          	li	s7,2047
    969a:	4a89                	li	s5,2
    969c:	b5a5                	j	9504 <__muldf3+0x52>
    969e:	8836                	mv	a6,a3
    96a0:	7ff00793          	li	a5,2047
    96a4:	4681                	li	a3,0
    96a6:	4701                	li	a4,0
    96a8:	b5f9                	j	9576 <__muldf3+0xc4>
    96aa:	4801                	li	a6,0
    96ac:	7ff00793          	li	a5,2047
    96b0:	000806b7          	lui	a3,0x80
    96b4:	b5c9                	j	9576 <__muldf3+0xc4>
    96b6:	6785                	lui	a5,0x1
    96b8:	80078793          	addi	a5,a5,-2048 # 800 <__stack_size>
    96bc:	002b6b13          	ori	s6,s6,2
    96c0:	46a9                	li	a3,10
    96c2:	00fb8333          	add	t1,s7,a5
    96c6:	2b66d263          	bge	a3,s6,996a <__muldf3+0x4b8>
    96ca:	4e81                	li	t4,0
    96cc:	47b9                	li	a5,14
    96ce:	4509                	li	a0,2
    96d0:	46ad                	li	a3,11
    96d2:	30d78763          	beq	a5,a3,99e0 <__muldf3+0x52e>
    96d6:	86ce                	mv	a3,s3
    96d8:	bde5                	j	95d0 <__muldf3+0x11e>
    96da:	8a2a                	mv	s4,a0
    96dc:	4b31                	li	s6,12
    96de:	7ff00b93          	li	s7,2047
    96e2:	4a8d                	li	s5,3
    96e4:	b505                	j	9504 <__muldf3+0x52>
    96e6:	4481                	li	s1,0
    96e8:	4b11                	li	s6,4
    96ea:	4b81                	li	s7,0
    96ec:	4a85                	li	s5,1
    96ee:	bd19                	j	9504 <__muldf3+0x52>
    96f0:	8e5e                	mv	t3,s7
    96f2:	001b6b13          	ori	s6,s6,1
    96f6:	47a9                	li	a5,10
    96f8:	4401                	li	s0,0
    96fa:	4e81                	li	t4,0
    96fc:	4505                	li	a0,1
    96fe:	001e0313          	addi	t1,t3,1
    9702:	e567d6e3          	bge	a5,s6,954e <__muldf3+0x9c>
    9706:	bfc1                	j	96d6 <__muldf3+0x224>
    9708:	4801                	li	a6,0
    970a:	7ff00793          	li	a5,2047
    970e:	000806b7          	lui	a3,0x80
    9712:	4701                	li	a4,0
    9714:	b58d                	j	9576 <__muldf3+0xc4>
    9716:	65c1                	lui	a1,0x10
    9718:	fff58713          	addi	a4,a1,-1 # ffff <_data_lma+0x3d93>
    971c:	010a5793          	srli	a5,s4,0x10
    9720:	010ed893          	srli	a7,t4,0x10
    9724:	00ea7a33          	and	s4,s4,a4
    9728:	00eefeb3          	and	t4,t4,a4
    972c:	03da0733          	mul	a4,s4,t4
    9730:	03d78633          	mul	a2,a5,t4
    9734:	01075513          	srli	a0,a4,0x10
    9738:	034886b3          	mul	a3,a7,s4
    973c:	96b2                	add	a3,a3,a2
    973e:	9536                	add	a0,a0,a3
    9740:	03178f33          	mul	t5,a5,a7
    9744:	00c57363          	bgeu	a0,a2,974a <__muldf3+0x298>
    9748:	9f2e                	add	t5,t5,a1
    974a:	63c1                	lui	t2,0x10
    974c:	fff38613          	addi	a2,t2,-1 # ffff <_data_lma+0x3d93>
    9750:	00c575b3          	and	a1,a0,a2
    9754:	00c476b3          	and	a3,s0,a2
    9758:	8f71                	and	a4,a4,a2
    975a:	01045f93          	srli	t6,s0,0x10
    975e:	05c2                	slli	a1,a1,0x10
    9760:	02da02b3          	mul	t0,s4,a3
    9764:	95ba                	add	a1,a1,a4
    9766:	8141                	srli	a0,a0,0x10
    9768:	02d78733          	mul	a4,a5,a3
    976c:	0102d613          	srli	a2,t0,0x10
    9770:	034f8a33          	mul	s4,t6,s4
    9774:	9a3a                	add	s4,s4,a4
    9776:	9652                	add	a2,a2,s4
    9778:	03f787b3          	mul	a5,a5,t6
    977c:	00e67363          	bgeu	a2,a4,9782 <__muldf3+0x2d0>
    9780:	979e                	add	a5,a5,t2
    9782:	6941                	lui	s2,0x10
    9784:	fff90413          	addi	s0,s2,-1 # ffff <_data_lma+0x3d93>
    9788:	00867733          	and	a4,a2,s0
    978c:	0104d393          	srli	t2,s1,0x10
    9790:	0082f2b3          	and	t0,t0,s0
    9794:	8ce1                	and	s1,s1,s0
    9796:	0742                	slli	a4,a4,0x10
    9798:	029e8433          	mul	s0,t4,s1
    979c:	9716                	add	a4,a4,t0
    979e:	8241                	srli	a2,a2,0x10
    97a0:	963e                	add	a2,a2,a5
    97a2:	953a                	add	a0,a0,a4
    97a4:	029882b3          	mul	t0,a7,s1
    97a8:	01045793          	srli	a5,s0,0x10
    97ac:	03d38eb3          	mul	t4,t2,t4
    97b0:	92f6                	add	t0,t0,t4
    97b2:	9796                	add	a5,a5,t0
    97b4:	027888b3          	mul	a7,a7,t2
    97b8:	01d7f363          	bgeu	a5,t4,97be <__muldf3+0x30c>
    97bc:	98ca                	add	a7,a7,s2
    97be:	6941                	lui	s2,0x10
    97c0:	fff90e93          	addi	t4,s2,-1 # ffff <_data_lma+0x3d93>
    97c4:	01d7f2b3          	and	t0,a5,t4
    97c8:	01d47eb3          	and	t4,s0,t4
    97cc:	02c2                	slli	t0,t0,0x10
    97ce:	83c1                	srli	a5,a5,0x10
    97d0:	97c6                	add	a5,a5,a7
    97d2:	02968433          	mul	s0,a3,s1
    97d6:	01d288b3          	add	a7,t0,t4
    97da:	02d386b3          	mul	a3,t2,a3
    97de:	01045293          	srli	t0,s0,0x10
    97e2:	029f84b3          	mul	s1,t6,s1
    97e6:	94b6                	add	s1,s1,a3
    97e8:	92a6                	add	t0,t0,s1
    97ea:	027f8eb3          	mul	t4,t6,t2
    97ee:	00d2f363          	bgeu	t0,a3,97f4 <__muldf3+0x342>
    97f2:	9eca                	add	t4,t4,s2
    97f4:	6fc1                	lui	t6,0x10
    97f6:	1ffd                	addi	t6,t6,-1 # ffff <_data_lma+0x3d93>
    97f8:	01f2f6b3          	and	a3,t0,t6
    97fc:	01f47433          	and	s0,s0,t6
    9800:	06c2                	slli	a3,a3,0x10
    9802:	957a                	add	a0,a0,t5
    9804:	96a2                	add	a3,a3,s0
    9806:	9636                	add	a2,a2,a3
    9808:	00e53733          	sltu	a4,a0,a4
    980c:	9732                	add	a4,a4,a2
    980e:	98aa                	add	a7,a7,a0
    9810:	97ba                	add	a5,a5,a4
    9812:	00a8b533          	sltu	a0,a7,a0
    9816:	953e                	add	a0,a0,a5
    9818:	00d636b3          	sltu	a3,a2,a3
    981c:	00c73633          	sltu	a2,a4,a2
    9820:	8ed1                	or	a3,a3,a2
    9822:	00e7b733          	sltu	a4,a5,a4
    9826:	0102d613          	srli	a2,t0,0x10
    982a:	00f537b3          	sltu	a5,a0,a5
    982e:	8f5d                	or	a4,a4,a5
    9830:	96b2                	add	a3,a3,a2
    9832:	9736                	add	a4,a4,a3
    9834:	9776                	add	a4,a4,t4
    9836:	00989e93          	slli	t4,a7,0x9
    983a:	01755793          	srli	a5,a0,0x17
    983e:	0726                	slli	a4,a4,0x9
    9840:	00beeeb3          	or	t4,t4,a1
    9844:	00f76433          	or	s0,a4,a5
    9848:	01d03eb3          	snez	t4,t4
    984c:	0178d793          	srli	a5,a7,0x17
    9850:	00feeeb3          	or	t4,t4,a5
    9854:	010007b7          	lui	a5,0x1000
    9858:	0526                	slli	a0,a0,0x9
    985a:	8fe1                	and	a5,a5,s0
    985c:	00aeeeb3          	or	t4,t4,a0
    9860:	cf89                	beqz	a5,987a <__muldf3+0x3c8>
    9862:	001ed793          	srli	a5,t4,0x1
    9866:	001efe93          	andi	t4,t4,1
    986a:	01f41713          	slli	a4,s0,0x1f
    986e:	01d7e7b3          	or	a5,a5,t4
    9872:	00e7eeb3          	or	t4,a5,a4
    9876:	8005                	srli	s0,s0,0x1
    9878:	8e1a                	mv	t3,t1
    987a:	3ffe0793          	addi	a5,t3,1023
    987e:	04f05a63          	blez	a5,98d2 <__muldf3+0x420>
    9882:	007ef713          	andi	a4,t4,7
    9886:	cf01                	beqz	a4,989e <__muldf3+0x3ec>
    9888:	00fef713          	andi	a4,t4,15
    988c:	4691                	li	a3,4
    988e:	00d70863          	beq	a4,a3,989e <__muldf3+0x3ec>
    9892:	004e8713          	addi	a4,t4,4
    9896:	01d73eb3          	sltu	t4,a4,t4
    989a:	9476                	add	s0,s0,t4
    989c:	8eba                	mv	t4,a4
    989e:	01000737          	lui	a4,0x1000
    98a2:	8f61                	and	a4,a4,s0
    98a4:	c719                	beqz	a4,98b2 <__muldf3+0x400>
    98a6:	ff0007b7          	lui	a5,0xff000
    98aa:	17fd                	addi	a5,a5,-1 # feffffff <_eusrstack+0xdeffafff>
    98ac:	8c7d                	and	s0,s0,a5
    98ae:	400e0793          	addi	a5,t3,1024
    98b2:	7fe00713          	li	a4,2046
    98b6:	0af74563          	blt	a4,a5,9960 <__muldf3+0x4ae>
    98ba:	003ede93          	srli	t4,t4,0x3
    98be:	01d41713          	slli	a4,s0,0x1d
    98c2:	00941693          	slli	a3,s0,0x9
    98c6:	01d76733          	or	a4,a4,t4
    98ca:	82b1                	srli	a3,a3,0xc
    98cc:	7ff7f793          	andi	a5,a5,2047
    98d0:	b15d                	j	9576 <__muldf3+0xc4>
    98d2:	4705                	li	a4,1
    98d4:	e3d5                	bnez	a5,9978 <__muldf3+0x4c6>
    98d6:	41ee0e13          	addi	t3,t3,1054
    98da:	01ce9633          	sll	a2,t4,t3
    98de:	00c03633          	snez	a2,a2
    98e2:	01c41e33          	sll	t3,s0,t3
    98e6:	00eedeb3          	srl	t4,t4,a4
    98ea:	01c66633          	or	a2,a2,t3
    98ee:	01d66633          	or	a2,a2,t4
    98f2:	00767793          	andi	a5,a2,7
    98f6:	00e455b3          	srl	a1,s0,a4
    98fa:	cf81                	beqz	a5,9912 <__muldf3+0x460>
    98fc:	00f67793          	andi	a5,a2,15
    9900:	4711                	li	a4,4
    9902:	00e78863          	beq	a5,a4,9912 <__muldf3+0x460>
    9906:	00460793          	addi	a5,a2,4 # 80004 <_data_lma+0x73d98>
    990a:	00c7b633          	sltu	a2,a5,a2
    990e:	95b2                	add	a1,a1,a2
    9910:	863e                	mv	a2,a5
    9912:	00800537          	lui	a0,0x800
    9916:	8d6d                	and	a0,a0,a1
    9918:	4785                	li	a5,1
    991a:	4681                	li	a3,0
    991c:	4701                	li	a4,0
    991e:	c4051ce3          	bnez	a0,9576 <__muldf3+0xc4>
    9922:	a075                	j	99ce <__muldf3+0x51c>
    9924:	55b010ef          	jal	ra,b67e <__clzsi2>
    9928:	01550613          	addi	a2,a0,21 # 800015 <_data_lma+0x7f3da9>
    992c:	47f1                	li	a5,28
    992e:	46b2                	lw	a3,12(sp)
    9930:	02050713          	addi	a4,a0,32
    9934:	d2c7d9e3          	bge	a5,a2,9666 <__muldf3+0x1b4>
    9938:	1561                	addi	a0,a0,-8
    993a:	4a01                	li	s4,0
    993c:	00a414b3          	sll	s1,s0,a0
    9940:	bb35                	j	967c <__muldf3+0x1ca>
    9942:	8562                	mv	a0,s8
    9944:	53b010ef          	jal	ra,b67e <__clzsi2>
    9948:	01550713          	addi	a4,a0,21
    994c:	47f1                	li	a5,28
    994e:	02050e13          	addi	t3,a0,32
    9952:	cce7d5e3          	bge	a5,a4,961c <__muldf3+0x16a>
    9956:	1561                	addi	a0,a0,-8
    9958:	4e81                	li	t4,0
    995a:	00ac1433          	sll	s0,s8,a0
    995e:	b9d9                	j	9634 <__muldf3+0x182>
    9960:	7ff00793          	li	a5,2047
    9964:	4681                	li	a3,0
    9966:	4701                	li	a4,0
    9968:	b139                	j	9576 <__muldf3+0xc4>
    996a:	0129c833          	xor	a6,s3,s2
    996e:	86c2                	mv	a3,a6
    9970:	4401                	li	s0,0
    9972:	4e81                	li	t4,0
    9974:	4509                	li	a0,2
    9976:	bef9                	j	9554 <__muldf3+0xa2>
    9978:	8f1d                	sub	a4,a4,a5
    997a:	03800693          	li	a3,56
    997e:	bee6c9e3          	blt	a3,a4,9570 <__muldf3+0xbe>
    9982:	46fd                	li	a3,31
    9984:	f4e6d9e3          	bge	a3,a4,98d6 <__muldf3+0x424>
    9988:	5685                	li	a3,-31
    998a:	40f687b3          	sub	a5,a3,a5
    998e:	02000693          	li	a3,32
    9992:	00f457b3          	srl	a5,s0,a5
    9996:	00d70863          	beq	a4,a3,99a6 <__muldf3+0x4f4>
    999a:	43ee0e13          	addi	t3,t3,1086
    999e:	01c41e33          	sll	t3,s0,t3
    99a2:	01ceeeb3          	or	t4,t4,t3
    99a6:	01d03633          	snez	a2,t4
    99aa:	8e5d                	or	a2,a2,a5
    99ac:	00767713          	andi	a4,a2,7
    99b0:	4681                	li	a3,0
    99b2:	c31d                	beqz	a4,99d8 <__muldf3+0x526>
    99b4:	00f67793          	andi	a5,a2,15
    99b8:	4711                	li	a4,4
    99ba:	4581                	li	a1,0
    99bc:	00e78963          	beq	a5,a4,99ce <__muldf3+0x51c>
    99c0:	00460793          	addi	a5,a2,4
    99c4:	00c7b633          	sltu	a2,a5,a2
    99c8:	00c035b3          	snez	a1,a2
    99cc:	863e                	mv	a2,a5
    99ce:	00959693          	slli	a3,a1,0x9
    99d2:	01d59713          	slli	a4,a1,0x1d
    99d6:	82b1                	srli	a3,a3,0xc
    99d8:	820d                	srli	a2,a2,0x3
    99da:	8f51                	or	a4,a4,a2
    99dc:	4781                	li	a5,0
    99de:	be61                	j	9576 <__muldf3+0xc4>
    99e0:	843a                	mv	s0,a4
    99e2:	b929                	j	95fc <__muldf3+0x14a>
    99e4:	473d                	li	a4,15
    99e6:	00eb1763          	bne	s6,a4,99f4 <__muldf3+0x542>
    99ea:	4801                	li	a6,0
    99ec:	000806b7          	lui	a3,0x80
    99f0:	4701                	li	a4,0
    99f2:	b651                	j	9576 <__muldf3+0xc4>
    99f4:	8722                	mv	a4,s0
    99f6:	47ad                	li	a5,11
    99f8:	450d                	li	a0,3
    99fa:	b9d9                	j	96d0 <__muldf3+0x21e>

000099fc <__subdf3>:
    99fc:	001007b7          	lui	a5,0x100
    9a00:	17fd                	addi	a5,a5,-1 # fffff <_data_lma+0xf3d93>
    9a02:	1101                	addi	sp,sp,-32
    9a04:	00b7f8b3          	and	a7,a5,a1
    9a08:	0146d813          	srli	a6,a3,0x14
    9a0c:	8ff5                	and	a5,a5,a3
    9a0e:	088e                	slli	a7,a7,0x3
    9a10:	00379713          	slli	a4,a5,0x3
    9a14:	cc22                	sw	s0,24(sp)
    9a16:	ca26                	sw	s1,20(sp)
    9a18:	0145d413          	srli	s0,a1,0x14
    9a1c:	c84a                	sw	s2,16(sp)
    9a1e:	01d65793          	srli	a5,a2,0x1d
    9a22:	01d55913          	srli	s2,a0,0x1d
    9a26:	ce06                	sw	ra,28(sp)
    9a28:	c64e                	sw	s3,12(sp)
    9a2a:	7ff87813          	andi	a6,a6,2047
    9a2e:	7ff00313          	li	t1,2047
    9a32:	01f5d493          	srli	s1,a1,0x1f
    9a36:	01196933          	or	s2,s2,a7
    9a3a:	7ff47413          	andi	s0,s0,2047
    9a3e:	00351893          	slli	a7,a0,0x3
    9a42:	82fd                	srli	a3,a3,0x1f
    9a44:	8fd9                	or	a5,a5,a4
    9a46:	00361593          	slli	a1,a2,0x3
    9a4a:	1c680263          	beq	a6,t1,9c0e <__subdf3+0x212>
    9a4e:	0016c693          	xori	a3,a3,1
    9a52:	41040733          	sub	a4,s0,a6
    9a56:	12d48263          	beq	s1,a3,9b7a <__subdf3+0x17e>
    9a5a:	68e05763          	blez	a4,a0e8 <__subdf3+0x6ec>
    9a5e:	1e080463          	beqz	a6,9c46 <__subdf3+0x24a>
    9a62:	52640c63          	beq	s0,t1,9f9a <__subdf3+0x59e>
    9a66:	03800693          	li	a3,56
    9a6a:	4985                	li	s3,1
    9a6c:	02e6cb63          	blt	a3,a4,9aa2 <__subdf3+0xa6>
    9a70:	008006b7          	lui	a3,0x800
    9a74:	8fd5                	or	a5,a5,a3
    9a76:	46fd                	li	a3,31
    9a78:	3ee6c363          	blt	a3,a4,9e5e <__subdf3+0x462>
    9a7c:	02000693          	li	a3,32
    9a80:	8e99                	sub	a3,a3,a4
    9a82:	00d799b3          	sll	s3,a5,a3
    9a86:	00e5d633          	srl	a2,a1,a4
    9a8a:	00d596b3          	sll	a3,a1,a3
    9a8e:	00c9e9b3          	or	s3,s3,a2
    9a92:	00d036b3          	snez	a3,a3
    9a96:	00e7d733          	srl	a4,a5,a4
    9a9a:	00d9e9b3          	or	s3,s3,a3
    9a9e:	40e90933          	sub	s2,s2,a4
    9aa2:	413889b3          	sub	s3,a7,s3
    9aa6:	0138b7b3          	sltu	a5,a7,s3
    9aaa:	40f90933          	sub	s2,s2,a5
    9aae:	008007b7          	lui	a5,0x800
    9ab2:	00f97733          	and	a4,s2,a5
    9ab6:	28070763          	beqz	a4,9d44 <__subdf3+0x348>
    9aba:	17fd                	addi	a5,a5,-1 # 7fffff <_data_lma+0x7f3d93>
    9abc:	00f97933          	and	s2,s2,a5
    9ac0:	28090763          	beqz	s2,9d4e <__subdf3+0x352>
    9ac4:	854a                	mv	a0,s2
    9ac6:	3b9010ef          	jal	ra,b67e <__clzsi2>
    9aca:	ff850713          	addi	a4,a0,-8
    9ace:	02000693          	li	a3,32
    9ad2:	40e687b3          	sub	a5,a3,a4
    9ad6:	00f9d7b3          	srl	a5,s3,a5
    9ada:	00e91933          	sll	s2,s2,a4
    9ade:	0127e7b3          	or	a5,a5,s2
    9ae2:	00e999b3          	sll	s3,s3,a4
    9ae6:	2e874c63          	blt	a4,s0,9dde <__subdf3+0x3e2>
    9aea:	8f01                	sub	a4,a4,s0
    9aec:	0705                	addi	a4,a4,1 # 1000001 <_data_lma+0xff3d95>
    9aee:	8e99                	sub	a3,a3,a4
    9af0:	00d99633          	sll	a2,s3,a3
    9af4:	00e9d933          	srl	s2,s3,a4
    9af8:	00c03633          	snez	a2,a2
    9afc:	00c96633          	or	a2,s2,a2
    9b00:	00d796b3          	sll	a3,a5,a3
    9b04:	00c6e9b3          	or	s3,a3,a2
    9b08:	00e7d933          	srl	s2,a5,a4
    9b0c:	4401                	li	s0,0
    9b0e:	0079f793          	andi	a5,s3,7
    9b12:	cf81                	beqz	a5,9b2a <__subdf3+0x12e>
    9b14:	00f9f793          	andi	a5,s3,15
    9b18:	4711                	li	a4,4
    9b1a:	00e78863          	beq	a5,a4,9b2a <__subdf3+0x12e>
    9b1e:	00498793          	addi	a5,s3,4
    9b22:	0137b9b3          	sltu	s3,a5,s3
    9b26:	994e                	add	s2,s2,s3
    9b28:	89be                	mv	s3,a5
    9b2a:	008007b7          	lui	a5,0x800
    9b2e:	00f977b3          	and	a5,s2,a5
    9b32:	26078963          	beqz	a5,9da4 <__subdf3+0x3a8>
    9b36:	0405                	addi	s0,s0,1
    9b38:	7ff00793          	li	a5,2047
    9b3c:	1ef40e63          	beq	s0,a5,9d38 <__subdf3+0x33c>
    9b40:	ff8007b7          	lui	a5,0xff800
    9b44:	17fd                	addi	a5,a5,-1 # ff7fffff <_eusrstack+0xdf7fafff>
    9b46:	00f977b3          	and	a5,s2,a5
    9b4a:	01d79713          	slli	a4,a5,0x1d
    9b4e:	0039d993          	srli	s3,s3,0x3
    9b52:	07a6                	slli	a5,a5,0x9
    9b54:	01376733          	or	a4,a4,s3
    9b58:	83b1                	srli	a5,a5,0xc
    9b5a:	7ff47413          	andi	s0,s0,2047
    9b5e:	8885                	andi	s1,s1,1
    9b60:	0452                	slli	s0,s0,0x14
    9b62:	04fe                	slli	s1,s1,0x1f
    9b64:	8c5d                	or	s0,s0,a5
    9b66:	8c45                	or	s0,s0,s1
    9b68:	40f2                	lw	ra,28(sp)
    9b6a:	85a2                	mv	a1,s0
    9b6c:	4462                	lw	s0,24(sp)
    9b6e:	44d2                	lw	s1,20(sp)
    9b70:	4942                	lw	s2,16(sp)
    9b72:	49b2                	lw	s3,12(sp)
    9b74:	853a                	mv	a0,a4
    9b76:	6105                	addi	sp,sp,32
    9b78:	8082                	ret
    9b7a:	58e05b63          	blez	a4,a110 <__subdf3+0x714>
    9b7e:	1a081263          	bnez	a6,9d22 <__subdf3+0x326>
    9b82:	00b7e6b3          	or	a3,a5,a1
    9b86:	24068863          	beqz	a3,9dd6 <__subdf3+0x3da>
    9b8a:	fff70613          	addi	a2,a4,-1
    9b8e:	3c060263          	beqz	a2,9f52 <__subdf3+0x556>
    9b92:	44670363          	beq	a4,t1,9fd8 <__subdf3+0x5dc>
    9b96:	03800713          	li	a4,56
    9b9a:	4685                	li	a3,1
    9b9c:	02c74663          	blt	a4,a2,9bc8 <__subdf3+0x1cc>
    9ba0:	8732                	mv	a4,a2
    9ba2:	46fd                	li	a3,31
    9ba4:	40e6c363          	blt	a3,a4,9faa <__subdf3+0x5ae>
    9ba8:	02000613          	li	a2,32
    9bac:	8e19                	sub	a2,a2,a4
    9bae:	00c796b3          	sll	a3,a5,a2
    9bb2:	00e5d533          	srl	a0,a1,a4
    9bb6:	00c59633          	sll	a2,a1,a2
    9bba:	8ec9                	or	a3,a3,a0
    9bbc:	00c03633          	snez	a2,a2
    9bc0:	00e7d733          	srl	a4,a5,a4
    9bc4:	8ed1                	or	a3,a3,a2
    9bc6:	993a                	add	s2,s2,a4
    9bc8:	011687b3          	add	a5,a3,a7
    9bcc:	00d7b6b3          	sltu	a3,a5,a3
    9bd0:	89be                	mv	s3,a5
    9bd2:	9936                	add	s2,s2,a3
    9bd4:	008007b7          	lui	a5,0x800
    9bd8:	00f977b3          	and	a5,s2,a5
    9bdc:	16078463          	beqz	a5,9d44 <__subdf3+0x348>
    9be0:	0405                	addi	s0,s0,1
    9be2:	7ff00793          	li	a5,2047
    9be6:	14f40963          	beq	s0,a5,9d38 <__subdf3+0x33c>
    9bea:	ff8007b7          	lui	a5,0xff800
    9bee:	17fd                	addi	a5,a5,-1 # ff7fffff <_eusrstack+0xdf7fafff>
    9bf0:	00f977b3          	and	a5,s2,a5
    9bf4:	0019d713          	srli	a4,s3,0x1
    9bf8:	0019f993          	andi	s3,s3,1
    9bfc:	01376733          	or	a4,a4,s3
    9c00:	01f79993          	slli	s3,a5,0x1f
    9c04:	00e9e9b3          	or	s3,s3,a4
    9c08:	0017d913          	srli	s2,a5,0x1
    9c0c:	b709                	j	9b0e <__subdf3+0x112>
    9c0e:	00b7e733          	or	a4,a5,a1
    9c12:	80140313          	addi	t1,s0,-2047
    9c16:	cb29                	beqz	a4,9c68 <__subdf3+0x26c>
    9c18:	04d48c63          	beq	s1,a3,9c70 <__subdf3+0x274>
    9c1c:	0a030c63          	beqz	t1,9cd4 <__subdf3+0x2d8>
    9c20:	1a040363          	beqz	s0,9dc6 <__subdf3+0x3ca>
    9c24:	060e                	slli	a2,a2,0x3
    9c26:	01d79713          	slli	a4,a5,0x1d
    9c2a:	820d                	srli	a2,a2,0x3
    9c2c:	8f51                	or	a4,a4,a2
    9c2e:	838d                	srli	a5,a5,0x3
    9c30:	84b6                	mv	s1,a3
    9c32:	8f5d                	or	a4,a4,a5
    9c34:	10070263          	beqz	a4,9d38 <__subdf3+0x33c>
    9c38:	4481                	li	s1,0
    9c3a:	7ff00413          	li	s0,2047
    9c3e:	000807b7          	lui	a5,0x80
    9c42:	4701                	li	a4,0
    9c44:	bf31                	j	9b60 <__subdf3+0x164>
    9c46:	00b7e6b3          	or	a3,a5,a1
    9c4a:	18068663          	beqz	a3,9dd6 <__subdf3+0x3da>
    9c4e:	fff70693          	addi	a3,a4,-1
    9c52:	32068963          	beqz	a3,9f84 <__subdf3+0x588>
    9c56:	30670e63          	beq	a4,t1,9f72 <__subdf3+0x576>
    9c5a:	03800713          	li	a4,56
    9c5e:	4985                	li	s3,1
    9c60:	e4d741e3          	blt	a4,a3,9aa2 <__subdf3+0xa6>
    9c64:	8736                	mv	a4,a3
    9c66:	bd01                	j	9a76 <__subdf3+0x7a>
    9c68:	0016c693          	xori	a3,a3,1
    9c6c:	fad498e3          	bne	s1,a3,9c1c <__subdf3+0x220>
    9c70:	16030e63          	beqz	t1,9dec <__subdf3+0x3f0>
    9c74:	26041463          	bnez	s0,9edc <__subdf3+0x4e0>
    9c78:	7ff00713          	li	a4,2047
    9c7c:	011966b3          	or	a3,s2,a7
    9c80:	3c068863          	beqz	a3,a050 <__subdf3+0x654>
    9c84:	fff70693          	addi	a3,a4,-1
    9c88:	2c068563          	beqz	a3,9f52 <__subdf3+0x556>
    9c8c:	7ff00513          	li	a0,2047
    9c90:	24a70663          	beq	a4,a0,9edc <__subdf3+0x4e0>
    9c94:	03800613          	li	a2,56
    9c98:	4705                	li	a4,1
    9c9a:	02d64563          	blt	a2,a3,9cc4 <__subdf3+0x2c8>
    9c9e:	477d                	li	a4,31
    9ca0:	3ed74e63          	blt	a4,a3,a09c <__subdf3+0x6a0>
    9ca4:	02000613          	li	a2,32
    9ca8:	8e15                	sub	a2,a2,a3
    9caa:	00c91733          	sll	a4,s2,a2
    9cae:	00d8d533          	srl	a0,a7,a3
    9cb2:	00c89633          	sll	a2,a7,a2
    9cb6:	8f49                	or	a4,a4,a0
    9cb8:	00c03633          	snez	a2,a2
    9cbc:	00d956b3          	srl	a3,s2,a3
    9cc0:	8f51                	or	a4,a4,a2
    9cc2:	97b6                	add	a5,a5,a3
    9cc4:	95ba                	add	a1,a1,a4
    9cc6:	00e5b733          	sltu	a4,a1,a4
    9cca:	89ae                	mv	s3,a1
    9ccc:	00f70933          	add	s2,a4,a5
    9cd0:	8442                	mv	s0,a6
    9cd2:	b709                	j	9bd4 <__subdf3+0x1d8>
    9cd4:	00140713          	addi	a4,s0,1
    9cd8:	7fe77713          	andi	a4,a4,2046
    9cdc:	14071d63          	bnez	a4,9e36 <__subdf3+0x43a>
    9ce0:	00b7e733          	or	a4,a5,a1
    9ce4:	01196833          	or	a6,s2,a7
    9ce8:	24041b63          	bnez	s0,9f3e <__subdf3+0x542>
    9cec:	32080363          	beqz	a6,a012 <__subdf3+0x616>
    9cf0:	34070763          	beqz	a4,a03e <__subdf3+0x642>
    9cf4:	40b889b3          	sub	s3,a7,a1
    9cf8:	0138b733          	sltu	a4,a7,s3
    9cfc:	40f90633          	sub	a2,s2,a5
    9d00:	8e19                	sub	a2,a2,a4
    9d02:	00800737          	lui	a4,0x800
    9d06:	8f71                	and	a4,a4,a2
    9d08:	3c070563          	beqz	a4,a0d2 <__subdf3+0x6d6>
    9d0c:	411588b3          	sub	a7,a1,a7
    9d10:	412787b3          	sub	a5,a5,s2
    9d14:	0115b5b3          	sltu	a1,a1,a7
    9d18:	89c6                	mv	s3,a7
    9d1a:	40b78933          	sub	s2,a5,a1
    9d1e:	84b6                	mv	s1,a3
    9d20:	b3fd                	j	9b0e <__subdf3+0x112>
    9d22:	24640863          	beq	s0,t1,9f72 <__subdf3+0x576>
    9d26:	03800613          	li	a2,56
    9d2a:	4685                	li	a3,1
    9d2c:	e8e64ee3          	blt	a2,a4,9bc8 <__subdf3+0x1cc>
    9d30:	008006b7          	lui	a3,0x800
    9d34:	8fd5                	or	a5,a5,a3
    9d36:	b5b5                	j	9ba2 <__subdf3+0x1a6>
    9d38:	8885                	andi	s1,s1,1
    9d3a:	7ff00413          	li	s0,2047
    9d3e:	4781                	li	a5,0
    9d40:	4701                	li	a4,0
    9d42:	bd39                	j	9b60 <__subdf3+0x164>
    9d44:	0079f713          	andi	a4,s3,7
    9d48:	dc0716e3          	bnez	a4,9b14 <__subdf3+0x118>
    9d4c:	a0d5                	j	9e30 <__subdf3+0x434>
    9d4e:	854e                	mv	a0,s3
    9d50:	12f010ef          	jal	ra,b67e <__clzsi2>
    9d54:	01850713          	addi	a4,a0,24
    9d58:	46fd                	li	a3,31
    9d5a:	d6e6dae3          	bge	a3,a4,9ace <__subdf3+0xd2>
    9d5e:	ff850793          	addi	a5,a0,-8
    9d62:	00f997b3          	sll	a5,s3,a5
    9d66:	18874263          	blt	a4,s0,9eea <__subdf3+0x4ee>
    9d6a:	408709b3          	sub	s3,a4,s0
    9d6e:	00198713          	addi	a4,s3,1
    9d72:	36e6d663          	bge	a3,a4,a0de <__subdf3+0x6e2>
    9d76:	1985                	addi	s3,s3,-31
    9d78:	02000693          	li	a3,32
    9d7c:	0137d9b3          	srl	s3,a5,s3
    9d80:	00d70c63          	beq	a4,a3,9d98 <__subdf3+0x39c>
    9d84:	04000693          	li	a3,64
    9d88:	40e68733          	sub	a4,a3,a4
    9d8c:	00e797b3          	sll	a5,a5,a4
    9d90:	00f037b3          	snez	a5,a5
    9d94:	00f9e9b3          	or	s3,s3,a5
    9d98:	0079f713          	andi	a4,s3,7
    9d9c:	4401                	li	s0,0
    9d9e:	d6071be3          	bnez	a4,9b14 <__subdf3+0x118>
    9da2:	a079                	j	9e30 <__subdf3+0x434>
    9da4:	0039d793          	srli	a5,s3,0x3
    9da8:	01d91713          	slli	a4,s2,0x1d
    9dac:	7ff00693          	li	a3,2047
    9db0:	8f5d                	or	a4,a4,a5
    9db2:	00395793          	srli	a5,s2,0x3
    9db6:	e6d40ee3          	beq	s0,a3,9c32 <__subdf3+0x236>
    9dba:	07b2                	slli	a5,a5,0xc
    9dbc:	83b1                	srli	a5,a5,0xc
    9dbe:	7ff47413          	andi	s0,s0,2047
    9dc2:	8885                	andi	s1,s1,1
    9dc4:	bb71                	j	9b60 <__subdf3+0x164>
    9dc6:	7ff00713          	li	a4,2047
    9dca:	01196533          	or	a0,s2,a7
    9dce:	ed45                	bnez	a0,9e86 <__subdf3+0x48a>
    9dd0:	893e                	mv	s2,a5
    9dd2:	88ae                	mv	a7,a1
    9dd4:	84b6                	mv	s1,a3
    9dd6:	0038d793          	srli	a5,a7,0x3
    9dda:	843a                	mv	s0,a4
    9ddc:	b7f1                	j	9da8 <__subdf3+0x3ac>
    9dde:	ff800937          	lui	s2,0xff800
    9de2:	197d                	addi	s2,s2,-1 # ff7fffff <_eusrstack+0xdf7fafff>
    9de4:	8c19                	sub	s0,s0,a4
    9de6:	0127f933          	and	s2,a5,s2
    9dea:	b315                	j	9b0e <__subdf3+0x112>
    9dec:	00140693          	addi	a3,s0,1
    9df0:	7fe6f713          	andi	a4,a3,2046
    9df4:	10071463          	bnez	a4,9efc <__subdf3+0x500>
    9df8:	01196733          	or	a4,s2,a7
    9dfc:	1c041a63          	bnez	s0,9fd0 <__subdf3+0x5d4>
    9e00:	26070663          	beqz	a4,a06c <__subdf3+0x670>
    9e04:	00b7e733          	or	a4,a5,a1
    9e08:	28070163          	beqz	a4,a08a <__subdf3+0x68e>
    9e0c:	95c6                	add	a1,a1,a7
    9e0e:	97ca                	add	a5,a5,s2
    9e10:	0115b8b3          	sltu	a7,a1,a7
    9e14:	01178933          	add	s2,a5,a7
    9e18:	00800737          	lui	a4,0x800
    9e1c:	00e97733          	and	a4,s2,a4
    9e20:	89ae                	mv	s3,a1
    9e22:	c719                	beqz	a4,9e30 <__subdf3+0x434>
    9e24:	ff8007b7          	lui	a5,0xff800
    9e28:	17fd                	addi	a5,a5,-1 # ff7fffff <_eusrstack+0xdf7fafff>
    9e2a:	00f97933          	and	s2,s2,a5
    9e2e:	4405                	li	s0,1
    9e30:	88ce                	mv	a7,s3
    9e32:	8722                	mv	a4,s0
    9e34:	b74d                	j	9dd6 <__subdf3+0x3da>
    9e36:	40b889b3          	sub	s3,a7,a1
    9e3a:	0138b733          	sltu	a4,a7,s3
    9e3e:	40f90633          	sub	a2,s2,a5
    9e42:	8e19                	sub	a2,a2,a4
    9e44:	00800737          	lui	a4,0x800
    9e48:	8f71                	and	a4,a4,a2
    9e4a:	ef79                	bnez	a4,9f28 <__subdf3+0x52c>
    9e4c:	00c9e733          	or	a4,s3,a2
    9e50:	8932                	mv	s2,a2
    9e52:	c60717e3          	bnez	a4,9ac0 <__subdf3+0xc4>
    9e56:	4481                	li	s1,0
    9e58:	4401                	li	s0,0
    9e5a:	4781                	li	a5,0
    9e5c:	b311                	j	9b60 <__subdf3+0x164>
    9e5e:	fe070693          	addi	a3,a4,-32 # 7fffe0 <_data_lma+0x7f3d74>
    9e62:	02000613          	li	a2,32
    9e66:	00d7d6b3          	srl	a3,a5,a3
    9e6a:	00c70963          	beq	a4,a2,9e7c <__subdf3+0x480>
    9e6e:	04000613          	li	a2,64
    9e72:	40e60733          	sub	a4,a2,a4
    9e76:	00e797b3          	sll	a5,a5,a4
    9e7a:	8ddd                	or	a1,a1,a5
    9e7c:	00b039b3          	snez	s3,a1
    9e80:	00d9e9b3          	or	s3,s3,a3
    9e84:	b939                	j	9aa2 <__subdf3+0xa6>
    9e86:	fff70513          	addi	a0,a4,-1
    9e8a:	18050e63          	beqz	a0,a026 <__subdf3+0x62a>
    9e8e:	7ff00313          	li	t1,2047
    9e92:	1e670463          	beq	a4,t1,a07a <__subdf3+0x67e>
    9e96:	03800713          	li	a4,56
    9e9a:	84b6                	mv	s1,a3
    9e9c:	4985                	li	s3,1
    9e9e:	02a74763          	blt	a4,a0,9ecc <__subdf3+0x4d0>
    9ea2:	477d                	li	a4,31
    9ea4:	14a74363          	blt	a4,a0,9fea <__subdf3+0x5ee>
    9ea8:	02000713          	li	a4,32
    9eac:	8f09                	sub	a4,a4,a0
    9eae:	00e919b3          	sll	s3,s2,a4
    9eb2:	00a8d6b3          	srl	a3,a7,a0
    9eb6:	00e89733          	sll	a4,a7,a4
    9eba:	00d9e9b3          	or	s3,s3,a3
    9ebe:	00e03733          	snez	a4,a4
    9ec2:	00a95533          	srl	a0,s2,a0
    9ec6:	00e9e9b3          	or	s3,s3,a4
    9eca:	8f89                	sub	a5,a5,a0
    9ecc:	413589b3          	sub	s3,a1,s3
    9ed0:	0135b5b3          	sltu	a1,a1,s3
    9ed4:	40b78933          	sub	s2,a5,a1
    9ed8:	8442                	mv	s0,a6
    9eda:	bed1                	j	9aae <__subdf3+0xb2>
    9edc:	060e                	slli	a2,a2,0x3
    9ede:	01d79713          	slli	a4,a5,0x1d
    9ee2:	820d                	srli	a2,a2,0x3
    9ee4:	8f51                	or	a4,a4,a2
    9ee6:	838d                	srli	a5,a5,0x3
    9ee8:	b3a9                	j	9c32 <__subdf3+0x236>
    9eea:	ff8006b7          	lui	a3,0xff800
    9eee:	16fd                	addi	a3,a3,-1 # ff7fffff <_eusrstack+0xdf7fafff>
    9ef0:	8ff5                	and	a5,a5,a3
    9ef2:	8c19                	sub	s0,s0,a4
    9ef4:	01d79713          	slli	a4,a5,0x1d
    9ef8:	838d                	srli	a5,a5,0x3
    9efa:	b5c1                	j	9dba <__subdf3+0x3be>
    9efc:	7ff00713          	li	a4,2047
    9f00:	e2e68ce3          	beq	a3,a4,9d38 <__subdf3+0x33c>
    9f04:	00b88733          	add	a4,a7,a1
    9f08:	97ca                	add	a5,a5,s2
    9f0a:	011738b3          	sltu	a7,a4,a7
    9f0e:	97c6                	add	a5,a5,a7
    9f10:	8305                	srli	a4,a4,0x1
    9f12:	01f79993          	slli	s3,a5,0x1f
    9f16:	00e9e9b3          	or	s3,s3,a4
    9f1a:	8b1d                	andi	a4,a4,7
    9f1c:	0017d913          	srli	s2,a5,0x1
    9f20:	8436                	mv	s0,a3
    9f22:	be0719e3          	bnez	a4,9b14 <__subdf3+0x118>
    9f26:	b729                	j	9e30 <__subdf3+0x434>
    9f28:	411588b3          	sub	a7,a1,a7
    9f2c:	412787b3          	sub	a5,a5,s2
    9f30:	0115b5b3          	sltu	a1,a1,a7
    9f34:	89c6                	mv	s3,a7
    9f36:	40b78933          	sub	s2,a5,a1
    9f3a:	84b6                	mv	s1,a3
    9f3c:	b651                	j	9ac0 <__subdf3+0xc4>
    9f3e:	10081c63          	bnez	a6,a056 <__subdf3+0x65a>
    9f42:	ce0711e3          	bnez	a4,9c24 <__subdf3+0x228>
    9f46:	4481                	li	s1,0
    9f48:	7ff00413          	li	s0,2047
    9f4c:	000807b7          	lui	a5,0x80
    9f50:	b901                	j	9b60 <__subdf3+0x164>
    9f52:	95c6                	add	a1,a1,a7
    9f54:	97ca                	add	a5,a5,s2
    9f56:	0115b8b3          	sltu	a7,a1,a7
    9f5a:	01178933          	add	s2,a5,a7
    9f5e:	008007b7          	lui	a5,0x800
    9f62:	00f977b3          	and	a5,s2,a5
    9f66:	89ae                	mv	s3,a1
    9f68:	4405                	li	s0,1
    9f6a:	dc078de3          	beqz	a5,9d44 <__subdf3+0x348>
    9f6e:	4409                	li	s0,2
    9f70:	b9ad                	j	9bea <__subdf3+0x1ee>
    9f72:	050e                	slli	a0,a0,0x3
    9f74:	01d91793          	slli	a5,s2,0x1d
    9f78:	00355713          	srli	a4,a0,0x3
    9f7c:	8f5d                	or	a4,a4,a5
    9f7e:	00395793          	srli	a5,s2,0x3
    9f82:	b945                	j	9c32 <__subdf3+0x236>
    9f84:	40b885b3          	sub	a1,a7,a1
    9f88:	40f907b3          	sub	a5,s2,a5
    9f8c:	00b8b8b3          	sltu	a7,a7,a1
    9f90:	89ae                	mv	s3,a1
    9f92:	41178933          	sub	s2,a5,a7
    9f96:	4405                	li	s0,1
    9f98:	be19                	j	9aae <__subdf3+0xb2>
    9f9a:	050e                	slli	a0,a0,0x3
    9f9c:	01d91713          	slli	a4,s2,0x1d
    9fa0:	810d                	srli	a0,a0,0x3
    9fa2:	8f49                	or	a4,a4,a0
    9fa4:	00395793          	srli	a5,s2,0x3
    9fa8:	b169                	j	9c32 <__subdf3+0x236>
    9faa:	fe070613          	addi	a2,a4,-32
    9fae:	02000693          	li	a3,32
    9fb2:	00c7d633          	srl	a2,a5,a2
    9fb6:	00d70963          	beq	a4,a3,9fc8 <__subdf3+0x5cc>
    9fba:	04000693          	li	a3,64
    9fbe:	40e68733          	sub	a4,a3,a4
    9fc2:	00e797b3          	sll	a5,a5,a4
    9fc6:	8ddd                	or	a1,a1,a5
    9fc8:	00b036b3          	snez	a3,a1
    9fcc:	8ed1                	or	a3,a3,a2
    9fce:	beed                	j	9bc8 <__subdf3+0x1cc>
    9fd0:	cb6d                	beqz	a4,a0c2 <__subdf3+0x6c6>
    9fd2:	8ddd                	or	a1,a1,a5
    9fd4:	c60592e3          	bnez	a1,9c38 <__subdf3+0x23c>
    9fd8:	050e                	slli	a0,a0,0x3
    9fda:	01d91793          	slli	a5,s2,0x1d
    9fde:	810d                	srli	a0,a0,0x3
    9fe0:	00f56733          	or	a4,a0,a5
    9fe4:	00395793          	srli	a5,s2,0x3
    9fe8:	b1a9                	j	9c32 <__subdf3+0x236>
    9fea:	fe050713          	addi	a4,a0,-32
    9fee:	02000693          	li	a3,32
    9ff2:	00e95733          	srl	a4,s2,a4
    9ff6:	00d50963          	beq	a0,a3,a008 <__subdf3+0x60c>
    9ffa:	04000693          	li	a3,64
    9ffe:	8e89                	sub	a3,a3,a0
    a000:	00d916b3          	sll	a3,s2,a3
    a004:	00d8e8b3          	or	a7,a7,a3
    a008:	011039b3          	snez	s3,a7
    a00c:	00e9e9b3          	or	s3,s3,a4
    a010:	bd75                	j	9ecc <__subdf3+0x4d0>
    a012:	e40702e3          	beqz	a4,9e56 <__subdf3+0x45a>
    a016:	060e                	slli	a2,a2,0x3
    a018:	01d79713          	slli	a4,a5,0x1d
    a01c:	820d                	srli	a2,a2,0x3
    a01e:	8f51                	or	a4,a4,a2
    a020:	838d                	srli	a5,a5,0x3
    a022:	84b6                	mv	s1,a3
    a024:	bb59                	j	9dba <__subdf3+0x3be>
    a026:	411588b3          	sub	a7,a1,a7
    a02a:	412787b3          	sub	a5,a5,s2
    a02e:	0115b5b3          	sltu	a1,a1,a7
    a032:	89c6                	mv	s3,a7
    a034:	40b78933          	sub	s2,a5,a1
    a038:	84b6                	mv	s1,a3
    a03a:	4405                	li	s0,1
    a03c:	bc8d                	j	9aae <__subdf3+0xb2>
    a03e:	00351793          	slli	a5,a0,0x3
    a042:	838d                	srli	a5,a5,0x3
    a044:	01d91713          	slli	a4,s2,0x1d
    a048:	8f5d                	or	a4,a4,a5
    a04a:	00395793          	srli	a5,s2,0x3
    a04e:	b3b5                	j	9dba <__subdf3+0x3be>
    a050:	893e                	mv	s2,a5
    a052:	88ae                	mv	a7,a1
    a054:	b349                	j	9dd6 <__subdf3+0x3da>
    a056:	be0711e3          	bnez	a4,9c38 <__subdf3+0x23c>
    a05a:	00351793          	slli	a5,a0,0x3
    a05e:	838d                	srli	a5,a5,0x3
    a060:	01d91713          	slli	a4,s2,0x1d
    a064:	8f5d                	or	a4,a4,a5
    a066:	00395793          	srli	a5,s2,0x3
    a06a:	b6e1                	j	9c32 <__subdf3+0x236>
    a06c:	060e                	slli	a2,a2,0x3
    a06e:	01d79713          	slli	a4,a5,0x1d
    a072:	820d                	srli	a2,a2,0x3
    a074:	8f51                	or	a4,a4,a2
    a076:	838d                	srli	a5,a5,0x3
    a078:	b389                	j	9dba <__subdf3+0x3be>
    a07a:	060e                	slli	a2,a2,0x3
    a07c:	01d79713          	slli	a4,a5,0x1d
    a080:	820d                	srli	a2,a2,0x3
    a082:	8f51                	or	a4,a4,a2
    a084:	838d                	srli	a5,a5,0x3
    a086:	84b6                	mv	s1,a3
    a088:	b66d                	j	9c32 <__subdf3+0x236>
    a08a:	050e                	slli	a0,a0,0x3
    a08c:	01d91793          	slli	a5,s2,0x1d
    a090:	810d                	srli	a0,a0,0x3
    a092:	00f56733          	or	a4,a0,a5
    a096:	00395793          	srli	a5,s2,0x3
    a09a:	b305                	j	9dba <__subdf3+0x3be>
    a09c:	fe068613          	addi	a2,a3,-32
    a0a0:	02000713          	li	a4,32
    a0a4:	00c95633          	srl	a2,s2,a2
    a0a8:	00e68963          	beq	a3,a4,a0ba <__subdf3+0x6be>
    a0ac:	04000713          	li	a4,64
    a0b0:	8f15                	sub	a4,a4,a3
    a0b2:	00e91733          	sll	a4,s2,a4
    a0b6:	00e8e8b3          	or	a7,a7,a4
    a0ba:	01103733          	snez	a4,a7
    a0be:	8f51                	or	a4,a4,a2
    a0c0:	b111                	j	9cc4 <__subdf3+0x2c8>
    a0c2:	060e                	slli	a2,a2,0x3
    a0c4:	01d79713          	slli	a4,a5,0x1d
    a0c8:	00365693          	srli	a3,a2,0x3
    a0cc:	8f55                	or	a4,a4,a3
    a0ce:	838d                	srli	a5,a5,0x3
    a0d0:	b68d                	j	9c32 <__subdf3+0x236>
    a0d2:	00c9e733          	or	a4,s3,a2
    a0d6:	8932                	mv	s2,a2
    a0d8:	d4071ce3          	bnez	a4,9e30 <__subdf3+0x434>
    a0dc:	bbad                	j	9e56 <__subdf3+0x45a>
    a0de:	02000693          	li	a3,32
    a0e2:	8e99                	sub	a3,a3,a4
    a0e4:	4601                	li	a2,0
    a0e6:	bc19                	j	9afc <__subdf3+0x100>
    a0e8:	be0706e3          	beqz	a4,9cd4 <__subdf3+0x2d8>
    a0ec:	40880533          	sub	a0,a6,s0
    a0f0:	872a                	mv	a4,a0
    a0f2:	cc040ce3          	beqz	s0,9dca <__subdf3+0x3ce>
    a0f6:	03800713          	li	a4,56
    a0fa:	00a74863          	blt	a4,a0,a10a <__subdf3+0x70e>
    a0fe:	00800737          	lui	a4,0x800
    a102:	00e96933          	or	s2,s2,a4
    a106:	84b6                	mv	s1,a3
    a108:	bb69                	j	9ea2 <__subdf3+0x4a6>
    a10a:	84b6                	mv	s1,a3
    a10c:	4985                	li	s3,1
    a10e:	bb7d                	j	9ecc <__subdf3+0x4d0>
    a110:	cc070ee3          	beqz	a4,9dec <__subdf3+0x3f0>
    a114:	408806b3          	sub	a3,a6,s0
    a118:	e019                	bnez	s0,a11e <__subdf3+0x722>
    a11a:	8736                	mv	a4,a3
    a11c:	b685                	j	9c7c <__subdf3+0x280>
    a11e:	03800613          	li	a2,56
    a122:	4705                	li	a4,1
    a124:	bad640e3          	blt	a2,a3,9cc4 <__subdf3+0x2c8>
    a128:	00800737          	lui	a4,0x800
    a12c:	00e96933          	or	s2,s2,a4
    a130:	b6bd                	j	9c9e <__subdf3+0x2a2>

0000a132 <__floatsidf>:
    a132:	1141                	addi	sp,sp,-16
    a134:	c606                	sw	ra,12(sp)
    a136:	c422                	sw	s0,8(sp)
    a138:	c226                	sw	s1,4(sp)
    a13a:	cd15                	beqz	a0,a176 <__floatsidf+0x44>
    a13c:	41f55713          	srai	a4,a0,0x1f
    a140:	00a744b3          	xor	s1,a4,a0
    a144:	8c99                	sub	s1,s1,a4
    a146:	87aa                	mv	a5,a0
    a148:	8526                	mv	a0,s1
    a14a:	01f7d413          	srli	s0,a5,0x1f
    a14e:	530010ef          	jal	ra,b67e <__clzsi2>
    a152:	41e00793          	li	a5,1054
    a156:	8f89                	sub	a5,a5,a0
    a158:	4729                	li	a4,10
    a15a:	7ff7f793          	andi	a5,a5,2047
    a15e:	02a74b63          	blt	a4,a0,a194 <__floatsidf+0x62>
    a162:	472d                	li	a4,11
    a164:	8f09                	sub	a4,a4,a0
    a166:	00e4d733          	srl	a4,s1,a4
    a16a:	0555                	addi	a0,a0,21
    a16c:	0732                	slli	a4,a4,0xc
    a16e:	00a494b3          	sll	s1,s1,a0
    a172:	8331                	srli	a4,a4,0xc
    a174:	a029                	j	a17e <__floatsidf+0x4c>
    a176:	4401                	li	s0,0
    a178:	4781                	li	a5,0
    a17a:	4701                	li	a4,0
    a17c:	4481                	li	s1,0
    a17e:	07d2                	slli	a5,a5,0x14
    a180:	047e                	slli	s0,s0,0x1f
    a182:	8fd9                	or	a5,a5,a4
    a184:	40b2                	lw	ra,12(sp)
    a186:	8fc1                	or	a5,a5,s0
    a188:	4422                	lw	s0,8(sp)
    a18a:	8526                	mv	a0,s1
    a18c:	85be                	mv	a1,a5
    a18e:	4492                	lw	s1,4(sp)
    a190:	0141                	addi	sp,sp,16
    a192:	8082                	ret
    a194:	1555                	addi	a0,a0,-11
    a196:	00a49733          	sll	a4,s1,a0
    a19a:	0732                	slli	a4,a4,0xc
    a19c:	8331                	srli	a4,a4,0xc
    a19e:	4481                	li	s1,0
    a1a0:	bff9                	j	a17e <__floatsidf+0x4c>

0000a1a2 <__floatunsidf>:
    a1a2:	1141                	addi	sp,sp,-16
    a1a4:	c422                	sw	s0,8(sp)
    a1a6:	c606                	sw	ra,12(sp)
    a1a8:	842a                	mv	s0,a0
    a1aa:	cd05                	beqz	a0,a1e2 <__floatunsidf+0x40>
    a1ac:	4d2010ef          	jal	ra,b67e <__clzsi2>
    a1b0:	41e00793          	li	a5,1054
    a1b4:	8f89                	sub	a5,a5,a0
    a1b6:	4729                	li	a4,10
    a1b8:	7ff7f793          	andi	a5,a5,2047
    a1bc:	02a74d63          	blt	a4,a0,a1f6 <__floatunsidf+0x54>
    a1c0:	472d                	li	a4,11
    a1c2:	8f09                	sub	a4,a4,a0
    a1c4:	0555                	addi	a0,a0,21
    a1c6:	00e45733          	srl	a4,s0,a4
    a1ca:	00a41433          	sll	s0,s0,a0
    a1ce:	40b2                	lw	ra,12(sp)
    a1d0:	8522                	mv	a0,s0
    a1d2:	0732                	slli	a4,a4,0xc
    a1d4:	4422                	lw	s0,8(sp)
    a1d6:	8331                	srli	a4,a4,0xc
    a1d8:	07d2                	slli	a5,a5,0x14
    a1da:	8fd9                	or	a5,a5,a4
    a1dc:	85be                	mv	a1,a5
    a1de:	0141                	addi	sp,sp,16
    a1e0:	8082                	ret
    a1e2:	40b2                	lw	ra,12(sp)
    a1e4:	8522                	mv	a0,s0
    a1e6:	4781                	li	a5,0
    a1e8:	4422                	lw	s0,8(sp)
    a1ea:	4701                	li	a4,0
    a1ec:	07d2                	slli	a5,a5,0x14
    a1ee:	8fd9                	or	a5,a5,a4
    a1f0:	85be                	mv	a1,a5
    a1f2:	0141                	addi	sp,sp,16
    a1f4:	8082                	ret
    a1f6:	1555                	addi	a0,a0,-11
    a1f8:	00a41733          	sll	a4,s0,a0
    a1fc:	4401                	li	s0,0
    a1fe:	40b2                	lw	ra,12(sp)
    a200:	8522                	mv	a0,s0
    a202:	0732                	slli	a4,a4,0xc
    a204:	4422                	lw	s0,8(sp)
    a206:	8331                	srli	a4,a4,0xc
    a208:	07d2                	slli	a5,a5,0x14
    a20a:	8fd9                	or	a5,a5,a4
    a20c:	85be                	mv	a1,a5
    a20e:	0141                	addi	sp,sp,16
    a210:	8082                	ret

0000a212 <__fixdfdi>:
    a212:	0145d793          	srli	a5,a1,0x14
    a216:	001006b7          	lui	a3,0x100
    a21a:	fff68713          	addi	a4,a3,-1 # fffff <_data_lma+0xf3d93>
    a21e:	7ff7f793          	andi	a5,a5,2047
    a222:	3fe00613          	li	a2,1022
    a226:	8f6d                	and	a4,a4,a1
    a228:	81fd                	srli	a1,a1,0x1f
    a22a:	02f65363          	bge	a2,a5,a250 <__fixdfdi+0x3e>
    a22e:	43d00613          	li	a2,1085
    a232:	02f65263          	bge	a2,a5,a256 <__fixdfdi+0x44>
    a236:	4505                	li	a0,1
    a238:	8d0d                	sub	a0,a0,a1
    a23a:	41f55713          	srai	a4,a0,0x1f
    a23e:	800005b7          	lui	a1,0x80000
    a242:	00a037b3          	snez	a5,a0
    a246:	8d99                	sub	a1,a1,a4
    a248:	40a00533          	neg	a0,a0
    a24c:	8d9d                	sub	a1,a1,a5
    a24e:	8082                	ret
    a250:	4501                	li	a0,0
    a252:	4581                	li	a1,0
    a254:	8082                	ret
    a256:	43200613          	li	a2,1074
    a25a:	8ed9                	or	a3,a3,a4
    a25c:	00f65e63          	bge	a2,a5,a278 <__fixdfdi+0x66>
    a260:	bad78713          	addi	a4,a5,-1107 # 7ffbad <_data_lma+0x7f3941>
    a264:	bcd78793          	addi	a5,a5,-1075
    a268:	04074763          	bltz	a4,a2b6 <__fixdfdi+0xa4>
    a26c:	00e51733          	sll	a4,a0,a4
    a270:	4501                	li	a0,0
    a272:	e19d                	bnez	a1,a298 <__fixdfdi+0x86>
    a274:	85ba                	mv	a1,a4
    a276:	8082                	ret
    a278:	43300713          	li	a4,1075
    a27c:	8f1d                	sub	a4,a4,a5
    a27e:	467d                	li	a2,31
    a280:	02e64463          	blt	a2,a4,a2a8 <__fixdfdi+0x96>
    a284:	bed78793          	addi	a5,a5,-1043
    a288:	00e55533          	srl	a0,a0,a4
    a28c:	00f697b3          	sll	a5,a3,a5
    a290:	8d5d                	or	a0,a0,a5
    a292:	00e6d733          	srl	a4,a3,a4
    a296:	ddf9                	beqz	a1,a274 <__fixdfdi+0x62>
    a298:	00a037b3          	snez	a5,a0
    a29c:	40e005b3          	neg	a1,a4
    a2a0:	40a00533          	neg	a0,a0
    a2a4:	8d9d                	sub	a1,a1,a5
    a2a6:	8082                	ret
    a2a8:	41300513          	li	a0,1043
    a2ac:	8d1d                	sub	a0,a0,a5
    a2ae:	00a6d533          	srl	a0,a3,a0
    a2b2:	4701                	li	a4,0
    a2b4:	bf7d                	j	a272 <__fixdfdi+0x60>
    a2b6:	477d                	li	a4,31
    a2b8:	00155613          	srli	a2,a0,0x1
    a2bc:	8f1d                	sub	a4,a4,a5
    a2be:	00e65633          	srl	a2,a2,a4
    a2c2:	00f69733          	sll	a4,a3,a5
    a2c6:	8f51                	or	a4,a4,a2
    a2c8:	00f51533          	sll	a0,a0,a5
    a2cc:	b75d                	j	a272 <__fixdfdi+0x60>

0000a2ce <__floatdidf>:
    a2ce:	1101                	addi	sp,sp,-32
    a2d0:	ce06                	sw	ra,28(sp)
    a2d2:	cc22                	sw	s0,24(sp)
    a2d4:	ca26                	sw	s1,20(sp)
    a2d6:	c84a                	sw	s2,16(sp)
    a2d8:	c64e                	sw	s3,12(sp)
    a2da:	00b567b3          	or	a5,a0,a1
    a2de:	cfd9                	beqz	a5,a37c <__floatdidf+0xae>
    a2e0:	842e                	mv	s0,a1
    a2e2:	84aa                	mv	s1,a0
    a2e4:	01f5d913          	srli	s2,a1,0x1f
    a2e8:	0e05c163          	bltz	a1,a3ca <__floatdidf+0xfc>
    a2ec:	89a2                	mv	s3,s0
    a2ee:	c84d                	beqz	s0,a3a0 <__floatdidf+0xd2>
    a2f0:	8522                	mv	a0,s0
    a2f2:	38c010ef          	jal	ra,b67e <__clzsi2>
    a2f6:	43e00793          	li	a5,1086
    a2fa:	8f89                	sub	a5,a5,a0
    a2fc:	43300713          	li	a4,1075
    a300:	12f75863          	bge	a4,a5,a430 <__floatdidf+0x162>
    a304:	43600713          	li	a4,1078
    a308:	0cf74b63          	blt	a4,a5,a3de <__floatdidf+0x110>
    a30c:	4721                	li	a4,8
    a30e:	86a6                	mv	a3,s1
    a310:	ff850593          	addi	a1,a0,-8
    a314:	00e50d63          	beq	a0,a4,a32e <__floatdidf+0x60>
    a318:	02800613          	li	a2,40
    a31c:	8e09                	sub	a2,a2,a0
    a31e:	00c4d633          	srl	a2,s1,a2
    a322:	00b41733          	sll	a4,s0,a1
    a326:	00e669b3          	or	s3,a2,a4
    a32a:	00b496b3          	sll	a3,s1,a1
    a32e:	ff800637          	lui	a2,0xff800
    a332:	167d                	addi	a2,a2,-1 # ff7fffff <_eusrstack+0xdf7fafff>
    a334:	0076f593          	andi	a1,a3,7
    a338:	00c9f733          	and	a4,s3,a2
    a33c:	c585                	beqz	a1,a364 <__floatdidf+0x96>
    a33e:	00f6f593          	andi	a1,a3,15
    a342:	4811                	li	a6,4
    a344:	03058063          	beq	a1,a6,a364 <__floatdidf+0x96>
    a348:	00468813          	addi	a6,a3,4
    a34c:	00d836b3          	sltu	a3,a6,a3
    a350:	9736                	add	a4,a4,a3
    a352:	008005b7          	lui	a1,0x800
    a356:	8df9                	and	a1,a1,a4
    a358:	86c2                	mv	a3,a6
    a35a:	c589                	beqz	a1,a364 <__floatdidf+0x96>
    a35c:	43f00793          	li	a5,1087
    a360:	8f71                	and	a4,a4,a2
    a362:	8f89                	sub	a5,a5,a0
    a364:	0036d613          	srli	a2,a3,0x3
    a368:	01d71593          	slli	a1,a4,0x1d
    a36c:	00971693          	slli	a3,a4,0x9
    a370:	00c5e9b3          	or	s3,a1,a2
    a374:	82b1                	srli	a3,a3,0xc
    a376:	7ff7f793          	andi	a5,a5,2047
    a37a:	a029                	j	a384 <__floatdidf+0xb6>
    a37c:	4901                	li	s2,0
    a37e:	4781                	li	a5,0
    a380:	4681                	li	a3,0
    a382:	4981                	li	s3,0
    a384:	40f2                	lw	ra,28(sp)
    a386:	4462                	lw	s0,24(sp)
    a388:	07d2                	slli	a5,a5,0x14
    a38a:	097e                	slli	s2,s2,0x1f
    a38c:	8fd5                	or	a5,a5,a3
    a38e:	0127e7b3          	or	a5,a5,s2
    a392:	44d2                	lw	s1,20(sp)
    a394:	4942                	lw	s2,16(sp)
    a396:	854e                	mv	a0,s3
    a398:	85be                	mv	a1,a5
    a39a:	49b2                	lw	s3,12(sp)
    a39c:	6105                	addi	sp,sp,32
    a39e:	8082                	ret
    a3a0:	8526                	mv	a0,s1
    a3a2:	2dc010ef          	jal	ra,b67e <__clzsi2>
    a3a6:	86aa                	mv	a3,a0
    a3a8:	43e00793          	li	a5,1086
    a3ac:	02050513          	addi	a0,a0,32
    a3b0:	02a00713          	li	a4,42
    a3b4:	8f89                	sub	a5,a5,a0
    a3b6:	04a75c63          	bge	a4,a0,a40e <__floatdidf+0x140>
    a3ba:	16d5                	addi	a3,a3,-11
    a3bc:	00d496b3          	sll	a3,s1,a3
    a3c0:	06b2                	slli	a3,a3,0xc
    a3c2:	7ff7f793          	andi	a5,a5,2047
    a3c6:	82b1                	srli	a3,a3,0xc
    a3c8:	bf75                	j	a384 <__floatdidf+0xb6>
    a3ca:	00a037b3          	snez	a5,a0
    a3ce:	40b00433          	neg	s0,a1
    a3d2:	8c1d                	sub	s0,s0,a5
    a3d4:	40a004b3          	neg	s1,a0
    a3d8:	89a2                	mv	s3,s0
    a3da:	d079                	beqz	s0,a3a0 <__floatdidf+0xd2>
    a3dc:	bf11                	j	a2f0 <__floatdidf+0x22>
    a3de:	4721                	li	a4,8
    a3e0:	8f09                	sub	a4,a4,a0
    a3e2:	fe070613          	addi	a2,a4,-32 # 7fffe0 <_data_lma+0x7f3d74>
    a3e6:	06064863          	bltz	a2,a456 <__floatdidf+0x188>
    a3ea:	00c45633          	srl	a2,s0,a2
    a3ee:	4701                	li	a4,0
    a3f0:	01850593          	addi	a1,a0,24
    a3f4:	03850693          	addi	a3,a0,56
    a3f8:	0405c263          	bltz	a1,a43c <__floatdidf+0x16e>
    a3fc:	00b495b3          	sll	a1,s1,a1
    a400:	4681                	li	a3,0
    a402:	8ecd                	or	a3,a3,a1
    a404:	00d036b3          	snez	a3,a3
    a408:	8ed1                	or	a3,a3,a2
    a40a:	89ba                	mv	s3,a4
    a40c:	b70d                	j	a32e <__floatdidf+0x60>
    a40e:	01568713          	addi	a4,a3,21
    a412:	02b00693          	li	a3,43
    a416:	8e89                	sub	a3,a3,a0
    a418:	00d4d6b3          	srl	a3,s1,a3
    a41c:	00e41433          	sll	s0,s0,a4
    a420:	8ec1                	or	a3,a3,s0
    a422:	06b2                	slli	a3,a3,0xc
    a424:	00e499b3          	sll	s3,s1,a4
    a428:	82b1                	srli	a3,a3,0xc
    a42a:	7ff7f793          	andi	a5,a5,2047
    a42e:	bf99                	j	a384 <__floatdidf+0xb6>
    a430:	472d                	li	a4,11
    a432:	02e50e63          	beq	a0,a4,a46e <__floatdidf+0x1a0>
    a436:	ff550713          	addi	a4,a0,-11
    a43a:	bfe1                	j	a412 <__floatdidf+0x144>
    a43c:	45fd                	li	a1,31
    a43e:	8d95                	sub	a1,a1,a3
    a440:	0014d813          	srli	a6,s1,0x1
    a444:	00b85833          	srl	a6,a6,a1
    a448:	00d415b3          	sll	a1,s0,a3
    a44c:	00b865b3          	or	a1,a6,a1
    a450:	00d496b3          	sll	a3,s1,a3
    a454:	b77d                	j	a402 <__floatdidf+0x134>
    a456:	467d                	li	a2,31
    a458:	8e19                	sub	a2,a2,a4
    a45a:	00141693          	slli	a3,s0,0x1
    a45e:	00c696b3          	sll	a3,a3,a2
    a462:	00e4d633          	srl	a2,s1,a4
    a466:	8e55                	or	a2,a2,a3
    a468:	00e45733          	srl	a4,s0,a4
    a46c:	b751                	j	a3f0 <__floatdidf+0x122>
    a46e:	00c41693          	slli	a3,s0,0xc
    a472:	82b1                	srli	a3,a3,0xc
    a474:	89a6                	mv	s3,s1
    a476:	43300793          	li	a5,1075
    a47a:	b729                	j	a384 <__floatdidf+0xb6>

0000a47c <__addsf3>:
    a47c:	00800737          	lui	a4,0x800
    a480:	1141                	addi	sp,sp,-16
    a482:	177d                	addi	a4,a4,-1 # 7fffff <_data_lma+0x7f3d93>
    a484:	01755693          	srli	a3,a0,0x17
    a488:	0175d613          	srli	a2,a1,0x17
    a48c:	00a777b3          	and	a5,a4,a0
    a490:	c226                	sw	s1,4(sp)
    a492:	8f6d                	and	a4,a4,a1
    a494:	c04a                	sw	s2,0(sp)
    a496:	0ff67613          	zext.b	a2,a2
    a49a:	0ff6f913          	zext.b	s2,a3
    a49e:	c606                	sw	ra,12(sp)
    a4a0:	c422                	sw	s0,8(sp)
    a4a2:	01f55493          	srli	s1,a0,0x1f
    a4a6:	81fd                	srli	a1,a1,0x1f
    a4a8:	078e                	slli	a5,a5,0x3
    a4aa:	070e                	slli	a4,a4,0x3
    a4ac:	40c906b3          	sub	a3,s2,a2
    a4b0:	04b48163          	beq	s1,a1,a4f2 <__addsf3+0x76>
    a4b4:	00d05f63          	blez	a3,a4d2 <__addsf3+0x56>
    a4b8:	ee31                	bnez	a2,a514 <__addsf3+0x98>
    a4ba:	12070163          	beqz	a4,a5dc <__addsf3+0x160>
    a4be:	fff68613          	addi	a2,a3,-1
    a4c2:	2a060e63          	beqz	a2,a77e <__addsf3+0x302>
    a4c6:	0ff00593          	li	a1,255
    a4ca:	16b68b63          	beq	a3,a1,a640 <__addsf3+0x1c4>
    a4ce:	86b2                	mv	a3,a2
    a4d0:	a889                	j	a522 <__addsf3+0xa6>
    a4d2:	c2f1                	beqz	a3,a596 <__addsf3+0x11a>
    a4d4:	412606b3          	sub	a3,a2,s2
    a4d8:	1c091c63          	bnez	s2,a6b0 <__addsf3+0x234>
    a4dc:	cff5                	beqz	a5,a5d8 <__addsf3+0x15c>
    a4de:	fff68513          	addi	a0,a3,-1
    a4e2:	2c050963          	beqz	a0,a7b4 <__addsf3+0x338>
    a4e6:	0ff00813          	li	a6,255
    a4ea:	15068963          	beq	a3,a6,a63c <__addsf3+0x1c0>
    a4ee:	86aa                	mv	a3,a0
    a4f0:	a2f9                	j	a6be <__addsf3+0x242>
    a4f2:	8826                	mv	a6,s1
    a4f4:	14d05863          	blez	a3,a644 <__addsf3+0x1c8>
    a4f8:	c669                	beqz	a2,a5c2 <__addsf3+0x146>
    a4fa:	0ff00613          	li	a2,255
    a4fe:	14c90163          	beq	s2,a2,a640 <__addsf3+0x1c4>
    a502:	04000637          	lui	a2,0x4000
    a506:	8f51                	or	a4,a4,a2
    a508:	466d                	li	a2,27
    a50a:	1ed65963          	bge	a2,a3,a6fc <__addsf3+0x280>
    a50e:	0785                	addi	a5,a5,1
    a510:	86ca                	mv	a3,s2
    a512:	a089                	j	a554 <__addsf3+0xd8>
    a514:	0ff00613          	li	a2,255
    a518:	12c90463          	beq	s2,a2,a640 <__addsf3+0x1c4>
    a51c:	04000637          	lui	a2,0x4000
    a520:	8f51                	or	a4,a4,a2
    a522:	45ed                	li	a1,27
    a524:	4605                	li	a2,1
    a526:	00d5cd63          	blt	a1,a3,a540 <__addsf3+0xc4>
    a52a:	02000613          	li	a2,32
    a52e:	8e15                	sub	a2,a2,a3
    a530:	00c71633          	sll	a2,a4,a2
    a534:	00d756b3          	srl	a3,a4,a3
    a538:	00c03733          	snez	a4,a2
    a53c:	00e6e633          	or	a2,a3,a4
    a540:	8f91                	sub	a5,a5,a2
    a542:	04000737          	lui	a4,0x4000
    a546:	00e7f6b3          	and	a3,a5,a4
    a54a:	eacd                	bnez	a3,a5fc <__addsf3+0x180>
    a54c:	0077f713          	andi	a4,a5,7
    a550:	86ca                	mv	a3,s2
    a552:	c749                	beqz	a4,a5dc <__addsf3+0x160>
    a554:	00f7f713          	andi	a4,a5,15
    a558:	4611                	li	a2,4
    a55a:	00c70363          	beq	a4,a2,a560 <__addsf3+0xe4>
    a55e:	0791                	addi	a5,a5,4
    a560:	04000737          	lui	a4,0x4000
    a564:	8f7d                	and	a4,a4,a5
    a566:	cb3d                	beqz	a4,a5dc <__addsf3+0x160>
    a568:	00168513          	addi	a0,a3,1
    a56c:	0ff00713          	li	a4,255
    a570:	8826                	mv	a6,s1
    a572:	08e50163          	beq	a0,a4,a5f4 <__addsf3+0x178>
    a576:	00679713          	slli	a4,a5,0x6
    a57a:	0ff57513          	zext.b	a0,a0
    a57e:	8325                	srli	a4,a4,0x9
    a580:	40b2                	lw	ra,12(sp)
    a582:	4422                	lw	s0,8(sp)
    a584:	055e                	slli	a0,a0,0x17
    a586:	8d59                	or	a0,a0,a4
    a588:	01f81793          	slli	a5,a6,0x1f
    a58c:	4492                	lw	s1,4(sp)
    a58e:	4902                	lw	s2,0(sp)
    a590:	8d5d                	or	a0,a0,a5
    a592:	0141                	addi	sp,sp,16
    a594:	8082                	ret
    a596:	00190613          	addi	a2,s2,1
    a59a:	0fe67613          	andi	a2,a2,254
    a59e:	14061463          	bnez	a2,a6e6 <__addsf3+0x26a>
    a5a2:	08091a63          	bnez	s2,a636 <__addsf3+0x1ba>
    a5a6:	20078363          	beqz	a5,a7ac <__addsf3+0x330>
    a5aa:	cb75                	beqz	a4,a69e <__addsf3+0x222>
    a5ac:	40e78533          	sub	a0,a5,a4
    a5b0:	04000637          	lui	a2,0x4000
    a5b4:	8e69                	and	a2,a2,a0
    a5b6:	22060363          	beqz	a2,a7dc <__addsf3+0x360>
    a5ba:	40f707b3          	sub	a5,a4,a5
    a5be:	84ae                	mv	s1,a1
    a5c0:	a0bd                	j	a62e <__addsf3+0x1b2>
    a5c2:	cf09                	beqz	a4,a5dc <__addsf3+0x160>
    a5c4:	fff68613          	addi	a2,a3,-1
    a5c8:	1a060363          	beqz	a2,a76e <__addsf3+0x2f2>
    a5cc:	0ff00593          	li	a1,255
    a5d0:	06b68863          	beq	a3,a1,a640 <__addsf3+0x1c4>
    a5d4:	86b2                	mv	a3,a2
    a5d6:	bf0d                	j	a508 <__addsf3+0x8c>
    a5d8:	84ae                	mv	s1,a1
    a5da:	87ba                	mv	a5,a4
    a5dc:	0ff00713          	li	a4,255
    a5e0:	838d                	srli	a5,a5,0x3
    a5e2:	0ce69063          	bne	a3,a4,a6a2 <__addsf3+0x226>
    a5e6:	cfc1                	beqz	a5,a67e <__addsf3+0x202>
    a5e8:	4801                	li	a6,0
    a5ea:	0ff00513          	li	a0,255
    a5ee:	00400737          	lui	a4,0x400
    a5f2:	b779                	j	a580 <__addsf3+0x104>
    a5f4:	0ff00513          	li	a0,255
    a5f8:	4701                	li	a4,0
    a5fa:	b759                	j	a580 <__addsf3+0x104>
    a5fc:	177d                	addi	a4,a4,-1 # 3fffff <_data_lma+0x3f3d93>
    a5fe:	00e7f433          	and	s0,a5,a4
    a602:	8522                	mv	a0,s0
    a604:	07a010ef          	jal	ra,b67e <__clzsi2>
    a608:	156d                	addi	a0,a0,-5
    a60a:	00a41433          	sll	s0,s0,a0
    a60e:	07254163          	blt	a0,s2,a670 <__addsf3+0x1f4>
    a612:	412506b3          	sub	a3,a0,s2
    a616:	0685                	addi	a3,a3,1
    a618:	02000793          	li	a5,32
    a61c:	8f95                	sub	a5,a5,a3
    a61e:	00f417b3          	sll	a5,s0,a5
    a622:	00f037b3          	snez	a5,a5
    a626:	00d45433          	srl	s0,s0,a3
    a62a:	8fc1                	or	a5,a5,s0
    a62c:	4681                	li	a3,0
    a62e:	0077f713          	andi	a4,a5,7
    a632:	f30d                	bnez	a4,a554 <__addsf3+0xd8>
    a634:	b735                	j	a560 <__addsf3+0xe4>
    a636:	14079963          	bnez	a5,a788 <__addsf3+0x30c>
    a63a:	d75d                	beqz	a4,a5e8 <__addsf3+0x16c>
    a63c:	84ae                	mv	s1,a1
    a63e:	87ba                	mv	a5,a4
    a640:	838d                	srli	a5,a5,0x3
    a642:	b755                	j	a5e6 <__addsf3+0x16a>
    a644:	c2b1                	beqz	a3,a688 <__addsf3+0x20c>
    a646:	412606b3          	sub	a3,a2,s2
    a64a:	0e091963          	bnez	s2,a73c <__addsf3+0x2c0>
    a64e:	d7d1                	beqz	a5,a5da <__addsf3+0x15e>
    a650:	fff68593          	addi	a1,a3,-1
    a654:	10058d63          	beqz	a1,a76e <__addsf3+0x2f2>
    a658:	0ff00513          	li	a0,255
    a65c:	fea681e3          	beq	a3,a0,a63e <__addsf3+0x1c2>
    a660:	86ae                	mv	a3,a1
    a662:	45ed                	li	a1,27
    a664:	12d5d663          	bge	a1,a3,a790 <__addsf3+0x314>
    a668:	00170793          	addi	a5,a4,1
    a66c:	86b2                	mv	a3,a2
    a66e:	b5dd                	j	a554 <__addsf3+0xd8>
    a670:	fc0007b7          	lui	a5,0xfc000
    a674:	17fd                	addi	a5,a5,-1 # fbffffff <_eusrstack+0xdbffafff>
    a676:	40a906b3          	sub	a3,s2,a0
    a67a:	8fe1                	and	a5,a5,s0
    a67c:	bf4d                	j	a62e <__addsf3+0x1b2>
    a67e:	8826                	mv	a6,s1
    a680:	0ff00513          	li	a0,255
    a684:	4701                	li	a4,0
    a686:	bded                	j	a580 <__addsf3+0x104>
    a688:	00190693          	addi	a3,s2,1
    a68c:	0fe6f613          	andi	a2,a3,254
    a690:	ee55                	bnez	a2,a74c <__addsf3+0x2d0>
    a692:	0e091963          	bnez	s2,a784 <__addsf3+0x308>
    a696:	12078463          	beqz	a5,a7be <__addsf3+0x342>
    a69a:	12071463          	bnez	a4,a7c2 <__addsf3+0x346>
    a69e:	838d                	srli	a5,a5,0x3
    a6a0:	4681                	li	a3,0
    a6a2:	07a6                	slli	a5,a5,0x9
    a6a4:	0097d713          	srli	a4,a5,0x9
    a6a8:	0ff6f513          	zext.b	a0,a3
    a6ac:	8826                	mv	a6,s1
    a6ae:	bdc9                	j	a580 <__addsf3+0x104>
    a6b0:	0ff00513          	li	a0,255
    a6b4:	f8a604e3          	beq	a2,a0,a63c <__addsf3+0x1c0>
    a6b8:	04000537          	lui	a0,0x4000
    a6bc:	8fc9                	or	a5,a5,a0
    a6be:	486d                	li	a6,27
    a6c0:	4505                	li	a0,1
    a6c2:	00d84d63          	blt	a6,a3,a6dc <__addsf3+0x260>
    a6c6:	02000513          	li	a0,32
    a6ca:	8d15                	sub	a0,a0,a3
    a6cc:	00a79533          	sll	a0,a5,a0
    a6d0:	00d7d6b3          	srl	a3,a5,a3
    a6d4:	00a037b3          	snez	a5,a0
    a6d8:	00f6e533          	or	a0,a3,a5
    a6dc:	40a707b3          	sub	a5,a4,a0
    a6e0:	8932                	mv	s2,a2
    a6e2:	84ae                	mv	s1,a1
    a6e4:	bdb9                	j	a542 <__addsf3+0xc6>
    a6e6:	40e78433          	sub	s0,a5,a4
    a6ea:	040006b7          	lui	a3,0x4000
    a6ee:	8ee1                	and	a3,a3,s0
    a6f0:	eabd                	bnez	a3,a766 <__addsf3+0x2ea>
    a6f2:	f801                	bnez	s0,a602 <__addsf3+0x186>
    a6f4:	4801                	li	a6,0
    a6f6:	4501                	li	a0,0
    a6f8:	4701                	li	a4,0
    a6fa:	b559                	j	a580 <__addsf3+0x104>
    a6fc:	02000613          	li	a2,32
    a700:	8e15                	sub	a2,a2,a3
    a702:	00c71633          	sll	a2,a4,a2
    a706:	00d75733          	srl	a4,a4,a3
    a70a:	00c036b3          	snez	a3,a2
    a70e:	8f55                	or	a4,a4,a3
    a710:	97ba                	add	a5,a5,a4
    a712:	04000737          	lui	a4,0x4000
    a716:	8f7d                	and	a4,a4,a5
    a718:	e2070ae3          	beqz	a4,a54c <__addsf3+0xd0>
    a71c:	00190693          	addi	a3,s2,1
    a720:	0ff00513          	li	a0,255
    a724:	4701                	li	a4,0
    a726:	e4a68de3          	beq	a3,a0,a580 <__addsf3+0x104>
    a72a:	7e000637          	lui	a2,0x7e000
    a72e:	0017d713          	srli	a4,a5,0x1
    a732:	167d                	addi	a2,a2,-1 # 7dffffff <_eusrstack+0x5dffafff>
    a734:	8b85                	andi	a5,a5,1
    a736:	8f71                	and	a4,a4,a2
    a738:	8fd9                	or	a5,a5,a4
    a73a:	bdd5                	j	a62e <__addsf3+0x1b2>
    a73c:	0ff00593          	li	a1,255
    a740:	eeb60fe3          	beq	a2,a1,a63e <__addsf3+0x1c2>
    a744:	040005b7          	lui	a1,0x4000
    a748:	8fcd                	or	a5,a5,a1
    a74a:	bf21                	j	a662 <__addsf3+0x1e6>
    a74c:	0ff00613          	li	a2,255
    a750:	eac682e3          	beq	a3,a2,a5f4 <__addsf3+0x178>
    a754:	973e                	add	a4,a4,a5
    a756:	00175793          	srli	a5,a4,0x1
    a75a:	0077f613          	andi	a2,a5,7
    a75e:	de061be3          	bnez	a2,a554 <__addsf3+0xd8>
    a762:	838d                	srli	a5,a5,0x3
    a764:	bf3d                	j	a6a2 <__addsf3+0x226>
    a766:	40f70433          	sub	s0,a4,a5
    a76a:	84ae                	mv	s1,a1
    a76c:	bd59                	j	a602 <__addsf3+0x186>
    a76e:	97ba                	add	a5,a5,a4
    a770:	04000737          	lui	a4,0x4000
    a774:	8f7d                	and	a4,a4,a5
    a776:	4689                	li	a3,2
    a778:	4905                	li	s2,1
    a77a:	fb45                	bnez	a4,a72a <__addsf3+0x2ae>
    a77c:	bbc1                	j	a54c <__addsf3+0xd0>
    a77e:	8f99                	sub	a5,a5,a4
    a780:	4905                	li	s2,1
    a782:	b3c1                	j	a542 <__addsf3+0xc6>
    a784:	ea078de3          	beqz	a5,a63e <__addsf3+0x1c2>
    a788:	e60710e3          	bnez	a4,a5e8 <__addsf3+0x16c>
    a78c:	838d                	srli	a5,a5,0x3
    a78e:	bda1                	j	a5e6 <__addsf3+0x16a>
    a790:	02000593          	li	a1,32
    a794:	8d95                	sub	a1,a1,a3
    a796:	00b795b3          	sll	a1,a5,a1
    a79a:	00d7d6b3          	srl	a3,a5,a3
    a79e:	00b037b3          	snez	a5,a1
    a7a2:	8edd                	or	a3,a3,a5
    a7a4:	00e687b3          	add	a5,a3,a4
    a7a8:	8932                	mv	s2,a2
    a7aa:	b7a5                	j	a712 <__addsf3+0x296>
    a7ac:	d721                	beqz	a4,a6f4 <__addsf3+0x278>
    a7ae:	84ae                	mv	s1,a1
    a7b0:	87ba                	mv	a5,a4
    a7b2:	b5f5                	j	a69e <__addsf3+0x222>
    a7b4:	40f707b3          	sub	a5,a4,a5
    a7b8:	84ae                	mv	s1,a1
    a7ba:	4905                	li	s2,1
    a7bc:	b359                	j	a542 <__addsf3+0xc6>
    a7be:	87ba                	mv	a5,a4
    a7c0:	bdf9                	j	a69e <__addsf3+0x222>
    a7c2:	97ba                	add	a5,a5,a4
    a7c4:	04000637          	lui	a2,0x4000
    a7c8:	8e7d                	and	a2,a2,a5
    a7ca:	4681                	li	a3,0
    a7cc:	da59                	beqz	a2,a762 <__addsf3+0x2e6>
    a7ce:	fc000737          	lui	a4,0xfc000
    a7d2:	177d                	addi	a4,a4,-1 # fbffffff <_eusrstack+0xdbffafff>
    a7d4:	8ff9                	and	a5,a5,a4
    a7d6:	4685                	li	a3,1
    a7d8:	838d                	srli	a5,a5,0x3
    a7da:	b5e1                	j	a6a2 <__addsf3+0x226>
    a7dc:	87aa                	mv	a5,a0
    a7de:	d919                	beqz	a0,a6f4 <__addsf3+0x278>
    a7e0:	838d                	srli	a5,a5,0x3
    a7e2:	b5c1                	j	a6a2 <__addsf3+0x226>

0000a7e4 <__divsf3>:
    a7e4:	7179                	addi	sp,sp,-48
    a7e6:	01755793          	srli	a5,a0,0x17
    a7ea:	d04a                	sw	s2,32(sp)
    a7ec:	ce4e                	sw	s3,28(sp)
    a7ee:	d606                	sw	ra,44(sp)
    a7f0:	00951993          	slli	s3,a0,0x9
    a7f4:	d422                	sw	s0,40(sp)
    a7f6:	d226                	sw	s1,36(sp)
    a7f8:	cc52                	sw	s4,24(sp)
    a7fa:	ca56                	sw	s5,20(sp)
    a7fc:	c85a                	sw	s6,16(sp)
    a7fe:	0ff7f793          	zext.b	a5,a5
    a802:	0099d993          	srli	s3,s3,0x9
    a806:	01f55913          	srli	s2,a0,0x1f
    a80a:	cff1                	beqz	a5,a8e6 <__divsf3+0x102>
    a80c:	0ff00713          	li	a4,255
    a810:	0ee78163          	beq	a5,a4,a8f2 <__divsf3+0x10e>
    a814:	098e                	slli	s3,s3,0x3
    a816:	04000737          	lui	a4,0x4000
    a81a:	00e9e9b3          	or	s3,s3,a4
    a81e:	f8178a93          	addi	s5,a5,-127
    a822:	4401                	li	s0,0
    a824:	4b01                	li	s6,0
    a826:	0175d793          	srli	a5,a1,0x17
    a82a:	00959a13          	slli	s4,a1,0x9
    a82e:	0ff7f793          	zext.b	a5,a5
    a832:	009a5a13          	srli	s4,s4,0x9
    a836:	01f5d493          	srli	s1,a1,0x1f
    a83a:	c7c1                	beqz	a5,a8c2 <__divsf3+0xde>
    a83c:	0ff00713          	li	a4,255
    a840:	0ce78063          	beq	a5,a4,a900 <__divsf3+0x11c>
    a844:	0a0e                	slli	s4,s4,0x3
    a846:	04000737          	lui	a4,0x4000
    a84a:	00ea6a33          	or	s4,s4,a4
    a84e:	f8178793          	addi	a5,a5,-127
    a852:	4601                	li	a2,0
    a854:	46bd                	li	a3,15
    a856:	00994733          	xor	a4,s2,s1
    a85a:	40fa8ab3          	sub	s5,s5,a5
    a85e:	1a86eb63          	bltu	a3,s0,aa14 <__divsf3+0x230>
    a862:	00002697          	auipc	a3,0x2
    a866:	86268693          	addi	a3,a3,-1950 # c0c4 <MySerNumInfo+0x94>
    a86a:	040a                	slli	s0,s0,0x2
    a86c:	9436                	add	s0,s0,a3
    a86e:	401c                	lw	a5,0(s0)
    a870:	97b6                	add	a5,a5,a3
    a872:	8782                	jr	a5
    a874:	0ff00793          	li	a5,255
    a878:	4681                	li	a3,0
    a87a:	50b2                	lw	ra,44(sp)
    a87c:	5422                	lw	s0,40(sp)
    a87e:	01779513          	slli	a0,a5,0x17
    a882:	8d55                	or	a0,a0,a3
    a884:	077e                	slli	a4,a4,0x1f
    a886:	5492                	lw	s1,36(sp)
    a888:	5902                	lw	s2,32(sp)
    a88a:	49f2                	lw	s3,28(sp)
    a88c:	4a62                	lw	s4,24(sp)
    a88e:	4ad2                	lw	s5,20(sp)
    a890:	4b42                	lw	s6,16(sp)
    a892:	8d59                	or	a0,a0,a4
    a894:	6145                	addi	sp,sp,48
    a896:	8082                	ret
    a898:	478d                	li	a5,3
    a89a:	00fb0e63          	beq	s6,a5,a8b6 <__divsf3+0xd2>
    a89e:	4785                	li	a5,1
    a8a0:	0efb1563          	bne	s6,a5,a98a <__divsf3+0x1a6>
    a8a4:	872a                	mv	a4,a0
    a8a6:	4781                	li	a5,0
    a8a8:	4681                	li	a3,0
    a8aa:	bfc1                	j	a87a <__divsf3+0x96>
    a8ac:	478d                	li	a5,3
    a8ae:	8526                	mv	a0,s1
    a8b0:	89d2                	mv	s3,s4
    a8b2:	0cf61c63          	bne	a2,a5,a98a <__divsf3+0x1a6>
    a8b6:	4701                	li	a4,0
    a8b8:	0ff00793          	li	a5,255
    a8bc:	004006b7          	lui	a3,0x400
    a8c0:	bf6d                	j	a87a <__divsf3+0x96>
    a8c2:	080a1d63          	bnez	s4,a95c <__divsf3+0x178>
    a8c6:	00146413          	ori	s0,s0,1
    a8ca:	47b5                	li	a5,13
    a8cc:	00994733          	xor	a4,s2,s1
    a8d0:	fa87e2e3          	bltu	a5,s0,a874 <__divsf3+0x90>
    a8d4:	00002697          	auipc	a3,0x2
    a8d8:	83068693          	addi	a3,a3,-2000 # c104 <MySerNumInfo+0xd4>
    a8dc:	040a                	slli	s0,s0,0x2
    a8de:	9436                	add	s0,s0,a3
    a8e0:	401c                	lw	a5,0(s0)
    a8e2:	97b6                	add	a5,a5,a3
    a8e4:	8782                	jr	a5
    a8e6:	04099b63          	bnez	s3,a93c <__divsf3+0x158>
    a8ea:	4411                	li	s0,4
    a8ec:	4a81                	li	s5,0
    a8ee:	4b05                	li	s6,1
    a8f0:	bf1d                	j	a826 <__divsf3+0x42>
    a8f2:	04099063          	bnez	s3,a932 <__divsf3+0x14e>
    a8f6:	4421                	li	s0,8
    a8f8:	0ff00a93          	li	s5,255
    a8fc:	4b09                	li	s6,2
    a8fe:	b725                	j	a826 <__divsf3+0x42>
    a900:	020a1363          	bnez	s4,a926 <__divsf3+0x142>
    a904:	00246413          	ori	s0,s0,2
    a908:	1475                	addi	s0,s0,-3
    a90a:	46ad                	li	a3,11
    a90c:	00994733          	xor	a4,s2,s1
    a910:	f886ebe3          	bltu	a3,s0,a8a6 <__divsf3+0xc2>
    a914:	00002617          	auipc	a2,0x2
    a918:	82860613          	addi	a2,a2,-2008 # c13c <MySerNumInfo+0x10c>
    a91c:	040a                	slli	s0,s0,0x2
    a91e:	9432                	add	s0,s0,a2
    a920:	4014                	lw	a3,0(s0)
    a922:	96b2                	add	a3,a3,a2
    a924:	8682                	jr	a3
    a926:	00346413          	ori	s0,s0,3
    a92a:	0ff00793          	li	a5,255
    a92e:	460d                	li	a2,3
    a930:	b715                	j	a854 <__divsf3+0x70>
    a932:	4431                	li	s0,12
    a934:	0ff00a93          	li	s5,255
    a938:	4b0d                	li	s6,3
    a93a:	b5f5                	j	a826 <__divsf3+0x42>
    a93c:	854e                	mv	a0,s3
    a93e:	c62e                	sw	a1,12(sp)
    a940:	53f000ef          	jal	ra,b67e <__clzsi2>
    a944:	ffb50793          	addi	a5,a0,-5 # 3fffffb <_data_lma+0x3ff3d8f>
    a948:	00f999b3          	sll	s3,s3,a5
    a94c:	f8a00793          	li	a5,-118
    a950:	45b2                	lw	a1,12(sp)
    a952:	40a78ab3          	sub	s5,a5,a0
    a956:	4401                	li	s0,0
    a958:	4b01                	li	s6,0
    a95a:	b5f1                	j	a826 <__divsf3+0x42>
    a95c:	8552                	mv	a0,s4
    a95e:	521000ef          	jal	ra,b67e <__clzsi2>
    a962:	ffb50793          	addi	a5,a0,-5
    a966:	00fa1a33          	sll	s4,s4,a5
    a96a:	f8a00793          	li	a5,-118
    a96e:	8f89                	sub	a5,a5,a0
    a970:	4601                	li	a2,0
    a972:	b5cd                	j	a854 <__divsf3+0x70>
    a974:	f01a8a93          	addi	s5,s5,-255
    a978:	4789                	li	a5,2
    a97a:	854a                	mv	a0,s2
    a97c:	f0fb1ee3          	bne	s6,a5,a898 <__divsf3+0xb4>
    a980:	872a                	mv	a4,a0
    a982:	0ff00793          	li	a5,255
    a986:	4681                	li	a3,0
    a988:	bdcd                	j	a87a <__divsf3+0x96>
    a98a:	872a                	mv	a4,a0
    a98c:	07fa8793          	addi	a5,s5,127
    a990:	04f05163          	blez	a5,a9d2 <__divsf3+0x1ee>
    a994:	0079f693          	andi	a3,s3,7
    a998:	c699                	beqz	a3,a9a6 <__divsf3+0x1c2>
    a99a:	00f9f693          	andi	a3,s3,15
    a99e:	4611                	li	a2,4
    a9a0:	00c68363          	beq	a3,a2,a9a6 <__divsf3+0x1c2>
    a9a4:	0991                	addi	s3,s3,4
    a9a6:	080006b7          	lui	a3,0x8000
    a9aa:	00d9f6b3          	and	a3,s3,a3
    a9ae:	ca81                	beqz	a3,a9be <__divsf3+0x1da>
    a9b0:	f80007b7          	lui	a5,0xf8000
    a9b4:	17fd                	addi	a5,a5,-1 # f7ffffff <_eusrstack+0xd7ffafff>
    a9b6:	00f9f9b3          	and	s3,s3,a5
    a9ba:	080a8793          	addi	a5,s5,128
    a9be:	0fe00693          	li	a3,254
    a9c2:	eaf6c9e3          	blt	a3,a5,a874 <__divsf3+0x90>
    a9c6:	00699693          	slli	a3,s3,0x6
    a9ca:	82a5                	srli	a3,a3,0x9
    a9cc:	0ff7f793          	zext.b	a5,a5
    a9d0:	b56d                	j	a87a <__divsf3+0x96>
    a9d2:	4605                	li	a2,1
    a9d4:	c799                	beqz	a5,a9e2 <__divsf3+0x1fe>
    a9d6:	8e1d                	sub	a2,a2,a5
    a9d8:	45ed                	li	a1,27
    a9da:	4781                	li	a5,0
    a9dc:	4681                	li	a3,0
    a9de:	e8c5cee3          	blt	a1,a2,a87a <__divsf3+0x96>
    a9e2:	09ea8693          	addi	a3,s5,158
    a9e6:	00d996b3          	sll	a3,s3,a3
    a9ea:	00d036b3          	snez	a3,a3
    a9ee:	00c9d7b3          	srl	a5,s3,a2
    a9f2:	8fd5                	or	a5,a5,a3
    a9f4:	0077f693          	andi	a3,a5,7
    a9f8:	c699                	beqz	a3,aa06 <__divsf3+0x222>
    a9fa:	00f7f693          	andi	a3,a5,15
    a9fe:	4611                	li	a2,4
    aa00:	00c68363          	beq	a3,a2,aa06 <__divsf3+0x222>
    aa04:	0791                	addi	a5,a5,4
    aa06:	040006b7          	lui	a3,0x4000
    aa0a:	8efd                	and	a3,a3,a5
    aa0c:	cad5                	beqz	a3,aac0 <__divsf3+0x2dc>
    aa0e:	4785                	li	a5,1
    aa10:	4681                	li	a3,0
    aa12:	b5a5                	j	a87a <__divsf3+0x96>
    aa14:	66c1                	lui	a3,0x10
    aa16:	005a1813          	slli	a6,s4,0x5
    aa1a:	16fd                	addi	a3,a3,-1 # ffff <_data_lma+0x3d93>
    aa1c:	01085593          	srli	a1,a6,0x10
    aa20:	00d876b3          	and	a3,a6,a3
    aa24:	0749f863          	bgeu	s3,s4,aa94 <__divsf3+0x2b0>
    aa28:	02b9d633          	divu	a2,s3,a1
    aa2c:	87ce                	mv	a5,s3
    aa2e:	1afd                	addi	s5,s5,-1
    aa30:	4981                	li	s3,0
    aa32:	02d60533          	mul	a0,a2,a3
    aa36:	02b7f7b3          	remu	a5,a5,a1
    aa3a:	07c2                	slli	a5,a5,0x10
    aa3c:	0137e7b3          	or	a5,a5,s3
    aa40:	00a7f863          	bgeu	a5,a0,aa50 <__divsf3+0x26c>
    aa44:	97c2                	add	a5,a5,a6
    aa46:	fff60893          	addi	a7,a2,-1
    aa4a:	0707f663          	bgeu	a5,a6,aab6 <__divsf3+0x2d2>
    aa4e:	8646                	mv	a2,a7
    aa50:	8f89                	sub	a5,a5,a0
    aa52:	02b7d533          	divu	a0,a5,a1
    aa56:	02b7f7b3          	remu	a5,a5,a1
    aa5a:	02d506b3          	mul	a3,a0,a3
    aa5e:	07c2                	slli	a5,a5,0x10
    aa60:	02d7f263          	bgeu	a5,a3,aa84 <__divsf3+0x2a0>
    aa64:	010785b3          	add	a1,a5,a6
    aa68:	00f5b8b3          	sltu	a7,a1,a5
    aa6c:	fff50313          	addi	t1,a0,-1
    aa70:	87ae                	mv	a5,a1
    aa72:	00089863          	bnez	a7,aa82 <__divsf3+0x29e>
    aa76:	00d5f663          	bgeu	a1,a3,aa82 <__divsf3+0x29e>
    aa7a:	1579                	addi	a0,a0,-2
    aa7c:	010587b3          	add	a5,a1,a6
    aa80:	a011                	j	aa84 <__divsf3+0x2a0>
    aa82:	851a                	mv	a0,t1
    aa84:	0642                	slli	a2,a2,0x10
    aa86:	8f95                	sub	a5,a5,a3
    aa88:	8e49                	or	a2,a2,a0
    aa8a:	00f037b3          	snez	a5,a5
    aa8e:	00f669b3          	or	s3,a2,a5
    aa92:	bded                	j	a98c <__divsf3+0x1a8>
    aa94:	0019d793          	srli	a5,s3,0x1
    aa98:	02b7d633          	divu	a2,a5,a1
    aa9c:	09fe                	slli	s3,s3,0x1f
    aa9e:	0109d993          	srli	s3,s3,0x10
    aaa2:	02d60533          	mul	a0,a2,a3
    aaa6:	bf41                	j	aa36 <__divsf3+0x252>
    aaa8:	8526                	mv	a0,s1
    aaaa:	872a                	mv	a4,a0
    aaac:	bbed                	j	a8a6 <__divsf3+0xc2>
    aaae:	4701                	li	a4,0
    aab0:	004006b7          	lui	a3,0x400
    aab4:	b3d9                	j	a87a <__divsf3+0x96>
    aab6:	f8a7fce3          	bgeu	a5,a0,aa4e <__divsf3+0x26a>
    aaba:	1679                	addi	a2,a2,-2
    aabc:	97c2                	add	a5,a5,a6
    aabe:	bf49                	j	aa50 <__divsf3+0x26c>
    aac0:	079a                	slli	a5,a5,0x6
    aac2:	0097d693          	srli	a3,a5,0x9
    aac6:	4781                	li	a5,0
    aac8:	bb4d                	j	a87a <__divsf3+0x96>
    aaca:	8526                	mv	a0,s1
    aacc:	bd55                	j	a980 <__divsf3+0x19c>

0000aace <__gesf2>:
    aace:	01755613          	srli	a2,a0,0x17
    aad2:	00800737          	lui	a4,0x800
    aad6:	177d                	addi	a4,a4,-1 # 7fffff <_data_lma+0x7f3d93>
    aad8:	0175d693          	srli	a3,a1,0x17
    aadc:	0ff67613          	zext.b	a2,a2
    aae0:	0ff00813          	li	a6,255
    aae4:	00a778b3          	and	a7,a4,a0
    aae8:	01f55793          	srli	a5,a0,0x1f
    aaec:	8f6d                	and	a4,a4,a1
    aaee:	0ff6f513          	zext.b	a0,a3
    aaf2:	81fd                	srli	a1,a1,0x1f
    aaf4:	03060563          	beq	a2,a6,ab1e <__gesf2+0x50>
    aaf8:	01050a63          	beq	a0,a6,ab0c <__gesf2+0x3e>
    aafc:	ea05                	bnez	a2,ab2c <__gesf2+0x5e>
    aafe:	e909                	bnez	a0,ab10 <__gesf2+0x42>
    ab00:	c339                	beqz	a4,ab46 <__gesf2+0x78>
    ab02:	04089e63          	bnez	a7,ab5e <__gesf2+0x90>
    ab06:	c9a1                	beqz	a1,ab56 <__gesf2+0x88>
    ab08:	852e                	mv	a0,a1
    ab0a:	8082                	ret
    ab0c:	e739                	bnez	a4,ab5a <__gesf2+0x8c>
    ab0e:	e219                	bnez	a2,ab14 <__gesf2+0x46>
    ab10:	fe088be3          	beqz	a7,ab06 <__gesf2+0x38>
    ab14:	00b79963          	bne	a5,a1,ab26 <__gesf2+0x58>
    ab18:	cf9d                	beqz	a5,ab56 <__gesf2+0x88>
    ab1a:	853e                	mv	a0,a5
    ab1c:	8082                	ret
    ab1e:	02089e63          	bnez	a7,ab5a <__gesf2+0x8c>
    ab22:	02c50563          	beq	a0,a2,ab4c <__gesf2+0x7e>
    ab26:	4505                	li	a0,1
    ab28:	e79d                	bnez	a5,ab56 <__gesf2+0x88>
    ab2a:	8082                	ret
    ab2c:	dd6d                	beqz	a0,ab26 <__gesf2+0x58>
    ab2e:	feb79ce3          	bne	a5,a1,ab26 <__gesf2+0x58>
    ab32:	fec54ae3          	blt	a0,a2,ab26 <__gesf2+0x58>
    ab36:	fea641e3          	blt	a2,a0,ab18 <__gesf2+0x4a>
    ab3a:	ff1766e3          	bltu	a4,a7,ab26 <__gesf2+0x58>
    ab3e:	4501                	li	a0,0
    ab40:	fce8ece3          	bltu	a7,a4,ab18 <__gesf2+0x4a>
    ab44:	8082                	ret
    ab46:	fe0890e3          	bnez	a7,ab26 <__gesf2+0x58>
    ab4a:	8082                	ret
    ab4c:	e719                	bnez	a4,ab5a <__gesf2+0x8c>
    ab4e:	fcb79ce3          	bne	a5,a1,ab26 <__gesf2+0x58>
    ab52:	4501                	li	a0,0
    ab54:	8082                	ret
    ab56:	557d                	li	a0,-1
    ab58:	8082                	ret
    ab5a:	5579                	li	a0,-2
    ab5c:	8082                	ret
    ab5e:	fcb78ee3          	beq	a5,a1,ab3a <__gesf2+0x6c>
    ab62:	b7d1                	j	ab26 <__gesf2+0x58>

0000ab64 <__lesf2>:
    ab64:	01755613          	srli	a2,a0,0x17
    ab68:	00800737          	lui	a4,0x800
    ab6c:	177d                	addi	a4,a4,-1 # 7fffff <_data_lma+0x7f3d93>
    ab6e:	0175d693          	srli	a3,a1,0x17
    ab72:	0ff67613          	zext.b	a2,a2
    ab76:	0ff00813          	li	a6,255
    ab7a:	00a778b3          	and	a7,a4,a0
    ab7e:	01f55793          	srli	a5,a0,0x1f
    ab82:	8f6d                	and	a4,a4,a1
    ab84:	0ff6f513          	zext.b	a0,a3
    ab88:	81fd                	srli	a1,a1,0x1f
    ab8a:	03060663          	beq	a2,a6,abb6 <__lesf2+0x52>
    ab8e:	01050a63          	beq	a0,a6,aba2 <__lesf2+0x3e>
    ab92:	ee05                	bnez	a2,abca <__lesf2+0x66>
    ab94:	e911                	bnez	a0,aba8 <__lesf2+0x44>
    ab96:	cb29                	beqz	a4,abe8 <__lesf2+0x84>
    ab98:	04089f63          	bnez	a7,abf6 <__lesf2+0x92>
    ab9c:	c9b9                	beqz	a1,abf2 <__lesf2+0x8e>
    ab9e:	852e                	mv	a0,a1
    aba0:	8082                	ret
    aba2:	4509                	li	a0,2
    aba4:	eb01                	bnez	a4,abb4 <__lesf2+0x50>
    aba6:	e219                	bnez	a2,abac <__lesf2+0x48>
    aba8:	fe088ae3          	beqz	a7,ab9c <__lesf2+0x38>
    abac:	02b78b63          	beq	a5,a1,abe2 <__lesf2+0x7e>
    abb0:	4505                	li	a0,1
    abb2:	e3a1                	bnez	a5,abf2 <__lesf2+0x8e>
    abb4:	8082                	ret
    abb6:	02089c63          	bnez	a7,abee <__lesf2+0x8a>
    abba:	fec51be3          	bne	a0,a2,abb0 <__lesf2+0x4c>
    abbe:	4509                	li	a0,2
    abc0:	fb75                	bnez	a4,abb4 <__lesf2+0x50>
    abc2:	feb797e3          	bne	a5,a1,abb0 <__lesf2+0x4c>
    abc6:	4501                	li	a0,0
    abc8:	8082                	ret
    abca:	d17d                	beqz	a0,abb0 <__lesf2+0x4c>
    abcc:	feb792e3          	bne	a5,a1,abb0 <__lesf2+0x4c>
    abd0:	fec540e3          	blt	a0,a2,abb0 <__lesf2+0x4c>
    abd4:	00a64763          	blt	a2,a0,abe2 <__lesf2+0x7e>
    abd8:	fd176ce3          	bltu	a4,a7,abb0 <__lesf2+0x4c>
    abdc:	4501                	li	a0,0
    abde:	fce8fbe3          	bgeu	a7,a4,abb4 <__lesf2+0x50>
    abe2:	cb81                	beqz	a5,abf2 <__lesf2+0x8e>
    abe4:	853e                	mv	a0,a5
    abe6:	8082                	ret
    abe8:	fc0894e3          	bnez	a7,abb0 <__lesf2+0x4c>
    abec:	8082                	ret
    abee:	4509                	li	a0,2
    abf0:	8082                	ret
    abf2:	557d                	li	a0,-1
    abf4:	8082                	ret
    abf6:	feb781e3          	beq	a5,a1,abd8 <__lesf2+0x74>
    abfa:	bf5d                	j	abb0 <__lesf2+0x4c>

0000abfc <__mulsf3>:
    abfc:	7179                	addi	sp,sp,-48
    abfe:	01755793          	srli	a5,a0,0x17
    ac02:	cc52                	sw	s4,24(sp)
    ac04:	ca56                	sw	s5,20(sp)
    ac06:	00951713          	slli	a4,a0,0x9
    ac0a:	d606                	sw	ra,44(sp)
    ac0c:	d422                	sw	s0,40(sp)
    ac0e:	d226                	sw	s1,36(sp)
    ac10:	d04a                	sw	s2,32(sp)
    ac12:	ce4e                	sw	s3,28(sp)
    ac14:	c85a                	sw	s6,16(sp)
    ac16:	0ff7f793          	zext.b	a5,a5
    ac1a:	00975a93          	srli	s5,a4,0x9
    ac1e:	01f55a13          	srli	s4,a0,0x1f
    ac22:	10078b63          	beqz	a5,ad38 <__mulsf3+0x13c>
    ac26:	0ff00713          	li	a4,255
    ac2a:	10e78d63          	beq	a5,a4,ad44 <__mulsf3+0x148>
    ac2e:	003a9713          	slli	a4,s5,0x3
    ac32:	040006b7          	lui	a3,0x4000
    ac36:	00d76ab3          	or	s5,a4,a3
    ac3a:	f8178493          	addi	s1,a5,-127
    ac3e:	4901                	li	s2,0
    ac40:	4b01                	li	s6,0
    ac42:	0175d793          	srli	a5,a1,0x17
    ac46:	00959413          	slli	s0,a1,0x9
    ac4a:	0ff7f793          	zext.b	a5,a5
    ac4e:	8025                	srli	s0,s0,0x9
    ac50:	01f5d993          	srli	s3,a1,0x1f
    ac54:	c7f9                	beqz	a5,ad22 <__mulsf3+0x126>
    ac56:	0ff00713          	li	a4,255
    ac5a:	06e78263          	beq	a5,a4,acbe <__mulsf3+0xc2>
    ac5e:	f8178793          	addi	a5,a5,-127
    ac62:	00978533          	add	a0,a5,s1
    ac66:	040e                	slli	s0,s0,0x3
    ac68:	04000737          	lui	a4,0x4000
    ac6c:	47a9                	li	a5,10
    ac6e:	8c59                	or	s0,s0,a4
    ac70:	4681                	li	a3,0
    ac72:	00150493          	addi	s1,a0,1
    ac76:	0f27cf63          	blt	a5,s2,ad74 <__mulsf3+0x178>
    ac7a:	013a45b3          	xor	a1,s4,s3
    ac7e:	4709                	li	a4,2
    ac80:	882e                	mv	a6,a1
    ac82:	05274c63          	blt	a4,s2,acda <__mulsf3+0xde>
    ac86:	197d                	addi	s2,s2,-1
    ac88:	4605                	li	a2,1
    ac8a:	13266e63          	bltu	a2,s2,adc6 <__mulsf3+0x1ca>
    ac8e:	0ce68263          	beq	a3,a4,ad52 <__mulsf3+0x156>
    ac92:	4785                	li	a5,1
    ac94:	85c2                	mv	a1,a6
    ac96:	06f69463          	bne	a3,a5,acfe <__mulsf3+0x102>
    ac9a:	4781                	li	a5,0
    ac9c:	4701                	li	a4,0
    ac9e:	50b2                	lw	ra,44(sp)
    aca0:	5422                	lw	s0,40(sp)
    aca2:	01779513          	slli	a0,a5,0x17
    aca6:	8d59                	or	a0,a0,a4
    aca8:	01f59793          	slli	a5,a1,0x1f
    acac:	5492                	lw	s1,36(sp)
    acae:	5902                	lw	s2,32(sp)
    acb0:	49f2                	lw	s3,28(sp)
    acb2:	4a62                	lw	s4,24(sp)
    acb4:	4ad2                	lw	s5,20(sp)
    acb6:	4b42                	lw	s6,16(sp)
    acb8:	8d5d                	or	a0,a0,a5
    acba:	6145                	addi	sp,sp,48
    acbc:	8082                	ret
    acbe:	0ff48513          	addi	a0,s1,255 # 8000ff <_data_lma+0x7f3e93>
    acc2:	cc49                	beqz	s0,ad5c <__mulsf3+0x160>
    acc4:	013a45b3          	xor	a1,s4,s3
    acc8:	00396913          	ori	s2,s2,3
    accc:	4729                	li	a4,10
    acce:	882e                	mv	a6,a1
    acd0:	10048493          	addi	s1,s1,256
    acd4:	1f274963          	blt	a4,s2,aec6 <__mulsf3+0x2ca>
    acd8:	468d                	li	a3,3
    acda:	4705                	li	a4,1
    acdc:	01271733          	sll	a4,a4,s2
    ace0:	53077613          	andi	a2,a4,1328
    ace4:	ce19                	beqz	a2,ad02 <__mulsf3+0x106>
    ace6:	4789                	li	a5,2
    ace8:	06fb0563          	beq	s6,a5,ad52 <__mulsf3+0x156>
    acec:	478d                	li	a5,3
    acee:	02fb0463          	beq	s6,a5,ad16 <__mulsf3+0x11a>
    acf2:	86da                	mv	a3,s6
    acf4:	4785                	li	a5,1
    acf6:	8456                	mv	s0,s5
    acf8:	85c2                	mv	a1,a6
    acfa:	faf680e3          	beq	a3,a5,ac9a <__mulsf3+0x9e>
    acfe:	8526                	mv	a0,s1
    ad00:	aa05                	j	ae30 <__mulsf3+0x234>
    ad02:	24077793          	andi	a5,a4,576
    ad06:	eb81                	bnez	a5,ad16 <__mulsf3+0x11a>
    ad08:	08877713          	andi	a4,a4,136
    ad0c:	cf4d                	beqz	a4,adc6 <__mulsf3+0x1ca>
    ad0e:	884e                	mv	a6,s3
    ad10:	8aa2                	mv	s5,s0
    ad12:	8b36                	mv	s6,a3
    ad14:	bfc9                	j	ace6 <__mulsf3+0xea>
    ad16:	4581                	li	a1,0
    ad18:	0ff00793          	li	a5,255
    ad1c:	00400737          	lui	a4,0x400
    ad20:	bfbd                	j	ac9e <__mulsf3+0xa2>
    ad22:	e041                	bnez	s0,ada2 <__mulsf3+0x1a6>
    ad24:	8526                	mv	a0,s1
    ad26:	00196913          	ori	s2,s2,1
    ad2a:	47a9                	li	a5,10
    ad2c:	4685                	li	a3,1
    ad2e:	00150493          	addi	s1,a0,1
    ad32:	f527d4e3          	bge	a5,s2,ac7a <__mulsf3+0x7e>
    ad36:	a83d                	j	ad74 <__mulsf3+0x178>
    ad38:	040a9563          	bnez	s5,ad82 <__mulsf3+0x186>
    ad3c:	4911                	li	s2,4
    ad3e:	4481                	li	s1,0
    ad40:	4b05                	li	s6,1
    ad42:	b701                	j	ac42 <__mulsf3+0x46>
    ad44:	020a9a63          	bnez	s5,ad78 <__mulsf3+0x17c>
    ad48:	4921                	li	s2,8
    ad4a:	0ff00493          	li	s1,255
    ad4e:	4b09                	li	s6,2
    ad50:	bdcd                	j	ac42 <__mulsf3+0x46>
    ad52:	85c2                	mv	a1,a6
    ad54:	0ff00793          	li	a5,255
    ad58:	4701                	li	a4,0
    ad5a:	b791                	j	ac9e <__mulsf3+0xa2>
    ad5c:	00296913          	ori	s2,s2,2
    ad60:	47a9                	li	a5,10
    ad62:	10048493          	addi	s1,s1,256
    ad66:	4739                	li	a4,14
    ad68:	4689                	li	a3,2
    ad6a:	f127d8e3          	bge	a5,s2,ac7a <__mulsf3+0x7e>
    ad6e:	47ad                	li	a5,11
    ad70:	f8f70fe3          	beq	a4,a5,ad0e <__mulsf3+0x112>
    ad74:	8852                	mv	a6,s4
    ad76:	bf85                	j	ace6 <__mulsf3+0xea>
    ad78:	4931                	li	s2,12
    ad7a:	0ff00493          	li	s1,255
    ad7e:	4b0d                	li	s6,3
    ad80:	b5c9                	j	ac42 <__mulsf3+0x46>
    ad82:	8556                	mv	a0,s5
    ad84:	c62e                	sw	a1,12(sp)
    ad86:	0f9000ef          	jal	ra,b67e <__clzsi2>
    ad8a:	ffb50793          	addi	a5,a0,-5
    ad8e:	00fa9ab3          	sll	s5,s5,a5
    ad92:	f8a00793          	li	a5,-118
    ad96:	45b2                	lw	a1,12(sp)
    ad98:	40a784b3          	sub	s1,a5,a0
    ad9c:	4901                	li	s2,0
    ad9e:	4b01                	li	s6,0
    ada0:	b54d                	j	ac42 <__mulsf3+0x46>
    ada2:	8522                	mv	a0,s0
    ada4:	0db000ef          	jal	ra,b67e <__clzsi2>
    ada8:	40a487b3          	sub	a5,s1,a0
    adac:	ffb50713          	addi	a4,a0,-5
    adb0:	f8a78513          	addi	a0,a5,-118
    adb4:	47a9                	li	a5,10
    adb6:	00e41433          	sll	s0,s0,a4
    adba:	4681                	li	a3,0
    adbc:	00150493          	addi	s1,a0,1
    adc0:	eb27dde3          	bge	a5,s2,ac7a <__mulsf3+0x7e>
    adc4:	bf45                	j	ad74 <__mulsf3+0x178>
    adc6:	68c1                	lui	a7,0x10
    adc8:	fff88793          	addi	a5,a7,-1 # ffff <_data_lma+0x3d93>
    adcc:	010ad613          	srli	a2,s5,0x10
    add0:	01045813          	srli	a6,s0,0x10
    add4:	00fafab3          	and	s5,s5,a5
    add8:	8fe1                	and	a5,a5,s0
    adda:	035786b3          	mul	a3,a5,s5
    adde:	02f607b3          	mul	a5,a2,a5
    ade2:	0106d713          	srli	a4,a3,0x10
    ade6:	03580ab3          	mul	s5,a6,s5
    adea:	9abe                	add	s5,s5,a5
    adec:	9756                	add	a4,a4,s5
    adee:	03060633          	mul	a2,a2,a6
    adf2:	00f77363          	bgeu	a4,a5,adf8 <__mulsf3+0x1fc>
    adf6:	9646                	add	a2,a2,a7
    adf8:	6841                	lui	a6,0x10
    adfa:	187d                	addi	a6,a6,-1 # ffff <_data_lma+0x3d93>
    adfc:	010777b3          	and	a5,a4,a6
    ae00:	0106f6b3          	and	a3,a3,a6
    ae04:	07c2                	slli	a5,a5,0x10
    ae06:	97b6                	add	a5,a5,a3
    ae08:	00679693          	slli	a3,a5,0x6
    ae0c:	01075413          	srli	s0,a4,0x10
    ae10:	83e9                	srli	a5,a5,0x1a
    ae12:	00d03733          	snez	a4,a3
    ae16:	9432                	add	s0,s0,a2
    ae18:	8fd9                	or	a5,a5,a4
    ae1a:	041a                	slli	s0,s0,0x6
    ae1c:	8c5d                	or	s0,s0,a5
    ae1e:	080007b7          	lui	a5,0x8000
    ae22:	8fe1                	and	a5,a5,s0
    ae24:	c791                	beqz	a5,ae30 <__mulsf3+0x234>
    ae26:	00145793          	srli	a5,s0,0x1
    ae2a:	8805                	andi	s0,s0,1
    ae2c:	8c5d                	or	s0,s0,a5
    ae2e:	8526                	mv	a0,s1
    ae30:	07f50793          	addi	a5,a0,127
    ae34:	02f05f63          	blez	a5,ae72 <__mulsf3+0x276>
    ae38:	00747713          	andi	a4,s0,7
    ae3c:	c719                	beqz	a4,ae4a <__mulsf3+0x24e>
    ae3e:	00f47713          	andi	a4,s0,15
    ae42:	4691                	li	a3,4
    ae44:	00d70363          	beq	a4,a3,ae4a <__mulsf3+0x24e>
    ae48:	0411                	addi	s0,s0,4
    ae4a:	08000737          	lui	a4,0x8000
    ae4e:	8f61                	and	a4,a4,s0
    ae50:	c719                	beqz	a4,ae5e <__mulsf3+0x262>
    ae52:	f80007b7          	lui	a5,0xf8000
    ae56:	17fd                	addi	a5,a5,-1 # f7ffffff <_eusrstack+0xd7ffafff>
    ae58:	8c7d                	and	s0,s0,a5
    ae5a:	08050793          	addi	a5,a0,128
    ae5e:	0fe00713          	li	a4,254
    ae62:	04f74963          	blt	a4,a5,aeb4 <__mulsf3+0x2b8>
    ae66:	00641713          	slli	a4,s0,0x6
    ae6a:	8325                	srli	a4,a4,0x9
    ae6c:	0ff7f793          	zext.b	a5,a5
    ae70:	b53d                	j	ac9e <__mulsf3+0xa2>
    ae72:	4685                	li	a3,1
    ae74:	c799                	beqz	a5,ae82 <__mulsf3+0x286>
    ae76:	8e9d                	sub	a3,a3,a5
    ae78:	466d                	li	a2,27
    ae7a:	4781                	li	a5,0
    ae7c:	4701                	li	a4,0
    ae7e:	e2d640e3          	blt	a2,a3,ac9e <__mulsf3+0xa2>
    ae82:	09e50713          	addi	a4,a0,158
    ae86:	00e41733          	sll	a4,s0,a4
    ae8a:	00e03733          	snez	a4,a4
    ae8e:	00d457b3          	srl	a5,s0,a3
    ae92:	8fd9                	or	a5,a5,a4
    ae94:	0077f713          	andi	a4,a5,7
    ae98:	c719                	beqz	a4,aea6 <__mulsf3+0x2aa>
    ae9a:	00f7f713          	andi	a4,a5,15
    ae9e:	4691                	li	a3,4
    aea0:	00d70363          	beq	a4,a3,aea6 <__mulsf3+0x2aa>
    aea4:	0791                	addi	a5,a5,4
    aea6:	04000737          	lui	a4,0x4000
    aeaa:	8f7d                	and	a4,a4,a5
    aeac:	cb01                	beqz	a4,aebc <__mulsf3+0x2c0>
    aeae:	4785                	li	a5,1
    aeb0:	4701                	li	a4,0
    aeb2:	b3f5                	j	ac9e <__mulsf3+0xa2>
    aeb4:	0ff00793          	li	a5,255
    aeb8:	4701                	li	a4,0
    aeba:	b3d5                	j	ac9e <__mulsf3+0xa2>
    aebc:	079a                	slli	a5,a5,0x6
    aebe:	0097d713          	srli	a4,a5,0x9
    aec2:	4781                	li	a5,0
    aec4:	bbe9                	j	ac9e <__mulsf3+0xa2>
    aec6:	46bd                	li	a3,15
    aec8:	4581                	li	a1,0
    aeca:	00400737          	lui	a4,0x400
    aece:	dcd908e3          	beq	s2,a3,ac9e <__mulsf3+0xa2>
    aed2:	472d                	li	a4,11
    aed4:	468d                	li	a3,3
    aed6:	bd61                	j	ad6e <__mulsf3+0x172>

0000aed8 <__subsf3>:
    aed8:	008007b7          	lui	a5,0x800
    aedc:	1141                	addi	sp,sp,-16
    aede:	17fd                	addi	a5,a5,-1 # 7fffff <_data_lma+0x7f3d93>
    aee0:	0175d613          	srli	a2,a1,0x17
    aee4:	00a7f733          	and	a4,a5,a0
    aee8:	01755693          	srli	a3,a0,0x17
    aeec:	8fed                	and	a5,a5,a1
    aeee:	c226                	sw	s1,4(sp)
    aef0:	c04a                	sw	s2,0(sp)
    aef2:	01f55493          	srli	s1,a0,0x1f
    aef6:	c606                	sw	ra,12(sp)
    aef8:	c422                	sw	s0,8(sp)
    aefa:	0ff67613          	zext.b	a2,a2
    aefe:	0ff00513          	li	a0,255
    af02:	0ff6f913          	zext.b	s2,a3
    af06:	8826                	mv	a6,s1
    af08:	070e                	slli	a4,a4,0x3
    af0a:	81fd                	srli	a1,a1,0x1f
    af0c:	00379693          	slli	a3,a5,0x3
    af10:	04a60363          	beq	a2,a0,af56 <__subsf3+0x7e>
    af14:	0015c593          	xori	a1,a1,1
    af18:	40c907b3          	sub	a5,s2,a2
    af1c:	00b48f63          	beq	s1,a1,af3a <__subsf3+0x62>
    af20:	30f05a63          	blez	a5,b234 <__subsf3+0x35c>
    af24:	e235                	bnez	a2,af88 <__subsf3+0xb0>
    af26:	14068f63          	beqz	a3,b084 <__subsf3+0x1ac>
    af2a:	fff78613          	addi	a2,a5,-1
    af2e:	2a060263          	beqz	a2,b1d2 <__subsf3+0x2fa>
    af32:	02a78f63          	beq	a5,a0,af70 <__subsf3+0x98>
    af36:	87b2                	mv	a5,a2
    af38:	a8a9                	j	af92 <__subsf3+0xba>
    af3a:	30f05963          	blez	a5,b24c <__subsf3+0x374>
    af3e:	ca7d                	beqz	a2,b034 <__subsf3+0x15c>
    af40:	02a90863          	beq	s2,a0,af70 <__subsf3+0x98>
    af44:	04000637          	lui	a2,0x4000
    af48:	8ed1                	or	a3,a3,a2
    af4a:	466d                	li	a2,27
    af4c:	14f65263          	bge	a2,a5,b090 <__subsf3+0x1b8>
    af50:	0705                	addi	a4,a4,1 # 400001 <_data_lma+0x3f3d95>
    af52:	87ca                	mv	a5,s2
    af54:	a88d                	j	afc6 <__subsf3+0xee>
    af56:	f0190793          	addi	a5,s2,-255
    af5a:	e6d5                	bnez	a3,b006 <__subsf3+0x12e>
    af5c:	0015c593          	xori	a1,a1,1
    af60:	0eb48363          	beq	s1,a1,b046 <__subsf3+0x16e>
    af64:	18078d63          	beqz	a5,b0fe <__subsf3+0x226>
    af68:	10090963          	beqz	s2,b07a <__subsf3+0x1a2>
    af6c:	84ae                	mv	s1,a1
    af6e:	8736                	mv	a4,a3
    af70:	830d                	srli	a4,a4,0x3
    af72:	0014f813          	andi	a6,s1,1
    af76:	0ff00513          	li	a0,255
    af7a:	cb3d                	beqz	a4,aff0 <__subsf3+0x118>
    af7c:	4801                	li	a6,0
    af7e:	0ff00513          	li	a0,255
    af82:	00400737          	lui	a4,0x400
    af86:	a0ad                	j	aff0 <__subsf3+0x118>
    af88:	fea904e3          	beq	s2,a0,af70 <__subsf3+0x98>
    af8c:	04000637          	lui	a2,0x4000
    af90:	8ed1                	or	a3,a3,a2
    af92:	45ed                	li	a1,27
    af94:	4605                	li	a2,1
    af96:	00f5cd63          	blt	a1,a5,afb0 <__subsf3+0xd8>
    af9a:	02000613          	li	a2,32
    af9e:	8e1d                	sub	a2,a2,a5
    afa0:	00c69633          	sll	a2,a3,a2
    afa4:	00f6d6b3          	srl	a3,a3,a5
    afa8:	00c037b3          	snez	a5,a2
    afac:	00f6e633          	or	a2,a3,a5
    afb0:	8f11                	sub	a4,a4,a2
    afb2:	040007b7          	lui	a5,0x4000
    afb6:	00f776b3          	and	a3,a4,a5
    afba:	10069463          	bnez	a3,b0c2 <__subsf3+0x1ea>
    afbe:	00777693          	andi	a3,a4,7
    afc2:	87ca                	mv	a5,s2
    afc4:	c2e1                	beqz	a3,b084 <__subsf3+0x1ac>
    afc6:	00f77693          	andi	a3,a4,15
    afca:	4611                	li	a2,4
    afcc:	00c68363          	beq	a3,a2,afd2 <__subsf3+0xfa>
    afd0:	0711                	addi	a4,a4,4 # 400004 <_data_lma+0x3f3d98>
    afd2:	040006b7          	lui	a3,0x4000
    afd6:	8ef9                	and	a3,a3,a4
    afd8:	c6d5                	beqz	a3,b084 <__subsf3+0x1ac>
    afda:	0785                	addi	a5,a5,1 # 4000001 <_data_lma+0x3ff3d95>
    afdc:	0ff00693          	li	a3,255
    afe0:	0014f813          	andi	a6,s1,1
    afe4:	0cd78b63          	beq	a5,a3,b0ba <__subsf3+0x1e2>
    afe8:	071a                	slli	a4,a4,0x6
    afea:	0ff7f513          	zext.b	a0,a5
    afee:	8325                	srli	a4,a4,0x9
    aff0:	40b2                	lw	ra,12(sp)
    aff2:	4422                	lw	s0,8(sp)
    aff4:	055e                	slli	a0,a0,0x17
    aff6:	8d59                	or	a0,a0,a4
    aff8:	01f81793          	slli	a5,a6,0x1f
    affc:	4492                	lw	s1,4(sp)
    affe:	4902                	lw	s2,0(sp)
    b000:	8d5d                	or	a0,a0,a5
    b002:	0141                	addi	sp,sp,16
    b004:	8082                	ret
    b006:	f4b49fe3          	bne	s1,a1,af64 <__subsf3+0x8c>
    b00a:	c3b9                	beqz	a5,b050 <__subsf3+0x178>
    b00c:	1c091163          	bnez	s2,b1ce <__subsf3+0x2f6>
    b010:	0ff00793          	li	a5,255
    b014:	c73d                	beqz	a4,b082 <__subsf3+0x1aa>
    b016:	fff78593          	addi	a1,a5,-1
    b01a:	12058963          	beqz	a1,b14c <__subsf3+0x274>
    b01e:	0ff00513          	li	a0,255
    b022:	1aa78663          	beq	a5,a0,b1ce <__subsf3+0x2f6>
    b026:	47ed                	li	a5,27
    b028:	1ab7db63          	bge	a5,a1,b1de <__subsf3+0x306>
    b02c:	00168713          	addi	a4,a3,1 # 4000001 <_data_lma+0x3ff3d95>
    b030:	87b2                	mv	a5,a2
    b032:	bf51                	j	afc6 <__subsf3+0xee>
    b034:	caa1                	beqz	a3,b084 <__subsf3+0x1ac>
    b036:	fff78613          	addi	a2,a5,-1
    b03a:	10060963          	beqz	a2,b14c <__subsf3+0x274>
    b03e:	f2a789e3          	beq	a5,a0,af70 <__subsf3+0x98>
    b042:	87b2                	mv	a5,a2
    b044:	b719                	j	af4a <__subsf3+0x72>
    b046:	c789                	beqz	a5,b050 <__subsf3+0x178>
    b048:	fc0904e3          	beqz	s2,b010 <__subsf3+0x138>
    b04c:	4701                	li	a4,0
    b04e:	b70d                	j	af70 <__subsf3+0x98>
    b050:	00190793          	addi	a5,s2,1
    b054:	0fe7f613          	andi	a2,a5,254
    b058:	14061563          	bnez	a2,b1a2 <__subsf3+0x2ca>
    b05c:	16091863          	bnez	s2,b1cc <__subsf3+0x2f4>
    b060:	1a070663          	beqz	a4,b20c <__subsf3+0x334>
    b064:	1a069663          	bnez	a3,b210 <__subsf3+0x338>
    b068:	830d                	srli	a4,a4,0x3
    b06a:	4781                	li	a5,0
    b06c:	0726                	slli	a4,a4,0x9
    b06e:	8325                	srli	a4,a4,0x9
    b070:	0ff7f513          	zext.b	a0,a5
    b074:	0014f813          	andi	a6,s1,1
    b078:	bfa5                	j	aff0 <__subsf3+0x118>
    b07a:	0ff00793          	li	a5,255
    b07e:	eb65                	bnez	a4,b16e <__subsf3+0x296>
    b080:	84ae                	mv	s1,a1
    b082:	8736                	mv	a4,a3
    b084:	0ff00693          	li	a3,255
    b088:	830d                	srli	a4,a4,0x3
    b08a:	eed784e3          	beq	a5,a3,af72 <__subsf3+0x9a>
    b08e:	bff9                	j	b06c <__subsf3+0x194>
    b090:	02000613          	li	a2,32
    b094:	8e1d                	sub	a2,a2,a5
    b096:	00c69633          	sll	a2,a3,a2
    b09a:	00c03633          	snez	a2,a2
    b09e:	00f6d6b3          	srl	a3,a3,a5
    b0a2:	8ed1                	or	a3,a3,a2
    b0a4:	9736                	add	a4,a4,a3
    b0a6:	040007b7          	lui	a5,0x4000
    b0aa:	8ff9                	and	a5,a5,a4
    b0ac:	db89                	beqz	a5,afbe <__subsf3+0xe6>
    b0ae:	00190793          	addi	a5,s2,1
    b0b2:	0ff00693          	li	a3,255
    b0b6:	0ad79363          	bne	a5,a3,b15c <__subsf3+0x284>
    b0ba:	0ff00513          	li	a0,255
    b0be:	4701                	li	a4,0
    b0c0:	bf05                	j	aff0 <__subsf3+0x118>
    b0c2:	17fd                	addi	a5,a5,-1 # 3ffffff <_data_lma+0x3ff3d93>
    b0c4:	00f77433          	and	s0,a4,a5
    b0c8:	8522                	mv	a0,s0
    b0ca:	2b55                	jal	b67e <__clzsi2>
    b0cc:	ffb50793          	addi	a5,a0,-5
    b0d0:	00f41433          	sll	s0,s0,a5
    b0d4:	0527ca63          	blt	a5,s2,b128 <__subsf3+0x250>
    b0d8:	412787b3          	sub	a5,a5,s2
    b0dc:	0785                	addi	a5,a5,1
    b0de:	02000713          	li	a4,32
    b0e2:	8f1d                	sub	a4,a4,a5
    b0e4:	00e41733          	sll	a4,s0,a4
    b0e8:	00e03733          	snez	a4,a4
    b0ec:	00f45433          	srl	s0,s0,a5
    b0f0:	8f41                	or	a4,a4,s0
    b0f2:	4781                	li	a5,0
    b0f4:	00777693          	andi	a3,a4,7
    b0f8:	ec0697e3          	bnez	a3,afc6 <__subsf3+0xee>
    b0fc:	bdd9                	j	afd2 <__subsf3+0xfa>
    b0fe:	00190793          	addi	a5,s2,1
    b102:	0fe7f793          	andi	a5,a5,254
    b106:	eb85                	bnez	a5,b136 <__subsf3+0x25e>
    b108:	0a091a63          	bnez	s2,b1bc <__subsf3+0x2e4>
    b10c:	cf65                	beqz	a4,b204 <__subsf3+0x32c>
    b10e:	dea9                	beqz	a3,b068 <__subsf3+0x190>
    b110:	40d707b3          	sub	a5,a4,a3
    b114:	04000637          	lui	a2,0x4000
    b118:	8e7d                	and	a2,a2,a5
    b11a:	10060863          	beqz	a2,b22a <__subsf3+0x352>
    b11e:	40e68733          	sub	a4,a3,a4
    b122:	4781                	li	a5,0
    b124:	84ae                	mv	s1,a1
    b126:	b7f9                	j	b0f4 <__subsf3+0x21c>
    b128:	fc000737          	lui	a4,0xfc000
    b12c:	177d                	addi	a4,a4,-1 # fbffffff <_eusrstack+0xdbffafff>
    b12e:	40f907b3          	sub	a5,s2,a5
    b132:	8f61                	and	a4,a4,s0
    b134:	b7c1                	j	b0f4 <__subsf3+0x21c>
    b136:	40d70433          	sub	s0,a4,a3
    b13a:	040007b7          	lui	a5,0x4000
    b13e:	8fe1                	and	a5,a5,s0
    b140:	e3d1                	bnez	a5,b1c4 <__subsf3+0x2ec>
    b142:	f059                	bnez	s0,b0c8 <__subsf3+0x1f0>
    b144:	4801                	li	a6,0
    b146:	4501                	li	a0,0
    b148:	4701                	li	a4,0
    b14a:	b55d                	j	aff0 <__subsf3+0x118>
    b14c:	9736                	add	a4,a4,a3
    b14e:	040006b7          	lui	a3,0x4000
    b152:	8ef9                	and	a3,a3,a4
    b154:	4789                	li	a5,2
    b156:	4905                	li	s2,1
    b158:	e60683e3          	beqz	a3,afbe <__subsf3+0xe6>
    b15c:	7e000637          	lui	a2,0x7e000
    b160:	00175693          	srli	a3,a4,0x1
    b164:	167d                	addi	a2,a2,-1 # 7dffffff <_eusrstack+0x5dffafff>
    b166:	8b05                	andi	a4,a4,1
    b168:	8ef1                	and	a3,a3,a2
    b16a:	8f55                	or	a4,a4,a3
    b16c:	b761                	j	b0f4 <__subsf3+0x21c>
    b16e:	fff78513          	addi	a0,a5,-1 # 3ffffff <_data_lma+0x3ff3d93>
    b172:	c541                	beqz	a0,b1fa <__subsf3+0x322>
    b174:	0ff00813          	li	a6,255
    b178:	84ae                	mv	s1,a1
    b17a:	05078a63          	beq	a5,a6,b1ce <__subsf3+0x2f6>
    b17e:	45ed                	li	a1,27
    b180:	4785                	li	a5,1
    b182:	00a5cc63          	blt	a1,a0,b19a <__subsf3+0x2c2>
    b186:	02000793          	li	a5,32
    b18a:	8f89                	sub	a5,a5,a0
    b18c:	00f717b3          	sll	a5,a4,a5
    b190:	00a75533          	srl	a0,a4,a0
    b194:	00f037b3          	snez	a5,a5
    b198:	8fc9                	or	a5,a5,a0
    b19a:	40f68733          	sub	a4,a3,a5
    b19e:	8932                	mv	s2,a2
    b1a0:	bd09                	j	afb2 <__subsf3+0xda>
    b1a2:	0ff00613          	li	a2,255
    b1a6:	f0c78ae3          	beq	a5,a2,b0ba <__subsf3+0x1e2>
    b1aa:	96ba                	add	a3,a3,a4
    b1ac:	0016d713          	srli	a4,a3,0x1
    b1b0:	00777613          	andi	a2,a4,7
    b1b4:	e00619e3          	bnez	a2,afc6 <__subsf3+0xee>
    b1b8:	830d                	srli	a4,a4,0x3
    b1ba:	bd4d                	j	b06c <__subsf3+0x194>
    b1bc:	ef11                	bnez	a4,b1d8 <__subsf3+0x300>
    b1be:	da068fe3          	beqz	a3,af7c <__subsf3+0xa4>
    b1c2:	b36d                	j	af6c <__subsf3+0x94>
    b1c4:	40e68433          	sub	s0,a3,a4
    b1c8:	84ae                	mv	s1,a1
    b1ca:	bdfd                	j	b0c8 <__subsf3+0x1f0>
    b1cc:	e711                	bnez	a4,b1d8 <__subsf3+0x300>
    b1ce:	8736                	mv	a4,a3
    b1d0:	b345                	j	af70 <__subsf3+0x98>
    b1d2:	8f15                	sub	a4,a4,a3
    b1d4:	4905                	li	s2,1
    b1d6:	bbf1                	j	afb2 <__subsf3+0xda>
    b1d8:	d8068ce3          	beqz	a3,af70 <__subsf3+0x98>
    b1dc:	b345                	j	af7c <__subsf3+0xa4>
    b1de:	02000793          	li	a5,32
    b1e2:	8f8d                	sub	a5,a5,a1
    b1e4:	00f717b3          	sll	a5,a4,a5
    b1e8:	00b755b3          	srl	a1,a4,a1
    b1ec:	00f037b3          	snez	a5,a5
    b1f0:	8ddd                	or	a1,a1,a5
    b1f2:	00d58733          	add	a4,a1,a3
    b1f6:	8932                	mv	s2,a2
    b1f8:	b57d                	j	b0a6 <__subsf3+0x1ce>
    b1fa:	40e68733          	sub	a4,a3,a4
    b1fe:	84ae                	mv	s1,a1
    b200:	4905                	li	s2,1
    b202:	bb45                	j	afb2 <__subsf3+0xda>
    b204:	d2a1                	beqz	a3,b144 <__subsf3+0x26c>
    b206:	84ae                	mv	s1,a1
    b208:	8736                	mv	a4,a3
    b20a:	bdb9                	j	b068 <__subsf3+0x190>
    b20c:	8736                	mv	a4,a3
    b20e:	bda9                	j	b068 <__subsf3+0x190>
    b210:	9736                	add	a4,a4,a3
    b212:	04000637          	lui	a2,0x4000
    b216:	8e79                	and	a2,a2,a4
    b218:	4781                	li	a5,0
    b21a:	de59                	beqz	a2,b1b8 <__subsf3+0x2e0>
    b21c:	fc0007b7          	lui	a5,0xfc000
    b220:	17fd                	addi	a5,a5,-1 # fbffffff <_eusrstack+0xdbffafff>
    b222:	8f7d                	and	a4,a4,a5
    b224:	830d                	srli	a4,a4,0x3
    b226:	4785                	li	a5,1
    b228:	b591                	j	b06c <__subsf3+0x194>
    b22a:	df89                	beqz	a5,b144 <__subsf3+0x26c>
    b22c:	873e                	mv	a4,a5
    b22e:	830d                	srli	a4,a4,0x3
    b230:	4781                	li	a5,0
    b232:	bd2d                	j	b06c <__subsf3+0x194>
    b234:	ec0785e3          	beqz	a5,b0fe <__subsf3+0x226>
    b238:	41260533          	sub	a0,a2,s2
    b23c:	87aa                	mv	a5,a0
    b23e:	e40900e3          	beqz	s2,b07e <__subsf3+0x1a6>
    b242:	040007b7          	lui	a5,0x4000
    b246:	8f5d                	or	a4,a4,a5
    b248:	84ae                	mv	s1,a1
    b24a:	bf15                	j	b17e <__subsf3+0x2a6>
    b24c:	e00782e3          	beqz	a5,b050 <__subsf3+0x178>
    b250:	412605b3          	sub	a1,a2,s2
    b254:	00091463          	bnez	s2,b25c <__subsf3+0x384>
    b258:	87ae                	mv	a5,a1
    b25a:	bb6d                	j	b014 <__subsf3+0x13c>
    b25c:	040007b7          	lui	a5,0x4000
    b260:	8f5d                	or	a4,a4,a5
    b262:	b3d1                	j	b026 <__subsf3+0x14e>

0000b264 <__unordsf2>:
    b264:	01755693          	srli	a3,a0,0x17
    b268:	00800737          	lui	a4,0x800
    b26c:	177d                	addi	a4,a4,-1 # 7fffff <_data_lma+0x7f3d93>
    b26e:	0175d613          	srli	a2,a1,0x17
    b272:	0ff6f693          	zext.b	a3,a3
    b276:	0ff00813          	li	a6,255
    b27a:	00a777b3          	and	a5,a4,a0
    b27e:	0ff67613          	zext.b	a2,a2
    b282:	8f6d                	and	a4,a4,a1
    b284:	01068b63          	beq	a3,a6,b29a <__unordsf2+0x36>
    b288:	0ff00793          	li	a5,255
    b28c:	4501                	li	a0,0
    b28e:	00f60363          	beq	a2,a5,b294 <__unordsf2+0x30>
    b292:	8082                	ret
    b294:	00e03533          	snez	a0,a4
    b298:	8082                	ret
    b29a:	4505                	li	a0,1
    b29c:	d7f5                	beqz	a5,b288 <__unordsf2+0x24>
    b29e:	8082                	ret

0000b2a0 <__fixsfsi>:
    b2a0:	00800637          	lui	a2,0x800
    b2a4:	01755713          	srli	a4,a0,0x17
    b2a8:	fff60793          	addi	a5,a2,-1 # 7fffff <_data_lma+0x7f3d93>
    b2ac:	0ff77713          	zext.b	a4,a4
    b2b0:	07e00593          	li	a1,126
    b2b4:	00a7f6b3          	and	a3,a5,a0
    b2b8:	01f55793          	srli	a5,a0,0x1f
    b2bc:	00e5db63          	bge	a1,a4,b2d2 <__fixsfsi+0x32>
    b2c0:	09d00593          	li	a1,157
    b2c4:	00e5d963          	bge	a1,a4,b2d6 <__fixsfsi+0x36>
    b2c8:	80000537          	lui	a0,0x80000
    b2cc:	157d                	addi	a0,a0,-1 # 7fffffff <_eusrstack+0x5fffafff>
    b2ce:	953e                	add	a0,a0,a5
    b2d0:	8082                	ret
    b2d2:	4501                	li	a0,0
    b2d4:	8082                	ret
    b2d6:	09500593          	li	a1,149
    b2da:	8ed1                	or	a3,a3,a2
    b2dc:	00e5cd63          	blt	a1,a4,b2f6 <__fixsfsi+0x56>
    b2e0:	09600613          	li	a2,150
    b2e4:	40e60733          	sub	a4,a2,a4
    b2e8:	00e6d6b3          	srl	a3,a3,a4
    b2ec:	40d00533          	neg	a0,a3
    b2f0:	f3f5                	bnez	a5,b2d4 <__fixsfsi+0x34>
    b2f2:	8536                	mv	a0,a3
    b2f4:	8082                	ret
    b2f6:	f6a70713          	addi	a4,a4,-150
    b2fa:	00e696b3          	sll	a3,a3,a4
    b2fe:	b7fd                	j	b2ec <__fixsfsi+0x4c>

0000b300 <__floatsisf>:
    b300:	1141                	addi	sp,sp,-16
    b302:	c606                	sw	ra,12(sp)
    b304:	c422                	sw	s0,8(sp)
    b306:	c226                	sw	s1,4(sp)
    b308:	cd15                	beqz	a0,b344 <__floatsisf+0x44>
    b30a:	41f55713          	srai	a4,a0,0x1f
    b30e:	00a74433          	xor	s0,a4,a0
    b312:	8c19                	sub	s0,s0,a4
    b314:	87aa                	mv	a5,a0
    b316:	8522                	mv	a0,s0
    b318:	01f7d493          	srli	s1,a5,0x1f
    b31c:	268d                	jal	b67e <__clzsi2>
    b31e:	09e00713          	li	a4,158
    b322:	40a707b3          	sub	a5,a4,a0
    b326:	09600713          	li	a4,150
    b32a:	02f74a63          	blt	a4,a5,b35e <__floatsisf+0x5e>
    b32e:	4721                	li	a4,8
    b330:	08e50863          	beq	a0,a4,b3c0 <__floatsisf+0xc0>
    b334:	1561                	addi	a0,a0,-8
    b336:	00a41733          	sll	a4,s0,a0
    b33a:	0726                	slli	a4,a4,0x9
    b33c:	8325                	srli	a4,a4,0x9
    b33e:	0ff7f513          	zext.b	a0,a5
    b342:	a021                	j	b34a <__floatsisf+0x4a>
    b344:	4481                	li	s1,0
    b346:	4501                	li	a0,0
    b348:	4701                	li	a4,0
    b34a:	40b2                	lw	ra,12(sp)
    b34c:	4422                	lw	s0,8(sp)
    b34e:	055e                	slli	a0,a0,0x17
    b350:	01f49793          	slli	a5,s1,0x1f
    b354:	8d59                	or	a0,a0,a4
    b356:	4492                	lw	s1,4(sp)
    b358:	8d5d                	or	a0,a0,a5
    b35a:	0141                	addi	sp,sp,16
    b35c:	8082                	ret
    b35e:	09900713          	li	a4,153
    b362:	04f74363          	blt	a4,a5,b3a8 <__floatsisf+0xa8>
    b366:	4715                	li	a4,5
    b368:	ffb50693          	addi	a3,a0,-5
    b36c:	00e50463          	beq	a0,a4,b374 <__floatsisf+0x74>
    b370:	00d41433          	sll	s0,s0,a3
    b374:	fc0006b7          	lui	a3,0xfc000
    b378:	16fd                	addi	a3,a3,-1 # fbffffff <_eusrstack+0xdbffafff>
    b37a:	00747613          	andi	a2,s0,7
    b37e:	00d47733          	and	a4,s0,a3
    b382:	ce11                	beqz	a2,b39e <__floatsisf+0x9e>
    b384:	883d                	andi	s0,s0,15
    b386:	4611                	li	a2,4
    b388:	00c40b63          	beq	s0,a2,b39e <__floatsisf+0x9e>
    b38c:	0711                	addi	a4,a4,4
    b38e:	04000637          	lui	a2,0x4000
    b392:	8e79                	and	a2,a2,a4
    b394:	c609                	beqz	a2,b39e <__floatsisf+0x9e>
    b396:	09f00793          	li	a5,159
    b39a:	8f75                	and	a4,a4,a3
    b39c:	8f89                	sub	a5,a5,a0
    b39e:	071a                	slli	a4,a4,0x6
    b3a0:	8325                	srli	a4,a4,0x9
    b3a2:	0ff7f513          	zext.b	a0,a5
    b3a6:	b755                	j	b34a <__floatsisf+0x4a>
    b3a8:	01b50713          	addi	a4,a0,27
    b3ac:	4695                	li	a3,5
    b3ae:	00e41733          	sll	a4,s0,a4
    b3b2:	8e89                	sub	a3,a3,a0
    b3b4:	00d45433          	srl	s0,s0,a3
    b3b8:	00e03733          	snez	a4,a4
    b3bc:	8c59                	or	s0,s0,a4
    b3be:	bf5d                	j	b374 <__floatsisf+0x74>
    b3c0:	0426                	slli	s0,s0,0x9
    b3c2:	00945713          	srli	a4,s0,0x9
    b3c6:	09600513          	li	a0,150
    b3ca:	b741                	j	b34a <__floatsisf+0x4a>

0000b3cc <__floatdisf>:
    b3cc:	1141                	addi	sp,sp,-16
    b3ce:	c606                	sw	ra,12(sp)
    b3d0:	c422                	sw	s0,8(sp)
    b3d2:	c226                	sw	s1,4(sp)
    b3d4:	c04a                	sw	s2,0(sp)
    b3d6:	00b56733          	or	a4,a0,a1
    b3da:	c341                	beqz	a4,b45a <__floatdisf+0x8e>
    b3dc:	842e                	mv	s0,a1
    b3de:	84aa                	mv	s1,a0
    b3e0:	01f5d913          	srli	s2,a1,0x1f
    b3e4:	0c05c263          	bltz	a1,b4a8 <__floatdisf+0xdc>
    b3e8:	c459                	beqz	s0,b476 <__floatdisf+0xaa>
    b3ea:	8522                	mv	a0,s0
    b3ec:	2c49                	jal	b67e <__clzsi2>
    b3ee:	0be00713          	li	a4,190
    b3f2:	882a                	mv	a6,a0
    b3f4:	8f09                	sub	a4,a4,a0
    b3f6:	02500793          	li	a5,37
    b3fa:	410787b3          	sub	a5,a5,a6
    b3fe:	fe078693          	addi	a3,a5,-32 # 3ffffe0 <_data_lma+0x3ff3d74>
    b402:	0c06c263          	bltz	a3,b4c6 <__floatdisf+0xfa>
    b406:	00d456b3          	srl	a3,s0,a3
    b40a:	ffb80613          	addi	a2,a6,-5
    b40e:	01b80793          	addi	a5,a6,27
    b412:	0c064463          	bltz	a2,b4da <__floatdisf+0x10e>
    b416:	00c49633          	sll	a2,s1,a2
    b41a:	4781                	li	a5,0
    b41c:	8fd1                	or	a5,a5,a2
    b41e:	00f037b3          	snez	a5,a5
    b422:	8edd                	or	a3,a3,a5
    b424:	fc000637          	lui	a2,0xfc000
    b428:	167d                	addi	a2,a2,-1 # fbffffff <_eusrstack+0xdbffafff>
    b42a:	0076f593          	andi	a1,a3,7
    b42e:	00c6f7b3          	and	a5,a3,a2
    b432:	cd99                	beqz	a1,b450 <__floatdisf+0x84>
    b434:	8abd                	andi	a3,a3,15
    b436:	4591                	li	a1,4
    b438:	00b68c63          	beq	a3,a1,b450 <__floatdisf+0x84>
    b43c:	0791                	addi	a5,a5,4
    b43e:	040006b7          	lui	a3,0x4000
    b442:	8efd                	and	a3,a3,a5
    b444:	c691                	beqz	a3,b450 <__floatdisf+0x84>
    b446:	0bf00513          	li	a0,191
    b44a:	8ff1                	and	a5,a5,a2
    b44c:	41050733          	sub	a4,a0,a6
    b450:	079a                	slli	a5,a5,0x6
    b452:	83a5                	srli	a5,a5,0x9
    b454:	0ff77513          	zext.b	a0,a4
    b458:	a021                	j	b460 <__floatdisf+0x94>
    b45a:	4901                	li	s2,0
    b45c:	4501                	li	a0,0
    b45e:	4781                	li	a5,0
    b460:	40b2                	lw	ra,12(sp)
    b462:	4422                	lw	s0,8(sp)
    b464:	055e                	slli	a0,a0,0x17
    b466:	097e                	slli	s2,s2,0x1f
    b468:	8d5d                	or	a0,a0,a5
    b46a:	4492                	lw	s1,4(sp)
    b46c:	01256533          	or	a0,a0,s2
    b470:	4902                	lw	s2,0(sp)
    b472:	0141                	addi	sp,sp,16
    b474:	8082                	ret
    b476:	8526                	mv	a0,s1
    b478:	2419                	jal	b67e <__clzsi2>
    b47a:	02050813          	addi	a6,a0,32
    b47e:	0be00713          	li	a4,190
    b482:	41070733          	sub	a4,a4,a6
    b486:	09600793          	li	a5,150
    b48a:	86a6                	mv	a3,s1
    b48c:	06e7c363          	blt	a5,a4,b4f2 <__floatdisf+0x126>
    b490:	02800793          	li	a5,40
    b494:	02f80363          	beq	a6,a5,b4ba <__floatdisf+0xee>
    b498:	1561                	addi	a0,a0,-8
    b49a:	00a497b3          	sll	a5,s1,a0
    b49e:	07a6                	slli	a5,a5,0x9
    b4a0:	83a5                	srli	a5,a5,0x9
    b4a2:	0ff77513          	zext.b	a0,a4
    b4a6:	bf6d                	j	b460 <__floatdisf+0x94>
    b4a8:	00a037b3          	snez	a5,a0
    b4ac:	40b00433          	neg	s0,a1
    b4b0:	8c1d                	sub	s0,s0,a5
    b4b2:	40a004b3          	neg	s1,a0
    b4b6:	d061                	beqz	s0,b476 <__floatdisf+0xaa>
    b4b8:	bf0d                	j	b3ea <__floatdisf+0x1e>
    b4ba:	00949793          	slli	a5,s1,0x9
    b4be:	83a5                	srli	a5,a5,0x9
    b4c0:	09600513          	li	a0,150
    b4c4:	bf71                	j	b460 <__floatdisf+0x94>
    b4c6:	46fd                	li	a3,31
    b4c8:	8e9d                	sub	a3,a3,a5
    b4ca:	00141613          	slli	a2,s0,0x1
    b4ce:	00d61633          	sll	a2,a2,a3
    b4d2:	00f4d6b3          	srl	a3,s1,a5
    b4d6:	8ed1                	or	a3,a3,a2
    b4d8:	bf0d                	j	b40a <__floatdisf+0x3e>
    b4da:	467d                	li	a2,31
    b4dc:	8e1d                	sub	a2,a2,a5
    b4de:	0014d593          	srli	a1,s1,0x1
    b4e2:	00c5d5b3          	srl	a1,a1,a2
    b4e6:	00f41633          	sll	a2,s0,a5
    b4ea:	8e4d                	or	a2,a2,a1
    b4ec:	00f497b3          	sll	a5,s1,a5
    b4f0:	b735                	j	b41c <__floatdisf+0x50>
    b4f2:	09900793          	li	a5,153
    b4f6:	f0e7c0e3          	blt	a5,a4,b3f6 <__floatdisf+0x2a>
    b4fa:	02500613          	li	a2,37
    b4fe:	ffb50793          	addi	a5,a0,-5
    b502:	00c80563          	beq	a6,a2,b50c <__floatdisf+0x140>
    b506:	00f496b3          	sll	a3,s1,a5
    b50a:	bf29                	j	b424 <__floatdisf+0x58>
    b50c:	09900713          	li	a4,153
    b510:	bf11                	j	b424 <__floatdisf+0x58>

0000b512 <__truncdfsf2>:
    b512:	0145d793          	srli	a5,a1,0x14
    b516:	7ff7f793          	andi	a5,a5,2047
    b51a:	00c59693          	slli	a3,a1,0xc
    b51e:	00178613          	addi	a2,a5,1
    b522:	82a5                	srli	a3,a3,0x9
    b524:	01d55713          	srli	a4,a0,0x1d
    b528:	7fe67613          	andi	a2,a2,2046
    b52c:	81fd                	srli	a1,a1,0x1f
    b52e:	8ed9                	or	a3,a3,a4
    b530:	00351813          	slli	a6,a0,0x3
    b534:	c205                	beqz	a2,b554 <__truncdfsf2+0x42>
    b536:	c8078613          	addi	a2,a5,-896
    b53a:	0fe00713          	li	a4,254
    b53e:	04c75463          	bge	a4,a2,b586 <__truncdfsf2+0x74>
    b542:	0ff00793          	li	a5,255
    b546:	4701                	li	a4,0
    b548:	07de                	slli	a5,a5,0x17
    b54a:	00e7e533          	or	a0,a5,a4
    b54e:	05fe                	slli	a1,a1,0x1f
    b550:	8d4d                	or	a0,a0,a1
    b552:	8082                	ret
    b554:	0106e733          	or	a4,a3,a6
    b558:	eb89                	bnez	a5,b56a <__truncdfsf2+0x58>
    b55a:	4801                	li	a6,0
    b55c:	cb2d                	beqz	a4,b5ce <__truncdfsf2+0xbc>
    b55e:	0826                	slli	a6,a6,0x9
    b560:	00985713          	srli	a4,a6,0x9
    b564:	0ff7f793          	zext.b	a5,a5
    b568:	b7c5                	j	b548 <__truncdfsf2+0x36>
    b56a:	0ff00793          	li	a5,255
    b56e:	df69                	beqz	a4,b548 <__truncdfsf2+0x36>
    b570:	0ff00793          	li	a5,255
    b574:	00400737          	lui	a4,0x400
    b578:	07de                	slli	a5,a5,0x17
    b57a:	4581                	li	a1,0
    b57c:	00e7e533          	or	a0,a5,a4
    b580:	05fe                	slli	a1,a1,0x1f
    b582:	8d4d                	or	a0,a0,a1
    b584:	8082                	ret
    b586:	04c05c63          	blez	a2,b5de <__truncdfsf2+0xcc>
    b58a:	00651713          	slli	a4,a0,0x6
    b58e:	00e03733          	snez	a4,a4
    b592:	068e                	slli	a3,a3,0x3
    b594:	01d85813          	srli	a6,a6,0x1d
    b598:	8f55                	or	a4,a4,a3
    b59a:	01076733          	or	a4,a4,a6
    b59e:	00777793          	andi	a5,a4,7
    b5a2:	cbe9                	beqz	a5,b674 <__truncdfsf2+0x162>
    b5a4:	00f77793          	andi	a5,a4,15
    b5a8:	4691                	li	a3,4
    b5aa:	0cd78563          	beq	a5,a3,b674 <__truncdfsf2+0x162>
    b5ae:	0711                	addi	a4,a4,4 # 400004 <_data_lma+0x3f3d98>
    b5b0:	040007b7          	lui	a5,0x4000
    b5b4:	8ff9                	and	a5,a5,a4
    b5b6:	c7dd                	beqz	a5,b664 <__truncdfsf2+0x152>
    b5b8:	00160793          	addi	a5,a2,1
    b5bc:	0ff7f793          	zext.b	a5,a5
    b5c0:	4701                	li	a4,0
    b5c2:	07de                	slli	a5,a5,0x17
    b5c4:	00e7e533          	or	a0,a5,a4
    b5c8:	05fe                	slli	a1,a1,0x1f
    b5ca:	8d4d                	or	a0,a0,a1
    b5cc:	8082                	ret
    b5ce:	4781                	li	a5,0
    b5d0:	4701                	li	a4,0
    b5d2:	07de                	slli	a5,a5,0x17
    b5d4:	00e7e533          	or	a0,a5,a4
    b5d8:	05fe                	slli	a1,a1,0x1f
    b5da:	8d4d                	or	a0,a0,a1
    b5dc:	8082                	ret
    b5de:	5725                	li	a4,-23
    b5e0:	fee647e3          	blt	a2,a4,b5ce <__truncdfsf2+0xbc>
    b5e4:	4579                	li	a0,30
    b5e6:	008008b7          	lui	a7,0x800
    b5ea:	8d11                	sub	a0,a0,a2
    b5ec:	477d                	li	a4,31
    b5ee:	0116e6b3          	or	a3,a3,a7
    b5f2:	04a75063          	bge	a4,a0,b632 <__truncdfsf2+0x120>
    b5f6:	5779                	li	a4,-2
    b5f8:	8f11                	sub	a4,a4,a2
    b5fa:	02000613          	li	a2,32
    b5fe:	00e6d733          	srl	a4,a3,a4
    b602:	00c50863          	beq	a0,a2,b612 <__truncdfsf2+0x100>
    b606:	ca278793          	addi	a5,a5,-862 # 3fffca2 <_data_lma+0x3ff3a36>
    b60a:	00f696b3          	sll	a3,a3,a5
    b60e:	00d86833          	or	a6,a6,a3
    b612:	01003833          	snez	a6,a6
    b616:	00e86833          	or	a6,a6,a4
    b61a:	00787793          	andi	a5,a6,7
    b61e:	c7b9                	beqz	a5,b66c <__truncdfsf2+0x15a>
    b620:	00f87793          	andi	a5,a6,15
    b624:	4711                	li	a4,4
    b626:	02e79c63          	bne	a5,a4,b65e <__truncdfsf2+0x14c>
    b62a:	00385813          	srli	a6,a6,0x3
    b62e:	4781                	li	a5,0
    b630:	b73d                	j	b55e <__truncdfsf2+0x4c>
    b632:	c8278793          	addi	a5,a5,-894
    b636:	00f81733          	sll	a4,a6,a5
    b63a:	00f696b3          	sll	a3,a3,a5
    b63e:	00e03733          	snez	a4,a4
    b642:	00a85833          	srl	a6,a6,a0
    b646:	8f55                	or	a4,a4,a3
    b648:	00e86733          	or	a4,a6,a4
    b64c:	00777793          	andi	a5,a4,7
    b650:	4601                	li	a2,0
    b652:	fba9                	bnez	a5,b5a4 <__truncdfsf2+0x92>
    b654:	830d                	srli	a4,a4,0x3
    b656:	18fd                	addi	a7,a7,-1 # 7fffff <_data_lma+0x7f3d93>
    b658:	01177733          	and	a4,a4,a7
    b65c:	b5f5                	j	b548 <__truncdfsf2+0x36>
    b65e:	00480713          	addi	a4,a6,4
    b662:	4601                	li	a2,0
    b664:	00375813          	srli	a6,a4,0x3
    b668:	87b2                	mv	a5,a2
    b66a:	bdd5                	j	b55e <__truncdfsf2+0x4c>
    b66c:	081a                	slli	a6,a6,0x6
    b66e:	00985713          	srli	a4,a6,0x9
    b672:	bdd9                	j	b548 <__truncdfsf2+0x36>
    b674:	071a                	slli	a4,a4,0x6
    b676:	8325                	srli	a4,a4,0x9
    b678:	0ff67793          	zext.b	a5,a2
    b67c:	b5f1                	j	b548 <__truncdfsf2+0x36>

0000b67e <__clzsi2>:
    b67e:	67c1                	lui	a5,0x10
    b680:	02f57663          	bgeu	a0,a5,b6ac <__clzsi2+0x2e>
    b684:	10053793          	sltiu	a5,a0,256
    b688:	0017c793          	xori	a5,a5,1
    b68c:	078e                	slli	a5,a5,0x3
    b68e:	02000713          	li	a4,32
    b692:	8f1d                	sub	a4,a4,a5
    b694:	00f55533          	srl	a0,a0,a5
    b698:	00001797          	auipc	a5,0x1
    b69c:	ad478793          	addi	a5,a5,-1324 # c16c <__clz_tab>
    b6a0:	97aa                	add	a5,a5,a0
    b6a2:	0007c503          	lbu	a0,0(a5)
    b6a6:	40a70533          	sub	a0,a4,a0
    b6aa:	8082                	ret
    b6ac:	010007b7          	lui	a5,0x1000
    b6b0:	02f57063          	bgeu	a0,a5,b6d0 <__clzsi2+0x52>
    b6b4:	47c1                	li	a5,16
    b6b6:	00f55533          	srl	a0,a0,a5
    b6ba:	00001797          	auipc	a5,0x1
    b6be:	ab278793          	addi	a5,a5,-1358 # c16c <__clz_tab>
    b6c2:	97aa                	add	a5,a5,a0
    b6c4:	0007c503          	lbu	a0,0(a5)
    b6c8:	4741                	li	a4,16
    b6ca:	40a70533          	sub	a0,a4,a0
    b6ce:	8082                	ret
    b6d0:	47e1                	li	a5,24
    b6d2:	00f55533          	srl	a0,a0,a5
    b6d6:	00001797          	auipc	a5,0x1
    b6da:	a9678793          	addi	a5,a5,-1386 # c16c <__clz_tab>
    b6de:	97aa                	add	a5,a5,a0
    b6e0:	0007c503          	lbu	a0,0(a5)
    b6e4:	4721                	li	a4,8
    b6e6:	40a70533          	sub	a0,a4,a0
    b6ea:	8082                	ret

0000b6ec <__errno>:
    b6ec:	8241a503          	lw	a0,-2012(gp) # 200018cc <_impure_ptr>
    b6f0:	8082                	ret
    b6f2:	0000                	unimp
    b6f4:	2500                	.2byte	0x2500
    b6f6:	5008                	lw	a0,32(s0)
    b6f8:	6f72                	.2byte	0x6f72
    b6fa:	4320                	lw	s0,64(a4)
    b6fc:	72746e6f          	jal	t3,52622 <_data_lma+0x463b6>
    b700:	656c6c6f          	jal	s8,d1d56 <_data_lma+0xc5aea>
    b704:	0072                	c.slli	zero,0x1c
    b706:	0000                	unimp
    b708:	0000                	unimp
    b70a:	6800                	.2byte	0x6800
    b70c:	051c                	addi	a5,sp,640
    b70e:	0000                	unimp
    b710:	05ae                	slli	a1,a1,0xb
    b712:	0000                	unimp
    b714:	05c4                	addi	s1,sp,708
    b716:	0000                	unimp
    b718:	07c8                	addi	a0,sp,964
    b71a:	0000                	unimp
    b71c:	07c8                	addi	a0,sp,964
    b71e:	0000                	unimp
    b720:	07c8                	addi	a0,sp,964
    b722:	0000                	unimp
    b724:	07c8                	addi	a0,sp,964
    b726:	0000                	unimp
    b728:	07c8                	addi	a0,sp,964
    b72a:	0000                	unimp
    b72c:	053a                	slli	a0,a0,0xe
    b72e:	0000                	unimp
    b730:	0582                	c.slli64	a1
    b732:	0000                	unimp
    b734:	0598                	addi	a4,sp,704
    b736:	0000                	unimp
    b738:	08a4                	addi	s1,sp,88
    b73a:	0000                	unimp
    b73c:	0774                	addi	a3,sp,908
    b73e:	0000                	unimp
    b740:	07c8                	addi	a0,sp,964
    b742:	0000                	unimp
    b744:	080a                	slli	a6,a6,0x2
    b746:	0000                	unimp
    b748:	07c8                	addi	a0,sp,964
    b74a:	0000                	unimp
    b74c:	0728                	addi	a0,sp,904
    b74e:	0000                	unimp
    b750:	05f2                	slli	a1,a1,0x1c
    b752:	0000                	unimp
    b754:	07c8                	addi	a0,sp,964
    b756:	0000                	unimp
    b758:	0748                	addi	a0,sp,900
    b75a:	0000                	unimp
    b75c:	0760                	addi	s0,sp,908
    b75e:	0000                	unimp
    b760:	089e                	slli	a7,a7,0x7
    b762:	0000                	unimp
    b764:	053a                	slli	a0,a0,0xe
    b766:	0000                	unimp
    b768:	6564                	.2byte	0x6564
    b76a:	2076                	.2byte	0x2076
    b76c:	6461                	lui	s0,0x18
    b76e:	7264                	.2byte	0x7264
    b770:	2520                	.2byte	0x2520
    b772:	0d64                	addi	s1,sp,668
    b774:	000a                	c.slli	zero,0x2
    b776:	0000                	unimp
    b778:	7375                	lui	t1,0xffffd
    b77a:	2062                	.2byte	0x2062
    b77c:	70737573          	csrrci	a0,0x707,6
    b780:	6e65                	lui	t3,0x19
    b782:	2064                	.2byte	0x2064
    b784:	6e69                	lui	t3,0x1a
    b786:	6574                	.2byte	0x6574
    b788:	7272                	.2byte	0x7272
    b78a:	7075                	c.lui	zero,0xffffd
    b78c:	2074                	.2byte	0x2074
    b78e:	7270                	.2byte	0x7270
    b790:	7365636f          	jal	t1,61ec6 <_data_lma+0x55c5a>
    b794:	676e6973          	csrrsi	s2,0x676,28
    b798:	000d                	c.nop	3
    b79a:	0000                	unimp
    b79c:	6e69                	lui	t3,0x1a
    b79e:	6574                	.2byte	0x6574
    b7a0:	7672                	.2byte	0x7672
    b7a2:	6c61                	lui	s8,0x18
    b7a4:	2520                	.2byte	0x2520
    b7a6:	2064                	.2byte	0x2064
    b7a8:	6425                	lui	s0,0x9
    b7aa:	0d20                	addi	s0,sp,664
    b7ac:	000a                	c.slli	zero,0x2
    b7ae:	0000                	unimp
    b7b0:	736a                	.2byte	0x736a
    b7b2:	6172                	.2byte	0x6172
    b7b4:	6974                	.2byte	0x6974
    b7b6:	6425206f          	j	5ddf8 <_data_lma+0x51b8c>
    b7ba:	2520                	.2byte	0x2520
    b7bc:	2064                	.2byte	0x2064
    b7be:	6425                	lui	s0,0x9
    b7c0:	2520                	.2byte	0x2520
    b7c2:	0d64                	addi	s1,sp,668
    b7c4:	000a                	c.slli	zero,0x2
    b7c6:	0000                	unimp
    b7c8:	6d61                	lui	s10,0x18
    b7ca:	7270                	.2byte	0x7270
    b7cc:	7461                	lui	s0,0xffff8
    b7ce:	6f69                	lui	t5,0x1a
    b7d0:	2520                	.2byte	0x2520
    b7d2:	2064                	.2byte	0x2064
    b7d4:	6425                	lui	s0,0x9
    b7d6:	2520                	.2byte	0x2520
    b7d8:	2064                	.2byte	0x2064
    b7da:	6425                	lui	s0,0x9
    b7dc:	0a0d                	addi	s4,s4,3
    b7de:	0000                	unimp
    b7e0:	696c6143          	.4byte	0x696c6143
    b7e4:	7262                	.2byte	0x7262
    b7e6:	7461                	lui	s0,0xffff8
    b7e8:	6974                	.2byte	0x6974
    b7ea:	61566e6f          	jal	t3,725fe <_data_lma+0x66392>
    b7ee:	756c                	.2byte	0x756c
    b7f0:	3a65                	jal	b1a8 <__subsf3+0x2d0>
    b7f2:	6425                	lui	s0,0x9
    b7f4:	0a0d                	addi	s4,s4,3
    b7f6:	0000                	unimp
    b7f8:	6f62                	.2byte	0x6f62
    b7fa:	7261                	lui	tp,0xffff8
    b7fc:	5f64                	lw	s1,124(a4)
    b7fe:	7974                	.2byte	0x7974
    b800:	6570                	.2byte	0x6570
    b802:	2520                	.2byte	0x2520
    b804:	0d64                	addi	s1,sp,668
    b806:	000a                	c.slli	zero,0x2
    b808:	20746573          	csrrsi	a0,0x207,8
    b80c:	6f697067          	.4byte	0x6f697067
    b810:	6120                	.2byte	0x6120
    b812:	2520                	.2byte	0x2520
    b814:	0d64                	addi	s1,sp,668
    b816:	000a                	c.slli	zero,0x2
    b818:	20746573          	csrrsi	a0,0x207,8
    b81c:	6f697067          	.4byte	0x6f697067
    b820:	6220                	.2byte	0x6220
    b822:	2520                	.2byte	0x2520
    b824:	0d64                	addi	s1,sp,668
    b826:	000a                	c.slli	zero,0x2
    b828:	20746573          	csrrsi	a0,0x207,8
    b82c:	6f697067          	.4byte	0x6f697067
    b830:	6320                	.2byte	0x6320
    b832:	2520                	.2byte	0x2520
    b834:	0d64                	addi	s1,sp,668
    b836:	000a                	c.slli	zero,0x2
    b838:	65766177          	.4byte	0x65766177
    b83c:	6f66                	.2byte	0x6f66
    b83e:	6d72                	.2byte	0x6d72
    b840:	7020                	.2byte	0x7020
    b842:	7375                	lui	t1,0xffffd
    b844:	2068                	.2byte	0x2068
    b846:	7265                	lui	tp,0xffff9
    b848:	6f72                	.2byte	0x6f72
    b84a:	2072                	.2byte	0x2072
    b84c:	6572                	.2byte	0x6572
    b84e:	64253a73          	csrrc	s4,0x642,a0
    b852:	0a0d                	addi	s4,s4,3
    b854:	0000                	unimp
    b856:	0000                	unimp
    b858:	6572                	.2byte	0x6572
    b85a:	20746573          	csrrsi	a0,0x207,8
    b85e:	3a706167          	.4byte	0x3a706167
    b862:	6425                	lui	s0,0x9
    b864:	0a0d                	addi	s4,s4,3
    b866:	0000                	unimp
    b868:	3269                	jal	b1f2 <__subsf3+0x31a>
    b86a:	65722063          	.4byte	0x65722063
    b86e:	20746573          	csrrsi	a0,0x207,8
    b872:	72617473          	csrrci	s0,0x726,2
    b876:	2074                	.2byte	0x2074
    b878:	7562                	.2byte	0x7562
    b87a:	66207973          	csrrci	s2,0x662,0
    b87e:	616c                	.2byte	0x616c
    b880:	64253a67          	.4byte	0x64253a67
    b884:	6520                	.2byte	0x6520
    b886:	65646f63          	bltu	s0,s6,bee4 <__errno+0x7f8>
    b88a:	253a                	.2byte	0x253a
    b88c:	0d64                	addi	s1,sp,668
    b88e:	000a                	c.slli	zero,0x2
    b890:	3269                	jal	b21a <__subsf3+0x342>
    b892:	65722063          	.4byte	0x65722063
    b896:	20746573          	csrrsi	a0,0x207,8
    b89a:	63637573          	csrrci	a0,0x636,6
    b89e:	7365                	lui	t1,0xffff9
    b8a0:	00000d73          	.4byte	0xd73
    b8a4:	3269                	jal	b22e <__subsf3+0x356>
    b8a6:	65722063          	.4byte	0x65722063
    b8aa:	20746573          	csrrsi	a0,0x207,8
    b8ae:	7562                	.2byte	0x7562
    b8b0:	66207973          	csrrci	s2,0x662,0
    b8b4:	616c                	.2byte	0x616c
    b8b6:	64253a67          	.4byte	0x64253a67
    b8ba:	0a0d                	addi	s4,s4,3
    b8bc:	0000                	unimp
    b8be:	0000                	unimp
    b8c0:	3269                	jal	b24a <__subsf3+0x372>
    b8c2:	6c732063          	.4byte	0x6c732063
    b8c6:	6565                	lui	a0,0x19
    b8c8:	2070                	.2byte	0x2070
    b8ca:	6425                	lui	s0,0x9
    b8cc:	0a0d                	addi	s4,s4,3
    b8ce:	0000                	unimp
    b8d0:	3269                	jal	b25a <__subsf3+0x382>
    b8d2:	65722063          	.4byte	0x65722063
    b8d6:	72617473          	csrrci	s0,0x726,2
    b8da:	2074                	.2byte	0x2074
    b8dc:	6166                	.2byte	0x6166
    b8de:	6c69                	lui	s8,0x1a
    b8e0:	642c                	.2byte	0x642c
    b8e2:	7369                	lui	t1,0xffffa
    b8e4:	6261                	lui	tp,0x18
    b8e6:	656c                	.2byte	0x656c
    b8e8:	6920                	.2byte	0x6920
    b8ea:	6332                	.2byte	0x6332
    b8ec:	000d                	c.nop	3
    b8ee:	0000                	unimp
    b8f0:	3269                	jal	b27a <__unordsf2+0x16>
    b8f2:	6e692063          	.4byte	0x6e692063
    b8f6:	7469                	lui	s0,0xffffa
    b8f8:	000d                	c.nop	3
    b8fa:	0000                	unimp
    b8fc:	3269                	jal	b286 <__unordsf2+0x22>
    b8fe:	6e692063          	.4byte	0x6e692063
    b902:	7469                	lui	s0,0xffffa
    b904:	7220                	.2byte	0x7220
    b906:	7461                	lui	s0,0xffff8
    b908:	3a65                	jal	b2c0 <__fixsfsi+0x20>
    b90a:	6425                	lui	s0,0x9
    b90c:	0a0d                	addi	s4,s4,3
    b90e:	0000                	unimp
    b910:	3269                	jal	b29a <__unordsf2+0x36>
    b912:	75622063          	.4byte	0x75622063
    b916:	66207973          	csrrci	s2,0x662,0
    b91a:	616c                	.2byte	0x616c
    b91c:	64253a67          	.4byte	0x64253a67
    b920:	0a0d                	addi	s4,s4,3
    b922:	0000                	unimp
    b924:	3269                	jal	b2ae <__fixsfsi+0xe>
    b926:	6e695f63          	bge	s2,t1,c024 <MyProdInfo+0x20>
    b92a:	7469                	lui	s0,0xffffa
    b92c:	6620                	.2byte	0x6620
    b92e:	6961                	lui	s2,0x18
    b930:	206c                	.2byte	0x206c
    b932:	6425                	lui	s0,0x9
    b934:	0a0d                	addi	s4,s4,3
    b936:	0000                	unimp
    b938:	3269                	jal	b2c2 <__fixsfsi+0x22>
    b93a:	69203263          	.4byte	0x69203263
    b93e:	696e                	.2byte	0x696e
    b940:	2074                	.2byte	0x2074
    b942:	6166                	.2byte	0x6166
    b944:	6c69                	lui	s8,0x1a
    b946:	722c                	.2byte	0x722c
    b948:	7465                	lui	s0,0xffff9
    b94a:	7972                	.2byte	0x7972
    b94c:	7220                	.2byte	0x7220
    b94e:	7365                	lui	t1,0xffff9
    b950:	7465                	lui	s0,0xffff9
    b952:	6e20                	.2byte	0x6e20
    b954:	6120746f          	jal	s0,12f66 <_data_lma+0x6cfa>
    b958:	6c6c                	.2byte	0x6c6c
    b95a:	6465776f          	jal	a4,62fa0 <_data_lma+0x56d34>
    b95e:	000d                	c.nop	3
    b960:	7265                	lui	tp,0xffff9
    b962:	6f72                	.2byte	0x6f72
    b964:	7272                	.2byte	0x7272
    b966:	6c20                	.2byte	0x6c20
    b968:	6e65                	lui	t3,0x19
    b96a:	6d20                	.2byte	0x6d20
    b96c:	6c75                	lui	s8,0x1d
    b96e:	6974                	.2byte	0x6974
    b970:	6220                	.2byte	0x6220
    b972:	7479                	lui	s0,0xffffe
    b974:	2065                	jal	ba1c <__errno+0x330>
    b976:	6f74                	.2byte	0x6f74
    b978:	3a74                	.2byte	0x3a74
    b97a:	6425                	lui	s0,0x9
    b97c:	6c20                	.2byte	0x6c20
    b97e:	6e65                	lui	t3,0x19
    b980:	253a                	.2byte	0x253a
    b982:	0d64                	addi	s1,sp,668
    b984:	000a                	c.slli	zero,0x2
    b986:	0000                	unimp
    b988:	6d69                	lui	s10,0x1a
    b98a:	2075                	jal	ba36 <__errno+0x34a>
    b98c:	74617473          	csrrci	s0,0x746,2
    b990:	7375                	lui	t1,0xffffd
    b992:	7220                	.2byte	0x7220
    b994:	6165                	addi	sp,sp,112
    b996:	2064                	.2byte	0x2064
    b998:	6166                	.2byte	0x6166
    b99a:	6c69                	lui	s8,0x1a
    b99c:	692c                	.2byte	0x692c
    b99e:	6332                	.2byte	0x6332
    b9a0:	6520                	.2byte	0x6520
    b9a2:	7272                	.2byte	0x7272
    b9a4:	6320726f          	jal	tp,12fd6 <_data_lma+0x6d6a>
    b9a8:	3a65646f          	jal	s0,61d4e <_data_lma+0x55ae2>
    b9ac:	6425                	lui	s0,0x9
    b9ae:	0a0d                	addi	s4,s4,3
    b9b0:	0000                	unimp
    b9b2:	0000                	unimp
    b9b4:	5f746573          	csrrsi	a0,0x5f7,8
    b9b8:	6d69                	lui	s10,0x1a
    b9ba:	5f75                	li	t5,-3
    b9bc:	7761                	lui	a4,0xffff8
    b9be:	6b61                	lui	s6,0x18
    b9c0:	2065                	jal	ba68 <__errno+0x37c>
    b9c2:	0d31                	addi	s10,s10,12 # 1a00c <_data_lma+0xdda0>
    b9c4:	0000                	unimp
    b9c6:	0000                	unimp
    b9c8:	5f746573          	csrrsi	a0,0x5f7,8
    b9cc:	6d69                	lui	s10,0x1a
    b9ce:	5f75                	li	t5,-3
    b9d0:	7761                	lui	a4,0xffff8
    b9d2:	6b61                	lui	s6,0x18
    b9d4:	2065                	jal	ba7c <__errno+0x390>
    b9d6:	64252037          	lui	zero,0x64252
    b9da:	0a0d                	addi	s4,s4,3
    b9dc:	0000                	unimp
    b9de:	0000                	unimp
    b9e0:	5f746573          	csrrsi	a0,0x5f7,8
    b9e4:	6d69                	lui	s10,0x1a
    b9e6:	5f75                	li	t5,-3
    b9e8:	7761                	lui	a4,0xffff8
    b9ea:	6b61                	lui	s6,0x18
    b9ec:	2065                	jal	ba94 <__errno+0x3a8>
    b9ee:	2032                	.2byte	0x2032
    b9f0:	6425                	lui	s0,0x9
    b9f2:	0a0d                	addi	s4,s4,3
    b9f4:	0000                	unimp
    b9f6:	0000                	unimp
    b9f8:	5f746573          	csrrsi	a0,0x5f7,8
    b9fc:	6d69                	lui	s10,0x1a
    b9fe:	5f75                	li	t5,-3
    ba00:	7761                	lui	a4,0xffff8
    ba02:	6b61                	lui	s6,0x18
    ba04:	2065                	jal	baac <__errno+0x3c0>
    ba06:	64252033          	.4byte	0x64252033
    ba0a:	0a0d                	addi	s4,s4,3
    ba0c:	0000                	unimp
    ba0e:	0000                	unimp
    ba10:	5f746573          	csrrsi	a0,0x5f7,8
    ba14:	6d69                	lui	s10,0x1a
    ba16:	5f75                	li	t5,-3
    ba18:	7761                	lui	a4,0xffff8
    ba1a:	6b61                	lui	s6,0x18
    ba1c:	2065                	jal	bac4 <__errno+0x3d8>
    ba1e:	2036                	.2byte	0x2036
    ba20:	6425                	lui	s0,0x9
    ba22:	0a0d                	addi	s4,s4,3
    ba24:	0000                	unimp
    ba26:	0000                	unimp
    ba28:	5f746573          	csrrsi	a0,0x5f7,8
    ba2c:	6d69                	lui	s10,0x1a
    ba2e:	5f75                	li	t5,-3
    ba30:	7761                	lui	a4,0xffff8
    ba32:	6b61                	lui	s6,0x18
    ba34:	2065                	jal	badc <__errno+0x3f0>
    ba36:	2038                	.2byte	0x2038
    ba38:	6425                	lui	s0,0x9
    ba3a:	0a0d                	addi	s4,s4,3
    ba3c:	0000                	unimp
    ba3e:	0000                	unimp
    ba40:	5f746573          	csrrsi	a0,0x5f7,8
    ba44:	6d69                	lui	s10,0x1a
    ba46:	5f75                	li	t5,-3
    ba48:	7761                	lui	a4,0xffff8
    ba4a:	6b61                	lui	s6,0x18
    ba4c:	2065                	jal	baf4 <__errno+0x408>
    ba4e:	2039                	jal	ba5c <__errno+0x370>
    ba50:	6425                	lui	s0,0x9
    ba52:	0a0d                	addi	s4,s4,3
    ba54:	0000                	unimp
    ba56:	0000                	unimp
    ba58:	5f746573          	csrrsi	a0,0x5f7,8
    ba5c:	6d69                	lui	s10,0x1a
    ba5e:	5f75                	li	t5,-3
    ba60:	7761                	lui	a4,0xffff8
    ba62:	6b61                	lui	s6,0x18
    ba64:	2065                	jal	bb0c <__errno+0x420>
    ba66:	3031                	jal	b272 <__unordsf2+0xe>
    ba68:	2520                	.2byte	0x2520
    ba6a:	0d64                	addi	s1,sp,668
    ba6c:	000a                	c.slli	zero,0x2
    ba6e:	0000                	unimp
    ba70:	5f746573          	csrrsi	a0,0x5f7,8
    ba74:	6d69                	lui	s10,0x1a
    ba76:	5f75                	li	t5,-3
    ba78:	7761                	lui	a4,0xffff8
    ba7a:	6b61                	lui	s6,0x18
    ba7c:	2065                	jal	bb24 <__errno+0x438>
    ba7e:	3131                	jal	b68a <__clzsi2+0xc>
    ba80:	2520                	.2byte	0x2520
    ba82:	0d64                	addi	s1,sp,668
    ba84:	000a                	c.slli	zero,0x2
    ba86:	0000                	unimp
    ba88:	5f746573          	csrrsi	a0,0x5f7,8
    ba8c:	6d69                	lui	s10,0x1a
    ba8e:	5f75                	li	t5,-3
    ba90:	7761                	lui	a4,0xffff8
    ba92:	6b61                	lui	s6,0x18
    ba94:	2065                	jal	bb3c <__errno+0x450>
    ba96:	3231                	jal	b3a2 <__floatsisf+0xa2>
    ba98:	2520                	.2byte	0x2520
    ba9a:	0d64                	addi	s1,sp,668
    ba9c:	000a                	c.slli	zero,0x2
    ba9e:	0000                	unimp
    baa0:	5f746573          	csrrsi	a0,0x5f7,8
    baa4:	6d69                	lui	s10,0x1a
    baa6:	5f75                	li	t5,-3
    baa8:	7761                	lui	a4,0xffff8
    baaa:	6b61                	lui	s6,0x18
    baac:	2065                	jal	bb54 <__errno+0x468>
    baae:	3331                	jal	b7ba <__errno+0xce>
    bab0:	2520                	.2byte	0x2520
    bab2:	0d64                	addi	s1,sp,668
    bab4:	000a                	c.slli	zero,0x2
    bab6:	0000                	unimp
    bab8:	7265                	lui	tp,0xffff9
    baba:	6f72                	.2byte	0x6f72
    babc:	2072                	.2byte	0x2072
    babe:	25206e6f          	jal	t3,11d10 <_data_lma+0x5aa4>
    bac2:	0d64                	addi	s1,sp,668
    bac4:	000a                	c.slli	zero,0x2
    bac6:	0000                	unimp
    bac8:	6d69                	lui	s10,0x1a
    baca:	2075                	jal	bb76 <__errno+0x48a>
    bacc:	6572                	.2byte	0x6572
    bace:	6461                	lui	s0,0x18
    bad0:	7320                	.2byte	0x7320
    bad2:	6174                	.2byte	0x6174
    bad4:	7472                	.2byte	0x7472
    bad6:	000d                	c.nop	3
    bad8:	6d69                	lui	s10,0x1a
    bada:	2075                	jal	bb86 <__errno+0x49a>
    badc:	6469                	lui	s0,0x1a
    bade:	303a                	.2byte	0x303a
    bae0:	2578                	.2byte	0x2578
    bae2:	3230                	.2byte	0x3230
    bae4:	2078                	.2byte	0x2078
    bae6:	722c                	.2byte	0x722c
    bae8:	7365                	lui	t1,0xffff9
    baea:	253a                	.2byte	0x253a
    baec:	0d64                	addi	s1,sp,668
    baee:	000a                	c.slli	zero,0x2
    baf0:	6f74                	.2byte	0x6f74
    baf2:	2070                	.2byte	0x2070
    baf4:	7274                	.2byte	0x7274
    baf6:	6769                	lui	a4,0x1a
    baf8:	65726567          	.4byte	0x65726567
    bafc:	2064                	.2byte	0x2064
    bafe:	616c                	.2byte	0x616c
    bb00:	63207473          	csrrci	s0,0x632,0
    bb04:	746e                	.2byte	0x746e
    bb06:	253a                	.2byte	0x253a
    bb08:	0d64                	addi	s1,sp,668
    bb0a:	000a                	c.slli	zero,0x2
    bb0c:	7365                	lui	t1,0xffff9
    bb0e:	3370                	.2byte	0x3370
    bb10:	5f32                	lw	t5,44(sp)
    bb12:	6e6e6f63          	bltu	t3,t1,c210 <__clz_tab+0xa4>
    bb16:	6365                	lui	t1,0x19
    bb18:	3a74                	.2byte	0x3a74
    bb1a:	6425                	lui	s0,0x9
    bb1c:	0a0d                	addi	s4,s4,3
    bb1e:	0000                	unimp
    bb20:	4155                	li	sp,21
    bb22:	5452                	lw	s0,52(sp)
    bb24:	5f31                	li	t5,-20
    bb26:	7854                	.2byte	0x7854
    bb28:	465f 616c 3a67      	.byte	0x5f, 0x46, 0x6c, 0x61, 0x67, 0x3a
    bb2e:	6425                	lui	s0,0x9
    bb30:	0a0d                	addi	s4,s4,3
    bb32:	0000                	unimp
    bb34:	6572                	.2byte	0x6572
    bb36:	64253a73          	csrrc	s4,0x642,a0
    bb3a:	7320                	.2byte	0x7320
    bb3c:	7a69                	lui	s4,0xffffa
    bb3e:	253a                	.2byte	0x253a
    bb40:	2064                	.2byte	0x2064
    bb42:	3a706163          	bltu	zero,t2,bee4 <__errno+0x7f8>
    bb46:	6425                	lui	s0,0x9
    bb48:	6620                	.2byte	0x6620
    bb4a:	6c75                	lui	s8,0x1d
    bb4c:	3a6c                	.2byte	0x3a6c
    bb4e:	6425                	lui	s0,0x9
    bb50:	0a0d                	addi	s4,s4,3 # ffffa003 <_eusrstack+0xdfff5003>
    bb52:	0000                	unimp
    bb54:	3269                	jal	b4de <__floatdisf+0x112>
    bb56:	72652063          	.4byte	0x72652063
    bb5a:	6f72                	.2byte	0x6f72
    bb5c:	2072                	.2byte	0x2072
    bb5e:	65646f63          	bltu	s0,s6,c1bc <__clz_tab+0x50>
    bb62:	253a                	.2byte	0x253a
    bb64:	0d64                	addi	s1,sp,668
    bb66:	000a                	c.slli	zero,0x2
    bb68:	6461                	lui	s0,0x18
    bb6a:	64253a63          	.4byte	0x64253a63
    bb6e:	2520                	.2byte	0x2520
    bb70:	0d64                	addi	s1,sp,668
    bb72:	000a                	c.slli	zero,0x2
    bb74:	3269                	jal	b4fe <__floatdisf+0x132>
    bb76:	74732063          	.4byte	0x74732063
    bb7a:	7461                	lui	s0,0xffff8
    bb7c:	7375                	lui	t1,0xffffd
    bb7e:	253a                	.2byte	0x253a
    bb80:	0d64                	addi	s1,sp,668
    bb82:	000a                	c.slli	zero,0x2
    bb84:	0a0d                	addi	s4,s4,3
    bb86:	0a0d                	addi	s4,s4,3
    bb88:	5250                	lw	a2,36(a2)
    bb8a:	4e4f434f          	.4byte	0x4e4f434f
    bb8e:	5020                	lw	s0,96(s0)
    bb90:	4f52                	lw	t5,20(sp)
    bb92:	454a                	lw	a0,144(sp)
    bb94:	000d5443          	.4byte	0xd5443
    bb98:	4352                	lw	t1,20(sp)
    bb9a:	65475f43          	.4byte	0x65475f43
    bb9e:	4374                	lw	a3,68(a4)
    bba0:	6f6c                	.2byte	0x6f6c
    bba2:	46736b63          	bltu	t1,t2,c018 <MyProdInfo+0x14>
    bba6:	6572                	.2byte	0x6572
    bba8:	3a71                	jal	b544 <__truncdfsf2+0x32>
    bbaa:	6425                	lui	s0,0x9
    bbac:	2520                	.2byte	0x2520
    bbae:	2064                	.2byte	0x2064
    bbb0:	6425                	lui	s0,0x9
    bbb2:	2520                	.2byte	0x2520
    bbb4:	0d64                	addi	s1,sp,668
    bbb6:	000a                	c.slli	zero,0x2
    bbb8:	6e69                	lui	t3,0x1a
    bbba:	7469                	lui	s0,0xffffa
    bbbc:	6120                	.2byte	0x6120
    bbbe:	6c6c                	.2byte	0x6c6c
    bbc0:	2520                	.2byte	0x2520
    bbc2:	0d64                	addi	s1,sp,668
    bbc4:	000a                	c.slli	zero,0x2
    bbc6:	0000                	unimp
    bbc8:	3d2c                	.2byte	0x3d2c
    bbca:	0000                	unimp
    bbcc:	3d3e                	.2byte	0x3d3e
    bbce:	0000                	unimp
    bbd0:	3d96                	.2byte	0x3d96
    bbd2:	0000                	unimp
    bbd4:	3d96                	.2byte	0x3d96
    bbd6:	0000                	unimp
    bbd8:	3d96                	.2byte	0x3d96
    bbda:	0000                	unimp
    bbdc:	3d96                	.2byte	0x3d96
    bbde:	0000                	unimp
    bbe0:	3d96                	.2byte	0x3d96
    bbe2:	0000                	unimp
    bbe4:	3dce                	.2byte	0x3dce
    bbe6:	0000                	unimp
    bbe8:	3d92                	.2byte	0x3d92
    bbea:	0000                	unimp
    bbec:	3d92                	.2byte	0x3d92
    bbee:	0000                	unimp
    bbf0:	3d92                	.2byte	0x3d92
    bbf2:	0000                	unimp
    bbf4:	3d92                	.2byte	0x3d92
    bbf6:	0000                	unimp
    bbf8:	3dea                	.2byte	0x3dea
    bbfa:	0000                	unimp
    bbfc:	3d92                	.2byte	0x3d92
    bbfe:	0000                	unimp
    bc00:	3df8                	.2byte	0x3df8
    bc02:	0000                	unimp
    bc04:	3e02                	.2byte	0x3e02
    bc06:	0000                	unimp
    bc08:	646e6573          	csrrsi	a0,0x646,28
    bc0c:	6720                	.2byte	0x6720
    bc0e:	7465                	lui	s0,0xffff9
    bc10:	6220                	.2byte	0x6220
    bc12:	2064                	.2byte	0x2064
    bc14:	6461                	lui	s0,0x18
    bc16:	7264                	.2byte	0x7264
    bc18:	6320                	.2byte	0x6320
    bc1a:	646d                	lui	s0,0x1b
    bc1c:	000d                	c.nop	3
    bc1e:	0000                	unimp
    bc20:	646e6573          	csrrsi	a0,0x646,28
    bc24:	6720                	.2byte	0x6720
    bc26:	7465                	lui	s0,0xffff9
    bc28:	2020                	.2byte	0x2020
    bc2a:	2020                	.2byte	0x2020
    bc2c:	6220                	.2byte	0x6220
    bc2e:	2074                	.2byte	0x2074
    bc30:	746c                	.2byte	0x746c
    bc32:	6d63206b          	.4byte	0x6d63206b
    bc36:	0d64                	addi	s1,sp,668
    bc38:	0000                	unimp
    bc3a:	0000                	unimp
    bc3c:	74737953          	.4byte	0x74737953
    bc40:	6d65                	lui	s10,0x19
    bc42:	3a6b6c43          	.4byte	0x3a6b6c43
    bc46:	6425                	lui	s0,0x9
    bc48:	0a0d                	addi	s4,s4,3
    bc4a:	0000                	unimp
    bc4c:	6e69                	lui	t3,0x1a
    bc4e:	7469                	lui	s0,0xffffa
    bc50:	6620                	.2byte	0x6620
    bc52:	6e69                	lui	t3,0x1a
    bc54:	000d                	c.nop	3
    bc56:	0000                	unimp
    bc58:	6d69                	lui	s10,0x1a
    bc5a:	2075                	jal	bd06 <__errno+0x61a>
    bc5c:	20746573          	csrrsi	a0,0x207,8
    bc60:	6572                	.2byte	0x6572
    bc62:	64612067          	.4byte	0x64612067
    bc66:	7264                	.2byte	0x7264
    bc68:	253a                	.2byte	0x253a
    bc6a:	2064                	.2byte	0x2064
    bc6c:	6176                	.2byte	0x6176
    bc6e:	756c                	.2byte	0x756c
    bc70:	3a65                	jal	b628 <__truncdfsf2+0x116>
    bc72:	6425                	lui	s0,0x9
    bc74:	0a0d                	addi	s4,s4,3
    bc76:	0000                	unimp
    bc78:	6170                	.2byte	0x6170
    bc7a:	7269                	lui	tp,0xffffa
    bc7c:	6220                	.2byte	0x6220
    bc7e:	2079                	jal	bd0c <__errno+0x620>
    bc80:	65726977          	.4byte	0x65726977
    bc84:	7320                	.2byte	0x7320
    bc86:	6275                	lui	tp,0x1d
    bc88:	64692063          	.4byte	0x64692063
    bc8c:	253a                	.2byte	0x253a
    bc8e:	2064                	.2byte	0x2064
    bc90:	2009                	jal	bc92 <__errno+0x5a6>
    bc92:	7974                	.2byte	0x7974
    bc94:	3a70                	.2byte	0x3a70
    bc96:	6425                	lui	s0,0x9
    bc98:	0a0d                	addi	s4,s4,3
    bc9a:	0000                	unimp
    bc9c:	7830                	.2byte	0x7830
    bc9e:	3025                	jal	b4c6 <__floatdisf+0xfa>
    bca0:	7832                	.2byte	0x7832
    bca2:	0020                	addi	s0,sp,8
    bca4:	20746573          	csrrsi	a0,0x207,8
    bca8:	6e69                	lui	t3,0x1a
    bcaa:	7570                	.2byte	0x7570
    bcac:	2074                	.2byte	0x2074
    bcae:	6f6d                	lui	t5,0x1b
    bcb0:	6564                	.2byte	0x6564
    bcb2:	303a                	.2byte	0x303a
    bcb4:	2578                	.2byte	0x2578
    bcb6:	3230                	.2byte	0x3230
    bcb8:	2078                	.2byte	0x2078
    bcba:	0a0d                	addi	s4,s4,3
    bcbc:	0000                	unimp
    bcbe:	0000                	unimp
    bcc0:	20697073          	csrci	0x206,18
    bcc4:	6572                	.2byte	0x6572
    bcc6:	6461                	lui	s0,0x18
    bcc8:	000d                	c.nop	3
    bcca:	0000                	unimp
    bccc:	20697073          	csrci	0x206,18
    bcd0:	6572                	.2byte	0x6572
    bcd2:	6461                	lui	s0,0x18
    bcd4:	6120                	.2byte	0x6120
    bcd6:	6464                	.2byte	0x6464
    bcd8:	2072                	.2byte	0x2072
    bcda:	7830                	.2byte	0x7830
    bcdc:	3025                	jal	b504 <__floatdisf+0x138>
    bcde:	7838                	.2byte	0x7838
    bce0:	0a0d                	addi	s4,s4,3
    bce2:	0000                	unimp
    bce4:	5f495053          	.4byte	0x5f495053
    bce8:	4552                	lw	a0,20(sp)
    bcea:	4441                	li	s0,16
    bcec:	3a20                	.2byte	0x3a20
    bcee:	7830                	.2byte	0x7830
    bcf0:	3025                	jal	b518 <__truncdfsf2+0x6>
    bcf2:	7832                	.2byte	0x7832
    bcf4:	302c                	.2byte	0x302c
    bcf6:	2578                	.2byte	0x2578
    bcf8:	3230                	.2byte	0x3230
    bcfa:	2c78                	.2byte	0x2c78
    bcfc:	7830                	.2byte	0x7830
    bcfe:	3025                	jal	b526 <__truncdfsf2+0x14>
    bd00:	7832                	.2byte	0x7832
    bd02:	302c                	.2byte	0x302c
    bd04:	2578                	.2byte	0x2578
    bd06:	3230                	.2byte	0x3230
    bd08:	2c78                	.2byte	0x2c78
    bd0a:	7320                	.2byte	0x7320
    bd0c:	7a69                	lui	s4,0xffffa
    bd0e:	3a65                	jal	b6c6 <__clzsi2+0x48>
    bd10:	7830                	.2byte	0x7830
    bd12:	3025                	jal	b53a <__truncdfsf2+0x28>
    bd14:	7832                	.2byte	0x7832
    bd16:	0a0d                	addi	s4,s4,3 # ffffa003 <_eusrstack+0xdfff5003>
    bd18:	0000                	unimp
    bd1a:	0000                	unimp
    bd1c:	20697073          	csrci	0x206,18
    bd20:	74697277          	.4byte	0x74697277
    bd24:	2065                	jal	bdcc <__errno+0x6e0>
    bd26:	6461                	lui	s0,0x18
    bd28:	7264                	.2byte	0x7264
    bd2a:	253a                	.2byte	0x253a
    bd2c:	2064                	.2byte	0x2064
    bd2e:	657a6973          	csrrsi	s2,0x657,20
    bd32:	253a                	.2byte	0x253a
    bd34:	0d64                	addi	s1,sp,668
    bd36:	000a                	c.slli	zero,0x2
    bd38:	20746573          	csrrsi	a0,0x207,8
    bd3c:	6d69                	lui	s10,0x1a
    bd3e:	2075                	jal	bdea <__errno+0x6fe>
    bd40:	74617473          	csrrci	s0,0x746,2
    bd44:	3a65                	jal	b6fc <__errno+0x10>
    bd46:	6425                	lui	s0,0x9
    bd48:	0a0d                	addi	s4,s4,3
    bd4a:	0000                	unimp
    bd4c:	20746573          	csrrsi	a0,0x207,8
    bd50:	6d69                	lui	s10,0x1a
    bd52:	2075                	jal	bdfe <__errno+0x712>
    bd54:	6f6d                	lui	t5,0x1b
    bd56:	6564                	.2byte	0x6564
    bd58:	7420                	.2byte	0x7420
    bd5a:	64253a6f          	jal	s4,5f39c <_data_lma+0x53130>
    bd5e:	0a0d                	addi	s4,s4,3
    bd60:	0000                	unimp
    bd62:	0000                	unimp
    bd64:	6d69                	lui	s10,0x1a
    bd66:	2075                	jal	be12 <__errno+0x726>
    bd68:	6572                	.2byte	0x6572
    bd6a:	6461                	lui	s0,0x18
    bd6c:	7220                	.2byte	0x7220
    bd6e:	6765                	lui	a4,0x19
    bd70:	6120                	.2byte	0x6120
    bd72:	6464                	.2byte	0x6464
    bd74:	3a72                	.2byte	0x3a72
    bd76:	6425                	lui	s0,0x9
    bd78:	6320                	.2byte	0x6320
    bd7a:	746e                	.2byte	0x746e
    bd7c:	253a                	.2byte	0x253a
    bd7e:	0d64                	addi	s1,sp,668
    bd80:	000a                	c.slli	zero,0x2
    bd82:	0000                	unimp
    bd84:	7265                	lui	tp,0xffff9
    bd86:	6f72                	.2byte	0x6f72
    bd88:	2072                	.2byte	0x2072
    bd8a:	6166                	.2byte	0x6166
    bd8c:	6c6c                	.2byte	0x6c6c
    bd8e:	6220                	.2byte	0x6220
    bd90:	6361                	lui	t1,0x18
    bd92:	6f74206b          	.4byte	0x6f74206b
    bd96:	6420                	.2byte	0x6420
    bd98:	6665                	lui	a2,0x19
    bd9a:	7561                	lui	a0,0xffff8
    bd9c:	746c                	.2byte	0x746c
    bd9e:	6120                	.2byte	0x6120
    bda0:	00006b63          	bltu	zero,zero,bdb6 <__errno+0x6ca>
    bda4:	7375                	lui	t1,0xffffd
    bda6:	2062                	.2byte	0x2062
    bda8:	6168                	.2byte	0x6168
    bdaa:	646e                	.2byte	0x646e
    bdac:	6b616873          	csrrsi	a6,0x6b6,2
    bdb0:	2065                	jal	be58 <__errno+0x76c>
    bdb2:	7974                	.2byte	0x7974
    bdb4:	3a70                	.2byte	0x3a70
    bdb6:	7825                	lui	a6,0xfffe9
    bdb8:	0a0d                	addi	s4,s4,3
    bdba:	0000                	unimp
    bdbc:	4aea                	lw	s5,152(sp)
    bdbe:	0000                	unimp
    bdc0:	4b1c                	lw	a5,16(a4)
    bdc2:	0000                	unimp
    bdc4:	4b2a                	lw	s6,136(sp)
    bdc6:	0000                	unimp
    bdc8:	4b30                	lw	a2,80(a4)
    bdca:	0000                	unimp
    bdcc:	4b36                	lw	s6,76(sp)
    bdce:	0000                	unimp
    bdd0:	4b3c                	lw	a5,80(a4)
    bdd2:	0000                	unimp
    bdd4:	7766                	.2byte	0x7766
    bdd6:	7220                	.2byte	0x7220
    bdd8:	6165                	addi	sp,sp,112
    bdda:	2064                	.2byte	0x2064
    bddc:	6425                	lui	s0,0x9
    bdde:	0a0d                	addi	s4,s4,3
    bde0:	0000                	unimp
    bde2:	0000                	unimp
    bde4:	7766                	.2byte	0x7766
    bde6:	7720                	.2byte	0x7720
    bde8:	6972                	.2byte	0x6972
    bdea:	6574                	.2byte	0x6574
    bdec:	000d                	c.nop	3
    bdee:	0000                	unimp
    bdf0:	7766                	.2byte	0x7766
    bdf2:	7720                	.2byte	0x7720
    bdf4:	6972                	.2byte	0x6972
    bdf6:	6574                	.2byte	0x6574
    bdf8:	7320                	.2byte	0x7320
    bdfa:	6375                	lui	t1,0x1d
    bdfc:	73736563          	bltu	t1,s7,c526 <_data_lma+0x2ba>
    be00:	0000                	unimp
    be02:	0000                	unimp
    be04:	7766                	.2byte	0x7766
    be06:	7720                	.2byte	0x7720
    be08:	6972                	.2byte	0x6972
    be0a:	6574                	.2byte	0x6574
    be0c:	6620                	.2byte	0x6620
    be0e:	6961                	lui	s2,0x18
    be10:	2c6c                	.2byte	0x2c6c
    be12:	6164                	.2byte	0x6164
    be14:	6174                	.2byte	0x6174
    be16:	6920                	.2byte	0x6920
    be18:	636e                	.2byte	0x636e
    be1a:	6c706d6f          	jal	s10,12ce0 <_data_lma+0x6a74>
    be1e:	7461                	lui	s0,0xffff8
    be20:	0065                	c.nop	25
    be22:	0000                	unimp
    be24:	5112                	lw	sp,36(sp)
    be26:	0000                	unimp
    be28:	5118                	lw	a4,32(a0)
    be2a:	0000                	unimp
    be2c:	511e                	lw	sp,228(sp)
    be2e:	0000                	unimp
    be30:	5124                	lw	s1,96(a0)
    be32:	0000                	unimp
    be34:	512a                	lw	sp,168(sp)
    be36:	0000                	unimp
    be38:	510e                	lw	sp,224(sp)
    be3a:	0000                	unimp
    be3c:	5142                	lw	sp,48(sp)
    be3e:	0000                	unimp
    be40:	6964                	.2byte	0x6964
    be42:	74617073          	csrci	0x746,2
    be46:	66206863          	bltu	zero,sp,c4b6 <_data_lma+0x24a>
    be4a:	6961                	lui	s2,0x18
    be4c:	206c                	.2byte	0x206c
    be4e:	7974                	.2byte	0x7974
    be50:	3a70                	.2byte	0x3a70
    be52:	7830                	.2byte	0x7830
    be54:	3025                	jal	b67c <__truncdfsf2+0x16a>
    be56:	7832                	.2byte	0x7832
    be58:	0a0d                	addi	s4,s4,3
    be5a:	0000                	unimp
    be5c:	5550                	lw	a2,44(a0)
    be5e:	2054                	.2byte	0x2054
    be60:	4f54                	lw	a3,28(a4)
    be62:	5320                	lw	s0,96(a4)
    be64:	454c                	lw	a1,12(a0)
    be66:	5045                	c.li	zero,-15
    be68:	000d                	c.nop	3
    be6a:	0000                	unimp
    be6c:	7370                	.2byte	0x7370
    be6e:	253a                	.2byte	0x253a
    be70:	2064                	.2byte	0x2064
    be72:	6465                	lui	s0,0x19
    be74:	253a                	.2byte	0x253a
    be76:	2064                	.2byte	0x2064
    be78:	3a706163          	bltu	zero,t2,c21a <__clz_tab+0xae>
    be7c:	6425                	lui	s0,0x9
    be7e:	6c20                	.2byte	0x6c20
    be80:	6e65                	lui	t3,0x19
    be82:	253a                	.2byte	0x253a
    be84:	0d64                	addi	s1,sp,668
    be86:	000a                	c.slli	zero,0x2
    be88:	6c66                	.2byte	0x6c66
    be8a:	7375                	lui	t1,0xffffd
    be8c:	2068                	.2byte	0x2068
    be8e:	6772                	.2byte	0x6772
    be90:	2062                	.2byte	0x2062
    be92:	75716573          	csrrsi	a0,0x757,2
    be96:	6e65                	lui	t3,0x19
    be98:	0d2e6563          	bltu	t3,s2,bf62 <MyHIDReportDesc+0x4a>
    be9c:	0000                	unimp
    be9e:	0000                	unimp
    bea0:	6772                	.2byte	0x6772
    bea2:	2062                	.2byte	0x2062
    bea4:	6425                	lui	s0,0x9
    bea6:	3020                	.2byte	0x3020
    bea8:	2578                	.2byte	0x2578
    beaa:	3230                	.2byte	0x3230
    beac:	2078                	.2byte	0x2078
    beae:	7830                	.2byte	0x7830
    beb0:	3025                	jal	b6d8 <__clzsi2+0x5a>
    beb2:	7832                	.2byte	0x7832
    beb4:	3020                	.2byte	0x3020
    beb6:	2578                	.2byte	0x2578
    beb8:	3230                	.2byte	0x3230
    beba:	0d78                	addi	a4,sp,668
    bebc:	000a                	c.slli	zero,0x2
    bebe:	0000                	unimp
    bec0:	20495053          	.4byte	0x20495053
    bec4:	4e49                	li	t3,18
    bec6:	5449                	li	s0,-14
    bec8:	253a                	.2byte	0x253a
    beca:	2064                	.2byte	0x2064
    becc:	657a6973          	csrrsi	s2,0x657,20
    bed0:	253a                	.2byte	0x253a
    bed2:	0d64                	addi	s1,sp,668
    bed4:	000a                	c.slli	zero,0x2
    bed6:	0000                	unimp
    bed8:	74737973          	csrrci	s2,0x747,6
    bedc:	6369                	lui	t1,0x1a
    bede:	6e69206b          	.4byte	0x6e69206b
    bee2:	7469                	lui	s0,0xffffa
    bee4:	6320                	.2byte	0x6320
    bee6:	0d706d6f          	jal	s10,127bc <_data_lma+0x6550>
    beea:	0000                	unimp
    beec:	6175                	addi	sp,sp,368
    beee:	7472                	.2byte	0x7472
    bef0:	7020                	.2byte	0x7020
    bef2:	7375                	lui	t1,0xffffd
    bef4:	2068                	.2byte	0x2068
    bef6:	7265                	lui	tp,0xffff9
    bef8:	6f72                	.2byte	0x6f72
    befa:	3a72                	.2byte	0x3a72
    befc:	6425                	lui	s0,0x9
    befe:	0a0d                	addi	s4,s4,3
    bf00:	0000                	unimp
	...

0000bf04 <MyDevDescr>:
    bf04:	0112 0200 0000 4000 057e 2009 0100 0201     .......@~.. ....
    bf14:	0103 0000                                   ....

0000bf18 <MyHIDReportDesc>:
    bf18:	0105 0015 0409 01a1 3085 0105 0905 0119     .........0......
    bf28:	0a29 0015 0125 0175 0a95 0055 0065 0281     )...%.u...U.e...
    bf38:	0905 0b19 0e29 0015 0125 0175 0495 0281     ....)...%.u.....
    bf48:	0175 0295 0381 010b 0100 a100 0b00 0030     u.............0.
    bf58:	0001 310b 0100 0b00 0032 0001 350b 0100     ...1....2....5..
    bf68:	1500 2700 ffff 0000 1075 0495 0281 0bc0     ...'....u.......
    bf78:	0039 0001 0015 0725 0035 3b46 6501 7514     9.....%.5.F;.e.u
    bf88:	9504 8101 0502 1909 290f 1512 2500 7501     .........)...%.u
    bf98:	9501 8104 7502 9508 8134 0603 ff00 2185     .....u..4......!
    bfa8:	0109 0875 3f95 0381 8185 0209 0875 3f95     ..u..?......u..?
    bfb8:	0381 0185 0309 0875 3f95 8391 1085 0409     ......u..?......
    bfc8:	0875 3f95 8391 8085 0509 0875 3f95 8391     u..?......u..?..
    bfd8:	8285 0609 0875 3f95 8391 fe85 0709 0875     ....u..?......u.
    bfe8:	3f95 0281 fe85 0709 0875 3f95 8291 00c0     .?......u..?....

0000bff8 <MyManuInfo>:
    bff8:	030a 0052 0065 0065 0064 0000               ..R.e.e.d...

0000c004 <MyProdInfo>:
    c004:	032a 0053 006d 0061 0073 0068 0020 0050     *.S.m.a.s.h. .P.
    c014:	0072 006f 0020 0043 006f 006e 0074 0072     r.o. .C.o.n.t.r.
    c024:	006f 006c 006c 0065 0072 0000               o.l.l.e.r...

0000c030 <MySerNumInfo>:
    c030:	0316 0030 0031 0032 0033 0034 0035 0036     ..0.1.2.3.4.5.6.
    c040:	0037 0038 0037 0000 5355 2042 6972 676e     7.8.7...USB ring
    c050:	6220 6675 6566 2072 7566 6c6c 202c 7473      buffer full, st
    c060:	706f 7220 6365 6965 6976 676e 6620 7275     op receiving fur
    c070:	6874 7265 6420 7461 2e61 0000 6e28 6c75     ther data...(nul
    c080:	296c 0000 cfea ffff cea4 ffff ce7a ffff     l)..........z...
    c090:	cf5c ffff ce7a ffff ceae ffff ce7a ffff     \...z.......z...
    c0a0:	cf5c ffff cea4 ffff cea4 ffff ceae ffff     \...............
    c0b0:	cf5c ffff cfb6 ffff cfb6 ffff cfb6 ffff     \...............
    c0c0:	ceae ffff e950 ffff e7b0 ffff e7e2 ffff     ....P...........
    c0d0:	e7e8 ffff e7e2 ffff e7f2 ffff e7e2 ffff     ................
    c0e0:	e7e8 ffff e7b0 ffff e7b0 ffff e7f2 ffff     ................
    c0f0:	e7e8 ffff e8b4 ffff e8b4 ffff e8b4 ffff     ................
    c100:	e7f2 ffff e770 ffff e770 ffff e7a2 ffff     ....p...p.......
    c110:	e9a4 ffff e7a2 ffff e7b2 ffff e7a2 ffff     ................
    c120:	e9a4 ffff e770 ffff e770 ffff e7b2 ffff     ....p...p.......
    c130:	e9a4 ffff e874 ffff e874 ffff e98e ffff     ....t...t.......
    c140:	e76a ffff e972 ffff e76a ffff e98e ffff     j...r...j.......
    c150:	e738 ffff e738 ffff e972 ffff e98e ffff     8...8...r.......
    c160:	e838 ffff e838 ffff e838 ffff               8...8...8...

0000c16c <__clz_tab>:
    c16c:	0100 0202 0303 0303 0404 0404 0404 0404     ................
    c17c:	0505 0505 0505 0505 0505 0505 0505 0505     ................
    c18c:	0606 0606 0606 0606 0606 0606 0606 0606     ................
    c19c:	0606 0606 0606 0606 0606 0606 0606 0606     ................
    c1ac:	0707 0707 0707 0707 0707 0707 0707 0707     ................
    c1bc:	0707 0707 0707 0707 0707 0707 0707 0707     ................
    c1cc:	0707 0707 0707 0707 0707 0707 0707 0707     ................
    c1dc:	0707 0707 0707 0707 0707 0707 0707 0707     ................
    c1ec:	0808 0808 0808 0808 0808 0808 0808 0808     ................
    c1fc:	0808 0808 0808 0808 0808 0808 0808 0808     ................
    c20c:	0808 0808 0808 0808 0808 0808 0808 0808     ................
    c21c:	0808 0808 0808 0808 0808 0808 0808 0808     ................
    c22c:	0808 0808 0808 0808 0808 0808 0808 0808     ................
    c23c:	0808 0808 0808 0808 0808 0808 0808 0808     ................
    c24c:	0808 0808 0808 0808 0808 0808 0808 0808     ................
    c25c:	0808 0808 0808 0808 0808 0808 0808 0808     ................
