
CH32V103C8T6_USB.elf:     file format elf32-littleriscv
CH32V103C8T6_USB.elf
architecture: riscv:rv32, flags 0x00000112:
EXEC_P, HAS_SYMS, D_PAGED
start address 0x00000000

Program Header:
0x70000003 off    0x0005d2da vaddr 0x00000000 paddr 0x00000000 align 2**0
         filesz 0x00000034 memsz 0x00000000 flags r--
    LOAD off    0x00001000 vaddr 0x00000000 paddr 0x00000000 align 2**12
         filesz 0x0000d014 memsz 0x0000d014 flags r-x
    LOAD off    0x0000f000 vaddr 0x20000000 paddr 0x0000d014 align 2**12
         filesz 0x000013cc memsz 0x000013cc flags rw-
    LOAD off    0x000003d0 vaddr 0x200013d0 paddr 0x0000e3e0 align 2**12
         filesz 0x00000000 memsz 0x00002e8c flags rw-
    LOAD off    0x00000800 vaddr 0x20004800 paddr 0x20004800 align 2**12
         filesz 0x00000000 memsz 0x00000800 flags rw-

Sections:
Idx Name          Size      VMA       LMA       File off  Algn
  0 .init         00000038  00000000  00000000  00001000  2**1
                  CONTENTS, ALLOC, LOAD, READONLY, CODE
  1 .vector       00000108  00000038  00000038  00001038  2**1
                  CONTENTS, ALLOC, LOAD, READONLY, CODE
  2 .text         0000ced4  00000140  00000140  00001140  2**2
                  CONTENTS, ALLOC, LOAD, READONLY, CODE
  3 .fini         00000000  0000d014  0000d014  000103cc  2**0
                  CONTENTS, ALLOC, LOAD, CODE
  4 .dalign       00000000  20000000  20000000  000103cc  2**0
                  CONTENTS
  5 .dlalign      00000000  0000d014  0000d014  000103cc  2**0
                  CONTENTS
  6 .data         000013cc  20000000  0000d014  0000f000  2**3
                  CONTENTS, ALLOC, LOAD, DATA
  7 .bss          00002e8c  200013d0  0000e3e0  000103d0  2**3
                  ALLOC
  8 .stack        00000800  20004800  20004800  00010800  2**0
                  ALLOC
  9 .debug_info   0001f335  00000000  00000000  000103cc  2**0
                  CONTENTS, READONLY, DEBUGGING, OCTETS
 10 .debug_abbrev 00006f6e  00000000  00000000  0002f701  2**0
                  CONTENTS, READONLY, DEBUGGING, OCTETS
 11 .debug_aranges 00001648  00000000  00000000  00036670  2**3
                  CONTENTS, READONLY, DEBUGGING, OCTETS
 12 .debug_rnglists 00001d3a  00000000  00000000  00037cb8  2**0
                  CONTENTS, READONLY, DEBUGGING, OCTETS
 13 .debug_line   0001c358  00000000  00000000  000399f2  2**0
                  CONTENTS, READONLY, DEBUGGING, OCTETS
 14 .debug_str    00006d5f  00000000  00000000  00055d4a  2**0
                  CONTENTS, READONLY, DEBUGGING, OCTETS
 15 .debug_line_str 00000800  00000000  00000000  0005caa9  2**0
                  CONTENTS, READONLY, DEBUGGING, OCTETS
 16 .comment      00000031  00000000  00000000  0005d2a9  2**0
                  CONTENTS, READONLY
 17 .riscv.attributes 00000034  00000000  00000000  0005d2da  2**0
                  CONTENTS, READONLY
 18 .debug_frame  00003730  00000000  00000000  0005d310  2**2
                  CONTENTS, READONLY, DEBUGGING, OCTETS
 19 .debug_loclists 00008085  00000000  00000000  00060a40  2**0
                  CONTENTS, READONLY, DEBUGGING, OCTETS
SYMBOL TABLE:
00000000 l    d  .init	00000000 .init
00000038 l    d  .vector	00000000 .vector
00000140 l    d  .text	00000000 .text
0000d014 l    d  .fini	00000000 .fini
20000000 l    d  .dalign	00000000 .dalign
0000d014 l    d  .dlalign	00000000 .dlalign
20000000 l    d  .data	00000000 .data
200013d0 l    d  .bss	00000000 .bss
20004800 l    d  .stack	00000000 .stack
00000000 l    d  .debug_info	00000000 .debug_info
00000000 l    d  .debug_abbrev	00000000 .debug_abbrev
00000000 l    d  .debug_aranges	00000000 .debug_aranges
00000000 l    d  .debug_rnglists	00000000 .debug_rnglists
00000000 l    d  .debug_line	00000000 .debug_line
00000000 l    d  .debug_str	00000000 .debug_str
00000000 l    d  .debug_line_str	00000000 .debug_line_str
00000000 l    d  .comment	00000000 .comment
00000000 l    d  .riscv.attributes	00000000 .riscv.attributes
00000000 l    d  .debug_frame	00000000 .debug_frame
00000000 l    d  .debug_loclists	00000000 .debug_loclists
00000000 l    df *ABS*	00000000 startup_ch32v10x.o
00000038 l       .vector	00000000 _vector_base
00000000 l    df *ABS*	00000000 save-restore.o
00000000 l    df *ABS*	00000000 lib_a-memcpy-asm.o
00000000 l    df *ABS*	00000000 lib_a-memset.o
00000000 l    df *ABS*	00000000 ch32v10x_it.c
00000000 l    df *ABS*	00000000 ch32v10x_usbfs_device.c
00000000 l    df *ABS*	00000000 conf.c
00000000 l    df *ABS*	00000000 flash.c
00000000 l    df *ABS*	00000000 global_api.c
00000000 l    df *ABS*	00000000 gpio_adc.c
00000000 l    df *ABS*	00000000 gpio_digit.c
00000000 l    df *ABS*	00000000 hd_rumble.c
00000000 l    df *ABS*	00000000 hd_rumble2.c
0000c314 l     O .text	00000100 freq_exp2_index_lookup_tb
0000c624 l     O .text	00000500 exp2_lookup_tb
0000c414 l     O .text	00000100 amp_exp2_index_lookup_tb_high_amp_drop
0000c514 l     O .text	00000010 amp_exp2_index_lookup_tb_low_amp_rise
0000c524 l     O .text	00000100 amp_exp2_index_lookup_tb_raw
00000000 l    df *ABS*	00000000 hd_rumble_high_accuracy.c
20001420 l     O .bss	00000004 tim3_counter
20001430 l     O .bss	00000004 left_high_tick
2000141e l     O .bss	00000001 switch_upd
2000142c l     O .bss	00000004 left_low_tick
20001428 l     O .bss	00000004 right_high_tick
20001424 l     O .bss	00000004 right_low_tick
20001438 l     O .bss	00000004 tim3_irq_tmp_l
20001434 l     O .bss	00000004 tim3_irq_tmp_r
2000133c l     O .data	00000001 switch_flag
00000000 l    df *ABS*	00000000 i2c.c
200014a0 l     O .bss	00000001 res.0
00000000 l    df *ABS*	00000000 imu.c
200014a8 l     O .bss	00000004 rep
200014b0 l     O .bss	00000004 last_imu_upd
20002bbc l     O .bss	00000018 imu_sum
200014ad l     O .bss	00000001 imu_sample_cnt
200014a4 l     O .bss	00000004 last_upd.0
00000000 l    df *ABS*	00000000 imu_quaternion.c
200014d8 l     O .bss	00000004 prev_timestamp.3
20002bd4 l     O .bss	00000012 gyo_samples.1
200014d3 l     O .bss	00000001 pos.0
200014d4 l     O .bss	00000004 timestamp.2
00000000 l    df *ABS*	00000000 main.c
20001508 l     O .bss	00000001 top_trigger
000037cc l     F .text	000000ce get_peripheral_data_handler.part.0
20001504 l     O .bss	00000004 sts_ljoy
20001500 l     O .bss	00000004 sts_rjoy
200014f4 l     O .bss	00000001 set.16
200014e8 l     O .bss	00000004 py.13
200014e4 l     O .bss	00000004 px.12
200014f0 l     O .bss	00000004 ny.15
200014ec l     O .bss	00000004 nx.14
200014e3 l     O .bss	00000001 save.8
200014e2 l     O .bss	00000001 upd.7
200014e1 l     O .bss	00000001 f1.5
200014e0 l     O .bss	00000001 f2.4
200014df l     O .bss	00000001 f3.3
200014de l     O .bss	00000001 f4.2
20002be8 l     O .bss	0000000d pkt
200014dd l     O .bss	00000001 f5.1
200014dc l     O .bss	00000001 f6.0
200014fc l     O .bss	00000004 top_tick
200014f8 l     O .bss	00000004 routine_tick
00000000 l    df *ABS*	00000000 ns_com.c
20002c38 l     O .bss	00000030 pkt
20001511 l     O .bss	00000001 indicate_led_status
00000000 l    df *ABS*	00000000 ns_com_mux.c
200030d8 l     O .bss	00000040 usb_handshake_buf
20003098 l     O .bss	00000040 fw_buf_raw
20003068 l     O .bss	00000030 calibrate_imu_raw_buf
00000000 l    df *ABS*	00000000 pwr.c
00000000 l    df *ABS*	00000000 ring_buffer.c
00000000 l    df *ABS*	00000000 spi.c
20001520 l     O .bss	00000003 p.2
20001344 l     O .data	00000001 indicate_led_updated
20001523 l     O .bss	00000001 indicate_led_override
2000151c l     O .bss	00000004 indicate_rgb_task_tick.0
00000000 l    df *ABS*	00000000 system_ch32v10x.c
00005884 l     F .text	000000c6 SetSysClockTo72_HSE
00000000 l    df *ABS*	00000000 tick.c
20001528 l     O .bss	00000004 inited.0
2000152c l     O .bss	00000001 p_us
00000000 l    df *ABS*	00000000 uart.c
00005b52 l     F .text	00000052 decode_uart_pkt.part.0
200034a0 l     O .bss	0000000d send_buf
00000000 l    df *ABS*	00000000 uart_com.c
00006130 l     F .text	00000028 reliable_uart_send_acc.part.0
200041bc l     O .bss	0000000d pkt
20001550 l     O .bss	00000001 imu_report_buffer_ptr_reset_flag
20001350 l     O .data	00000001 bt_connect_mode
20001544 l     O .bss	00000004 tick.1
20001554 l     O .bss	00000004 input_update_tick
20003d68 l     O .bss	00000040 r_wait_queue_buffer
20003da8 l     O .bss	00000014 r_wait_queue
20003dbc l     O .bss	00000400 rurt_lst
20001542 l     O .bss	00000001 id.0
00000000 l    df *ABS*	00000000 usbd_compatibility_hid.c
20001570 l     O .bss	00000001 ns_hid_pkt_cnt
200041cc l     O .bss	00000041 usb_rx_buf
20001558 l     O .bss	00000008 pkt.0
00000000 l    df *ABS*	00000000 ch32v10x_adc.c
00000000 l    df *ABS*	00000000 ch32v10x_dma.c
00000000 l    df *ABS*	00000000 ch32v10x_exti.c
00000000 l    df *ABS*	00000000 ch32v10x_flash.c
0000703e l     F .text	00000080 ROM_ERASE
00000000 l    df *ABS*	00000000 ch32v10x_gpio.c
00000000 l    df *ABS*	00000000 ch32v10x_i2c.c
00000000 l    df *ABS*	00000000 ch32v10x_misc.c
00000000 l    df *ABS*	00000000 ch32v10x_pwr.c
00000000 l    df *ABS*	00000000 ch32v10x_rcc.c
200012b4 l     O .data	00000010 APBAHBPrescTable
20001354 l     O .data	00000004 ADCPrescTable
00000000 l    df *ABS*	00000000 ch32v10x_spi.c
00000000 l    df *ABS*	00000000 ch32v10x_tim.c
00000000 l    df *ABS*	00000000 ch32v10x_usart.c
00000000 l    df *ABS*	00000000 debug.c
20001358 l     O .data	00000004 curbrk.0
00000000 l    df *ABS*	00000000 lib_a-wf_sqrt.o
00000000 l    df *ABS*	00000000 lib_a-ef_sqrt.o
20001360 l     O .data	00000004 one
2000135c l     O .data	00000004 tiny
00000000 l    df *ABS*	00000000 _udivdi3.o
00000000 l    df *ABS*	00000000 adddf3.o
00000000 l    df *ABS*	00000000 divdf3.o
00000000 l    df *ABS*	00000000 muldf3.o
00000000 l    df *ABS*	00000000 subdf3.o
00000000 l    df *ABS*	00000000 floatsidf.o
00000000 l    df *ABS*	00000000 floatunsidf.o
00000000 l    df *ABS*	00000000 addsf3.o
00000000 l    df *ABS*	00000000 divsf3.o
00000000 l    df *ABS*	00000000 gesf2.o
00000000 l    df *ABS*	00000000 lesf2.o
00000000 l    df *ABS*	00000000 mulsf3.o
00000000 l    df *ABS*	00000000 subsf3.o
00000000 l    df *ABS*	00000000 unordsf2.o
00000000 l    df *ABS*	00000000 fixsfsi.o
00000000 l    df *ABS*	00000000 floatsisf.o
00000000 l    df *ABS*	00000000 fixsfdi.o
00000000 l    df *ABS*	00000000 floatdisf.o
00000000 l    df *ABS*	00000000 truncdfsf2.o
00000000 l    df *ABS*	00000000 _clzsi2.o
00000000 l    df *ABS*	00000000 lib_a-errno.o
00000000 l    df *ABS*	00000000 lib_a-printf.o
00000000 l    df *ABS*	00000000 lib_a-puts.o
00000000 l    df *ABS*	00000000 lib_a-wbuf.o
00000000 l    df *ABS*	00000000 lib_a-wsetup.o
00000000 l    df *ABS*	00000000 lib_a-fflush.o
00000000 l    df *ABS*	00000000 lib_a-findfp.o
0000b424 l     F .text	0000006a std
00000000 l    df *ABS*	00000000 lib_a-fwalk.o
00000000 l    df *ABS*	00000000 lib_a-lock.o
00000000 l    df *ABS*	00000000 lib_a-makebuf.o
00000000 l    df *ABS*	00000000 lib_a-nano-freer.o
00000000 l    df *ABS*	00000000 lib_a-nano-mallocr.o
0000b826 l     F .text	00000054 sbrk_aligned
00000000 l    df *ABS*	00000000 lib_a-nano-vfprintf.o
0000b986 l     F .text	0000002a __sfputc_r
00000000 l    df *ABS*	00000000 lib_a-sbrkr.o
00000000 l    df *ABS*	00000000 lib_a-stdio.o
00000000 l    df *ABS*	00000000 lib_a-writer.o
00000000 l    df *ABS*	00000000 lib_a-closer.o
00000000 l    df *ABS*	00000000 lib_a-fstatr.o
00000000 l    df *ABS*	00000000 lib_a-isattyr.o
00000000 l    df *ABS*	00000000 lib_a-lseekr.o
00000000 l    df *ABS*	00000000 lib_a-memchr.o
00000000 l    df *ABS*	00000000 lib_a-mlock.o
00000000 l    df *ABS*	00000000 lib_a-nano-vfprintf_i.o
00000000 l    df *ABS*	00000000 lib_a-readr.o
00000000 l    df *ABS*	00000000 close.o
00000000 l    df *ABS*	00000000 fstat.o
00000000 l    df *ABS*	00000000 isatty.o
00000000 l    df *ABS*	00000000 lseek.o
00000000 l    df *ABS*	00000000 read.o
00000000 l    df *ABS*	00000000 usb_desc.c
00000000 l    df *ABS*	00000000 lib_a-impure.o
200012c4 l     O .data	00000060 impure_data
00000000 l    df *ABS*	00000000 ch32v10x_usb.c
00006ad4  w      .text	00000000 EXTI2_IRQHandler
200038a8 g     O .bss	00000340 uart_rx_rb_buf
0000774e g     F .text	00000014 RCC_HSICmd
00004394 g     F .text	0000007a ns_subcommand_spi_read
0000be2a g     F .text	00000026 _isatty_r
0000cbf4 g     O .text	00000016 MySerNumInfo
20004210 g     O .bss	00000009 global_input_data
00004978 g     F .text	00000028 fw_snd_pkt
00004388 g     F .text	00000004 ns_subcommand_spi_erase
200013e2 g     O .bss	00000002 USBFS_SetupReqValue
0000af90 g     F .text	0000010e _puts_r
20001334 g     O .data	00000004 hd_rumble_cvr_max_offset
2000153c g     O .bss	00000002 UART1_RX_CurCnt
0000be50 g     F .text	0000002a _lseek_r
00005326 g     F .text	00000076 SPI_FullDuplex_Init
00006f7e g     F .text	00000014 DMA_Cmd
000041ea g     F .text	0000009c ns_subcommand_get_device_info
200034b0 g     O .bss	0000000d rx_filter_buf
20001560 g     O .bss	00000004 imu_report_buffer_ptr
00003782 g     F .text	00000032 imu_upd2
00001020 g     F .text	00000018 fetch_uint32
0000698c g     F .text	000000ec hid_tx_service
00002ab6 g     F .text	000000ac i2c_read_continuous
0000af56 g     F .text	0000003a printf
20001b28 g       .data	00000000 __global_pointer$
00000148 g     F .text	00000028 .hidden __riscv_save_8
00006fd4 g     F .text	00000004 DMA_GetITStatus
2000268c g     O .bss	00000080 rumble_rb_len
00006ad4  w      .text	00000000 TIM1_CC_IRQHandler
00006092 g     F .text	0000009e send_uart_large_pkt
000075ba g     F .text	0000000a I2C_ReceiveData
20001328 g     O .data	00000001 rumble_state
0000bd74 g     F .text	00000036 __sseek
0000b4f6 g     F .text	00000072 __sinit
0000b0a8 g     F .text	000000c0 __swbuf_r
000044e2 g     F .text	00000030 ns_subcommand_attachment_state
000001ee g     F .text	00000004 HardFault_Handler
000009f0 g     F .text	0000007c conf_read
000044a8 g     F .text	00000004 ns_subcommand_write_charge_setting
000009a6 g     F .text	0000004a set_hd_rumble_range
0000345c g     F .text	00000326 switch_motion_pack_quat
0000b498 g     F .text	00000046 __sfmoreglue
00000a8c g     F .text	00000012 fac_conf_read
0000be9c g     F .text	00000008 __malloc_unlock
00006bde g     F .text	00000012 ADC_DMACmd
000067ee g     F .text	00000056 recv_esp32_pkg
00000194 g     F .text	0000000c .hidden __riscv_restore_3
00009fb2 g     F .text	000002ea .hidden __divsf3
2000145d g     O .bss	00000001 right_high_buf_rdy
00006ad4  w      .text	00000000 SysTick_Handler
00006c02 g     F .text	0000000a ADC_StartCalibration
00004ef8 g     F .text	00000096 fw_subcommand_dispatcher
0000766c g     F .text	0000006e NVIC_Init
00006ad4  w      .text	00000000 PVD_IRQHandler
00004f8e g     F .text	00000004 ns_mux_init
00000ab0 g     F .text	0000008c conf_flush
20001518 g     O .bss	00000001 is_rumble_start
00003bf4 g     F .text	00000202 func_switch_task
00005ade g     F .text	0000003c wait_nonblocking_us
00000180 g     F .text	00000020 .hidden __riscv_restore_10
20001480 g     O .bss	00000008 right_low
00005810 g     F .text	00000046 indicate_rgb_task
000001c6 g     F .text	00000028 NMI_Handler
20003140 g     O .bss	0000035d spi_tx_buf
0000aa6e g     F .text	00000060 .hidden __fixsfsi
00006ad4  w      .text	00000000 EXTI3_IRQHandler
20003be8 g     O .bss	00000180 UART1_RxBuffer
20002614 g     O .bss	00000060 hid_num_to_gpio
20002a0c g     O .bss	00000100 left_high_rb_buf
00000148 g     F .text	00000028 .hidden __riscv_save_11
20000240 g     O .data	00001000 ccr_lookup_tb
00003eb0 g     F .text	00000092 set_peripherals_state
0000af50 g     F .text	00000006 __errno
00002e40 g     F .text	00000002 imu_init
0000214e g     F .text	00000044 step_forward
00001500 g     F .text	00000054 gpio_read
000001f2 g     F .text	0000004a USBFS_RCC_Init
0000770c g     F .text	00000042 PWR_VDD_SupplyVoltage
20001564 g     O .bss	00000004 rpt
20001348 g     O .data	00000002 spi_rgb_trans
0000460c g     F .text	0000005e ns_subcommand_set_imu_conf
20001408 g     O .bss	00000004 sts_button
2000133d g     O .data	00000001 input_mode
200022e4 g     O .bss	0000000b smashpro_factory_config
00007cfe g     F .text	0000000c USART_GetFlagStatus
0000be02 g     F .text	00000028 _fstat_r
0000268c g     F .text	0000001a i2c2_check_event
20001598 g     O .bss	00000004 errno
0000515a g     F .text	0000003e ring_buffer_init
200013d0 g       .bss	00000000 _sbss
00000800 g       *ABS*	00000000 __stack_size
200013de g     O .bss	00000002 USBFS_SetupReqLen
200014bc g     O .bss	00000004 imu_read_fail_cnt
00006f46 g     F .text	00000038 DMA_Init
20002460 g     O .bss	000000b1 factory_configuration
20001454 g     O .bss	00000002 left_low_pos
0000a6a6 g     F .text	0000038c .hidden __subsf3
00001960 g     F .text	000000cc decode_hd_rumble_format2
00000278 g     F .text	00000672 USBFS_IRQHandler
00006f92 g     F .text	00000008 DMA_GetCurrDataCounter
0000489a g     F .text	00000014 ns_rumble_handler
20002b20 g     O .bss	00000014 right_high_rb
20002b5c g     O .bss	00000048 imu_pack_buf
00007d48 g     F .text	00000048 sqrtf
00000194 g     F .text	0000000c .hidden __riscv_restore_2
20001330 g     O .data	00000004 hd_rumble_cvr_max
20002674 g     O .bss	00000018 linear_samples
00001572 g     F .text	00000012 button_read_raw
000037b4 g     F .text	00000018 button_upd_all
000052d2 g     F .text	00000054 ring_buffer_pop
00005614 g     F .text	00000014 flush_rgb
0000cd24 g     O .text	00000012 MyDevDescr
000040a4 g     F .text	00000002 ns_subcommand_set_hci_state
00005094 g     F .text	0000002e top_init
00007b72 g     F .text	00000016 TIM_CtrlPWMOutputs
0000640a g     F .text	00000024 recv_rumble_frame
000001a0 g     F .text	00000016 memcpy
00006bce g     F .text	00000010 ADC_Cmd
0000b48e g     F .text	0000000a _cleanup_r
00002c88 g     F .text	00000034 imu_set_reg
00009b6a g     F .text	00000070 .hidden __floatsidf
20001404 g     O .bss	00000004 sts_button_raw
200013d8 g     O .bss	00000001 USBFS_HidProtocol
00005a30 g     F .text	00000068 _systick_init
00001330 g     F .text	0000008c gpio_kb_scan_init
00006ad4  w      .text	00000000 EXTI0_IRQHandler
00006ad4  w      .text	00000000 I2C2_EV_IRQHandler
00003df6 g     F .text	00000058 top_timer
200013f8 g     O .bss	00000002 Calibrattion_Val
00007b56 g     F .text	0000001c TIM_Cmd
0000b09e g     F .text	0000000a puts
00007bce g     F .text	0000001a TIM_OC4PreloadConfig
000016a8 g     F .text	00000036 ApplyCommand
00001038 g     F .text	00000012 i32_clamp
2000134c g     O .data	00000004 SystemCoreClock
20002224 g     O .bss	00000080 USBFS_EP1_Buf
20001459 g     O .bss	00000001 right_high_buf_stdby
2000132c g     O .data	00000004 hd_rumble_cvr_min
2000421c g     O .bss	00000040 HID_Report_Buffer
0000c270 g     F .text	0000000c _fstat
000040b6 g     F .text	00000002 ns_subcommand_reset_mcu
00005628 g     F .text	00000054 spi_init
00000038 g       .init	00000000 _einit
2000125c g     O .data	0000000e default_et
00007c1c g     F .text	0000000e TIM_ClearITPendingBit
0000a332 g     F .text	00000098 .hidden __lesf2
0000787a g     F .text	0000001e RCC_APB2PeriphClockCmd
00000140 g     F .text	00000030 .hidden __riscv_save_12
00006ad4  w      .text	00000000 ADC1_2_IRQHandler
000072f2 g     F .text	000000be GPIO_Init
00007786 g     F .text	00000012 RCC_ADCCLKConfig
00000180 g     F .text	00000020 .hidden __riscv_restore_11
2000157c g     O .bss	00000004 NVIC_Priority_Group
00006ad4  w      .text	00000000 SPI1_IRQHandler
00006bf0 g     F .text	0000000a ADC_ResetCalibration
20001452 g     O .bss	00000002 right_high_pos
00007cd0 g     F .text	00000018 USART_Cmd
0000bcce g     F .text	00000028 _sbrk_r
000049a0 g     F .text	00000052 fw_subcommand_read_setting
20002b0c g     O .bss	00000014 right_low_rb
00006ad4  w      .text	00000000 TAMPER_IRQHandler
00000170 g     F .text	0000000c .hidden __riscv_save_1
200013c4 g     O .data	00000004 MyLangDescr
00000194 g     F .text	0000000c .hidden __riscv_restore_0
00007a26 g     F .text	000000b0 TIM_OC3Init
0000c23a g     F .text	0000002a _read_r
20002bb0 g     O .bss	0000000c imu_raw_buf
0000567c g     F .text	000000d6 set_indicate_led_function
00000156 g     F .text	0000001a .hidden __riscv_save_7
00007d18 g     F .text	00000002 USART_printf_Init
2000141d g     O .bss	00000001 decoded_cnt
00001014 g     F .text	0000000c i32_min
20001456 g     O .bss	00000002 left_high_pos
200014b8 g     O .bss	00000004 imu_id_read_fail_cnt
00006fd8 g     F .text	00000004 DMA_ClearITPendingBit
00007898 g     F .text	0000001e RCC_APB1PeriphClockCmd
00005444 g     F .text	0000007e set_led_rgb
20003528 g     O .bss	00000040 uart_rx_rb_len
00008254 g     F .text	000006e8 .hidden __adddf3
000068e8 g     F .text	0000008e rpt_wrapper
00005ba4 g     F .text	000000ae UART1_DMA_Init
20001288 g     O .data	00000029 MyCfgDescr
20004800 g       .stack	00000000 _heap_end
0000325e g     F .text	000001fe _imu_update_quaternion
000040a6 g     F .text	00000010 ns_subcommand_set_imu_register
0000c27c g     F .text	0000000c _isatty
2000144c g     O .bss	00000004 left_high_sum
2000158c g     O .bss	00000001 __lock___sinit_recursive_mutex
00005b1a g     F .text	00000020 Delay_Us
200013c8 g     O .data	00000004 _global_impure_ptr
00004712 g     F .text	0000003c ns_subcommand_get_battery_voltage
0000018a g     F .text	00000016 .hidden __riscv_restore_5
00007bf4 g     F .text	0000000c TIM_GetFlagStatus
20002b34 g     O .bss	00000014 left_low_rb
0000785c g     F .text	0000001e RCC_AHBPeriphClockCmd
00007ea4 g     F .text	000003b0 .hidden __udivdi3
00006ad4  w      .text	00000000 DMA1_Channel4_IRQHandler
00006c2c g     F .text	000000b8 ADC_RegularChannelConfig
200013f0 g     O .bss	00000008 joystick_snapback_deadzone_sq
000075b4 g     F .text	00000006 I2C_SendData
00009bda g     F .text	00000070 .hidden __floatunsidf
00007d1e g     F .text	0000002a _sbrk
20002c28 g     O .bss	00000010 adc_debounce
00006844 g     F .text	00000060 uart_com_task
0000cc38 g     O .text	0000000a MyManuInfo
20000020 g     O .data	00000040 kb_scan_to_hid
00000e6a g     F .text	0000010c conf_write
000046d2 g     F .text	00000040 ns_subcommand_set_rumble_state
0000622e g     F .text	00000006 set_bt_connect_mode
00005228 g     F .text	000000aa ring_buffer_push_with_hdr
0000742c g     F .text	00000112 I2C_Init
00006f9a g     F .text	00000020 DMA_GetFlagStatus
0000414a g     F .text	000000a0 ns_subcommand_pair_by_wire
0000018a g     F .text	00000016 .hidden __riscv_restore_6
00006ad4  w      .text	00000000 USART3_IRQHandler
00006ad4  w      .text	00000000 RTC_IRQHandler
00006c0c g     F .text	00000008 ADC_GetCalibrationStatus
200013dd g     O .bss	00000001 USBFS_DevConfig
2000425c g       .bss	00000000 _ebss
000040d2 g     F .text	00000040 ns_subcommand_set_mcu_conf
00006ad4  w      .text	00000000 DMA1_Channel7_IRQHandler
00004112 g     F .text	00000038 ns_subcommand_default
200013bc g     O .data	00000004 FW_SUB_VERSION
00006c14 g     F .text	00000018 ADC_SoftwareStartConvCmd
00007bbc g     F .text	00000012 TIM_OC3PreloadConfig
00006bfa g     F .text	00000008 ADC_GetResetCalibrationStatus
20000060 g     O .data	00000020 _gpio_mask_to_group_unsafe
000066ec g     F .text	0000007c reliable_uart_task
000078f2 g     F .text	0000002e RCC_GetFlagStatus
20001584 g     O .bss	00000001 __lock___malloc_recursive_mutex
00001744 g     F .text	00000070 deocde_hd_rumble_format1
0000ac30 g     F .text	00000146 .hidden __floatdisf
200014cc g     O .bss	00000004 imu_ratio_xf
0000172a g     F .text	0000001a get_hd_rumble_pack
200021fc g     O .bss	00000014 ns_usb_recv_rb
200023f0 g     O .bss	00000026 user_config
00004e94 g     F .text	00000022 fw_subcommand_reboot
20001568 g     O .bss	00000001 pkg_typ
20001440 g     O .bss	00000004 right_low_sum
000011c0 g     F .text	000000a2 gpio_tb_init
00004fe6 g     F .text	000000ae setup_exti
20001340 g     O .data	00000004 rts_tcnt
0000a29c g     F .text	00000096 .hidden __gtsf2
000073bc g     F .text	00000004 GPIO_SetBits
20002418 g     O .bss	00000048 user_calibration
200013e0 g     O .bss	00000002 USBFS_SetupReqIndex
00006ad4  w      .text	00000000 TIM4_IRQHandler
00007b9e g     F .text	0000001e TIM_ARRPreloadConfig
00000148 g     F .text	00000028 .hidden __riscv_save_9
000073c4 g     F .text	0000000a GPIO_WriteBit
00003f42 g     F .text	000000d8 init_all
20002c68 g     O .bss	00000400 ns_cmd_subcommand_cb_tb
2000141c g     O .bss	00000001 global_sample_channel
200034e8 g     O .bss	00000040 uart_tx_rb_len
0000755a g     F .text	0000001e I2C_GenerateSTART
200013e4 g     O .bss	00000001 USBFS_SetupReqType
00000fe4 g     F .text	00000030 read_flash
0000cf20 g     O .text	00000020 __sf_fake_stderr
00000156 g     F .text	0000001a .hidden __riscv_save_4
00004390 g     F .text	00000004 ns_subcommand_disable_mcu_polling
00006ad4  w      .text	00000000 I2C1_EV_IRQHandler
000061ca g     F .text	00000064 send_input_with_uart
00005f0c g     F .text	0000013c UART1_Rx_Service
0000b686 g     F .text	00000002 __retarget_lock_release_recursive
000028f2 g     F .text	00000140 i2c_read_start
0000539c g     F .text	00000054 spi_DMA_Tx_Init
00007c00 g     F .text	0000001c TIM_GetITStatus
200034c0 g     O .bss	00000014 uart_tx_rb
00002d86 g     F .text	00000096 set_imu_awake
00001702 g     F .text	00000028 ApplyFmCommand
200013d0 g     O .bss	00000008 USBFS_Endp_Busy
000077ac g     F .text	000000b0 RCC_GetClocksFreq
20001569 g     O .bss	00000001 pkg_len
200014a3 g     O .bss	00000001 i2c_status
00004470 g     F .text	00000034 ns_subcommand_set_mcu_state
00006ad4  w      .text	00000000 DMA1_Channel6_IRQHandler
0000aee2 g     F .text	0000006e .hidden __clzsi2
20000010 g     O .data	00000010 kb_pull
0000b9b0 g     F .text	00000044 __sfputs_r
000075ea g     F .text	00000026 I2C_NACKPositionConfig
0000b4de g     F .text	00000006 __sfp_lock_acquire
0000be7a g     F .text	0000001a memchr
2000270c g     O .bss	00000100 right_low_rb_buf
00007c2a g     F .text	000000a6 USART_Init
200014ac g     O .bss	00000001 imu_buf_pos
0000b788 g     F .text	0000009e _free_r
000021ee g     F .text	00000484 TIM3_IRQHandler
00006ad4  w      .text	00000000 RCC_IRQHandler
000040bc g     F .text	00000016 pkt_clr
00000170 g     F .text	0000000c .hidden __riscv_save_3
000044ac g     F .text	00000036 ns_subcommand_attachmend_read
00006ad4  w      .text	00000000 TIM1_TRG_COM_IRQHandler
000040ba g     F .text	00000002 ns_subcommand_reset_pairing_info
2000145b g     O .bss	00000001 left_high_buf_stdby
2000150c g     O .bss	00000005 imu_conf
00006ad4  w      .text	00000000 DMA1_Channel1_IRQHandler
00004fd8 g     F .text	0000000e ns_send_report
000057fc g     F .text	00000014 set_indicate_led_mode
00000000 g       .init	00000000 _start
20001278 g     O .data	00000010 AHBPrescTable
200014d2 g     O .bss	00000001 imu_upd_cnt
2000159c g     O .bss	00000030 ns_usb_rb_len
0000762a g     F .text	00000032 I2C_GetFlagStatus
0000c288 g     F .text	0000000c _lseek
2000143c g     O .bss	00000001 rumble_rb_overflow
0000aace g     F .text	000000cc .hidden __floatsisf
20001574 g     O .bss	00000004 get_peripheral_data
20001478 g     O .bss	00000008 left_high_buf
00006ad4  w      .text	00000000 EXTI15_10_IRQHandler
00006234 g     F .text	000000bc start_connect
00007b88 g     F .text	00000016 TIM_ITConfig
0000147e g     F .text	00000082 gpio_read_all
20001be4 g     O .bss	00000618 ns_usb_send_buf
00004286 g     F .text	0000004a ns_subcommand_set_input_mode
000055c2 g     F .text	00000052 _flush_rgb
00006fdc g     F .text	00000062 EXTI_Init
00000e5a g     F .text	00000010 hw_config_flush
200013e5 g     O .bss	00000001 USBFS_SetupReqCode
20001488 g     O .bss	00000008 right_high
0000438c g     F .text	00000004 ns_subcommand_enable_mcu_polling
00005d78 g     F .text	000000b2 UART1_Tx_Service
20000000 g     O .data	00000010 kb_scan
000026d0 g     F .text	0000011e i2c_software_recovery
20001534 g     O .bss	00000001 rx_ptr
00006048 g     F .text	0000004a send_uart_pkt
20001538 g     O .bss	00000002 UART1_Rx_RemainLen
2000153a g     O .bss	00000002 UART1_RX_LastCnt
00004546 g     F .text	0000004a ns_subcommand_set_indicate_led
000073fa g     F .text	00000032 I2C_DeInit
0000753e g     F .text	0000001c I2C_Cmd
000073c0 g     F .text	00000004 GPIO_ResetBits
200013da g     O .bss	00000001 USBFS_DevEnumStatus
0000bddc g     F .text	00000026 _close_r
20000000 g       .dalign	00000000 _data_vma
0000ab9a g     F .text	00000096 .hidden __fixsfdi
0000697e g     F .text	0000000e hid_init
2000154c g     O .bss	00000004 reliable_uart_timeout_cnt
2000126c g     O .data	0000000c default_device_info
00007be8 g     F .text	00000006 TIM_SetCompare3
00007ad6 g     F .text	00000080 TIM_OC4Init
00005a04 g     F .text	00000004 SetSysClock
00006768 g     F .text	00000086 reliable_uart_handler
0000b168 g     F .text	000000fa __swsetup_r
00006ad4  w      .text	00000000 EXTI9_5_IRQHandler
0000893c g     F .text	000005ae .hidden __divdf3
0000b568 g     F .text	000000b0 __sfp
000054c2 g     F .text	00000100 flush_spi_tx_seq
000013de g     F .text	000000a0 gpio_kb_scan
2000145e g     O .bss	00000001 left_low_buf_rdy
000073ce g     F .text	0000002c GPIO_EXTILineConfig
0000b4f0 g     F .text	00000006 __sinit_lock_release
200013dc g     O .bss	00000001 USBFS_DevAddr
00008eea g     F .text	0000054a .hidden __muldf3
00000148 g     F .text	00000028 .hidden __riscv_save_10
0000bcf6 g     F .text	00000030 __sread
000075c4 g     F .text	00000010 I2C_Send7bitAddress
20003568 g     O .bss	00000340 uart_tx_rb_buf
00004590 g     F .text	0000003c ns_subcommand_get_indicate_led
0000be94 g     F .text	00000008 __malloc_lock
0000389a g     F .text	00000008 get_peripheral_data_handler
0000018a g     F .text	00000016 .hidden __riscv_restore_4
00000180 g     F .text	00000020 .hidden __riscv_restore_8
0000b39a g     F .text	0000008a _fflush_r
2000145f g     O .bss	00000001 left_high_buf_rdy
00000156 g     F .text	0000001a .hidden __riscv_save_6
00006ad4  w      .text	00000000 SPI2_IRQHandler
000062f0 g     F .text	00000038 wake_esp32
0000cf60 g     O .text	00000020 __sf_fake_stdin
0000b684 g     F .text	00000002 __retarget_lock_acquire_recursive
20001444 g     O .bss	00000004 right_high_sum
00002046 g     F .text	00000108 push_waveform_into_buffer_task
00005752 g     F .text	0000009e set_indicate_led_player
000001b6 g     F .text	00000010 memset
20001548 g     O .bss	00000004 reliable_uart_handled_cnt
00007d90 g     F .text	00000114 __ieee754_sqrtf
000010fc g     F .text	00000056 DMA_Tx_Init
00000180 g     F .text	00000020 .hidden __riscv_restore_9
0000018a g     F .text	00000016 .hidden __riscv_restore_7
0000401a g     F .text	0000008a main
00001a2c g     F .text	0000010e decode_hd_rumble_format2long
20001460 g     O .bss	00000008 right_low_buf
0000440e g     F .text	00000062 ns_subcommand_spi_write
200013fc g     O .bss	00000008 adc_data
0000b682 g     F .text	00000002 __retarget_lock_init_recursive
00005a98 g     F .text	00000012 SysTick_Init
20001338 g     O .data	00000004 hd_rumble_cvr_range
000053f0 g     F .text	00000054 rgb_spi_pkg_gen
20000140 g     O .data	00000100 amp_exp2_index_lookup_tb
20001414 g     O .bss	00000008 m_state
0000a332 g     F .text	00000098 .hidden __ltsf2
000068a4 g     F .text	00000006 ns_set_peripheral_data_getter
00006a78 g     F .text	0000005c hid_rx_service
20002b48 g     O .bss	00000014 left_high_rb
0000bdaa g     F .text	00000006 __sclose
2000145c g     O .bss	00000001 right_low_buf_rdy
0000ad76 g     F .text	0000016c .hidden __truncdfsf2
00007998 g     F .text	00000016 SPI_I2S_DMACmd
00004e24 g     F .text	00000070 fw_subcommand_get_status
0000b87a g     F .text	0000010c _malloc_r
00003b70 g     F .text	00000084 joystick_debounce_task
20001540 g     O .bss	00000002 UART1_TimeOut
2000145a g     O .bss	00000001 left_low_buf_stdby
200013db g     O .bss	00000001 USBFS_DevSleepStatus
200014a2 g     O .bss	00000001 i2c_error_code
00006ce4 g     F .text	00000182 Get_CalibrationValue
20002514 g     O .bss	00000100 flash_buffer
00006ad4  w      .text	00000000 DMA1_Channel5_IRQHandler
00007762 g     F .text	00000024 RCC_USBCLKConfig
0000cc44 g     O .text	000000df MyHIDReportDesc
00006ad4  w      .text	00000000 EXTI4_IRQHandler
00005b3a g     F .text	00000018 Delay_Ms
000008ea g     F .text	000000bc USBFS_Device_Init
0000cc0c g     O .text	0000002a MyProdInfo
0000a3ca g     F .text	000002dc .hidden __mulsf3
00007bee g     F .text	00000006 TIM_SetCompare4
200014a1 g     O .bss	00000001 i2c_intr_error
00005198 g     F .text	00000090 ring_buffer_push
00000f76 g     F .text	0000006e write_flash
000030a6 g     F .text	00000090 _imu_quat_normalize
000017b4 g     F .text	00000082 decode_hd_rumble_format1long
0000797a g     F .text	0000001e SPI_Cmd
0000466a g     F .text	00000068 ns_subcommand_read_imu_register
00002cbc g     F .text	000000ca imu_read
00002672 g     F .text	0000001a i2c2_check_flag
20001578 g     O .bss	00000001 HID_Set_Report_Flag
00007d0a g     F .text	0000000e USART_ClearFlag
0000023c g     F .text	0000003c USBFS_Device_Endp_Init
200014c4 g     O .bss	00000004 imu_ratio_zf
000075d4 g     F .text	00000016 I2C_SoftwareResetCmd
0000594a g     F .text	00000044 SystemInit
00002e1c g     F .text	00000024 set_imu_sleep
2000156c g     O .bss	00000004 pkg_ptr
200022f0 g     O .bss	000000ff rgb_data
000045cc g     F .text	00000040 ns_subcommand_set_imu_state
000049f2 g     F .text	000000b8 fw_subcommand_read_emulate_rom
0000af56 g     F .text	0000003a iprintf
000050c2 g     F .text	0000004c set_pwr_mode_sleep
200013c0 g     O .data	00000004 FW_VERSION
0000ce20 g     O .text	00000100 .hidden __clz_tab
00000000 g       .init	00000000 _sinit
000061c2 g     F .text	00000008 imu_buffer_reset_notifier
20001448 g     O .bss	00000004 left_low_sum
20001519 g     O .bss	00000001 force_esp32_active
0000a29c g     F .text	00000096 .hidden __gesf2
0000bdb0 g     F .text	0000002c _write_r
00002a32 g     F .text	00000084 i2c_read_byte
00005856 g     F .text	0000002e DMA1_Channel3_IRQHandler
20001470 g     O .bss	00000008 left_low_buf
0000bea4 g     F .text	00000110 _printf_common
20001364 g     O .data	00000004 _impure_ptr
0000104a g     F .text	000000b2 ADC_Function_Init
00006ad4  w      .text	00000000 TIM1_UP_IRQHandler
00001152 g     F .text	0000006e adc_init
0000b262 g     F .text	00000138 __sflush_r
00003e4e g     F .text	00000062 routine_service
00001f44 g     F .text	000000a2 hd_rumble_high_accurary_init
2000290c g     O .bss	00000100 left_low_rb_buf
00002c78 g     F .text	00000010 i2c_init
20002bf8 g     O .bss	00000030 js_snapback_samples
00006ad4  w      .text	00000000 WWDG_IRQHandler
000078d4 g     F .text	0000001e RCC_APB1PeriphResetCmd
00000a6c g     F .text	00000010 custom_conf_read
20002210 g     O .bss	00000014 ns_usb_send_rb
00005ac8 g     F .text	00000016 HighPrecisionTimer_Init
00005aaa g     F .text	00000018 Get_Systick_US
00005a08 g     F .text	00000028 TIM2_IRQHandler
20005000 g       .stack	00000000 _eusrstack
200014c8 g     O .bss	00000004 imu_ratio_yf
00001584 g     F .text	00000116 hd_rumble_init
00000170 g     F .text	0000000c .hidden __riscv_save_2
00006ad4  w      .text	00000000 SW_Handler
20001524 g     O .bss	00000001 indi_status
200034d4 g     O .bss	00000014 uart_rx_rb
000016de g     F .text	00000024 ApplyAmCommand
00001c7c g     F .text	0000027e decode_hd_rumble_multiformat_high_acc
000048ae g     F .text	0000003c ns_cmd_subcommand_dispatcher
00002192 g     F .text	0000005c rumble_pattern_check
20001468 g     O .bss	00000008 right_high_buf
00005ac2 g     F .text	00000006 Get_Systick_MS
200013d9 g     O .bss	00000001 USBFS_HidIdle
200014b4 g     O .bss	00000001 imu_error
00006b54 g     F .text	0000002a ADC_DeInit
00004316 g     F .text	0000003a ns_subcommand_get_page_list_state
00004f92 g     F .text	00000046 hid_dispatch
00002e42 g     F .text	00000264 imu_upd
0000642e g     F .text	00000058 recv_pwr_control
00006ad4  w      .text	00000000 TIM1_BRK_IRQHandler
0000b688 g     F .text	0000005c __swhatbuf_r
00006b7e g     F .text	00000050 ADC_Init
2000153e g     O .bss	00000001 UART1_Tx_Flag
00006ad4  w      .text	00000000 EXTI1_IRQHandler
20001240 g     O .data	0000001c _imu_quat_state
20002ba4 g     O .bss	0000000c imu_res
0000510e g     F .text	0000004c set_pwr_mode_stop
00000156 g     F .text	0000001a .hidden __riscv_save_5
00002832 g     F .text	000000c0 i2c_hardware_init
20001498 g     O .bss	00000008 left_high
00007d1a g     F .text	00000004 _write
000044a4 g     F .text	00000004 ns_subcommand_attachmend_write
200022a4 g     O .bss	00000040 USBFS_EP0_Buf
200013cc g       .data	00000000 _edata
0000474e g     F .text	0000003a ns_subcommand_read_charge_setting
200013e8 g     O .bss	00000004 pUSBFS_Descr
2000425c g       .bss	00000000 _end
20001530 g     O .bss	00000004 Systick_MS
0000aa32 g     F .text	0000003c .hidden __unordsf2
20001450 g     O .bss	00000002 right_low_pos
00003136 g     F .text	00000128 _imu_rotate_quaternion
20001490 g     O .bss	00000008 left_low
00001efa g     F .text	0000004a hd_rumble_lookup_tb_init
000079ae g     F .text	00000078 TIM_TimeBaseInit
00006ad4  w      .text	00000000 RTCAlarm_IRQHandler
00001262 g     F .text	000000ce _gpio_init
000076fe g     F .text	0000000e PWR_GetFlagStatus
0000d014 g       .dlalign	00000000 _data_lma
00004788 g     F .text	00000112 ns_subcommand_callback_init
00004512 g     F .text	00000034 ns_subcommand_get_attachment_info
00000a9e g     F .text	00000012 fac_conf_write
00006ad4  w      .text	00000000 USART2_IRQHandler
0000bd26 g     F .text	0000004e __swrite
000076ee g     F .text	00000010 PWR_PVDLevelConfig
20003118 g     O .bss	00000025 connection_state
00000a7c g     F .text	00000010 custom_conf_write
200014c0 g     O .bss	00000004 imu_read_cnt
0000b9f4 g     F .text	000002da _vfiprintf_r
00001836 g     F .text	0000012a decode_hd_rumble_format1full
0000b618 g     F .text	0000006a _fwalk_reent
0000598e g     F .text	00000076 SystemCoreClockUpdate
20001514 g     O .bss	00000004 rts_cnt
00001b3a g     F .text	00000142 decode_hd_rumble_format3
200015cc g     O .bss	00000618 ns_usb_recv_buf
00006486 g     F .text	0000010a recv_flash_operation
000026a6 g     F .text	0000002a I2C2_ER_IRQHandler
000071d8 g     F .text	0000011a FLASH_ROM_WRITE
00006ad4  w      .text	00000000 DMA1_Channel2_IRQHandler
0000b4e4 g     F .text	00000006 __sfp_lock_release
0000cf40 g     O .text	00000020 __sf_fake_stdout
0000017c g     F .text	00000024 .hidden __riscv_restore_12
200013ec g     O .bss	00000004 button_active_mask
00006fba g     F .text	0000001a DMA_ClearFlag
0000c294 g     F .text	0000000c _read
00006ad6  w      .text	00000000 handle_reset
00004eb6 g     F .text	00000042 fw_subcommand_get_version
00006976 g     F .text	00000008 set_imu_available
000057f0 g     F .text	0000000c set_indicate_led_status
200014d0 g     O .bss	00000001 imu_mode
00004d8c g     F .text	0000002c fw_subcommand_calibrate_imu
00006ad4  w      .text	00000000 FLASH_IRQHandler
00000170 g     F .text	0000000c .hidden __riscv_save_0
00006590 g     F .text	00000126 connection_state_handler
00006158 g     F .text	0000006a uart_conf_write
00006ad4  w      .text	00000000 USART1_IRQHandler
0000b6e4 g     F .text	000000a4 __smakebuf_r
000038a2 g     F .text	000002ce joystick_snapback_filter
00004aea g     F .text	00000118 _calibrate_imu_raw
00004db8 g     F .text	0000006c fw_subcommand_calibrate_js_offset
00007798 g     F .text	00000014 RCC_LSICmd
00007596 g     F .text	0000001e I2C_AcknowledgeConfig
00004aaa g     F .text	00000040 fw_subcommand_write_emulate_rom
0000bfb4 g     F .text	00000286 _printf_i
20001458 g     O .bss	00000001 right_low_buf_stdby
00005ed8 g     F .text	00000034 check_uart_pkt
20001590 g     O .bss	00000004 __malloc_sbrk_start
00007610 g     F .text	0000001a I2C_CheckEvent
00005e2a g     F .text	000000ae encode_uart_pkt
000078b6 g     F .text	0000001e RCC_APB2PeriphResetCmd
200014d1 g     O .bss	00000001 imu_rdy
00007578 g     F .text	0000001e I2C_GenerateSTOP
000040b8 g     F .text	00000002 ns_subcommand_set_home_led
00001554 g     F .text	0000001e gpio_set
00006ad4  w      .text	00000000 I2C1_ER_IRQHandler
00007920 g     F .text	0000005a SPI_Init
0000765c g     F .text	00000010 NVIC_PriorityGroupConfig
00006e66 g     F .text	000000e0 DMA_DeInit
000013bc g     F .text	00000022 gpio_init
20001594 g     O .bss	00000004 __malloc_free_list
000048ea g     F .text	0000008e ns_mux_usb_handshake_handler
00004c02 g     F .text	0000018a calibrate_imu
00006328 g     F .text	000000e2 recv_esp32_connect_control
00000194 g     F .text	0000000c .hidden __riscv_restore_1
2000140c g     O .bss	00000008 sample
000068aa g     F .text	0000003e ns_hid_get_packet_timer
000070be g     F .text	0000011a FLASH_ROM_ERASE
20001536 g     O .bss	00000002 UART1_Rx_Deal_Ptr
00009434 g     F .text	00000736 .hidden __subdf3
0000b9f4 g     F .text	000002da _vfprintf_r
000042d0 g     F .text	00000046 ns_subcommand_trigger_buttons_elapsed_time
20001580 g     O .bss	00000004 pEP1_RAM_Addr
000073b0 g     F .text	0000000c GPIO_ReadInputDataBit
00005c52 g     F .text	000000de UART1_Init
00007ce8 g     F .text	00000016 USART_DMACmd
00005d30 g     F .text	00000048 UART1_DMA_Tx
2000280c g     O .bss	00000100 right_high_rb_buf
00009c4a g     F .text	00000368 .hidden __addsf3
00000b3c g     F .text	0000031e conf_init
000066b6 g     F .text	00000036 reliable_uart_init
00004350 g     F .text	00000038 ns_subcommand_set_shipping_mode
00006ad4  w      .text	00000000 USBWakeUp_IRQHandler
000076da g     F .text	00000014 PWR_PVDCmd
00001fe6 g     F .text	00000060 push_waveform
20001588 g     O .bss	00000001 __lock___sfp_recursive_mutex
20000080 g     O .data	000000c0 CommandTable
0000c264 g     F .text	0000000c _close
00002b62 g     F .text	00000116 i2c_write_byte
000027ee g     F .text	00000044 i2c2_reset
0000b4ea g     F .text	00000006 __sinit_lock_acquire
0000169a g     F .text	0000000e hd_rumble_set_status



Disassembly of section .init:

00000000 <_sinit>:
   0:	2d70606f          	j	6ad6 <handle_reset>
   4:	00000013          	.word	0x00000013
   8:	00000013          	.word	0x00000013
   c:	00000013          	.word	0x00000013
  10:	00000013          	.word	0x00000013
  14:	00000013          	.word	0x00000013
  18:	00000013          	.word	0x00000013
  1c:	00000013          	.word	0x00000013
  20:	00000013          	.word	0x00000013
  24:	00000013          	.word	0x00000013
  28:	00000013          	.word	0x00000013
  2c:	00000013          	.word	0x00000013
  30:	00000013          	.word	0x00000013
  34:	00100073          	.word	0x00100073

Disassembly of section .vector:

00000038 <_vector_base>:
  38:	fc9ff06f          	j	0 <_sinit>
  3c:	00000000          	.word	0x00000000
  40:	1860006f          	j	1c6 <NMI_Handler>
  44:	1aa0006f          	j	1ee <HardFault_Handler>
	...
  68:	26d0606f          	j	6ad4 <ADC1_2_IRQHandler>
  6c:	00000000          	.word	0x00000000
  70:	2650606f          	j	6ad4 <ADC1_2_IRQHandler>
  74:	00000000          	.word	0x00000000
  78:	25d0606f          	j	6ad4 <ADC1_2_IRQHandler>
  7c:	2590606f          	j	6ad4 <ADC1_2_IRQHandler>
  80:	2550606f          	j	6ad4 <ADC1_2_IRQHandler>
  84:	2510606f          	j	6ad4 <ADC1_2_IRQHandler>
  88:	24d0606f          	j	6ad4 <ADC1_2_IRQHandler>
  8c:	2490606f          	j	6ad4 <ADC1_2_IRQHandler>
  90:	2450606f          	j	6ad4 <ADC1_2_IRQHandler>
  94:	2410606f          	j	6ad4 <ADC1_2_IRQHandler>
  98:	23d0606f          	j	6ad4 <ADC1_2_IRQHandler>
  9c:	2390606f          	j	6ad4 <ADC1_2_IRQHandler>
  a0:	2350606f          	j	6ad4 <ADC1_2_IRQHandler>
  a4:	2310606f          	j	6ad4 <ADC1_2_IRQHandler>
  a8:	22d0606f          	j	6ad4 <ADC1_2_IRQHandler>
  ac:	7aa0506f          	j	5856 <DMA1_Channel3_IRQHandler>
  b0:	2250606f          	j	6ad4 <ADC1_2_IRQHandler>
  b4:	2210606f          	j	6ad4 <ADC1_2_IRQHandler>
  b8:	21d0606f          	j	6ad4 <ADC1_2_IRQHandler>
  bc:	2190606f          	j	6ad4 <ADC1_2_IRQHandler>
  c0:	2150606f          	j	6ad4 <ADC1_2_IRQHandler>
	...
  d4:	2010606f          	j	6ad4 <ADC1_2_IRQHandler>
  d8:	1fd0606f          	j	6ad4 <ADC1_2_IRQHandler>
  dc:	1f90606f          	j	6ad4 <ADC1_2_IRQHandler>
  e0:	1f50606f          	j	6ad4 <ADC1_2_IRQHandler>
  e4:	1f10606f          	j	6ad4 <ADC1_2_IRQHandler>
  e8:	1210506f          	j	5a08 <TIM2_IRQHandler>
  ec:	1020206f          	j	21ee <TIM3_IRQHandler>
  f0:	1e50606f          	j	6ad4 <ADC1_2_IRQHandler>
  f4:	1e10606f          	j	6ad4 <ADC1_2_IRQHandler>
  f8:	1dd0606f          	j	6ad4 <ADC1_2_IRQHandler>
  fc:	1d90606f          	j	6ad4 <ADC1_2_IRQHandler>
 100:	5a60206f          	j	26a6 <I2C2_ER_IRQHandler>
 104:	1d10606f          	j	6ad4 <ADC1_2_IRQHandler>
 108:	1cd0606f          	j	6ad4 <ADC1_2_IRQHandler>
 10c:	1c90606f          	j	6ad4 <ADC1_2_IRQHandler>
 110:	1c50606f          	j	6ad4 <ADC1_2_IRQHandler>
 114:	1c10606f          	j	6ad4 <ADC1_2_IRQHandler>
 118:	1bd0606f          	j	6ad4 <ADC1_2_IRQHandler>
 11c:	1b90606f          	j	6ad4 <ADC1_2_IRQHandler>
 120:	1b50606f          	j	6ad4 <ADC1_2_IRQHandler>
 124:	1540006f          	j	278 <USBFS_IRQHandler>
	...

Disassembly of section .text:

00000140 <__riscv_save_12>:
     140:	7139                	addi	sp,sp,-64
     142:	4301                	li	t1,0
     144:	c66e                	sw	s11,12(sp)
     146:	a019                	j	14c <__riscv_save_10+0x4>

00000148 <__riscv_save_10>:
     148:	7139                	addi	sp,sp,-64
     14a:	5341                	li	t1,-16
     14c:	c86a                	sw	s10,16(sp)
     14e:	ca66                	sw	s9,20(sp)
     150:	cc62                	sw	s8,24(sp)
     152:	ce5e                	sw	s7,28(sp)
     154:	a019                	j	15a <__riscv_save_4+0x4>

00000156 <__riscv_save_4>:
     156:	7139                	addi	sp,sp,-64
     158:	5301                	li	t1,-32
     15a:	d05a                	sw	s6,32(sp)
     15c:	d256                	sw	s5,36(sp)
     15e:	d452                	sw	s4,40(sp)
     160:	d64e                	sw	s3,44(sp)
     162:	d84a                	sw	s2,48(sp)
     164:	da26                	sw	s1,52(sp)
     166:	dc22                	sw	s0,56(sp)
     168:	de06                	sw	ra,60(sp)
     16a:	40610133          	sub	sp,sp,t1
     16e:	8282                	jr	t0

00000170 <__riscv_save_0>:
     170:	1141                	addi	sp,sp,-16
     172:	c04a                	sw	s2,0(sp)
     174:	c226                	sw	s1,4(sp)
     176:	c422                	sw	s0,8(sp)
     178:	c606                	sw	ra,12(sp)
     17a:	8282                	jr	t0

0000017c <__riscv_restore_12>:
     17c:	4db2                	lw	s11,12(sp)
     17e:	0141                	addi	sp,sp,16

00000180 <__riscv_restore_10>:
     180:	4d02                	lw	s10,0(sp)
     182:	4c92                	lw	s9,4(sp)
     184:	4c22                	lw	s8,8(sp)
     186:	4bb2                	lw	s7,12(sp)
     188:	0141                	addi	sp,sp,16

0000018a <__riscv_restore_4>:
     18a:	4b02                	lw	s6,0(sp)
     18c:	4a92                	lw	s5,4(sp)
     18e:	4a22                	lw	s4,8(sp)
     190:	49b2                	lw	s3,12(sp)
     192:	0141                	addi	sp,sp,16

00000194 <__riscv_restore_0>:
     194:	4902                	lw	s2,0(sp)
     196:	4492                	lw	s1,4(sp)
     198:	4422                	lw	s0,8(sp)
     19a:	40b2                	lw	ra,12(sp)
     19c:	0141                	addi	sp,sp,16
     19e:	8082                	ret

000001a0 <memcpy>:
     1a0:	832a                	mv	t1,a0
     1a2:	ca09                	beqz	a2,1b4 <memcpy+0x14>
     1a4:	00058383          	lb	t2,0(a1)
     1a8:	00730023          	sb	t2,0(t1)
     1ac:	167d                	addi	a2,a2,-1
     1ae:	0305                	addi	t1,t1,1
     1b0:	0585                	addi	a1,a1,1
     1b2:	fa6d                	bnez	a2,1a4 <memcpy+0x4>
     1b4:	8082                	ret

000001b6 <memset>:
     1b6:	832a                	mv	t1,a0
     1b8:	c611                	beqz	a2,1c4 <memset+0xe>
     1ba:	00b30023          	sb	a1,0(t1)
     1be:	167d                	addi	a2,a2,-1
     1c0:	0305                	addi	t1,t1,1
     1c2:	fe65                	bnez	a2,1ba <memset+0x4>
     1c4:	8082                	ret

000001c6 <NMI_Handler>:
     1c6:	4501                	li	a0,0
     1c8:	44c050ef          	jal	ra,5614 <flush_rgb>
     1cc:	40021737          	lui	a4,0x40021
     1d0:	471c                	lw	a5,8(a4)
     1d2:	008006b7          	lui	a3,0x800
     1d6:	8fd5                	or	a5,a5,a3
     1d8:	c71c                	sw	a5,8(a4)
     1da:	02b050ef          	jal	ra,5a04 <SetSysClock>
     1de:	e000e737          	lui	a4,0xe000e
     1e2:	473c                	lw	a5,72(a4)
     1e4:	0087e793          	ori	a5,a5,8
     1e8:	c73c                	sw	a5,72(a4)
     1ea:	30200073          	mret

000001ee <HardFault_Handler>:
     1ee:	30200073          	mret

000001f2 <USBFS_RCC_Init>:
     1f2:	f7fff2ef          	jal	t0,170 <__riscv_save_0>
     1f6:	4511                	li	a0,4
     1f8:	4585                	li	a1,1
     1fa:	680070ef          	jal	ra,787a <RCC_APB2PeriphClockCmd>
     1fe:	400247b7          	lui	a5,0x40024
     202:	80078793          	addi	a5,a5,-2048 # 40023800 <_eusrstack+0x2001e800>
     206:	4398                	lw	a4,0(a5)
     208:	4501                	li	a0,0
     20a:	00476713          	ori	a4,a4,4
     20e:	c398                	sw	a4,0(a5)
     210:	8241a703          	lw	a4,-2012(gp) # 2000134c <SystemCoreClock>
     214:	044aa7b7          	lui	a5,0x44aa
     218:	20078793          	addi	a5,a5,512 # 44aa200 <_data_lma+0x449d1ec>
     21c:	00f70963          	beq	a4,a5,22e <USBFS_RCC_Init+0x3c>
     220:	02dc77b7          	lui	a5,0x2dc7
     224:	c0078793          	addi	a5,a5,-1024 # 2dc6c00 <_data_lma+0x2db9bec>
     228:	00f71563          	bne	a4,a5,232 <USBFS_RCC_Init+0x40>
     22c:	4505                	li	a0,1
     22e:	534070ef          	jal	ra,7762 <RCC_USBCLKConfig>
     232:	4585                	li	a1,1
     234:	6505                	lui	a0,0x1
     236:	626070ef          	jal	ra,785c <RCC_AHBPeriphClockCmd>
     23a:	bfa9                	j	194 <__riscv_restore_0>

0000023c <USBFS_Device_Endp_Init>:
     23c:	40023737          	lui	a4,0x40023
     240:	fc000793          	li	a5,-64
     244:	40f70623          	sb	a5,1036(a4) # 4002340c <_eusrstack+0x2001e40c>
     248:	77c18793          	addi	a5,gp,1916 # 200022a4 <USBFS_EP0_Buf>
     24c:	07c2                	slli	a5,a5,0x10
     24e:	83c1                	srli	a5,a5,0x10
     250:	40f71823          	sh	a5,1040(a4)
     254:	6fc18793          	addi	a5,gp,1788 # 20002224 <USBFS_EP1_Buf>
     258:	a4f1ac23          	sw	a5,-1448(gp) # 20001580 <pEP1_RAM_Addr>
     25c:	07c2                	slli	a5,a5,0x10
     25e:	83c1                	srli	a5,a5,0x10
     260:	40f71a23          	sh	a5,1044(a4)
     264:	4789                	li	a5,2
     266:	42f70923          	sb	a5,1074(a4)
     26a:	42f70b23          	sb	a5,1078(a4)
     26e:	8a818793          	addi	a5,gp,-1880 # 200013d0 <USBFS_Endp_Busy>
     272:	000780a3          	sb	zero,1(a5)
     276:	8082                	ret

00000278 <USBFS_IRQHandler>:
     278:	1101                	addi	sp,sp,-32
     27a:	ce22                	sw	s0,28(sp)
     27c:	cc26                	sw	s1,24(sp)
     27e:	ca4a                	sw	s2,20(sp)
     280:	c84e                	sw	s3,16(sp)
     282:	c652                	sw	s4,12(sp)
     284:	c456                	sw	s5,8(sp)
     286:	40023437          	lui	s0,0x40023
     28a:	40644703          	lbu	a4,1030(s0) # 40023406 <_eusrstack+0x2001e406>
     28e:	40744783          	lbu	a5,1031(s0)
     292:	0ff77693          	zext.b	a3,a4
     296:	8b09                	andi	a4,a4,2
     298:	5e070463          	beqz	a4,880 <__stack_size+0x80>
     29c:	0ff7f793          	zext.b	a5,a5
     2a0:	0307f713          	andi	a4,a5,48
     2a4:	02000593          	li	a1,32
     2a8:	04b70263          	beq	a4,a1,2ec <USBFS_IRQHandler+0x74>
     2ac:	03000693          	li	a3,48
     2b0:	16d70f63          	beq	a4,a3,42e <USBFS_IRQHandler+0x1b6>
     2b4:	e721                	bnez	a4,2fc <USBFS_IRQHandler+0x84>
     2b6:	03f7f713          	andi	a4,a5,63
     2ba:	12070063          	beqz	a4,3da <USBFS_IRQHandler+0x162>
     2be:	4685                	li	a3,1
     2c0:	02d71e63          	bne	a4,a3,2fc <USBFS_IRQHandler+0x84>
     2c4:	0407f793          	andi	a5,a5,64
     2c8:	cb95                	beqz	a5,2fc <USBFS_IRQHandler+0x84>
     2ca:	43644783          	lbu	a5,1078(s0)
     2ce:	6d418513          	addi	a0,gp,1748 # 200021fc <ns_usb_recv_rb>
     2d2:	0807c793          	xori	a5,a5,128
     2d6:	42f40b23          	sb	a5,1078(s0)
     2da:	40845603          	lhu	a2,1032(s0)
     2de:	a581a583          	lw	a1,-1448(gp) # 20001580 <pEP1_RAM_Addr>
     2e2:	0ff67613          	zext.b	a2,a2
     2e6:	6b3040ef          	jal	ra,5198 <ring_buffer_push>
     2ea:	a809                	j	2fc <USBFS_IRQHandler+0x84>
     2ec:	03f7f793          	andi	a5,a5,63
     2f0:	02e78463          	beq	a5,a4,318 <USBFS_IRQHandler+0xa0>
     2f4:	02100713          	li	a4,33
     2f8:	0ae78e63          	beq	a5,a4,3b4 <USBFS_IRQHandler+0x13c>
     2fc:	400237b7          	lui	a5,0x40023
     300:	4709                	li	a4,2
     302:	40e78323          	sb	a4,1030(a5) # 40023406 <_eusrstack+0x2001e406>
     306:	4472                	lw	s0,28(sp)
     308:	44e2                	lw	s1,24(sp)
     30a:	4952                	lw	s2,20(sp)
     30c:	49c2                	lw	s3,16(sp)
     30e:	4a32                	lw	s4,12(sp)
     310:	4aa2                	lw	s5,8(sp)
     312:	6105                	addi	sp,sp,32
     314:	30200073          	mret
     318:	8b61d783          	lhu	a5,-1866(gp) # 200013de <USBFS_SetupReqLen>
     31c:	e799                	bnez	a5,32a <USBFS_IRQHandler+0xb2>
     31e:	43244783          	lbu	a5,1074(s0)
     322:	0f37f793          	andi	a5,a5,243
     326:	42f40923          	sb	a5,1074(s0)
     32a:	8bc1c783          	lbu	a5,-1860(gp) # 200013e4 <USBFS_SetupReqType>
     32e:	0607f793          	andi	a5,a5,96
     332:	f7e9                	bnez	a5,2fc <USBFS_IRQHandler+0x84>
     334:	8bd1c783          	lbu	a5,-1859(gp) # 200013e5 <USBFS_SetupReqCode>
     338:	4695                	li	a3,5
     33a:	0ff7f713          	zext.b	a4,a5
     33e:	04d78f63          	beq	a5,a3,39c <USBFS_IRQHandler+0x124>
     342:	4799                	li	a5,6
     344:	faf71ce3          	bne	a4,a5,2fc <USBFS_IRQHandler+0x84>
     348:	8b61d703          	lhu	a4,-1866(gp) # 200013de <USBFS_SetupReqLen>
     34c:	03f00793          	li	a5,63
     350:	04000413          	li	s0,64
     354:	00e7e663          	bltu	a5,a4,360 <USBFS_IRQHandler+0xe8>
     358:	8b61d403          	lhu	s0,-1866(gp) # 200013de <USBFS_SetupReqLen>
     35c:	0442                	slli	s0,s0,0x10
     35e:	8041                	srli	s0,s0,0x10
     360:	8c01a903          	lw	s2,-1856(gp) # 200013e8 <pUSBFS_Descr>
     364:	8622                	mv	a2,s0
     366:	85ca                	mv	a1,s2
     368:	77c18513          	addi	a0,gp,1916 # 200022a4 <USBFS_EP0_Buf>
     36c:	3d15                	jal	1a0 <memcpy>
     36e:	8b61d783          	lhu	a5,-1866(gp) # 200013de <USBFS_SetupReqLen>
     372:	9922                	add	s2,s2,s0
     374:	8d21a023          	sw	s2,-1856(gp) # 200013e8 <pUSBFS_Descr>
     378:	8f81                	sub	a5,a5,s0
     37a:	07c2                	slli	a5,a5,0x10
     37c:	83c1                	srli	a5,a5,0x10
     37e:	8af19b23          	sh	a5,-1866(gp) # 200013de <USBFS_SetupReqLen>
     382:	0ff47413          	zext.b	s0,s0
     386:	400237b7          	lui	a5,0x40023
     38a:	42878823          	sb	s0,1072(a5) # 40023430 <_eusrstack+0x2001e430>
     38e:	4327c703          	lbu	a4,1074(a5)
     392:	04074713          	xori	a4,a4,64
     396:	42e78923          	sb	a4,1074(a5)
     39a:	b78d                	j	2fc <USBFS_IRQHandler+0x84>
     39c:	400236b7          	lui	a3,0x40023
     3a0:	4036c703          	lbu	a4,1027(a3) # 40023403 <_eusrstack+0x2001e403>
     3a4:	8b41c783          	lbu	a5,-1868(gp) # 200013dc <USBFS_DevAddr>
     3a8:	08077713          	andi	a4,a4,128
     3ac:	8fd9                	or	a5,a5,a4
     3ae:	40f681a3          	sb	a5,1027(a3)
     3b2:	b7a9                	j	2fc <USBFS_IRQHandler+0x84>
     3b4:	43644783          	lbu	a5,1078(s0)
     3b8:	0fc7f793          	andi	a5,a5,252
     3bc:	0027e793          	ori	a5,a5,2
     3c0:	42f40b23          	sb	a5,1078(s0)
     3c4:	43644783          	lbu	a5,1078(s0)
     3c8:	0407c793          	xori	a5,a5,64
     3cc:	42f40b23          	sb	a5,1078(s0)
     3d0:	8a818793          	addi	a5,gp,-1880 # 200013d0 <USBFS_Endp_Busy>
     3d4:	000780a3          	sb	zero,1(a5)
     3d8:	b715                	j	2fc <USBFS_IRQHandler+0x84>
     3da:	0407f793          	andi	a5,a5,64
     3de:	f0078fe3          	beqz	a5,2fc <USBFS_IRQHandler+0x84>
     3e2:	8bc1c783          	lbu	a5,-1860(gp) # 200013e4 <USBFS_SetupReqType>
     3e6:	0607f793          	andi	a5,a5,96
     3ea:	f00789e3          	beqz	a5,2fc <USBFS_IRQHandler+0x84>
     3ee:	8bc1c783          	lbu	a5,-1860(gp) # 200013e4 <USBFS_SetupReqType>
     3f2:	0607f793          	andi	a5,a5,96
     3f6:	f0b793e3          	bne	a5,a1,2fc <USBFS_IRQHandler+0x84>
     3fa:	8bd1c703          	lbu	a4,-1859(gp) # 200013e5 <USBFS_SetupReqCode>
     3fe:	47a5                	li	a5,9
     400:	eef71ee3          	bne	a4,a5,2fc <USBFS_IRQHandler+0x84>
     404:	20004537          	lui	a0,0x20004
     408:	04000613          	li	a2,64
     40c:	77c18593          	addi	a1,gp,1916 # 200022a4 <USBFS_EP0_Buf>
     410:	21c50513          	addi	a0,a0,540 # 2000421c <HID_Report_Buffer>
     414:	3371                	jal	1a0 <memcpy>
     416:	4705                	li	a4,1
     418:	a4e18823          	sb	a4,-1456(gp) # 20001578 <HID_Set_Report_Flag>
     41c:	43244783          	lbu	a5,1074(s0)
     420:	0fc7f793          	andi	a5,a5,252
     424:	0027e793          	ori	a5,a5,2
     428:	42f40923          	sb	a5,1074(s0)
     42c:	bdc1                	j	2fc <USBFS_IRQHandler+0x84>
     42e:	fca00793          	li	a5,-54
     432:	42f40923          	sb	a5,1074(s0)
     436:	77c18713          	addi	a4,gp,1916 # 200022a4 <USBFS_EP0_Buf>
     43a:	00074783          	lbu	a5,0(a4)
     43e:	8af18e23          	sb	a5,-1860(gp) # 200013e4 <USBFS_SetupReqType>
     442:	00174783          	lbu	a5,1(a4)
     446:	00275683          	lhu	a3,2(a4)
     44a:	8af18ea3          	sb	a5,-1859(gp) # 200013e5 <USBFS_SetupReqCode>
     44e:	00675783          	lhu	a5,6(a4)
     452:	8af19b23          	sh	a5,-1866(gp) # 200013de <USBFS_SetupReqLen>
     456:	8ad19d23          	sh	a3,-1862(gp) # 200013e2 <USBFS_SetupReqValue>
     45a:	00475683          	lhu	a3,4(a4)
     45e:	8ad19c23          	sh	a3,-1864(gp) # 200013e0 <USBFS_SetupReqIndex>
     462:	8bc1c903          	lbu	s2,-1860(gp) # 200013e4 <USBFS_SetupReqType>
     466:	77c18693          	addi	a3,gp,1916 # 200022a4 <USBFS_EP0_Buf>
     46a:	06097913          	andi	s2,s2,96
     46e:	0c090963          	beqz	s2,540 <USBFS_IRQHandler+0x2c8>
     472:	8bc1c783          	lbu	a5,-1860(gp) # 200013e4 <USBFS_SetupReqType>
     476:	0607f793          	andi	a5,a5,96
     47a:	02b79e63          	bne	a5,a1,4b6 <USBFS_IRQHandler+0x23e>
     47e:	8bd1c783          	lbu	a5,-1859(gp) # 200013e5 <USBFS_SetupReqCode>
     482:	4629                	li	a2,10
     484:	17fd                	addi	a5,a5,-1
     486:	0ff7f793          	zext.b	a5,a5
     48a:	18f66363          	bltu	a2,a5,610 <USBFS_IRQHandler+0x398>
     48e:	6631                	lui	a2,0xc
     490:	078a                	slli	a5,a5,0x2
     492:	2b860613          	addi	a2,a2,696 # c2b8 <_read+0x24>
     496:	97b2                	add	a5,a5,a2
     498:	439c                	lw	a5,0(a5)
     49a:	8782                	jr	a5
     49c:	8b81d783          	lhu	a5,-1864(gp) # 200013e0 <USBFS_SetupReqIndex>
     4a0:	16079863          	bnez	a5,610 <USBFS_IRQHandler+0x398>
     4a4:	200045b7          	lui	a1,0x20004
     4a8:	04000613          	li	a2,64
     4ac:	21c58593          	addi	a1,a1,540 # 2000421c <HID_Report_Buffer>
     4b0:	77c18513          	addi	a0,gp,1916 # 200022a4 <USBFS_EP0_Buf>
     4b4:	31f5                	jal	1a0 <memcpy>
     4b6:	8bc1c783          	lbu	a5,-1860(gp) # 200013e4 <USBFS_SetupReqType>
     4ba:	07e2                	slli	a5,a5,0x18
     4bc:	87e1                	srai	a5,a5,0x18
     4be:	3807de63          	bgez	a5,85a <__stack_size+0x5a>
     4c2:	8b61d703          	lhu	a4,-1866(gp) # 200013de <USBFS_SetupReqLen>
     4c6:	04000793          	li	a5,64
     4ca:	00e7e663          	bltu	a5,a4,4d6 <USBFS_IRQHandler+0x25e>
     4ce:	8b61d783          	lhu	a5,-1866(gp) # 200013de <USBFS_SetupReqLen>
     4d2:	07c2                	slli	a5,a5,0x10
     4d4:	83c1                	srli	a5,a5,0x10
     4d6:	8b61d703          	lhu	a4,-1866(gp) # 200013de <USBFS_SetupReqLen>
     4da:	8f1d                	sub	a4,a4,a5
     4dc:	0742                	slli	a4,a4,0x10
     4de:	8341                	srli	a4,a4,0x10
     4e0:	8ae19b23          	sh	a4,-1866(gp) # 200013de <USBFS_SetupReqLen>
     4e4:	0ff7f793          	zext.b	a5,a5
     4e8:	40023737          	lui	a4,0x40023
     4ec:	42f70823          	sb	a5,1072(a4) # 40023430 <_eusrstack+0x2001e430>
     4f0:	43274783          	lbu	a5,1074(a4)
     4f4:	0fc7f793          	andi	a5,a5,252
     4f8:	42f70923          	sb	a5,1074(a4)
     4fc:	b501                	j	2fc <USBFS_IRQHandler+0x84>
     4fe:	8b81d783          	lhu	a5,-1864(gp) # 200013e0 <USBFS_SetupReqIndex>
     502:	10079763          	bnez	a5,610 <USBFS_IRQHandler+0x398>
     506:	0036c703          	lbu	a4,3(a3)
     50a:	8ae188a3          	sb	a4,-1871(gp) # 200013d9 <USBFS_HidIdle>
     50e:	b765                	j	4b6 <USBFS_IRQHandler+0x23e>
     510:	8b81d783          	lhu	a5,-1864(gp) # 200013e0 <USBFS_SetupReqIndex>
     514:	0e079e63          	bnez	a5,610 <USBFS_IRQHandler+0x398>
     518:	0026c703          	lbu	a4,2(a3)
     51c:	8ae18823          	sb	a4,-1872(gp) # 200013d8 <USBFS_HidProtocol>
     520:	bf59                	j	4b6 <USBFS_IRQHandler+0x23e>
     522:	8b81d783          	lhu	a5,-1864(gp) # 200013e0 <USBFS_SetupReqIndex>
     526:	0e079563          	bnez	a5,610 <USBFS_IRQHandler+0x398>
     52a:	8b11c783          	lbu	a5,-1871(gp) # 200013d9 <USBFS_HidIdle>
     52e:	00f68023          	sb	a5,0(a3)
     532:	b751                	j	4b6 <USBFS_IRQHandler+0x23e>
     534:	8b81d783          	lhu	a5,-1864(gp) # 200013e0 <USBFS_SetupReqIndex>
     538:	efe1                	bnez	a5,610 <USBFS_IRQHandler+0x398>
     53a:	8b01c783          	lbu	a5,-1872(gp) # 200013d8 <USBFS_HidProtocol>
     53e:	bfc5                	j	52e <USBFS_IRQHandler+0x2b6>
     540:	8bd1c583          	lbu	a1,-1859(gp) # 200013e5 <USBFS_SetupReqCode>
     544:	482d                	li	a6,11
     546:	0ff5f613          	zext.b	a2,a1
     54a:	0cb86363          	bltu	a6,a1,610 <USBFS_IRQHandler+0x398>
     54e:	65b1                	lui	a1,0xc
     550:	060a                	slli	a2,a2,0x2
     552:	2e458593          	addi	a1,a1,740 # c2e4 <_read+0x50>
     556:	962e                	add	a2,a2,a1
     558:	4210                	lw	a2,0(a2)
     55a:	8602                	jr	a2
     55c:	8ba1d683          	lhu	a3,-1862(gp) # 200013e2 <USBFS_SetupReqValue>
     560:	460d                	li	a2,3
     562:	82a1                	srli	a3,a3,0x8
     564:	0cc68663          	beq	a3,a2,630 <USBFS_IRQHandler+0x3b8>
     568:	00d66c63          	bltu	a2,a3,580 <USBFS_IRQHandler+0x308>
     56c:	4785                	li	a5,1
     56e:	02f68c63          	beq	a3,a5,5a6 <USBFS_IRQHandler+0x32e>
     572:	4789                	li	a5,2
     574:	04f68163          	beq	a3,a5,5b6 <USBFS_IRQHandler+0x33e>
     578:	4781                	li	a5,0
     57a:	0ff00913          	li	s2,255
     57e:	a881                	j	5ce <USBFS_IRQHandler+0x356>
     580:	02100793          	li	a5,33
     584:	08f68b63          	beq	a3,a5,61a <USBFS_IRQHandler+0x3a2>
     588:	02200793          	li	a5,34
     58c:	fef696e3          	bne	a3,a5,578 <USBFS_IRQHandler+0x300>
     590:	8b81d783          	lhu	a5,-1864(gp) # 200013e0 <USBFS_SetupReqIndex>
     594:	f3f5                	bnez	a5,578 <USBFS_IRQHandler+0x300>
     596:	67b5                	lui	a5,0xd
     598:	c4478793          	addi	a5,a5,-956 # cc44 <MyHIDReportDesc>
     59c:	8cf1a023          	sw	a5,-1856(gp) # 200013e8 <pUSBFS_Descr>
     5a0:	0df00793          	li	a5,223
     5a4:	a02d                	j	5ce <USBFS_IRQHandler+0x356>
     5a6:	67b5                	lui	a5,0xd
     5a8:	d2478793          	addi	a5,a5,-732 # cd24 <MyDevDescr>
     5ac:	8cf1a023          	sw	a5,-1856(gp) # 200013e8 <pUSBFS_Descr>
     5b0:	0007c783          	lbu	a5,0(a5)
     5b4:	a829                	j	5ce <USBFS_IRQHandler+0x356>
     5b6:	200017b7          	lui	a5,0x20001
     5ba:	28878793          	addi	a5,a5,648 # 20001288 <MyCfgDescr>
     5be:	8cf1a023          	sw	a5,-1856(gp) # 200013e8 <pUSBFS_Descr>
     5c2:	0027c703          	lbu	a4,2(a5)
     5c6:	0037c783          	lbu	a5,3(a5)
     5ca:	07a2                	slli	a5,a5,0x8
     5cc:	8fd9                	or	a5,a5,a4
     5ce:	8b61d703          	lhu	a4,-1866(gp) # 200013de <USBFS_SetupReqLen>
     5d2:	00e7f463          	bgeu	a5,a4,5da <USBFS_IRQHandler+0x362>
     5d6:	8af19b23          	sh	a5,-1866(gp) # 200013de <USBFS_SetupReqLen>
     5da:	8b61d703          	lhu	a4,-1866(gp) # 200013de <USBFS_SetupReqLen>
     5de:	03f00793          	li	a5,63
     5e2:	04000a13          	li	s4,64
     5e6:	00e7e763          	bltu	a5,a4,5f4 <USBFS_IRQHandler+0x37c>
     5ea:	8b61da03          	lhu	s4,-1866(gp) # 200013de <USBFS_SetupReqLen>
     5ee:	0a42                	slli	s4,s4,0x10
     5f0:	010a5a13          	srli	s4,s4,0x10
     5f4:	8c01aa83          	lw	s5,-1856(gp) # 200013e8 <pUSBFS_Descr>
     5f8:	8652                	mv	a2,s4
     5fa:	77c18513          	addi	a0,gp,1916 # 200022a4 <USBFS_EP0_Buf>
     5fe:	85d6                	mv	a1,s5
     600:	3645                	jal	1a0 <memcpy>
     602:	9ad2                	add	s5,s5,s4
     604:	8d51a023          	sw	s5,-1856(gp) # 200013e8 <pUSBFS_Descr>
     608:	0ff00793          	li	a5,255
     60c:	eaf915e3          	bne	s2,a5,4b6 <USBFS_IRQHandler+0x23e>
     610:	400237b7          	lui	a5,0x40023
     614:	fcf00713          	li	a4,-49
     618:	bbbd                	j	396 <USBFS_IRQHandler+0x11e>
     61a:	8b81d783          	lhu	a5,-1864(gp) # 200013e0 <USBFS_SetupReqIndex>
     61e:	ffa9                	bnez	a5,578 <USBFS_IRQHandler+0x300>
     620:	200017b7          	lui	a5,0x20001
     624:	29a78793          	addi	a5,a5,666 # 2000129a <MyCfgDescr+0x12>
     628:	8cf1a023          	sw	a5,-1856(gp) # 200013e8 <pUSBFS_Descr>
     62c:	47a5                	li	a5,9
     62e:	b745                	j	5ce <USBFS_IRQHandler+0x356>
     630:	8ba1d783          	lhu	a5,-1862(gp) # 200013e2 <USBFS_SetupReqValue>
     634:	4709                	li	a4,2
     636:	0ff7f793          	zext.b	a5,a5
     63a:	02e78763          	beq	a5,a4,668 <USBFS_IRQHandler+0x3f0>
     63e:	00f76b63          	bltu	a4,a5,654 <USBFS_IRQHandler+0x3dc>
     642:	ef99                	bnez	a5,660 <USBFS_IRQHandler+0x3e8>
     644:	89c18793          	addi	a5,gp,-1892 # 200013c4 <MyLangDescr>
     648:	8cf1a023          	sw	a5,-1856(gp) # 200013e8 <pUSBFS_Descr>
     64c:	4901                	li	s2,0
     64e:	0007c783          	lbu	a5,0(a5)
     652:	bfb5                	j	5ce <USBFS_IRQHandler+0x356>
     654:	f2d792e3          	bne	a5,a3,578 <USBFS_IRQHandler+0x300>
     658:	67b5                	lui	a5,0xd
     65a:	bf478793          	addi	a5,a5,-1036 # cbf4 <MySerNumInfo>
     65e:	b7b9                	j	5ac <USBFS_IRQHandler+0x334>
     660:	67b5                	lui	a5,0xd
     662:	c3878793          	addi	a5,a5,-968 # cc38 <MyManuInfo>
     666:	b799                	j	5ac <USBFS_IRQHandler+0x334>
     668:	67b5                	lui	a5,0xd
     66a:	c0c78793          	addi	a5,a5,-1012 # cc0c <MyProdInfo>
     66e:	bf3d                	j	5ac <USBFS_IRQHandler+0x334>
     670:	8ba1d783          	lhu	a5,-1862(gp) # 200013e2 <USBFS_SetupReqValue>
     674:	0ff7f793          	zext.b	a5,a5
     678:	8af18a23          	sb	a5,-1868(gp) # 200013dc <USBFS_DevAddr>
     67c:	bd2d                	j	4b6 <USBFS_IRQHandler+0x23e>
     67e:	8b51c783          	lbu	a5,-1867(gp) # 200013dd <USBFS_DevConfig>
     682:	00f68023          	sb	a5,0(a3)
     686:	8b61d703          	lhu	a4,-1866(gp) # 200013de <USBFS_SetupReqLen>
     68a:	4785                	li	a5,1
     68c:	e2e7f5e3          	bgeu	a5,a4,4b6 <USBFS_IRQHandler+0x23e>
     690:	8af19b23          	sh	a5,-1866(gp) # 200013de <USBFS_SetupReqLen>
     694:	b50d                	j	4b6 <USBFS_IRQHandler+0x23e>
     696:	8ba1d783          	lhu	a5,-1862(gp) # 200013e2 <USBFS_SetupReqValue>
     69a:	0ff7f793          	zext.b	a5,a5
     69e:	8af18aa3          	sb	a5,-1867(gp) # 200013dd <USBFS_DevConfig>
     6a2:	4705                	li	a4,1
     6a4:	8ae18923          	sb	a4,-1870(gp) # 200013da <USBFS_DevEnumStatus>
     6a8:	b539                	j	4b6 <USBFS_IRQHandler+0x23e>
     6aa:	8bc1c683          	lbu	a3,-1860(gp) # 200013e4 <USBFS_SetupReqType>
     6ae:	8afd                	andi	a3,a3,31
     6b0:	ee99                	bnez	a3,6ce <USBFS_IRQHandler+0x456>
     6b2:	8ba1d783          	lhu	a5,-1862(gp) # 200013e2 <USBFS_SetupReqValue>
     6b6:	4705                	li	a4,1
     6b8:	0ff7f793          	zext.b	a5,a5
     6bc:	dee79de3          	bne	a5,a4,4b6 <USBFS_IRQHandler+0x23e>
     6c0:	8b31c783          	lbu	a5,-1869(gp) # 200013db <USBFS_DevSleepStatus>
     6c4:	0fe7f793          	andi	a5,a5,254
     6c8:	8af189a3          	sb	a5,-1869(gp) # 200013db <USBFS_DevSleepStatus>
     6cc:	b3ed                	j	4b6 <USBFS_IRQHandler+0x23e>
     6ce:	8bc1c683          	lbu	a3,-1860(gp) # 200013e4 <USBFS_SetupReqType>
     6d2:	4609                	li	a2,2
     6d4:	8afd                	andi	a3,a3,31
     6d6:	f2c69de3          	bne	a3,a2,610 <USBFS_IRQHandler+0x398>
     6da:	8ba1d783          	lhu	a5,-1862(gp) # 200013e2 <USBFS_SetupReqValue>
     6de:	0ff7f793          	zext.b	a5,a5
     6e2:	f79d                	bnez	a5,610 <USBFS_IRQHandler+0x398>
     6e4:	8b81d783          	lhu	a5,-1864(gp) # 200013e0 <USBFS_SetupReqIndex>
     6e8:	4705                	li	a4,1
     6ea:	0ff7f793          	zext.b	a5,a5
     6ee:	02e78163          	beq	a5,a4,710 <USBFS_IRQHandler+0x498>
     6f2:	08200713          	li	a4,130
     6f6:	f0e79de3          	bne	a5,a4,610 <USBFS_IRQHandler+0x398>
     6fa:	40023737          	lui	a4,0x40023
     6fe:	43a74783          	lbu	a5,1082(a4) # 4002343a <_eusrstack+0x2001e43a>
     702:	0bc7f793          	andi	a5,a5,188
     706:	0027e793          	ori	a5,a5,2
     70a:	42f70d23          	sb	a5,1082(a4)
     70e:	b365                	j	4b6 <USBFS_IRQHandler+0x23e>
     710:	40023737          	lui	a4,0x40023
     714:	43674783          	lbu	a5,1078(a4) # 40023436 <_eusrstack+0x2001e436>
     718:	0737f793          	andi	a5,a5,115
     71c:	42f70b23          	sb	a5,1078(a4)
     720:	43674783          	lbu	a5,1078(a4)
     724:	0bc7f793          	andi	a5,a5,188
     728:	0027e793          	ori	a5,a5,2
     72c:	42f70b23          	sb	a5,1078(a4)
     730:	b359                	j	4b6 <USBFS_IRQHandler+0x23e>
     732:	8bc1c683          	lbu	a3,-1860(gp) # 200013e4 <USBFS_SetupReqType>
     736:	8afd                	andi	a3,a3,31
     738:	e68d                	bnez	a3,762 <USBFS_IRQHandler+0x4ea>
     73a:	8ba1d783          	lhu	a5,-1862(gp) # 200013e2 <USBFS_SetupReqValue>
     73e:	4705                	li	a4,1
     740:	0ff7f793          	zext.b	a5,a5
     744:	ece796e3          	bne	a5,a4,610 <USBFS_IRQHandler+0x398>
     748:	200017b7          	lui	a5,0x20001
     74c:	28f7c783          	lbu	a5,655(a5) # 2000128f <MyCfgDescr+0x7>
     750:	0207f793          	andi	a5,a5,32
     754:	ea078ee3          	beqz	a5,610 <USBFS_IRQHandler+0x398>
     758:	8b31c783          	lbu	a5,-1869(gp) # 200013db <USBFS_DevSleepStatus>
     75c:	0017e793          	ori	a5,a5,1
     760:	b7a5                	j	6c8 <USBFS_IRQHandler+0x450>
     762:	8bc1c683          	lbu	a3,-1860(gp) # 200013e4 <USBFS_SetupReqType>
     766:	4609                	li	a2,2
     768:	8afd                	andi	a3,a3,31
     76a:	eac693e3          	bne	a3,a2,610 <USBFS_IRQHandler+0x398>
     76e:	8ba1d783          	lhu	a5,-1862(gp) # 200013e2 <USBFS_SetupReqValue>
     772:	0ff7f793          	zext.b	a5,a5
     776:	e8079de3          	bnez	a5,610 <USBFS_IRQHandler+0x398>
     77a:	8b81d783          	lhu	a5,-1864(gp) # 200013e0 <USBFS_SetupReqIndex>
     77e:	08100713          	li	a4,129
     782:	0ff7f793          	zext.b	a5,a5
     786:	00e78f63          	beq	a5,a4,7a4 <USBFS_IRQHandler+0x52c>
     78a:	08200713          	li	a4,130
     78e:	e8e791e3          	bne	a5,a4,610 <USBFS_IRQHandler+0x398>
     792:	40023737          	lui	a4,0x40023
     796:	43a74783          	lbu	a5,1082(a4) # 4002343a <_eusrstack+0x2001e43a>
     79a:	0bc7f793          	andi	a5,a5,188
     79e:	0037e793          	ori	a5,a5,3
     7a2:	b7a5                	j	70a <USBFS_IRQHandler+0x492>
     7a4:	40023737          	lui	a4,0x40023
     7a8:	43674783          	lbu	a5,1078(a4) # 40023436 <_eusrstack+0x2001e436>
     7ac:	0737f793          	andi	a5,a5,115
     7b0:	00c7e793          	ori	a5,a5,12
     7b4:	42f70b23          	sb	a5,1078(a4)
     7b8:	43674783          	lbu	a5,1078(a4)
     7bc:	0bc7f793          	andi	a5,a5,188
     7c0:	0037e793          	ori	a5,a5,3
     7c4:	b7a5                	j	72c <USBFS_IRQHandler+0x4b4>
     7c6:	00068023          	sb	zero,0(a3)
     7ca:	bd75                	j	686 <USBFS_IRQHandler+0x40e>
     7cc:	8bc1c783          	lbu	a5,-1860(gp) # 200013e4 <USBFS_SetupReqType>
     7d0:	76019e23          	sh	zero,1916(gp) # 200022a4 <USBFS_EP0_Buf>
     7d4:	8bfd                	andi	a5,a5,31
     7d6:	eb99                	bnez	a5,7ec <USBFS_IRQHandler+0x574>
     7d8:	8b31c783          	lbu	a5,-1869(gp) # 200013db <USBFS_DevSleepStatus>
     7dc:	8b85                	andi	a5,a5,1
     7de:	c3bd                	beqz	a5,844 <__stack_size+0x44>
     7e0:	4789                	li	a5,2
     7e2:	00f68023          	sb	a5,0(a3)
     7e6:	8b61d703          	lhu	a4,-1866(gp) # 200013de <USBFS_SetupReqLen>
     7ea:	b54d                	j	68c <USBFS_IRQHandler+0x414>
     7ec:	8bc1c783          	lbu	a5,-1860(gp) # 200013e4 <USBFS_SetupReqType>
     7f0:	4609                	li	a2,2
     7f2:	8bfd                	andi	a5,a5,31
     7f4:	04c79c63          	bne	a5,a2,84c <__stack_size+0x4c>
     7f8:	8b81d703          	lhu	a4,-1864(gp) # 200013e0 <USBFS_SetupReqIndex>
     7fc:	08100613          	li	a2,129
     800:	0ff77713          	zext.b	a4,a4
     804:	00c70d63          	beq	a4,a2,81e <__stack_size+0x1e>
     808:	08200613          	li	a2,130
     80c:	02c70563          	beq	a4,a2,836 <__stack_size+0x36>
     810:	8b61d703          	lhu	a4,-1866(gp) # 200013de <USBFS_SetupReqLen>
     814:	dee7fee3          	bgeu	a5,a4,610 <USBFS_IRQHandler+0x398>
     818:	8af19b23          	sh	a5,-1866(gp) # 200013de <USBFS_SetupReqLen>
     81c:	bbd5                	j	610 <USBFS_IRQHandler+0x398>
     81e:	40023737          	lui	a4,0x40023
     822:	43674703          	lbu	a4,1078(a4) # 40023436 <_eusrstack+0x2001e436>
     826:	4631                	li	a2,12
     828:	8b31                	andi	a4,a4,12
     82a:	fac71ee3          	bne	a4,a2,7e6 <USBFS_IRQHandler+0x56e>
     82e:	4705                	li	a4,1
     830:	00e68023          	sb	a4,0(a3)
     834:	bf4d                	j	7e6 <USBFS_IRQHandler+0x56e>
     836:	40023737          	lui	a4,0x40023
     83a:	43a74703          	lbu	a4,1082(a4) # 4002343a <_eusrstack+0x2001e43a>
     83e:	460d                	li	a2,3
     840:	8b0d                	andi	a4,a4,3
     842:	b7e5                	j	82a <__stack_size+0x2a>
     844:	8b61d703          	lhu	a4,-1866(gp) # 200013de <USBFS_SetupReqLen>
     848:	4789                	li	a5,2
     84a:	b589                	j	68c <USBFS_IRQHandler+0x414>
     84c:	8b61d783          	lhu	a5,-1866(gp) # 200013de <USBFS_SetupReqLen>
     850:	dcf670e3          	bgeu	a2,a5,610 <USBFS_IRQHandler+0x398>
     854:	8ac19b23          	sh	a2,-1866(gp) # 200013de <USBFS_SetupReqLen>
     858:	bb65                	j	610 <USBFS_IRQHandler+0x398>
     85a:	8b61d783          	lhu	a5,-1866(gp) # 200013de <USBFS_SetupReqLen>
     85e:	eb91                	bnez	a5,872 <__stack_size+0x72>
     860:	400237b7          	lui	a5,0x40023
     864:	42078823          	sb	zero,1072(a5) # 40023430 <_eusrstack+0x2001e430>
     868:	4327c703          	lbu	a4,1074(a5)
     86c:	0fc77713          	andi	a4,a4,252
     870:	b61d                	j	396 <USBFS_IRQHandler+0x11e>
     872:	40023737          	lui	a4,0x40023
     876:	43274783          	lbu	a5,1074(a4) # 40023432 <_eusrstack+0x2001e432>
     87a:	0f37f793          	andi	a5,a5,243
     87e:	b9ad                	j	4f8 <USBFS_IRQHandler+0x280>
     880:	0016f793          	andi	a5,a3,1
     884:	c39d                	beqz	a5,8aa <__stack_size+0xaa>
     886:	8a018aa3          	sb	zero,-1867(gp) # 200013dd <USBFS_DevConfig>
     88a:	8a018a23          	sb	zero,-1868(gp) # 200013dc <USBFS_DevAddr>
     88e:	8a0189a3          	sb	zero,-1869(gp) # 200013db <USBFS_DevSleepStatus>
     892:	8a018923          	sb	zero,-1870(gp) # 200013da <USBFS_DevEnumStatus>
     896:	400401a3          	sb	zero,1027(s0)
     89a:	324d                	jal	23c <USBFS_Device_Endp_Init>
     89c:	40644783          	lbu	a5,1030(s0)
     8a0:	0017e793          	ori	a5,a5,1
     8a4:	40f40323          	sb	a5,1030(s0)
     8a8:	bcb9                	j	306 <USBFS_IRQHandler+0x8e>
     8aa:	0046f793          	andi	a5,a3,4
     8ae:	cb9d                	beqz	a5,8e4 <__stack_size+0xe4>
     8b0:	4791                	li	a5,4
     8b2:	40f40323          	sb	a5,1030(s0)
     8b6:	4529                	li	a0,10
     8b8:	262050ef          	jal	ra,5b1a <Delay_Us>
     8bc:	40544703          	lbu	a4,1029(s0)
     8c0:	8b11                	andi	a4,a4,4
     8c2:	cb11                	beqz	a4,8d6 <__stack_size+0xd6>
     8c4:	8b31c703          	lbu	a4,-1869(gp) # 200013db <USBFS_DevSleepStatus>
     8c8:	00276713          	ori	a4,a4,2
     8cc:	8ae189a3          	sb	a4,-1869(gp) # 200013db <USBFS_DevSleepStatus>
     8d0:	8b31c783          	lbu	a5,-1869(gp) # 200013db <USBFS_DevSleepStatus>
     8d4:	bc0d                	j	306 <USBFS_IRQHandler+0x8e>
     8d6:	8b31c703          	lbu	a4,-1869(gp) # 200013db <USBFS_DevSleepStatus>
     8da:	0fd77713          	andi	a4,a4,253
     8de:	8ae189a3          	sb	a4,-1869(gp) # 200013db <USBFS_DevSleepStatus>
     8e2:	b415                	j	306 <USBFS_IRQHandler+0x8e>
     8e4:	40d40323          	sb	a3,1030(s0)
     8e8:	bc39                	j	306 <USBFS_IRQHandler+0x8e>

000008ea <USBFS_Device_Init>:
     8ea:	887ff2ef          	jal	t0,170 <__riscv_save_0>
     8ee:	400247b7          	lui	a5,0x40024
     8f2:	80078793          	addi	a5,a5,-2048 # 40023800 <_eusrstack+0x2001e800>
     8f6:	4398                	lw	a4,0(a5)
     8f8:	e5c1                	bnez	a1,980 <USBFS_Device_Init+0x96>
     8fa:	00876713          	ori	a4,a4,8
     8fe:	c398                	sw	a4,0(a5)
     900:	40023437          	lui	s0,0x40023
     904:	4799                	li	a5,6
     906:	40f40023          	sb	a5,1024(s0) # 40023400 <_eusrstack+0x2001e400>
     90a:	cd2d                	beqz	a0,984 <USBFS_Device_Init+0x9a>
     90c:	4529                	li	a0,10
     90e:	20c050ef          	jal	ra,5b1a <Delay_Us>
     912:	479d                	li	a5,7
     914:	40040023          	sb	zero,1024(s0)
     918:	40f40123          	sb	a5,1026(s0)
     91c:	02900793          	li	a5,41
     920:	40f40023          	sb	a5,1024(s0)
     924:	3a21                	jal	23c <USBFS_Device_Endp_Init>
     926:	f8100793          	li	a5,-127
     92a:	40f400a3          	sb	a5,1025(s0)
     92e:	04100713          	li	a4,65
     932:	46e1                	li	a3,24
     934:	a7418613          	addi	a2,gp,-1420 # 2000159c <ns_usb_rb_len>
     938:	0bc18593          	addi	a1,gp,188 # 20001be4 <ns_usb_send_buf>
     93c:	6e818513          	addi	a0,gp,1768 # 20002210 <ns_usb_send_rb>
     940:	01b040ef          	jal	ra,515a <ring_buffer_init>
     944:	200015b7          	lui	a1,0x20001
     948:	04100713          	li	a4,65
     94c:	46e1                	li	a3,24
     94e:	a8c18613          	addi	a2,gp,-1396 # 200015b4 <ns_usb_rb_len+0x18>
     952:	5cc58593          	addi	a1,a1,1484 # 200015cc <ns_usb_recv_buf>
     956:	6d418513          	addi	a0,gp,1748 # 200021fc <ns_usb_recv_rb>
     95a:	001040ef          	jal	ra,515a <ring_buffer_init>
     95e:	e000e737          	lui	a4,0xe000e
     962:	27800793          	li	a5,632
     966:	c37c                	sw	a5,68(a4)
     968:	07b2                	slli	a5,a5,0xc
     96a:	83b1                	srli	a5,a5,0xc
     96c:	3b0006b7          	lui	a3,0x3b000
     970:	8fd5                	or	a5,a5,a3
     972:	d33c                	sw	a5,96(a4)
     974:	080007b7          	lui	a5,0x8000
     978:	10f72223          	sw	a5,260(a4) # e000e104 <_eusrstack+0xc0009104>
     97c:	819ff06f          	j	194 <__riscv_restore_0>
     980:	9b5d                	andi	a4,a4,-9
     982:	bfb5                	j	8fe <USBFS_Device_Init+0x14>
     984:	4529                	li	a0,10
     986:	194050ef          	jal	ra,5b1a <Delay_Us>
     98a:	e000e7b7          	lui	a5,0xe000e
     98e:	40040023          	sb	zero,1024(s0)
     992:	43b8                	lw	a4,64(a5)
     994:	46c1                	li	a3,16
     996:	c3b4                	sw	a3,64(a5)
     998:	08000637          	lui	a2,0x8000
     99c:	18078693          	addi	a3,a5,384 # e000e180 <_eusrstack+0xc0009180>
     9a0:	c2d0                	sw	a2,4(a3)
     9a2:	c3b8                	sw	a4,64(a5)
     9a4:	bfe1                	j	97c <USBFS_Device_Init+0x92>

000009a6 <set_hd_rumble_range>:
     9a6:	7bd1c783          	lbu	a5,1981(gp) # 200022e5 <smashpro_factory_config+0x1>
     9aa:	cb9d                	beqz	a5,9e0 <set_hd_rumble_range+0x3a>
     9ac:	4705                	li	a4,1
     9ae:	02e78e63          	beq	a5,a4,9ea <set_hd_rumble_range+0x44>
     9b2:	1f400713          	li	a4,500
     9b6:	2a800793          	li	a5,680
     9ba:	80e1a823          	sw	a4,-2032(gp) # 20001338 <hd_rumble_cvr_range>
     9be:	80f1a623          	sw	a5,-2036(gp) # 20001334 <hd_rumble_cvr_max_offset>
     9c2:	2d078693          	addi	a3,a5,720
     9c6:	20001737          	lui	a4,0x20001
     9ca:	32d72823          	sw	a3,816(a4) # 20001330 <hd_rumble_cvr_max>
     9ce:	2d000713          	li	a4,720
     9d2:	40f707b3          	sub	a5,a4,a5
     9d6:	20001737          	lui	a4,0x20001
     9da:	32f72623          	sw	a5,812(a4) # 2000132c <hd_rumble_cvr_min>
     9de:	8082                	ret
     9e0:	28a00713          	li	a4,650
     9e4:	2d000793          	li	a5,720
     9e8:	bfc9                	j	9ba <set_hd_rumble_range+0x14>
     9ea:	21c00713          	li	a4,540
     9ee:	bfdd                	j	9e4 <set_hd_rumble_range+0x3e>

000009f0 <conf_read>:
     9f0:	f80ff2ef          	jal	t0,170 <__riscv_save_0>
     9f4:	01000737          	lui	a4,0x1000
     9f8:	87aa                	mv	a5,a0
     9fa:	f0070713          	addi	a4,a4,-256 # ffff00 <_data_lma+0xff2eec>
     9fe:	8f7d                	and	a4,a4,a5
     a00:	66a1                	lui	a3,0x8
     a02:	852e                	mv	a0,a1
     a04:	04d70163          	beq	a4,a3,a46 <conf_read+0x56>
     a08:	00e6e863          	bltu	a3,a4,a18 <conf_read+0x28>
     a0c:	c721                	beqz	a4,a54 <conf_read+0x64>
     a0e:	6699                	lui	a3,0x6
     a10:	02d70163          	beq	a4,a3,a32 <conf_read+0x42>
     a14:	f80ff06f          	j	194 <__riscv_restore_0>
     a18:	66a5                	lui	a3,0x9
     a1a:	04d70263          	beq	a4,a3,a5e <conf_read+0x6e>
     a1e:	66bd                	lui	a3,0xf
     a20:	fed71ae3          	bne	a4,a3,a14 <conf_read+0x24>
     a24:	200025b7          	lui	a1,0x20002
     a28:	0ff7f793          	zext.b	a5,a5
     a2c:	3f058593          	addi	a1,a1,1008 # 200023f0 <user_config>
     a30:	a039                	j	a3e <conf_read+0x4e>
     a32:	200025b7          	lui	a1,0x20002
     a36:	0ff7f793          	zext.b	a5,a5
     a3a:	46058593          	addi	a1,a1,1120 # 20002460 <factory_configuration>
     a3e:	95be                	add	a1,a1,a5
     a40:	f60ff0ef          	jal	ra,1a0 <memcpy>
     a44:	bfc1                	j	a14 <conf_read+0x24>
     a46:	200025b7          	lui	a1,0x20002
     a4a:	0ff7f793          	zext.b	a5,a5
     a4e:	41858593          	addi	a1,a1,1048 # 20002418 <user_calibration>
     a52:	b7f5                	j	a3e <conf_read+0x4e>
     a54:	0ff7f793          	zext.b	a5,a5
     a58:	7bc18593          	addi	a1,gp,1980 # 200022e4 <smashpro_factory_config>
     a5c:	b7cd                	j	a3e <conf_read+0x4e>
     a5e:	200025b7          	lui	a1,0x20002
     a62:	0ff7f793          	zext.b	a5,a5
     a66:	2f058593          	addi	a1,a1,752 # 200022f0 <rgb_data>
     a6a:	bfd1                	j	a3e <conf_read+0x4e>

00000a6c <custom_conf_read>:
     a6c:	200025b7          	lui	a1,0x20002
     a70:	02600613          	li	a2,38
     a74:	3f058593          	addi	a1,a1,1008 # 200023f0 <user_config>
     a78:	4501                	li	a0,0
     a7a:	a3ad                	j	fe4 <read_flash>

00000a7c <custom_conf_write>:
     a7c:	200025b7          	lui	a1,0x20002
     a80:	02600613          	li	a2,38
     a84:	3f058593          	addi	a1,a1,1008 # 200023f0 <user_config>
     a88:	4501                	li	a0,0
     a8a:	a1f5                	j	f76 <write_flash>

00000a8c <fac_conf_read>:
     a8c:	200025b7          	lui	a1,0x20002
     a90:	0b100613          	li	a2,177
     a94:	46058593          	addi	a1,a1,1120 # 20002460 <factory_configuration>
     a98:	10000513          	li	a0,256
     a9c:	a3a1                	j	fe4 <read_flash>

00000a9e <fac_conf_write>:
     a9e:	200025b7          	lui	a1,0x20002
     aa2:	0b100613          	li	a2,177
     aa6:	46058593          	addi	a1,a1,1120 # 20002460 <factory_configuration>
     aaa:	10000513          	li	a0,256
     aae:	a1e1                	j	f76 <write_flash>

00000ab0 <conf_flush>:
     ab0:	ec0ff2ef          	jal	t0,170 <__riscv_save_0>
     ab4:	20002437          	lui	s0,0x20002
     ab8:	3f040413          	addi	s0,s0,1008 # 200023f0 <user_config>
     abc:	01d44503          	lbu	a0,29(s0)
     ac0:	00e0a0ef          	jal	ra,aace <__floatsisf>
     ac4:	8781a583          	lw	a1,-1928(gp) # 200013a0 <_impure_ptr+0x3c>
     ac8:	4ea090ef          	jal	ra,9fb2 <__divsf3>
     acc:	9aa1a223          	sw	a0,-1628(gp) # 200014cc <imu_ratio_xf>
     ad0:	01e44503          	lbu	a0,30(s0)
     ad4:	7fb090ef          	jal	ra,aace <__floatsisf>
     ad8:	8781a583          	lw	a1,-1928(gp) # 200013a0 <_impure_ptr+0x3c>
     adc:	4d6090ef          	jal	ra,9fb2 <__divsf3>
     ae0:	9aa1a023          	sw	a0,-1632(gp) # 200014c8 <imu_ratio_yf>
     ae4:	01f44503          	lbu	a0,31(s0)
     ae8:	7e7090ef          	jal	ra,aace <__floatsisf>
     aec:	8781a583          	lw	a1,-1928(gp) # 200013a0 <_impure_ptr+0x3c>
     af0:	4c2090ef          	jal	ra,9fb2 <__divsf3>
     af4:	4814                	lw	a3,16(s0)
     af6:	98a1ae23          	sw	a0,-1636(gp) # 200014c4 <imu_ratio_zf>
     afa:	0086d793          	srli	a5,a3,0x8
     afe:	07c2                	slli	a5,a5,0x10
     b00:	83c1                	srli	a5,a5,0x10
     b02:	02f787b3          	mul	a5,a5,a5
     b06:	8c818713          	addi	a4,gp,-1848 # 200013f0 <joystick_snapback_deadzone_sq>
     b0a:	82e1                	srli	a3,a3,0x18
     b0c:	c31c                	sw	a5,0(a4)
     b0e:	01444783          	lbu	a5,20(s0)
     b12:	07a2                	slli	a5,a5,0x8
     b14:	8fd5                	or	a5,a5,a3
     b16:	02f787b3          	mul	a5,a5,a5
     b1a:	c35c                	sw	a5,4(a4)
     b1c:	0a1000ef          	jal	ra,13bc <gpio_init>
     b20:	3da010ef          	jal	ra,1efa <hd_rumble_lookup_tb_init>
     b24:	405c                	lw	a5,4(s0)
     b26:	4505                	li	a0,1
     b28:	07a2                	slli	a5,a5,0x8
     b2a:	83a1                	srli	a5,a5,0x8
     b2c:	fff7c793          	not	a5,a5
     b30:	8cf1a223          	sw	a5,-1852(gp) # 200013ec <button_active_mask>
     b34:	2e1040ef          	jal	ra,5614 <flush_rgb>
     b38:	e5cff06f          	j	194 <__riscv_restore_0>

00000b3c <conf_init>:
     b3c:	e1aff2ef          	jal	t0,156 <__riscv_save_4>
     b40:	200029b7          	lui	s3,0x20002
     b44:	0b100613          	li	a2,177
     b48:	55fd                	li	a1,-1
     b4a:	46098513          	addi	a0,s3,1120 # 20002460 <factory_configuration>
     b4e:	e68ff0ef          	jal	ra,1b6 <memset>
     b52:	462d                	li	a2,11
     b54:	55fd                	li	a1,-1
     b56:	7bc18513          	addi	a0,gp,1980 # 200022e4 <smashpro_factory_config>
     b5a:	e5cff0ef          	jal	ra,1b6 <memset>
     b5e:	200024b7          	lui	s1,0x20002
     b62:	0ff00613          	li	a2,255
     b66:	55fd                	li	a1,-1
     b68:	2f048513          	addi	a0,s1,752 # 200022f0 <rgb_data>
     b6c:	e4aff0ef          	jal	ra,1b6 <memset>
     b70:	462d                	li	a2,11
     b72:	7bc18593          	addi	a1,gp,1980 # 200022e4 <smashpro_factory_config>
     b76:	30000513          	li	a0,768
     b7a:	21ad                	jal	fe4 <read_flash>
     b7c:	0ff00613          	li	a2,255
     b80:	2f048593          	addi	a1,s1,752
     b84:	40000513          	li	a0,1024
     b88:	29b1                	jal	fe4 <read_flash>
     b8a:	7bc1c783          	lbu	a5,1980(gp) # 200022e4 <smashpro_factory_config>
     b8e:	7bc18913          	addi	s2,gp,1980 # 200022e4 <smashpro_factory_config>
     b92:	8b85                	andi	a5,a5,1
     b94:	cb95                	beqz	a5,bc8 <conf_init+0x8c>
     b96:	00092023          	sw	zero,0(s2)
     b9a:	4785                	li	a5,1
     b9c:	00f900a3          	sb	a5,1(s2)
     ba0:	462d                	li	a2,11
     ba2:	47fd                	li	a5,31
     ba4:	7bc18593          	addi	a1,gp,1980 # 200022e4 <smashpro_factory_config>
     ba8:	30000513          	li	a0,768
     bac:	00092223          	sw	zero,4(s2)
     bb0:	00091423          	sh	zero,8(s2)
     bb4:	00f90523          	sb	a5,10(s2)
     bb8:	2e7d                	jal	f76 <write_flash>
     bba:	0ff00613          	li	a2,255
     bbe:	2f048593          	addi	a1,s1,752
     bc2:	40000513          	li	a0,1024
     bc6:	2e45                	jal	f76 <write_flash>
     bc8:	35d1                	jal	a8c <fac_conf_read>
     bca:	46098993          	addi	s3,s3,1120
     bce:	0109c783          	lbu	a5,16(s3)
     bd2:	20002437          	lui	s0,0x20002
     bd6:	46040413          	addi	s0,s0,1120 # 20002460 <factory_configuration>
     bda:	10078063          	beqz	a5,cda <conf_init+0x19e>
     bde:	f8000793          	li	a5,-128
     be2:	00f40023          	sb	a5,0(s0)
     be6:	77e9                	lui	a5,0xffffa
     be8:	078d                	addi	a5,a5,3 # ffffa003 <_eusrstack+0xdfff5003>
     bea:	00f41923          	sh	a5,18(s0)
     bee:	4785                	li	a5,1
     bf0:	00f40da3          	sb	a5,27(s0)
     bf4:	fcc00793          	li	a5,-52
     bf8:	02f40ea3          	sb	a5,61(s0)
     bfc:	6795                	lui	a5,0x5
     bfe:	cc478793          	addi	a5,a5,-828 # 4cc4 <calibrate_imu+0xc2>
     c02:	02f41f23          	sh	a5,62(s0)
     c06:	cc8017b7          	lui	a5,0xcc801
     c0a:	80078793          	addi	a5,a5,-2048 # cc800800 <_eusrstack+0xac7fb800>
     c0e:	c03c                	sw	a5,64(s0)
     c10:	080057b7          	lui	a5,0x8005
     c14:	cc478793          	addi	a5,a5,-828 # 8004cc4 <_data_lma+0x7ff7cb0>
     c18:	c07c                	sw	a5,68(s0)
     c1a:	4cc4d7b7          	lui	a5,0x4cc4d
     c1e:	c8078793          	addi	a5,a5,-896 # 4cc4cc80 <_eusrstack+0x2cc47c80>
     c22:	c43c                	sw	a5,72(s0)
     c24:	77f1                	lui	a5,0xffffc
     c26:	4cc78793          	addi	a5,a5,1228 # ffffc4cc <_eusrstack+0xdfff74cc>
     c2a:	04f41623          	sh	a5,76(s0)
     c2e:	04c00793          	li	a5,76
     c32:	04f40723          	sb	a5,78(s0)
     c36:	ff3237b7          	lui	a5,0xff323
     c3a:	13278793          	addi	a5,a5,306 # ff323132 <_eusrstack+0xdf31e132>
     c3e:	c83c                	sw	a5,80(s0)
     c40:	57fd                	li	a5,-1
     c42:	04f41a23          	sh	a5,84(s0)
     c46:	678d                	lui	a5,0x3
     c48:	07bd                	addi	a5,a5,15 # 300f <imu_upd+0x1cd>
     c4a:	08f41323          	sh	a5,134(s0)
     c4e:	d990b7b7          	lui	a5,0xd990b
     c52:	e6178793          	addi	a5,a5,-415 # d990ae61 <_eusrstack+0xb9905e61>
     c56:	08f42423          	sw	a5,136(s0)
     c5a:	415417b7          	lui	a5,0x41541
     c5e:	4d478793          	addi	a5,a5,1236 # 415414d4 <_eusrstack+0x2153c4d4>
     c62:	08f42623          	sw	a5,140(s0)
     c66:	79c757b7          	lui	a5,0x79c75
     c6a:	41578793          	addi	a5,a5,1045 # 79c75415 <_eusrstack+0x59c70415>
     c6e:	08f42823          	sw	a5,144(s0)
     c72:	633637b7          	lui	a5,0x63363
     c76:	39c78793          	addi	a5,a5,924 # 6336339c <_eusrstack+0x4335e39c>
     c7a:	4649                	li	a2,18
     c7c:	08640593          	addi	a1,s0,134
     c80:	09840513          	addi	a0,s0,152
     c84:	08f42a23          	sw	a5,148(s0)
     c88:	d18ff0ef          	jal	ra,1a0 <memcpy>
     c8c:	ff8b07b7          	lui	a5,0xff8b0
     c90:	05b78793          	addi	a5,a5,91 # ff8b005b <_eusrstack+0xdf8ab05b>
     c94:	d01c                	sw	a5,32(s0)
     c96:	400007b7          	lui	a5,0x40000
     c9a:	19678793          	addi	a5,a5,406 # 40000196 <_eusrstack+0x1fffb196>
     c9e:	d05c                	sw	a5,36(s0)
     ca0:	400047b7          	lui	a5,0x40004
     ca4:	d41c                	sw	a5,40(s0)
     ca6:	ffbe07b7          	lui	a5,0xffbe0
     caa:	07f5                	addi	a5,a5,29 # ffbe001d <_eusrstack+0xdfbdb01d>
     cac:	d45c                	sw	a5,44(s0)
     cae:	343c07b7          	lui	a5,0x343c0
     cb2:	17b9                	addi	a5,a5,-18 # 343bffee <_eusrstack+0x143bafee>
     cb4:	d81c                	sw	a5,48(s0)
     cb6:	343b37b7          	lui	a5,0x343b3
     cba:	43b78793          	addi	a5,a5,1083 # 343b343b <_eusrstack+0x143ae43b>
     cbe:	d85c                	sw	a5,52(s0)
     cc0:	67c1                	lui	a5,0x10
     cc2:	d5078793          	addi	a5,a5,-688 # fd50 <_data_lma+0x2d3c>
     cc6:	08f42023          	sw	a5,128(s0)
     cca:	6785                	lui	a5,0x1
     ccc:	fc678793          	addi	a5,a5,-58 # fc6 <write_flash+0x50>
     cd0:	08f41223          	sh	a5,132(s0)
     cd4:	00040823          	sb	zero,16(s0)
     cd8:	33d9                	jal	a9e <fac_conf_write>
     cda:	f8000793          	li	a5,-128
     cde:	00f40023          	sb	a5,0(s0)
     ce2:	77e9                	lui	a5,0xffffa
     ce4:	078d                	addi	a5,a5,3 # ffffa003 <_eusrstack+0xdfff5003>
     ce6:	00f41923          	sh	a5,18(s0)
     cea:	4785                	li	a5,1
     cec:	00f40da3          	sb	a5,27(s0)
     cf0:	20002437          	lui	s0,0x20002
     cf4:	04800613          	li	a2,72
     cf8:	41840593          	addi	a1,s0,1048 # 20002418 <user_calibration>
     cfc:	20000513          	li	a0,512
     d00:	24d5                	jal	fe4 <read_flash>
     d02:	41840793          	addi	a5,s0,1048
     d06:	0007c703          	lbu	a4,0(a5)
     d0a:	c315                	beqz	a4,d2e <conf_init+0x1f2>
     d0c:	4721                	li	a4,8
     d0e:	000780a3          	sb	zero,1(a5)
     d12:	00e78123          	sb	a4,2(a5)
     d16:	000781a3          	sb	zero,3(a5)
     d1a:	00e78223          	sb	a4,4(a5)
     d1e:	000782a3          	sb	zero,5(a5)
     d22:	00e78323          	sb	a4,6(a5)
     d26:	000783a3          	sb	zero,7(a5)
     d2a:	00e78423          	sb	a4,8(a5)
     d2e:	200029b7          	lui	s3,0x20002
     d32:	02600613          	li	a2,38
     d36:	55fd                	li	a1,-1
     d38:	3f098513          	addi	a0,s3,1008 # 200023f0 <user_config>
     d3c:	c7aff0ef          	jal	ra,1b6 <memset>
     d40:	3335                	jal	a6c <custom_conf_read>
     d42:	3f09c783          	lbu	a5,1008(s3)
     d46:	3f098413          	addi	s0,s3,1008
     d4a:	8b85                	andi	a5,a5,1
     d4c:	c7e1                	beqz	a5,e14 <conf_init+0x2d8>
     d4e:	02200613          	li	a2,34
     d52:	4581                	li	a1,0
     d54:	3f098513          	addi	a0,s3,1008
     d58:	c5eff0ef          	jal	ra,1b6 <memset>
     d5c:	20002537          	lui	a0,0x20002
     d60:	4611                	li	a2,4
     d62:	02000593          	li	a1,32
     d66:	3fb50513          	addi	a0,a0,1019 # 200023fb <user_config+0xb>
     d6a:	c4cff0ef          	jal	ra,1b6 <memset>
     d6e:	20002537          	lui	a0,0x20002
     d72:	4611                	li	a2,4
     d74:	08000593          	li	a1,128
     d78:	3f750513          	addi	a0,a0,1015 # 200023f7 <user_config+0x7>
     d7c:	c3aff0ef          	jal	ra,1b6 <memset>
     d80:	200027b7          	lui	a5,0x20002
     d84:	6711                	lui	a4,0x4
     d86:	41278793          	addi	a5,a5,1042 # 20002412 <user_config+0x22>
     d8a:	04070713          	addi	a4,a4,64 # 4040 <main+0x26>
     d8e:	00e79023          	sh	a4,0(a5)
     d92:	00e79123          	sh	a4,2(a5)
     d96:	4795                	li	a5,5
     d98:	00f40923          	sb	a5,18(s0)
     d9c:	00f40a23          	sb	a5,20(s0)
     da0:	fc000793          	li	a5,-64
     da4:	00f400a3          	sb	a5,1(s0)
     da8:	6785                	lui	a5,0x1
     daa:	80878793          	addi	a5,a5,-2040 # 808 <__stack_size+0x8>
     dae:	00f41123          	sh	a5,2(s0)
     db2:	00a94603          	lbu	a2,10(s2)
     db6:	fd600793          	li	a5,-42
     dba:	07800713          	li	a4,120
     dbe:	00f407a3          	sb	a5,15(s0)
     dc2:	4799                	li	a5,6
     dc4:	00e408a3          	sb	a4,17(s0)
     dc8:	00e409a3          	sb	a4,19(s0)
     dcc:	00f40823          	sb	a5,16(s0)
     dd0:	4701                	li	a4,0
     dd2:	2f048493          	addi	s1,s1,752
     dd6:	458d                	li	a1,3
     dd8:	56fd                	li	a3,-1
     dda:	06c74563          	blt	a4,a2,e44 <conf_init+0x308>
     dde:	07f00793          	li	a5,127
     de2:	00f40ea3          	sb	a5,29(s0)
     de6:	77e1                	lui	a5,0xffff8
     de8:	f7f7c793          	xori	a5,a5,-129
     dec:	00f41f23          	sh	a5,30(s0)
     df0:	4789                	li	a5,2
     df2:	02f40023          	sb	a5,32(s0)
     df6:	fbc00793          	li	a5,-68
     dfa:	00f40aa3          	sb	a5,21(s0)
     dfe:	03400793          	li	a5,52
     e02:	00f40b23          	sb	a5,22(s0)
     e06:	00044783          	lbu	a5,0(s0)
     e0a:	f807e793          	ori	a5,a5,-128
     e0e:	00f40023          	sb	a5,0(s0)
     e12:	31ad                	jal	a7c <custom_conf_write>
     e14:	3971                	jal	ab0 <conf_flush>
     e16:	00344703          	lbu	a4,3(s0)
     e1a:	200017b7          	lui	a5,0x20001
     e1e:	28878793          	addi	a5,a5,648 # 20001288 <MyCfgDescr>
     e22:	02e780a3          	sb	a4,33(a5)
     e26:	00244703          	lbu	a4,2(s0)
     e2a:	20003537          	lui	a0,0x20003
     e2e:	4619                	li	a2,6
     e30:	02e78423          	sb	a4,40(a5)
     e34:	01740593          	addi	a1,s0,23
     e38:	11e50513          	addi	a0,a0,286 # 2000311e <connection_state+0x6>
     e3c:	b64ff0ef          	jal	ra,1a0 <memcpy>
     e40:	b4aff06f          	j	18a <__riscv_restore_4>
     e44:	02b707b3          	mul	a5,a4,a1
     e48:	0705                	addi	a4,a4,1
     e4a:	97a6                	add	a5,a5,s1
     e4c:	00d78023          	sb	a3,0(a5)
     e50:	00d780a3          	sb	a3,1(a5)
     e54:	00d78123          	sb	a3,2(a5)
     e58:	b749                	j	dda <conf_init+0x29e>

00000e5a <hw_config_flush>:
     e5a:	b16ff2ef          	jal	t0,170 <__riscv_save_0>
     e5e:	36a1                	jal	9a6 <set_hd_rumble_range>
     e60:	4505                	li	a0,1
     e62:	7b2040ef          	jal	ra,5614 <flush_rgb>
     e66:	b2eff06f          	j	194 <__riscv_restore_0>

00000e6a <conf_write>:
     e6a:	aecff2ef          	jal	t0,156 <__riscv_save_4>
     e6e:	00fff7b7          	lui	a5,0xfff
     e72:	8fe9                	and	a5,a5,a0
     e74:	6721                	lui	a4,0x8
     e76:	84aa                	mv	s1,a0
     e78:	8932                	mv	s2,a2
     e7a:	8436                	mv	s0,a3
     e7c:	06e78a63          	beq	a5,a4,ef0 <conf_write+0x86>
     e80:	89ae                	mv	s3,a1
     e82:	00f76a63          	bltu	a4,a5,e96 <conf_write+0x2c>
     e86:	cbc1                	beqz	a5,f16 <conf_write+0xac>
     e88:	6719                	lui	a4,0x6
     e8a:	04e78063          	beq	a5,a4,eca <conf_write+0x60>
     e8e:	4401                	li	s0,0
     e90:	8522                	mv	a0,s0
     e92:	af8ff06f          	j	18a <__riscv_restore_4>
     e96:	6725                	lui	a4,0x9
     e98:	0ae78463          	beq	a5,a4,f40 <conf_write+0xd6>
     e9c:	673d                	lui	a4,0xf
     e9e:	fee798e3          	bne	a5,a4,e8e <conf_write+0x24>
     ea2:	01451793          	slli	a5,a0,0x14
     ea6:	200029b7          	lui	s3,0x20002
     eaa:	83d1                	srli	a5,a5,0x14
     eac:	3f098513          	addi	a0,s3,1008 # 200023f0 <user_config>
     eb0:	953e                	add	a0,a0,a5
     eb2:	aeeff0ef          	jal	ra,1a0 <memcpy>
     eb6:	3f098993          	addi	s3,s3,1008
     eba:	c019                	beqz	s0,ec0 <conf_write+0x56>
     ebc:	36c1                	jal	a7c <custom_conf_write>
     ebe:	842a                	mv	s0,a0
     ec0:	0ff4f593          	zext.b	a1,s1
     ec4:	864a                	mv	a2,s2
     ec6:	95ce                	add	a1,a1,s3
     ec8:	a005                	j	ee8 <conf_write+0x7e>
     eca:	200027b7          	lui	a5,0x20002
     ece:	0ff57993          	zext.b	s3,a0
     ed2:	46078793          	addi	a5,a5,1120 # 20002460 <factory_configuration>
     ed6:	99be                	add	s3,s3,a5
     ed8:	854e                	mv	a0,s3
     eda:	ac6ff0ef          	jal	ra,1a0 <memcpy>
     ede:	c019                	beqz	s0,ee4 <conf_write+0x7a>
     ee0:	3e7d                	jal	a9e <fac_conf_write>
     ee2:	842a                	mv	s0,a0
     ee4:	864a                	mv	a2,s2
     ee6:	85ce                	mv	a1,s3
     ee8:	8526                	mv	a0,s1
     eea:	26e050ef          	jal	ra,6158 <uart_conf_write>
     eee:	b74d                	j	e90 <conf_write+0x26>
     ef0:	20002a37          	lui	s4,0x20002
     ef4:	0ff57993          	zext.b	s3,a0
     ef8:	418a0793          	addi	a5,s4,1048 # 20002418 <user_calibration>
     efc:	99be                	add	s3,s3,a5
     efe:	854e                	mv	a0,s3
     f00:	aa0ff0ef          	jal	ra,1a0 <memcpy>
     f04:	d065                	beqz	s0,ee4 <conf_write+0x7a>
     f06:	04800613          	li	a2,72
     f0a:	418a0593          	addi	a1,s4,1048
     f0e:	20000513          	li	a0,512
     f12:	2095                	jal	f76 <write_flash>
     f14:	b7f9                	j	ee2 <conf_write+0x78>
     f16:	0ff57513          	zext.b	a0,a0
     f1a:	7bc18793          	addi	a5,gp,1980 # 200022e4 <smashpro_factory_config>
     f1e:	953e                	add	a0,a0,a5
     f20:	a80ff0ef          	jal	ra,1a0 <memcpy>
     f24:	c419                	beqz	s0,f32 <conf_write+0xc8>
     f26:	864a                	mv	a2,s2
     f28:	85ce                	mv	a1,s3
     f2a:	30000513          	li	a0,768
     f2e:	20a1                	jal	f76 <write_flash>
     f30:	842a                	mv	s0,a0
     f32:	864a                	mv	a2,s2
     f34:	85ce                	mv	a1,s3
     f36:	8526                	mv	a0,s1
     f38:	220050ef          	jal	ra,6158 <uart_conf_write>
     f3c:	3f39                	jal	e5a <hw_config_flush>
     f3e:	bf89                	j	e90 <conf_write+0x26>
     f40:	20002a37          	lui	s4,0x20002
     f44:	0ff57513          	zext.b	a0,a0
     f48:	2f0a0793          	addi	a5,s4,752 # 200022f0 <rgb_data>
     f4c:	953e                	add	a0,a0,a5
     f4e:	a52ff0ef          	jal	ra,1a0 <memcpy>
     f52:	c809                	beqz	s0,f64 <conf_write+0xfa>
     f54:	0ff00613          	li	a2,255
     f58:	2f0a0593          	addi	a1,s4,752
     f5c:	40000513          	li	a0,1024
     f60:	2819                	jal	f76 <write_flash>
     f62:	842a                	mv	s0,a0
     f64:	864a                	mv	a2,s2
     f66:	85ce                	mv	a1,s3
     f68:	8526                	mv	a0,s1
     f6a:	1ee050ef          	jal	ra,6158 <uart_conf_write>
     f6e:	4505                	li	a0,1
     f70:	6a4040ef          	jal	ra,5614 <flush_rgb>
     f74:	bf31                	j	e90 <conf_write+0x26>

00000f76 <write_flash>:
     f76:	9e0ff2ef          	jal	t0,156 <__riscv_save_4>
     f7a:	0800f7b7          	lui	a5,0x800f
     f7e:	00f50433          	add	s0,a0,a5
     f82:	00c40733          	add	a4,s0,a2
     f86:	080107b7          	lui	a5,0x8010
     f8a:	04f77b63          	bgeu	a4,a5,fe0 <write_flash+0x6a>
     f8e:	8a2e                	mv	s4,a1
     f90:	8522                	mv	a0,s0
     f92:	10000593          	li	a1,256
     f96:	8932                	mv	s2,a2
     f98:	126060ef          	jal	ra,70be <FLASH_ROM_ERASE>
     f9c:	4711                	li	a4,4
     f9e:	84aa                	mv	s1,a0
     fa0:	4789                	li	a5,2
     fa2:	02e51c63          	bne	a0,a4,fda <write_flash+0x64>
     fa6:	200029b7          	lui	s3,0x20002
     faa:	10000613          	li	a2,256
     fae:	55fd                	li	a1,-1
     fb0:	51498513          	addi	a0,s3,1300 # 20002514 <flash_buffer>
     fb4:	a02ff0ef          	jal	ra,1b6 <memset>
     fb8:	864a                	mv	a2,s2
     fba:	85d2                	mv	a1,s4
     fbc:	51498513          	addi	a0,s3,1300
     fc0:	9e0ff0ef          	jal	ra,1a0 <memcpy>
     fc4:	10000613          	li	a2,256
     fc8:	51498593          	addi	a1,s3,1300
     fcc:	8522                	mv	a0,s0
     fce:	20a060ef          	jal	ra,71d8 <FLASH_ROM_WRITE>
     fd2:	478d                	li	a5,3
     fd4:	00951363          	bne	a0,s1,fda <write_flash+0x64>
     fd8:	4781                	li	a5,0
     fda:	853e                	mv	a0,a5
     fdc:	9aeff06f          	j	18a <__riscv_restore_4>
     fe0:	4785                	li	a5,1
     fe2:	bfe5                	j	fda <write_flash+0x64>

00000fe4 <read_flash>:
     fe4:	0800f737          	lui	a4,0x800f
     fe8:	87ae                	mv	a5,a1
     fea:	00e505b3          	add	a1,a0,a4
     fee:	00c58733          	add	a4,a1,a2
     ff2:	080106b7          	lui	a3,0x8010
     ff6:	00d77c63          	bgeu	a4,a3,100e <read_flash+0x2a>
     ffa:	4509                	li	a0,2
     ffc:	cb99                	beqz	a5,1012 <read_flash+0x2e>
     ffe:	972ff2ef          	jal	t0,170 <__riscv_save_0>
    1002:	853e                	mv	a0,a5
    1004:	99cff0ef          	jal	ra,1a0 <memcpy>
    1008:	4501                	li	a0,0
    100a:	98aff06f          	j	194 <__riscv_restore_0>
    100e:	4505                	li	a0,1
    1010:	8082                	ret
    1012:	8082                	ret

00001014 <i32_min>:
    1014:	87aa                	mv	a5,a0
    1016:	852e                	mv	a0,a1
    1018:	00b7d363          	bge	a5,a1,101e <i32_min+0xa>
    101c:	853e                	mv	a0,a5
    101e:	8082                	ret

00001020 <fetch_uint32>:
    1020:	950ff2ef          	jal	t0,170 <__riscv_save_0>
    1024:	1141                	addi	sp,sp,-16
    1026:	85aa                	mv	a1,a0
    1028:	4611                	li	a2,4
    102a:	0068                	addi	a0,sp,12
    102c:	974ff0ef          	jal	ra,1a0 <memcpy>
    1030:	4532                	lw	a0,12(sp)
    1032:	0141                	addi	sp,sp,16
    1034:	960ff06f          	j	194 <__riscv_restore_0>

00001038 <i32_clamp>:
    1038:	87aa                	mv	a5,a0
    103a:	852e                	mv	a0,a1
    103c:	00b7c663          	blt	a5,a1,1048 <i32_clamp+0x10>
    1040:	853e                	mv	a0,a5
    1042:	00f65363          	bge	a2,a5,1048 <i32_clamp+0x10>
    1046:	8532                	mv	a0,a2
    1048:	8082                	ret

0000104a <ADC_Function_Init>:
    104a:	926ff2ef          	jal	t0,170 <__riscv_save_0>
    104e:	7179                	addi	sp,sp,-48
    1050:	4661                	li	a2,24
    1052:	4581                	li	a1,0
    1054:	0828                	addi	a0,sp,24
    1056:	960ff0ef          	jal	ra,1b6 <memset>
    105a:	4501                	li	a0,0
    105c:	c602                	sw	zero,12(sp)
    105e:	c802                	sw	zero,16(sp)
    1060:	ca02                	sw	zero,20(sp)
    1062:	724060ef          	jal	ra,7786 <RCC_ADCCLKConfig>
    1066:	40011537          	lui	a0,0x40011
    106a:	03a00793          	li	a5,58
    106e:	006c                	addi	a1,sp,12
    1070:	80050513          	addi	a0,a0,-2048 # 40010800 <_eusrstack+0x2000b800>
    1074:	40012437          	lui	s0,0x40012
    1078:	00f11623          	sh	a5,12(sp)
    107c:	ca02                	sw	zero,20(sp)
    107e:	274060ef          	jal	ra,72f2 <GPIO_Init>
    1082:	40040513          	addi	a0,s0,1024 # 40012400 <_eusrstack+0x2000d400>
    1086:	2cf050ef          	jal	ra,6b54 <ADC_DeInit>
    108a:	4785                	li	a5,1
    108c:	ce3e                	sw	a5,28(sp)
    108e:	d03e                	sw	a5,32(sp)
    1090:	000e07b7          	lui	a5,0xe0
    1094:	d23e                	sw	a5,36(sp)
    1096:	082c                	addi	a1,sp,24
    1098:	4791                	li	a5,4
    109a:	40040513          	addi	a0,s0,1024
    109e:	02f10623          	sb	a5,44(sp)
    10a2:	cc02                	sw	zero,24(sp)
    10a4:	d402                	sw	zero,40(sp)
    10a6:	2d9050ef          	jal	ra,6b7e <ADC_Init>
    10aa:	4585                	li	a1,1
    10ac:	40040513          	addi	a0,s0,1024
    10b0:	32f050ef          	jal	ra,6bde <ADC_DMACmd>
    10b4:	4585                	li	a1,1
    10b6:	40040513          	addi	a0,s0,1024
    10ba:	315050ef          	jal	ra,6bce <ADC_Cmd>
    10be:	40040513          	addi	a0,s0,1024
    10c2:	32f050ef          	jal	ra,6bf0 <ADC_ResetCalibration>
    10c6:	40040493          	addi	s1,s0,1024
    10ca:	8526                	mv	a0,s1
    10cc:	32f050ef          	jal	ra,6bfa <ADC_GetResetCalibrationStatus>
    10d0:	fd6d                	bnez	a0,10ca <ADC_Function_Init+0x80>
    10d2:	40040513          	addi	a0,s0,1024
    10d6:	40012437          	lui	s0,0x40012
    10da:	329050ef          	jal	ra,6c02 <ADC_StartCalibration>
    10de:	40040493          	addi	s1,s0,1024 # 40012400 <_eusrstack+0x2000d400>
    10e2:	8526                	mv	a0,s1
    10e4:	329050ef          	jal	ra,6c0c <ADC_GetCalibrationStatus>
    10e8:	fd6d                	bnez	a0,10e2 <ADC_Function_Init+0x98>
    10ea:	40040513          	addi	a0,s0,1024
    10ee:	3f7050ef          	jal	ra,6ce4 <Get_CalibrationValue>
    10f2:	8ca19823          	sh	a0,-1840(gp) # 200013f8 <Calibrattion_Val>
    10f6:	6145                	addi	sp,sp,48
    10f8:	89cff06f          	j	194 <__riscv_restore_0>

000010fc <DMA_Tx_Init>:
    10fc:	85aff2ef          	jal	t0,156 <__riscv_save_4>
    1100:	7179                	addi	sp,sp,-48
    1102:	842a                	mv	s0,a0
    1104:	89ae                	mv	s3,a1
    1106:	8932                	mv	s2,a2
    1108:	4581                	li	a1,0
    110a:	02c00613          	li	a2,44
    110e:	0048                	addi	a0,sp,4
    1110:	84b6                	mv	s1,a3
    1112:	8a4ff0ef          	jal	ra,1b6 <memset>
    1116:	8522                	mv	a0,s0
    1118:	54f050ef          	jal	ra,6e66 <DMA_DeInit>
    111c:	08000793          	li	a5,128
    1120:	cc3e                	sw	a5,24(sp)
    1122:	10000793          	li	a5,256
    1126:	ce3e                	sw	a5,28(sp)
    1128:	40000793          	li	a5,1024
    112c:	d03e                	sw	a5,32(sp)
    112e:	02000793          	li	a5,32
    1132:	d23e                	sw	a5,36(sp)
    1134:	004c                	addi	a1,sp,4
    1136:	678d                	lui	a5,0x3
    1138:	8522                	mv	a0,s0
    113a:	c24e                	sw	s3,4(sp)
    113c:	c44a                	sw	s2,8(sp)
    113e:	c826                	sw	s1,16(sp)
    1140:	d43e                	sw	a5,40(sp)
    1142:	c602                	sw	zero,12(sp)
    1144:	ca02                	sw	zero,20(sp)
    1146:	d602                	sw	zero,44(sp)
    1148:	5ff050ef          	jal	ra,6f46 <DMA_Init>
    114c:	6145                	addi	sp,sp,48
    114e:	83cff06f          	j	18a <__riscv_restore_4>

00001152 <adc_init>:
    1152:	81eff2ef          	jal	t0,170 <__riscv_save_0>
    1156:	3dd5                	jal	104a <ADC_Function_Init>
    1158:	40012437          	lui	s0,0x40012
    115c:	400204b7          	lui	s1,0x40020
    1160:	44c40593          	addi	a1,s0,1100 # 4001244c <_eusrstack+0x2000d44c>
    1164:	00848513          	addi	a0,s1,8 # 40020008 <_eusrstack+0x2001b008>
    1168:	4691                	li	a3,4
    116a:	8d418613          	addi	a2,gp,-1836 # 200013fc <adc_data>
    116e:	3779                	jal	10fc <DMA_Tx_Init>
    1170:	40040513          	addi	a0,s0,1024
    1174:	469d                	li	a3,7
    1176:	4605                	li	a2,1
    1178:	4585                	li	a1,1
    117a:	2b3050ef          	jal	ra,6c2c <ADC_RegularChannelConfig>
    117e:	40040513          	addi	a0,s0,1024
    1182:	469d                	li	a3,7
    1184:	4609                	li	a2,2
    1186:	4595                	li	a1,5
    1188:	2a5050ef          	jal	ra,6c2c <ADC_RegularChannelConfig>
    118c:	40040513          	addi	a0,s0,1024
    1190:	469d                	li	a3,7
    1192:	460d                	li	a2,3
    1194:	458d                	li	a1,3
    1196:	297050ef          	jal	ra,6c2c <ADC_RegularChannelConfig>
    119a:	469d                	li	a3,7
    119c:	4611                	li	a2,4
    119e:	40040513          	addi	a0,s0,1024
    11a2:	4591                	li	a1,4
    11a4:	289050ef          	jal	ra,6c2c <ADC_RegularChannelConfig>
    11a8:	00848513          	addi	a0,s1,8
    11ac:	4585                	li	a1,1
    11ae:	5d1050ef          	jal	ra,6f7e <DMA_Cmd>
    11b2:	4585                	li	a1,1
    11b4:	40040513          	addi	a0,s0,1024
    11b8:	25d050ef          	jal	ra,6c14 <ADC_SoftwareStartConvCmd>
    11bc:	fd9fe06f          	j	194 <__riscv_restore_0>

000011c0 <gpio_tb_init>:
    11c0:	6741                	lui	a4,0x10
    11c2:	200026b7          	lui	a3,0x20002
    11c6:	61468793          	addi	a5,a3,1556 # 20002614 <hid_num_to_gpio>
    11ca:	10070613          	addi	a2,a4,256 # 10100 <_data_lma+0x30ec>
    11ce:	d7d0                	sw	a2,44(a5)
    11d0:	00170613          	addi	a2,a4,1
    11d4:	04070713          	addi	a4,a4,64
    11d8:	c3d8                	sw	a4,4(a5)
    11da:	00021737          	lui	a4,0x21
    11de:	c398                	sw	a4,0(a5)
    11e0:	00020737          	lui	a4,0x20
    11e4:	00870513          	addi	a0,a4,8 # 20008 <_data_lma+0x12ff4>
    11e8:	c3e8                	sw	a0,68(a5)
    11ea:	02070513          	addi	a0,a4,32
    11ee:	c3a8                	sw	a0,64(a5)
    11f0:	6561                	lui	a0,0x18
    11f2:	c7e8                	sw	a0,76(a5)
    11f4:	01070513          	addi	a0,a4,16
    11f8:	c7a8                	sw	a0,72(a5)
    11fa:	20070513          	addi	a0,a4,512
    11fe:	cfa8                	sw	a0,88(a5)
    1200:	00042537          	lui	a0,0x42
    1204:	cf88                	sw	a0,24(a5)
    1206:	10070513          	addi	a0,a4,256
    120a:	cfe8                	sw	a0,92(a5)
    120c:	00044537          	lui	a0,0x44
    1210:	cfc8                	sw	a0,28(a5)
    1212:	04070513          	addi	a0,a4,64
    1216:	d388                	sw	a0,32(a5)
    1218:	00048537          	lui	a0,0x48
    121c:	d790                	sw	a2,40(a5)
    121e:	d3c8                	sw	a0,36(a5)
    1220:	08070713          	addi	a4,a4,128
    1224:	00028537          	lui	a0,0x28
    1228:	00022637          	lui	a2,0x22
    122c:	000245b7          	lui	a1,0x24
    1230:	db88                	sw	a0,48(a5)
    1232:	dbd8                	sw	a4,52(a5)
    1234:	c7d0                	sw	a2,12(a5)
    1236:	c78c                	sw	a1,8(a5)
    1238:	200027b7          	lui	a5,0x20002
    123c:	3f07c703          	lbu	a4,1008(a5) # 200023f0 <user_config>
    1240:	61468793          	addi	a5,a3,1556
    1244:	01077513          	andi	a0,a4,16
    1248:	c119                	beqz	a0,124e <gpio_tb_init+0x8e>
    124a:	c7cc                	sw	a1,12(a5)
    124c:	c790                	sw	a2,8(a5)
    124e:	8b21                	andi	a4,a4,8
    1250:	cb01                	beqz	a4,1260 <gpio_tb_init+0xa0>
    1252:	00021737          	lui	a4,0x21
    1256:	c3d8                	sw	a4,4(a5)
    1258:	6741                	lui	a4,0x10
    125a:	04070713          	addi	a4,a4,64 # 10040 <_data_lma+0x302c>
    125e:	c398                	sw	a4,0(a5)
    1260:	8082                	ret

00001262 <_gpio_init>:
    1262:	f0ffe2ef          	jal	t0,170 <__riscv_save_0>
    1266:	1141                	addi	sp,sp,-16
    1268:	478d                	li	a5,3
    126a:	842e                	mv	s0,a1
    126c:	c632                	sw	a2,12(sp)
    126e:	c43e                	sw	a5,8(sp)
    1270:	84aa                	mv	s1,a0
    1272:	c202                	sw	zero,4(sp)
    1274:	4601                	li	a2,0
    1276:	4781                	li	a5,0
    1278:	4701                	li	a4,0
    127a:	65c1                	lui	a1,0x10
    127c:	06874363          	blt	a4,s0,12e2 <_gpio_init+0x80>
    1280:	c219                	beqz	a2,1286 <_gpio_init+0x24>
    1282:	00f11223          	sh	a5,4(sp)
    1286:	40011537          	lui	a0,0x40011
    128a:	004c                	addi	a1,sp,4
    128c:	80050513          	addi	a0,a0,-2048 # 40010800 <_eusrstack+0x2000b800>
    1290:	062060ef          	jal	ra,72f2 <GPIO_Init>
    1294:	4601                	li	a2,0
    1296:	00011223          	sh	zero,4(sp)
    129a:	4781                	li	a5,0
    129c:	4701                	li	a4,0
    129e:	000205b7          	lui	a1,0x20
    12a2:	04874d63          	blt	a4,s0,12fc <_gpio_init+0x9a>
    12a6:	c219                	beqz	a2,12ac <_gpio_init+0x4a>
    12a8:	00f11223          	sh	a5,4(sp)
    12ac:	40011537          	lui	a0,0x40011
    12b0:	004c                	addi	a1,sp,4
    12b2:	c0050513          	addi	a0,a0,-1024 # 40010c00 <_eusrstack+0x2000bc00>
    12b6:	03c060ef          	jal	ra,72f2 <GPIO_Init>
    12ba:	4601                	li	a2,0
    12bc:	00011223          	sh	zero,4(sp)
    12c0:	4781                	li	a5,0
    12c2:	4701                	li	a4,0
    12c4:	000405b7          	lui	a1,0x40
    12c8:	04874763          	blt	a4,s0,1316 <_gpio_init+0xb4>
    12cc:	c219                	beqz	a2,12d2 <_gpio_init+0x70>
    12ce:	00f11223          	sh	a5,4(sp)
    12d2:	004c                	addi	a1,sp,4
    12d4:	40011537          	lui	a0,0x40011
    12d8:	01a060ef          	jal	ra,72f2 <GPIO_Init>
    12dc:	0141                	addi	sp,sp,16
    12de:	eb7fe06f          	j	194 <__riscv_restore_0>
    12e2:	00271693          	slli	a3,a4,0x2
    12e6:	96a6                	add	a3,a3,s1
    12e8:	4294                	lw	a3,0(a3)
    12ea:	00b6f533          	and	a0,a3,a1
    12ee:	c509                	beqz	a0,12f8 <_gpio_init+0x96>
    12f0:	8fd5                	or	a5,a5,a3
    12f2:	07c2                	slli	a5,a5,0x10
    12f4:	83c1                	srli	a5,a5,0x10
    12f6:	4605                	li	a2,1
    12f8:	0705                	addi	a4,a4,1
    12fa:	b749                	j	127c <_gpio_init+0x1a>
    12fc:	00271693          	slli	a3,a4,0x2
    1300:	96a6                	add	a3,a3,s1
    1302:	4294                	lw	a3,0(a3)
    1304:	00b6f533          	and	a0,a3,a1
    1308:	c509                	beqz	a0,1312 <_gpio_init+0xb0>
    130a:	8fd5                	or	a5,a5,a3
    130c:	07c2                	slli	a5,a5,0x10
    130e:	83c1                	srli	a5,a5,0x10
    1310:	4605                	li	a2,1
    1312:	0705                	addi	a4,a4,1
    1314:	b779                	j	12a2 <_gpio_init+0x40>
    1316:	00271693          	slli	a3,a4,0x2
    131a:	96a6                	add	a3,a3,s1
    131c:	4294                	lw	a3,0(a3)
    131e:	00b6f533          	and	a0,a3,a1
    1322:	c509                	beqz	a0,132c <_gpio_init+0xca>
    1324:	8fd5                	or	a5,a5,a3
    1326:	07c2                	slli	a5,a5,0x10
    1328:	83c1                	srli	a5,a5,0x10
    132a:	4605                	li	a2,1
    132c:	0705                	addi	a4,a4,1
    132e:	bf69                	j	12c8 <_gpio_init+0x66>

00001330 <gpio_kb_scan_init>:
    1330:	e41fe2ef          	jal	t0,170 <__riscv_save_0>
    1334:	1141                	addi	sp,sp,-16
    1336:	000287b7          	lui	a5,0x28
    133a:	4651                	li	a2,20
    133c:	4585                	li	a1,1
    133e:	0068                	addi	a0,sp,12
    1340:	c63e                	sw	a5,12(sp)
    1342:	3705                	jal	1262 <_gpio_init>
    1344:	200007b7          	lui	a5,0x20000
    1348:	06078793          	addi	a5,a5,96 # 20000060 <_gpio_mask_to_group_unsafe>
    134c:	4788                	lw	a0,8(a5)
    134e:	4605                	li	a2,1
    1350:	65a1                	lui	a1,0x8
    1352:	072060ef          	jal	ra,73c4 <GPIO_WriteBit>
    1356:	20000537          	lui	a0,0x20000
    135a:	02800613          	li	a2,40
    135e:	4591                	li	a1,4
    1360:	00050513          	mv	a0,a0
    1364:	3dfd                	jal	1262 <_gpio_init>
    1366:	20000537          	lui	a0,0x20000
    136a:	4641                	li	a2,16
    136c:	4591                	li	a1,4
    136e:	01050513          	addi	a0,a0,16 # 20000010 <kb_pull>
    1372:	3dc5                	jal	1262 <_gpio_init>
    1374:	200007b7          	lui	a5,0x20000
    1378:	02078793          	addi	a5,a5,32 # 20000020 <kb_scan_to_hid>
    137c:	20002737          	lui	a4,0x20002
    1380:	04078613          	addi	a2,a5,64
    1384:	61470713          	addi	a4,a4,1556 # 20002614 <hid_num_to_gpio>
    1388:	4394                	lw	a3,0(a5)
    138a:	068a                	slli	a3,a3,0x2
    138c:	96ba                	add	a3,a3,a4
    138e:	0006a023          	sw	zero,0(a3)
    1392:	43d4                	lw	a3,4(a5)
    1394:	068a                	slli	a3,a3,0x2
    1396:	96ba                	add	a3,a3,a4
    1398:	0006a023          	sw	zero,0(a3)
    139c:	4794                	lw	a3,8(a5)
    139e:	068a                	slli	a3,a3,0x2
    13a0:	96ba                	add	a3,a3,a4
    13a2:	0006a023          	sw	zero,0(a3)
    13a6:	47d4                	lw	a3,12(a5)
    13a8:	07c1                	addi	a5,a5,16
    13aa:	068a                	slli	a3,a3,0x2
    13ac:	96ba                	add	a3,a3,a4
    13ae:	0006a023          	sw	zero,0(a3)
    13b2:	fcc79be3          	bne	a5,a2,1388 <gpio_kb_scan_init+0x58>
    13b6:	0141                	addi	sp,sp,16
    13b8:	dddfe06f          	j	194 <__riscv_restore_0>

000013bc <gpio_init>:
    13bc:	db5fe2ef          	jal	t0,170 <__riscv_save_0>
    13c0:	3501                	jal	11c0 <gpio_tb_init>
    13c2:	7c31c783          	lbu	a5,1987(gp) # 200022eb <smashpro_factory_config+0x7>
    13c6:	c391                	beqz	a5,13ca <gpio_init+0xe>
    13c8:	37a5                	jal	1330 <gpio_kb_scan_init>
    13ca:	20002537          	lui	a0,0x20002
    13ce:	04800613          	li	a2,72
    13d2:	45e1                	li	a1,24
    13d4:	61450513          	addi	a0,a0,1556 # 20002614 <hid_num_to_gpio>
    13d8:	3569                	jal	1262 <_gpio_init>
    13da:	dbbfe06f          	j	194 <__riscv_restore_0>

000013de <gpio_kb_scan>:
    13de:	d6bfe2ef          	jal	t0,148 <__riscv_save_10>
    13e2:	20000437          	lui	s0,0x20000
    13e6:	01040413          	addi	s0,s0,16 # 20000010 <kb_pull>
    13ea:	200004b7          	lui	s1,0x20000
    13ee:	20000937          	lui	s2,0x20000
    13f2:	20000ab7          	lui	s5,0x20000
    13f6:	02048493          	addi	s1,s1,32 # 20000020 <kb_scan_to_hid>
    13fa:	01040b13          	addi	s6,s0,16
    13fe:	4a01                	li	s4,0
    1400:	06090913          	addi	s2,s2,96 # 20000060 <_gpio_mask_to_group_unsafe>
    1404:	000a8a93          	mv	s5,s5
    1408:	4bc1                	li	s7,16
    140a:	400c                	lw	a1,0(s0)
    140c:	4605                	li	a2,1
    140e:	4981                	li	s3,0
    1410:	00e5d793          	srli	a5,a1,0xe
    1414:	8bf1                	andi	a5,a5,28
    1416:	97ca                	add	a5,a5,s2
    1418:	4388                	lw	a0,0(a5)
    141a:	05c2                	slli	a1,a1,0x10
    141c:	81c1                	srli	a1,a1,0x10
    141e:	7a7050ef          	jal	ra,73c4 <GPIO_WriteBit>
    1422:	4551                	li	a0,20
    1424:	6f6040ef          	jal	ra,5b1a <Delay_Us>
    1428:	015987b3          	add	a5,s3,s5
    142c:	438c                	lw	a1,0(a5)
    142e:	00e5d793          	srli	a5,a1,0xe
    1432:	8bf1                	andi	a5,a5,28
    1434:	97ca                	add	a5,a5,s2
    1436:	4388                	lw	a0,0(a5)
    1438:	05c2                	slli	a1,a1,0x10
    143a:	81c1                	srli	a1,a1,0x10
    143c:	775050ef          	jal	ra,73b0 <GPIO_ReadInputDataBit>
    1440:	013487b3          	add	a5,s1,s3
    1444:	439c                	lw	a5,0(a5)
    1446:	0991                	addi	s3,s3,4
    1448:	00f51533          	sll	a0,a0,a5
    144c:	00aa6a33          	or	s4,s4,a0
    1450:	fd799ce3          	bne	s3,s7,1428 <gpio_kb_scan+0x4a>
    1454:	400c                	lw	a1,0(s0)
    1456:	4601                	li	a2,0
    1458:	0411                	addi	s0,s0,4
    145a:	00e5d793          	srli	a5,a1,0xe
    145e:	8bf1                	andi	a5,a5,28
    1460:	97ca                	add	a5,a5,s2
    1462:	4388                	lw	a0,0(a5)
    1464:	05c2                	slli	a1,a1,0x10
    1466:	81c1                	srli	a1,a1,0x10
    1468:	75d050ef          	jal	ra,73c4 <GPIO_WriteBit>
    146c:	4551                	li	a0,20
    146e:	6ac040ef          	jal	ra,5b1a <Delay_Us>
    1472:	04c1                	addi	s1,s1,16
    1474:	f9641be3          	bne	s0,s6,140a <gpio_kb_scan+0x2c>
    1478:	8552                	mv	a0,s4
    147a:	d07fe06f          	j	180 <__riscv_restore_10>

0000147e <gpio_read_all>:
    147e:	ccbfe2ef          	jal	t0,148 <__riscv_save_10>
    1482:	7c31c783          	lbu	a5,1987(gp) # 200022eb <smashpro_factory_config+0x7>
    1486:	4401                	li	s0,0
    1488:	c399                	beqz	a5,148e <gpio_read_all+0x10>
    148a:	3f91                	jal	13de <gpio_kb_scan>
    148c:	842a                	mv	s0,a0
    148e:	400119b7          	lui	s3,0x40011
    1492:	200024b7          	lui	s1,0x20002
    1496:	c0098b13          	addi	s6,s3,-1024 # 40010c00 <_eusrstack+0x2000bc00>
    149a:	61448493          	addi	s1,s1,1556 # 20002614 <hid_num_to_gpio>
    149e:	4901                	li	s2,0
    14a0:	00070a37          	lui	s4,0x70
    14a4:	00020ab7          	lui	s5,0x20
    14a8:	00040bb7          	lui	s7,0x40
    14ac:	6c41                	lui	s8,0x10
    14ae:	80098993          	addi	s3,s3,-2048
    14b2:	408c                	lw	a1,0(s1)
    14b4:	0145f7b3          	and	a5,a1,s4
    14b8:	03578b63          	beq	a5,s5,14ee <gpio_read_all+0x70>
    14bc:	03778d63          	beq	a5,s7,14f6 <gpio_read_all+0x78>
    14c0:	4505                	li	a0,1
    14c2:	01879763          	bne	a5,s8,14d0 <gpio_read_all+0x52>
    14c6:	05c2                	slli	a1,a1,0x10
    14c8:	81c1                	srli	a1,a1,0x10
    14ca:	854e                	mv	a0,s3
    14cc:	6e5050ef          	jal	ra,73b0 <GPIO_ReadInputDataBit>
    14d0:	00153793          	seqz	a5,a0
    14d4:	012797b3          	sll	a5,a5,s2
    14d8:	8c5d                	or	s0,s0,a5
    14da:	0905                	addi	s2,s2,1
    14dc:	47e1                	li	a5,24
    14de:	0491                	addi	s1,s1,4
    14e0:	fcf919e3          	bne	s2,a5,14b2 <gpio_read_all+0x34>
    14e4:	8c81ae23          	sw	s0,-1828(gp) # 20001404 <sts_button_raw>
    14e8:	8522                	mv	a0,s0
    14ea:	c97fe06f          	j	180 <__riscv_restore_10>
    14ee:	05c2                	slli	a1,a1,0x10
    14f0:	81c1                	srli	a1,a1,0x10
    14f2:	855a                	mv	a0,s6
    14f4:	bfe1                	j	14cc <gpio_read_all+0x4e>
    14f6:	05c2                	slli	a1,a1,0x10
    14f8:	81c1                	srli	a1,a1,0x10
    14fa:	40011537          	lui	a0,0x40011
    14fe:	b7f9                	j	14cc <gpio_read_all+0x4e>

00001500 <gpio_read>:
    1500:	c71fe2ef          	jal	t0,170 <__riscv_save_0>
    1504:	000707b7          	lui	a5,0x70
    1508:	8fe9                	and	a5,a5,a0
    150a:	00020737          	lui	a4,0x20
    150e:	85aa                	mv	a1,a0
    1510:	02e78463          	beq	a5,a4,1538 <gpio_read+0x38>
    1514:	00040737          	lui	a4,0x40
    1518:	02e78863          	beq	a5,a4,1548 <gpio_read+0x48>
    151c:	6741                	lui	a4,0x10
    151e:	4505                	li	a0,1
    1520:	00e79a63          	bne	a5,a4,1534 <gpio_read+0x34>
    1524:	05c2                	slli	a1,a1,0x10
    1526:	40011537          	lui	a0,0x40011
    152a:	81c1                	srli	a1,a1,0x10
    152c:	80050513          	addi	a0,a0,-2048 # 40010800 <_eusrstack+0x2000b800>
    1530:	681050ef          	jal	ra,73b0 <GPIO_ReadInputDataBit>
    1534:	c61fe06f          	j	194 <__riscv_restore_0>
    1538:	01051593          	slli	a1,a0,0x10
    153c:	40011537          	lui	a0,0x40011
    1540:	81c1                	srli	a1,a1,0x10
    1542:	c0050513          	addi	a0,a0,-1024 # 40010c00 <_eusrstack+0x2000bc00>
    1546:	b7ed                	j	1530 <gpio_read+0x30>
    1548:	01051593          	slli	a1,a0,0x10
    154c:	81c1                	srli	a1,a1,0x10
    154e:	40011537          	lui	a0,0x40011
    1552:	bff9                	j	1530 <gpio_read+0x30>

00001554 <gpio_set>:
    1554:	00e55713          	srli	a4,a0,0xe
    1558:	200007b7          	lui	a5,0x20000
    155c:	8b71                	andi	a4,a4,28
    155e:	06078793          	addi	a5,a5,96 # 20000060 <_gpio_mask_to_group_unsafe>
    1562:	97ba                	add	a5,a5,a4
    1564:	862e                	mv	a2,a1
    1566:	01051593          	slli	a1,a0,0x10
    156a:	4388                	lw	a0,0(a5)
    156c:	81c1                	srli	a1,a1,0x10
    156e:	6570506f          	j	73c4 <GPIO_WriteBit>

00001572 <button_read_raw>:
    1572:	4785                	li	a5,1
    1574:	00a79533          	sll	a0,a5,a0
    1578:	8dc1a783          	lw	a5,-1828(gp) # 20001404 <sts_button_raw>
    157c:	8d7d                	and	a0,a0,a5
    157e:	00a03533          	snez	a0,a0
    1582:	8082                	ret

00001584 <hd_rumble_init>:
    1584:	bedfe2ef          	jal	t0,170 <__riscv_save_0>
    1588:	7179                	addi	sp,sp,-48
    158a:	842a                	mv	s0,a0
    158c:	4585                	li	a1,1
    158e:	4531                	li	a0,12
    1590:	ca02                	sw	zero,20(sp)
    1592:	cc02                	sw	zero,24(sp)
    1594:	ce02                	sw	zero,28(sp)
    1596:	d002                	sw	zero,32(sp)
    1598:	d202                	sw	zero,36(sp)
    159a:	d402                	sw	zero,40(sp)
    159c:	d602                	sw	zero,44(sp)
    159e:	c402                	sw	zero,8(sp)
    15a0:	c602                	sw	zero,12(sp)
    15a2:	00011823          	sh	zero,16(sp)
    15a6:	2d4060ef          	jal	ra,787a <RCC_APB2PeriphClockCmd>
    15aa:	0e041563          	bnez	s0,1694 <hd_rumble_init+0x110>
    15ae:	4585                	li	a1,1
    15b0:	4509                	li	a0,2
    15b2:	2e6060ef          	jal	ra,7898 <RCC_APB1PeriphClockCmd>
    15b6:	40011537          	lui	a0,0x40011
    15ba:	4761                	li	a4,24
    15bc:	478d                	li	a5,3
    15be:	084c                	addi	a1,sp,20
    15c0:	c0050513          	addi	a0,a0,-1024 # 40010c00 <_eusrstack+0x2000bc00>
    15c4:	ce3a                	sw	a4,28(sp)
    15c6:	40000437          	lui	s0,0x40000
    15ca:	00f11a23          	sh	a5,20(sp)
    15ce:	cc3e                	sw	a5,24(sp)
    15d0:	523050ef          	jal	ra,72f2 <GPIO_Init>
    15d4:	5a000793          	li	a5,1440
    15d8:	002c                	addi	a1,sp,8
    15da:	40040513          	addi	a0,s0,1024 # 40000400 <_eusrstack+0x1fffb400>
    15de:	c63e                	sw	a5,12(sp)
    15e0:	c402                	sw	zero,8(sp)
    15e2:	3cc060ef          	jal	ra,79ae <TIM_TimeBaseInit>
    15e6:	4605                	li	a2,1
    15e8:	4585                	li	a1,1
    15ea:	40040513          	addi	a0,s0,1024
    15ee:	59a060ef          	jal	ra,7b88 <TIM_ITConfig>
    15f2:	67c1                	lui	a5,0x10
    15f4:	06078793          	addi	a5,a5,96 # 10060 <_data_lma+0x304c>
    15f8:	100c                	addi	a1,sp,32
    15fa:	40040513          	addi	a0,s0,1024
    15fe:	d03e                	sw	a5,32(sp)
    1600:	02011323          	sh	zero,38(sp)
    1604:	02011423          	sh	zero,40(sp)
    1608:	41e060ef          	jal	ra,7a26 <TIM_OC3Init>
    160c:	100c                	addi	a1,sp,32
    160e:	40040513          	addi	a0,s0,1024
    1612:	4c4060ef          	jal	ra,7ad6 <TIM_OC4Init>
    1616:	4585                	li	a1,1
    1618:	40040513          	addi	a0,s0,1024
    161c:	556060ef          	jal	ra,7b72 <TIM_CtrlPWMOutputs>
    1620:	45a1                	li	a1,8
    1622:	40040513          	addi	a0,s0,1024
    1626:	596060ef          	jal	ra,7bbc <TIM_OC3PreloadConfig>
    162a:	45a1                	li	a1,8
    162c:	40040513          	addi	a0,s0,1024
    1630:	59e060ef          	jal	ra,7bce <TIM_OC4PreloadConfig>
    1634:	4581                	li	a1,0
    1636:	40040513          	addi	a0,s0,1024
    163a:	564060ef          	jal	ra,7b9e <TIM_ARRPreloadConfig>
    163e:	2d000593          	li	a1,720
    1642:	40040513          	addi	a0,s0,1024
    1646:	5a2060ef          	jal	ra,7be8 <TIM_SetCompare3>
    164a:	2d000593          	li	a1,720
    164e:	40040513          	addi	a0,s0,1024
    1652:	59c060ef          	jal	ra,7bee <TIM_SetCompare4>
    1656:	0ef000ef          	jal	ra,1f44 <hd_rumble_high_accurary_init>
    165a:	12d00793          	li	a5,301
    165e:	00f11023          	sh	a5,0(sp)
    1662:	479d                	li	a5,7
    1664:	00f10123          	sb	a5,2(sp)
    1668:	850a                	mv	a0,sp
    166a:	4785                	li	a5,1
    166c:	c23e                	sw	a5,4(sp)
    166e:	7ff050ef          	jal	ra,766c <NVIC_Init>
    1672:	6789                	lui	a5,0x2
    1674:	1ee78793          	addi	a5,a5,494 # 21ee <TIM3_IRQHandler>
    1678:	e000e737          	lui	a4,0xe000e
    167c:	c37c                	sw	a5,68(a4)
    167e:	07b2                	slli	a5,a5,0xc
    1680:	83b1                	srli	a5,a5,0xc
    1682:	2d0006b7          	lui	a3,0x2d000
    1686:	8fd5                	or	a5,a5,a3
    1688:	d73c                	sw	a5,104(a4)
    168a:	4585                	li	a1,1
    168c:	40040513          	addi	a0,s0,1024
    1690:	4c6060ef          	jal	ra,7b56 <TIM_Cmd>
    1694:	6145                	addi	sp,sp,48
    1696:	afffe06f          	j	194 <__riscv_restore_0>

0000169a <hd_rumble_set_status>:
    169a:	85aa                	mv	a1,a0
    169c:	40000537          	lui	a0,0x40000
    16a0:	40050513          	addi	a0,a0,1024 # 40000400 <_eusrstack+0x1fffb400>
    16a4:	4b20606f          	j	7b56 <TIM_Cmd>

000016a8 <ApplyCommand>:
    16a8:	ac9fe2ef          	jal	t0,170 <__riscv_save_0>
    16ac:	88aa                	mv	a7,a0
    16ae:	8832                	mv	a6,a2
    16b0:	863e                	mv	a2,a5
    16b2:	4789                	li	a5,2
    16b4:	852e                	mv	a0,a1
    16b6:	85ba                	mv	a1,a4
    16b8:	00f88c63          	beq	a7,a5,16d0 <ApplyCommand+0x28>
    16bc:	478d                	li	a5,3
    16be:	00f88863          	beq	a7,a5,16ce <ApplyCommand+0x26>
    16c2:	00088363          	beqz	a7,16c8 <ApplyCommand+0x20>
    16c6:	8836                	mv	a6,a3
    16c8:	8542                	mv	a0,a6
    16ca:	acbfe06f          	j	194 <__riscv_restore_0>
    16ce:	9542                	add	a0,a0,a6
    16d0:	969ff0ef          	jal	ra,1038 <i32_clamp>
    16d4:	01051813          	slli	a6,a0,0x10
    16d8:	41085813          	srai	a6,a6,0x10
    16dc:	b7f5                	j	16c8 <ApplyCommand+0x20>

000016de <ApplyAmCommand>:
    16de:	4719                	li	a4,6
    16e0:	02e50533          	mul	a0,a0,a4
    16e4:	200007b7          	lui	a5,0x20000
    16e8:	08078793          	addi	a5,a5,128 # 20000080 <CommandTable>
    16ec:	862e                	mv	a2,a1
    16ee:	4701                	li	a4,0
    16f0:	4681                	li	a3,0
    16f2:	953e                	add	a0,a0,a5
    16f4:	00251583          	lh	a1,2(a0)
    16f8:	00054503          	lbu	a0,0(a0)
    16fc:	11c00793          	li	a5,284
    1700:	b765                	j	16a8 <ApplyCommand>

00001702 <ApplyFmCommand>:
    1702:	4719                	li	a4,6
    1704:	02e50533          	mul	a0,a0,a4
    1708:	200007b7          	lui	a5,0x20000
    170c:	08078793          	addi	a5,a5,128 # 20000080 <CommandTable>
    1710:	862e                	mv	a2,a1
    1712:	0c000713          	li	a4,192
    1716:	10000693          	li	a3,256
    171a:	953e                	add	a0,a0,a5
    171c:	00451583          	lh	a1,4(a0)
    1720:	00154503          	lbu	a0,1(a0)
    1724:	14000793          	li	a5,320
    1728:	b741                	j	16a8 <ApplyCommand>

0000172a <get_hd_rumble_pack>:
    172a:	8ec18713          	addi	a4,gp,-1812 # 20001414 <m_state>
    172e:	4314                	lw	a3,0(a4)
    1730:	200027b7          	lui	a5,0x20002
    1734:	4358                	lw	a4,4(a4)
    1736:	050e                	slli	a0,a0,0x3
    1738:	67478793          	addi	a5,a5,1652 # 20002674 <linear_samples>
    173c:	97aa                	add	a5,a5,a0
    173e:	c394                	sw	a3,0(a5)
    1740:	c3d8                	sw	a4,4(a5)
    1742:	8082                	ret

00001744 <deocde_hd_rumble_format1>:
    1744:	a2dfe2ef          	jal	t0,170 <__riscv_save_0>
    1748:	84aa                	mv	s1,a0
    174a:	00354503          	lbu	a0,3(a0)
    174e:	8ec18413          	addi	s0,gp,-1812 # 20001414 <m_state>
    1752:	00041583          	lh	a1,0(s0)
    1756:	8105                	srli	a0,a0,0x1
    1758:	897d                	andi	a0,a0,31
    175a:	3751                	jal	16de <ApplyAmCommand>
    175c:	00a41023          	sh	a0,0(s0)
    1760:	0034c503          	lbu	a0,3(s1)
    1764:	00241583          	lh	a1,2(s0)
    1768:	8105                	srli	a0,a0,0x1
    176a:	897d                	andi	a0,a0,31
    176c:	3f59                	jal	1702 <ApplyFmCommand>
    176e:	0034c783          	lbu	a5,3(s1)
    1772:	00a41123          	sh	a0,2(s0)
    1776:	0024c503          	lbu	a0,2(s1)
    177a:	00441583          	lh	a1,4(s0)
    177e:	8b85                	andi	a5,a5,1
    1780:	0792                	slli	a5,a5,0x4
    1782:	8111                	srli	a0,a0,0x4
    1784:	8d5d                	or	a0,a0,a5
    1786:	3fa1                	jal	16de <ApplyAmCommand>
    1788:	0034c783          	lbu	a5,3(s1)
    178c:	00a41223          	sh	a0,4(s0)
    1790:	0024c503          	lbu	a0,2(s1)
    1794:	00641583          	lh	a1,6(s0)
    1798:	8b85                	andi	a5,a5,1
    179a:	0792                	slli	a5,a5,0x4
    179c:	8111                	srli	a0,a0,0x4
    179e:	8d5d                	or	a0,a0,a5
    17a0:	378d                	jal	1702 <ApplyFmCommand>
    17a2:	00a41323          	sh	a0,6(s0)
    17a6:	4501                	li	a0,0
    17a8:	3749                	jal	172a <get_hd_rumble_pack>
    17aa:	4705                	li	a4,1
    17ac:	8ee18aa3          	sb	a4,-1803(gp) # 2000141d <decoded_cnt>
    17b0:	9e5fe06f          	j	194 <__riscv_restore_0>

000017b4 <decode_hd_rumble_format1long>:
    17b4:	9bdfe2ef          	jal	t0,170 <__riscv_save_0>
    17b8:	00354783          	lbu	a5,3(a0)
    17bc:	00254703          	lbu	a4,2(a0)
    17c0:	200005b7          	lui	a1,0x20000
    17c4:	03f7f793          	andi	a5,a5,63
    17c8:	00775613          	srli	a2,a4,0x7
    17cc:	0786                	slli	a5,a5,0x1
    17ce:	8fd1                	or	a5,a5,a2
    17d0:	14058593          	addi	a1,a1,320 # 20000140 <amp_exp2_index_lookup_tb>
    17d4:	0786                	slli	a5,a5,0x1
    17d6:	97ae                	add	a5,a5,a1
    17d8:	0007d783          	lhu	a5,0(a5)
    17dc:	6631                	lui	a2,0xc
    17de:	07f77713          	andi	a4,a4,127
    17e2:	31460613          	addi	a2,a2,788 # c314 <freq_exp2_index_lookup_tb>
    17e6:	0706                	slli	a4,a4,0x1
    17e8:	8ec18693          	addi	a3,gp,-1812 # 20001414 <m_state>
    17ec:	9732                	add	a4,a4,a2
    17ee:	00f69023          	sh	a5,0(a3) # 2d000000 <_eusrstack+0xcffb000>
    17f2:	00075783          	lhu	a5,0(a4) # e000e000 <_eusrstack+0xc0009000>
    17f6:	00054703          	lbu	a4,0(a0)
    17fa:	00f69123          	sh	a5,2(a3)
    17fe:	00154783          	lbu	a5,1(a0)
    1802:	8309                	srli	a4,a4,0x2
    1804:	0fe7f793          	andi	a5,a5,254
    1808:	95be                	add	a1,a1,a5
    180a:	0005d783          	lhu	a5,0(a1)
    180e:	00f69223          	sh	a5,4(a3)
    1812:	00154783          	lbu	a5,1(a0)
    1816:	4501                	li	a0,0
    1818:	8b85                	andi	a5,a5,1
    181a:	079a                	slli	a5,a5,0x6
    181c:	8fd9                	or	a5,a5,a4
    181e:	0786                	slli	a5,a5,0x1
    1820:	963e                	add	a2,a2,a5
    1822:	00065783          	lhu	a5,0(a2)
    1826:	00f69323          	sh	a5,6(a3)
    182a:	3701                	jal	172a <get_hd_rumble_pack>
    182c:	4705                	li	a4,1
    182e:	8ee18aa3          	sb	a4,-1803(gp) # 2000141d <decoded_cnt>
    1832:	963fe06f          	j	194 <__riscv_restore_0>

00001836 <decode_hd_rumble_format1full>:
    1836:	93bfe2ef          	jal	t0,170 <__riscv_save_0>
    183a:	00354783          	lbu	a5,3(a0)
    183e:	00254683          	lbu	a3,2(a0)
    1842:	00054703          	lbu	a4,0(a0)
    1846:	03f7f793          	andi	a5,a5,63
    184a:	829d                	srli	a3,a3,0x7
    184c:	0786                	slli	a5,a5,0x1
    184e:	00477613          	andi	a2,a4,4
    1852:	8fd5                	or	a5,a5,a3
    1854:	8b05                	andi	a4,a4,1
    1856:	84aa                	mv	s1,a0
    1858:	8ec18413          	addi	s0,gp,-1812 # 20001414 <m_state>
    185c:	0786                	slli	a5,a5,0x1
    185e:	0c070d63          	beqz	a4,1938 <decode_hd_rumble_format1full+0x102>
    1862:	0c060163          	beqz	a2,1924 <decode_hd_rumble_format1full+0xee>
    1866:	6731                	lui	a4,0xc
    1868:	31470713          	addi	a4,a4,788 # c314 <freq_exp2_index_lookup_tb>
    186c:	97ba                	add	a5,a5,a4
    186e:	0007d783          	lhu	a5,0(a5)
    1872:	00f41323          	sh	a5,6(s0)
    1876:	4501                	li	a0,0
    1878:	3d4d                	jal	172a <get_hd_rumble_pack>
    187a:	0024c503          	lbu	a0,2(s1)
    187e:	00041583          	lh	a1,0(s0)
    1882:	8109                	srli	a0,a0,0x2
    1884:	897d                	andi	a0,a0,31
    1886:	3da1                	jal	16de <ApplyAmCommand>
    1888:	00a41023          	sh	a0,0(s0)
    188c:	0024c503          	lbu	a0,2(s1)
    1890:	00241583          	lh	a1,2(s0)
    1894:	8109                	srli	a0,a0,0x2
    1896:	897d                	andi	a0,a0,31
    1898:	35ad                	jal	1702 <ApplyFmCommand>
    189a:	0024c783          	lbu	a5,2(s1)
    189e:	00a41123          	sh	a0,2(s0)
    18a2:	0014c503          	lbu	a0,1(s1)
    18a6:	00441583          	lh	a1,4(s0)
    18aa:	8b8d                	andi	a5,a5,3
    18ac:	078e                	slli	a5,a5,0x3
    18ae:	8115                	srli	a0,a0,0x5
    18b0:	8d5d                	or	a0,a0,a5
    18b2:	3535                	jal	16de <ApplyAmCommand>
    18b4:	0024c783          	lbu	a5,2(s1)
    18b8:	00a41223          	sh	a0,4(s0)
    18bc:	0014c503          	lbu	a0,1(s1)
    18c0:	00641583          	lh	a1,6(s0)
    18c4:	8b8d                	andi	a5,a5,3
    18c6:	078e                	slli	a5,a5,0x3
    18c8:	8115                	srli	a0,a0,0x5
    18ca:	8d5d                	or	a0,a0,a5
    18cc:	3d1d                	jal	1702 <ApplyFmCommand>
    18ce:	00a41323          	sh	a0,6(s0)
    18d2:	4505                	li	a0,1
    18d4:	3d99                	jal	172a <get_hd_rumble_pack>
    18d6:	0014c503          	lbu	a0,1(s1)
    18da:	00041583          	lh	a1,0(s0)
    18de:	897d                	andi	a0,a0,31
    18e0:	3bfd                	jal	16de <ApplyAmCommand>
    18e2:	00a41023          	sh	a0,0(s0)
    18e6:	0014c503          	lbu	a0,1(s1)
    18ea:	00241583          	lh	a1,2(s0)
    18ee:	897d                	andi	a0,a0,31
    18f0:	3d09                	jal	1702 <ApplyFmCommand>
    18f2:	00a41123          	sh	a0,2(s0)
    18f6:	0004c503          	lbu	a0,0(s1)
    18fa:	00441583          	lh	a1,4(s0)
    18fe:	810d                	srli	a0,a0,0x3
    1900:	3bf9                	jal	16de <ApplyAmCommand>
    1902:	00a41223          	sh	a0,4(s0)
    1906:	0004c503          	lbu	a0,0(s1)
    190a:	00641583          	lh	a1,6(s0)
    190e:	810d                	srli	a0,a0,0x3
    1910:	3bcd                	jal	1702 <ApplyFmCommand>
    1912:	00a41323          	sh	a0,6(s0)
    1916:	4509                	li	a0,2
    1918:	3d09                	jal	172a <get_hd_rumble_pack>
    191a:	470d                	li	a4,3
    191c:	8ee18aa3          	sb	a4,-1803(gp) # 2000141d <decoded_cnt>
    1920:	875fe06f          	j	194 <__riscv_restore_0>
    1924:	20000737          	lui	a4,0x20000
    1928:	14070713          	addi	a4,a4,320 # 20000140 <amp_exp2_index_lookup_tb>
    192c:	97ba                	add	a5,a5,a4
    192e:	0007d783          	lhu	a5,0(a5)
    1932:	00f41223          	sh	a5,4(s0)
    1936:	b781                	j	1876 <decode_hd_rumble_format1full+0x40>
    1938:	ca11                	beqz	a2,194c <decode_hd_rumble_format1full+0x116>
    193a:	6731                	lui	a4,0xc
    193c:	31470713          	addi	a4,a4,788 # c314 <freq_exp2_index_lookup_tb>
    1940:	97ba                	add	a5,a5,a4
    1942:	0007d783          	lhu	a5,0(a5)
    1946:	00f41123          	sh	a5,2(s0)
    194a:	b735                	j	1876 <decode_hd_rumble_format1full+0x40>
    194c:	20000737          	lui	a4,0x20000
    1950:	14070713          	addi	a4,a4,320 # 20000140 <amp_exp2_index_lookup_tb>
    1954:	97ba                	add	a5,a5,a4
    1956:	0007d783          	lhu	a5,0(a5)
    195a:	00f41023          	sh	a5,0(s0)
    195e:	bf21                	j	1876 <decode_hd_rumble_format1full+0x40>

00001960 <decode_hd_rumble_format2>:
    1960:	811fe2ef          	jal	t0,170 <__riscv_save_0>
    1964:	84aa                	mv	s1,a0
    1966:	00354503          	lbu	a0,3(a0)
    196a:	8ec18413          	addi	s0,gp,-1812 # 20001414 <m_state>
    196e:	00041583          	lh	a1,0(s0)
    1972:	8105                	srli	a0,a0,0x1
    1974:	897d                	andi	a0,a0,31
    1976:	33a5                	jal	16de <ApplyAmCommand>
    1978:	00a41023          	sh	a0,0(s0)
    197c:	0034c503          	lbu	a0,3(s1)
    1980:	00241583          	lh	a1,2(s0)
    1984:	8105                	srli	a0,a0,0x1
    1986:	897d                	andi	a0,a0,31
    1988:	3bad                	jal	1702 <ApplyFmCommand>
    198a:	0034c783          	lbu	a5,3(s1)
    198e:	00a41123          	sh	a0,2(s0)
    1992:	0024c503          	lbu	a0,2(s1)
    1996:	00441583          	lh	a1,4(s0)
    199a:	8b85                	andi	a5,a5,1
    199c:	0792                	slli	a5,a5,0x4
    199e:	8111                	srli	a0,a0,0x4
    19a0:	8d5d                	or	a0,a0,a5
    19a2:	3b35                	jal	16de <ApplyAmCommand>
    19a4:	0034c783          	lbu	a5,3(s1)
    19a8:	00a41223          	sh	a0,4(s0)
    19ac:	0024c503          	lbu	a0,2(s1)
    19b0:	00641583          	lh	a1,6(s0)
    19b4:	8b85                	andi	a5,a5,1
    19b6:	0792                	slli	a5,a5,0x4
    19b8:	8111                	srli	a0,a0,0x4
    19ba:	8d5d                	or	a0,a0,a5
    19bc:	3399                	jal	1702 <ApplyFmCommand>
    19be:	00a41323          	sh	a0,6(s0)
    19c2:	4501                	li	a0,0
    19c4:	339d                	jal	172a <get_hd_rumble_pack>
    19c6:	0024c783          	lbu	a5,2(s1)
    19ca:	0014c503          	lbu	a0,1(s1)
    19ce:	00041583          	lh	a1,0(s0)
    19d2:	8bbd                	andi	a5,a5,15
    19d4:	0786                	slli	a5,a5,0x1
    19d6:	811d                	srli	a0,a0,0x7
    19d8:	8d5d                	or	a0,a0,a5
    19da:	3311                	jal	16de <ApplyAmCommand>
    19dc:	0024c783          	lbu	a5,2(s1)
    19e0:	00a41023          	sh	a0,0(s0)
    19e4:	0014c503          	lbu	a0,1(s1)
    19e8:	00241583          	lh	a1,2(s0)
    19ec:	8bbd                	andi	a5,a5,15
    19ee:	0786                	slli	a5,a5,0x1
    19f0:	811d                	srli	a0,a0,0x7
    19f2:	8d5d                	or	a0,a0,a5
    19f4:	3339                	jal	1702 <ApplyFmCommand>
    19f6:	00a41123          	sh	a0,2(s0)
    19fa:	0014c503          	lbu	a0,1(s1)
    19fe:	00441583          	lh	a1,4(s0)
    1a02:	8109                	srli	a0,a0,0x2
    1a04:	897d                	andi	a0,a0,31
    1a06:	39e1                	jal	16de <ApplyAmCommand>
    1a08:	00a41223          	sh	a0,4(s0)
    1a0c:	0014c503          	lbu	a0,1(s1)
    1a10:	00641583          	lh	a1,6(s0)
    1a14:	8109                	srli	a0,a0,0x2
    1a16:	897d                	andi	a0,a0,31
    1a18:	31ed                	jal	1702 <ApplyFmCommand>
    1a1a:	00a41323          	sh	a0,6(s0)
    1a1e:	4505                	li	a0,1
    1a20:	3329                	jal	172a <get_hd_rumble_pack>
    1a22:	4709                	li	a4,2
    1a24:	8ee18aa3          	sb	a4,-1803(gp) # 2000141d <decoded_cnt>
    1a28:	f6cfe06f          	j	194 <__riscv_restore_0>

00001a2c <decode_hd_rumble_format2long>:
    1a2c:	f44fe2ef          	jal	t0,170 <__riscv_save_0>
    1a30:	84aa                	mv	s1,a0
    1a32:	0034c783          	lbu	a5,3(s1)
    1a36:	00254503          	lbu	a0,2(a0)
    1a3a:	20000737          	lui	a4,0x20000
    1a3e:	03f7f793          	andi	a5,a5,63
    1a42:	00755693          	srli	a3,a0,0x7
    1a46:	0786                	slli	a5,a5,0x1
    1a48:	8fd5                	or	a5,a5,a3
    1a4a:	14070713          	addi	a4,a4,320 # 20000140 <amp_exp2_index_lookup_tb>
    1a4e:	0786                	slli	a5,a5,0x1
    1a50:	97ba                	add	a5,a5,a4
    1a52:	0004c703          	lbu	a4,0(s1)
    1a56:	00079683          	lh	a3,0(a5)
    1a5a:	67b1                	lui	a5,0xc
    1a5c:	0fe77613          	andi	a2,a4,254
    1a60:	31478793          	addi	a5,a5,788 # c314 <freq_exp2_index_lookup_tb>
    1a64:	97b2                	add	a5,a5,a2
    1a66:	8109                	srli	a0,a0,0x2
    1a68:	8b05                	andi	a4,a4,1
    1a6a:	00079783          	lh	a5,0(a5)
    1a6e:	897d                	andi	a0,a0,31
    1a70:	8ec18413          	addi	s0,gp,-1812 # 20001414 <m_state>
    1a74:	cf51                	beqz	a4,1b10 <decode_hd_rumble_format2long+0xe4>
    1a76:	00041583          	lh	a1,0(s0)
    1a7a:	00d41223          	sh	a3,4(s0)
    1a7e:	00f41323          	sh	a5,6(s0)
    1a82:	c5dff0ef          	jal	ra,16de <ApplyAmCommand>
    1a86:	00a41023          	sh	a0,0(s0)
    1a8a:	0024c503          	lbu	a0,2(s1)
    1a8e:	00241583          	lh	a1,2(s0)
    1a92:	8109                	srli	a0,a0,0x2
    1a94:	897d                	andi	a0,a0,31
    1a96:	c6dff0ef          	jal	ra,1702 <ApplyFmCommand>
    1a9a:	00a41123          	sh	a0,2(s0)
    1a9e:	4501                	li	a0,0
    1aa0:	c8bff0ef          	jal	ra,172a <get_hd_rumble_pack>
    1aa4:	0024c783          	lbu	a5,2(s1)
    1aa8:	0014c503          	lbu	a0,1(s1)
    1aac:	00041583          	lh	a1,0(s0)
    1ab0:	8b8d                	andi	a5,a5,3
    1ab2:	078e                	slli	a5,a5,0x3
    1ab4:	8115                	srli	a0,a0,0x5
    1ab6:	8d5d                	or	a0,a0,a5
    1ab8:	c27ff0ef          	jal	ra,16de <ApplyAmCommand>
    1abc:	0024c783          	lbu	a5,2(s1)
    1ac0:	00a41023          	sh	a0,0(s0)
    1ac4:	0014c503          	lbu	a0,1(s1)
    1ac8:	00241583          	lh	a1,2(s0)
    1acc:	8b8d                	andi	a5,a5,3
    1ace:	078e                	slli	a5,a5,0x3
    1ad0:	8115                	srli	a0,a0,0x5
    1ad2:	8d5d                	or	a0,a0,a5
    1ad4:	c2fff0ef          	jal	ra,1702 <ApplyFmCommand>
    1ad8:	00a41123          	sh	a0,2(s0)
    1adc:	0014c503          	lbu	a0,1(s1)
    1ae0:	00441583          	lh	a1,4(s0)
    1ae4:	897d                	andi	a0,a0,31
    1ae6:	bf9ff0ef          	jal	ra,16de <ApplyAmCommand>
    1aea:	00a41223          	sh	a0,4(s0)
    1aee:	0014c503          	lbu	a0,1(s1)
    1af2:	00641583          	lh	a1,6(s0)
    1af6:	897d                	andi	a0,a0,31
    1af8:	c0bff0ef          	jal	ra,1702 <ApplyFmCommand>
    1afc:	00a41323          	sh	a0,6(s0)
    1b00:	4505                	li	a0,1
    1b02:	c29ff0ef          	jal	ra,172a <get_hd_rumble_pack>
    1b06:	4709                	li	a4,2
    1b08:	8ee18aa3          	sb	a4,-1803(gp) # 2000141d <decoded_cnt>
    1b0c:	e88fe06f          	j	194 <__riscv_restore_0>
    1b10:	00441583          	lh	a1,4(s0)
    1b14:	00d41023          	sh	a3,0(s0)
    1b18:	00f41123          	sh	a5,2(s0)
    1b1c:	bc3ff0ef          	jal	ra,16de <ApplyAmCommand>
    1b20:	00a41223          	sh	a0,4(s0)
    1b24:	0024c503          	lbu	a0,2(s1)
    1b28:	00641583          	lh	a1,6(s0)
    1b2c:	8109                	srli	a0,a0,0x2
    1b2e:	897d                	andi	a0,a0,31
    1b30:	bd3ff0ef          	jal	ra,1702 <ApplyFmCommand>
    1b34:	00a41323          	sh	a0,6(s0)
    1b38:	b79d                	j	1a9e <decode_hd_rumble_format2long+0x72>

00001b3a <decode_hd_rumble_format3>:
    1b3a:	e36fe2ef          	jal	t0,170 <__riscv_save_0>
    1b3e:	84aa                	mv	s1,a0
    1b40:	00354503          	lbu	a0,3(a0)
    1b44:	8ec18413          	addi	s0,gp,-1812 # 20001414 <m_state>
    1b48:	00041583          	lh	a1,0(s0)
    1b4c:	8105                	srli	a0,a0,0x1
    1b4e:	897d                	andi	a0,a0,31
    1b50:	b8fff0ef          	jal	ra,16de <ApplyAmCommand>
    1b54:	00a41023          	sh	a0,0(s0)
    1b58:	0034c503          	lbu	a0,3(s1)
    1b5c:	00241583          	lh	a1,2(s0)
    1b60:	8105                	srli	a0,a0,0x1
    1b62:	897d                	andi	a0,a0,31
    1b64:	b9fff0ef          	jal	ra,1702 <ApplyFmCommand>
    1b68:	0034c783          	lbu	a5,3(s1)
    1b6c:	00a41123          	sh	a0,2(s0)
    1b70:	0024c503          	lbu	a0,2(s1)
    1b74:	00441583          	lh	a1,4(s0)
    1b78:	8b85                	andi	a5,a5,1
    1b7a:	0792                	slli	a5,a5,0x4
    1b7c:	8111                	srli	a0,a0,0x4
    1b7e:	8d5d                	or	a0,a0,a5
    1b80:	b5fff0ef          	jal	ra,16de <ApplyAmCommand>
    1b84:	0034c783          	lbu	a5,3(s1)
    1b88:	00a41223          	sh	a0,4(s0)
    1b8c:	0024c503          	lbu	a0,2(s1)
    1b90:	00641583          	lh	a1,6(s0)
    1b94:	8b85                	andi	a5,a5,1
    1b96:	0792                	slli	a5,a5,0x4
    1b98:	8111                	srli	a0,a0,0x4
    1b9a:	8d5d                	or	a0,a0,a5
    1b9c:	b67ff0ef          	jal	ra,1702 <ApplyFmCommand>
    1ba0:	00a41323          	sh	a0,6(s0)
    1ba4:	4501                	li	a0,0
    1ba6:	b85ff0ef          	jal	ra,172a <get_hd_rumble_pack>
    1baa:	0024c783          	lbu	a5,2(s1)
    1bae:	0014c503          	lbu	a0,1(s1)
    1bb2:	00041583          	lh	a1,0(s0)
    1bb6:	8bbd                	andi	a5,a5,15
    1bb8:	0786                	slli	a5,a5,0x1
    1bba:	811d                	srli	a0,a0,0x7
    1bbc:	8d5d                	or	a0,a0,a5
    1bbe:	b21ff0ef          	jal	ra,16de <ApplyAmCommand>
    1bc2:	0024c783          	lbu	a5,2(s1)
    1bc6:	00a41023          	sh	a0,0(s0)
    1bca:	0014c503          	lbu	a0,1(s1)
    1bce:	00241583          	lh	a1,2(s0)
    1bd2:	8bbd                	andi	a5,a5,15
    1bd4:	0786                	slli	a5,a5,0x1
    1bd6:	811d                	srli	a0,a0,0x7
    1bd8:	8d5d                	or	a0,a0,a5
    1bda:	b29ff0ef          	jal	ra,1702 <ApplyFmCommand>
    1bde:	00a41123          	sh	a0,2(s0)
    1be2:	0014c503          	lbu	a0,1(s1)
    1be6:	00441583          	lh	a1,4(s0)
    1bea:	8109                	srli	a0,a0,0x2
    1bec:	897d                	andi	a0,a0,31
    1bee:	af1ff0ef          	jal	ra,16de <ApplyAmCommand>
    1bf2:	00a41223          	sh	a0,4(s0)
    1bf6:	0014c503          	lbu	a0,1(s1)
    1bfa:	00641583          	lh	a1,6(s0)
    1bfe:	8109                	srli	a0,a0,0x2
    1c00:	897d                	andi	a0,a0,31
    1c02:	b01ff0ef          	jal	ra,1702 <ApplyFmCommand>
    1c06:	00a41323          	sh	a0,6(s0)
    1c0a:	4505                	li	a0,1
    1c0c:	b1fff0ef          	jal	ra,172a <get_hd_rumble_pack>
    1c10:	0014c783          	lbu	a5,1(s1)
    1c14:	0004c503          	lbu	a0,0(s1)
    1c18:	00041583          	lh	a1,0(s0)
    1c1c:	8b8d                	andi	a5,a5,3
    1c1e:	078e                	slli	a5,a5,0x3
    1c20:	8115                	srli	a0,a0,0x5
    1c22:	8d5d                	or	a0,a0,a5
    1c24:	abbff0ef          	jal	ra,16de <ApplyAmCommand>
    1c28:	0014c783          	lbu	a5,1(s1)
    1c2c:	00a41023          	sh	a0,0(s0)
    1c30:	0004c503          	lbu	a0,0(s1)
    1c34:	00241583          	lh	a1,2(s0)
    1c38:	8b8d                	andi	a5,a5,3
    1c3a:	078e                	slli	a5,a5,0x3
    1c3c:	8115                	srli	a0,a0,0x5
    1c3e:	8d5d                	or	a0,a0,a5
    1c40:	ac3ff0ef          	jal	ra,1702 <ApplyFmCommand>
    1c44:	00a41123          	sh	a0,2(s0)
    1c48:	0004c503          	lbu	a0,0(s1)
    1c4c:	00441583          	lh	a1,4(s0)
    1c50:	897d                	andi	a0,a0,31
    1c52:	a8dff0ef          	jal	ra,16de <ApplyAmCommand>
    1c56:	00a41223          	sh	a0,4(s0)
    1c5a:	0004c503          	lbu	a0,0(s1)
    1c5e:	00641583          	lh	a1,6(s0)
    1c62:	897d                	andi	a0,a0,31
    1c64:	a9fff0ef          	jal	ra,1702 <ApplyFmCommand>
    1c68:	00a41323          	sh	a0,6(s0)
    1c6c:	4509                	li	a0,2
    1c6e:	abdff0ef          	jal	ra,172a <get_hd_rumble_pack>
    1c72:	470d                	li	a4,3
    1c74:	8ee18aa3          	sb	a4,-1803(gp) # 2000141d <decoded_cnt>
    1c78:	d1cfe06f          	j	194 <__riscv_restore_0>

00001c7c <decode_hd_rumble_multiformat_high_acc>:
    1c7c:	cccfe2ef          	jal	t0,148 <__riscv_save_10>
    1c80:	00354703          	lbu	a4,3(a0)
    1c84:	20002437          	lui	s0,0x20002
    1c88:	8e018a23          	sb	zero,-1804(gp) # 2000141c <global_sample_channel>
    1c8c:	8e018aa3          	sb	zero,-1803(gp) # 2000141d <decoded_cnt>
    1c90:	8319                	srli	a4,a4,0x6
    1c92:	4689                	li	a3,2
    1c94:	84ae                	mv	s1,a1
    1c96:	67440413          	addi	s0,s0,1652 # 20002674 <linear_samples>
    1c9a:	0cd70d63          	beq	a4,a3,1d74 <decode_hd_rumble_multiformat_high_acc+0xf8>
    1c9e:	468d                	li	a3,3
    1ca0:	0ed70863          	beq	a4,a3,1d90 <decode_hd_rumble_multiformat_high_acc+0x114>
    1ca4:	e34d                	bnez	a4,1d46 <decode_hd_rumble_multiformat_high_acc+0xca>
    1ca6:	4785                	li	a5,1
    1ca8:	8ef18aa3          	sb	a5,-1803(gp) # 2000141d <decoded_cnt>
    1cac:	00041223          	sh	zero,4(s0)
    1cb0:	00041023          	sh	zero,0(s0)
    1cb4:	8f51c503          	lbu	a0,-1803(gp) # 2000141d <decoded_cnt>
    1cb8:	460d                	li	a2,3
    1cba:	4581                	li	a1,0
    1cbc:	b7cff0ef          	jal	ra,1038 <i32_clamp>
    1cc0:	6b31                	lui	s6,0xc
    1cc2:	20002bb7          	lui	s7,0x20002
    1cc6:	8e418c93          	addi	s9,gp,-1820 # 2000140c <sample>
    1cca:	8ea18aa3          	sb	a0,-1803(gp) # 2000141d <decoded_cnt>
    1cce:	4c01                	li	s8,0
    1cd0:	8aa2                	mv	s5,s0
    1cd2:	624b0b13          	addi	s6,s6,1572 # c624 <exp2_lookup_tb>
    1cd6:	3f0b8b93          	addi	s7,s7,1008 # 200023f0 <user_config>
    1cda:	8e418993          	addi	s3,gp,-1820 # 2000140c <sample>
    1cde:	8f51c783          	lbu	a5,-1803(gp) # 2000141d <decoded_cnt>
    1ce2:	0afc4963          	blt	s8,a5,1d94 <decode_hd_rumble_multiformat_high_acc+0x118>
    1ce6:	0034c783          	lbu	a5,3(s1)
    1cea:	4705                	li	a4,1
    1cec:	8ee18a23          	sb	a4,-1804(gp) # 2000141c <global_sample_channel>
    1cf0:	8e018aa3          	sb	zero,-1803(gp) # 2000141d <decoded_cnt>
    1cf4:	8399                	srli	a5,a5,0x6
    1cf6:	4689                	li	a3,2
    1cf8:	14d78c63          	beq	a5,a3,1e50 <decode_hd_rumble_multiformat_high_acc+0x1d4>
    1cfc:	468d                	li	a3,3
    1cfe:	16d78863          	beq	a5,a3,1e6e <decode_hd_rumble_multiformat_high_acc+0x1f2>
    1d02:	10079e63          	bnez	a5,1e1e <decode_hd_rumble_multiformat_high_acc+0x1a2>
    1d06:	8ee18aa3          	sb	a4,-1803(gp) # 2000141d <decoded_cnt>
    1d0a:	00041223          	sh	zero,4(s0)
    1d0e:	00041023          	sh	zero,0(s0)
    1d12:	8f51c503          	lbu	a0,-1803(gp) # 2000141d <decoded_cnt>
    1d16:	460d                	li	a2,3
    1d18:	4581                	li	a1,0
    1d1a:	b1eff0ef          	jal	ra,1038 <i32_clamp>
    1d1e:	69b1                	lui	s3,0xc
    1d20:	20002a37          	lui	s4,0x20002
    1d24:	8e418b13          	addi	s6,gp,-1820 # 2000140c <sample>
    1d28:	8ea18aa3          	sb	a0,-1803(gp) # 2000141d <decoded_cnt>
    1d2c:	4a81                	li	s5,0
    1d2e:	62498993          	addi	s3,s3,1572 # c624 <exp2_lookup_tb>
    1d32:	3f0a0a13          	addi	s4,s4,1008 # 200023f0 <user_config>
    1d36:	8e418493          	addi	s1,gp,-1820 # 2000140c <sample>
    1d3a:	8f51c783          	lbu	a5,-1803(gp) # 2000141d <decoded_cnt>
    1d3e:	12facc63          	blt	s5,a5,1e76 <decode_hd_rumble_multiformat_high_acc+0x1fa>
    1d42:	c3efe06f          	j	180 <__riscv_restore_10>
    1d46:	00154703          	lbu	a4,1(a0)
    1d4a:	00254783          	lbu	a5,2(a0)
    1d4e:	00054683          	lbu	a3,0(a0)
    1d52:	0722                	slli	a4,a4,0x8
    1d54:	8bbd                	andi	a5,a5,15
    1d56:	8f55                	or	a4,a4,a3
    1d58:	07c2                	slli	a5,a5,0x10
    1d5a:	8fd9                	or	a5,a5,a4
    1d5c:	e781                	bnez	a5,1d64 <decode_hd_rumble_multiformat_high_acc+0xe8>
    1d5e:	9e7ff0ef          	jal	ra,1744 <deocde_hd_rumble_format1>
    1d62:	bf89                	j	1cb4 <decode_hd_rumble_multiformat_high_acc+0x38>
    1d64:	8a8d                	andi	a3,a3,3
    1d66:	e681                	bnez	a3,1d6e <decode_hd_rumble_multiformat_high_acc+0xf2>
    1d68:	a4dff0ef          	jal	ra,17b4 <decode_hd_rumble_format1long>
    1d6c:	b7a1                	j	1cb4 <decode_hd_rumble_multiformat_high_acc+0x38>
    1d6e:	ac9ff0ef          	jal	ra,1836 <decode_hd_rumble_format1full>
    1d72:	b789                	j	1cb4 <decode_hd_rumble_multiformat_high_acc+0x38>
    1d74:	00154783          	lbu	a5,1(a0)
    1d78:	00054703          	lbu	a4,0(a0)
    1d7c:	8b8d                	andi	a5,a5,3
    1d7e:	07a2                	slli	a5,a5,0x8
    1d80:	8fd9                	or	a5,a5,a4
    1d82:	e781                	bnez	a5,1d8a <decode_hd_rumble_multiformat_high_acc+0x10e>
    1d84:	bddff0ef          	jal	ra,1960 <decode_hd_rumble_format2>
    1d88:	b735                	j	1cb4 <decode_hd_rumble_multiformat_high_acc+0x38>
    1d8a:	ca3ff0ef          	jal	ra,1a2c <decode_hd_rumble_format2long>
    1d8e:	b71d                	j	1cb4 <decode_hd_rumble_multiformat_high_acc+0x38>
    1d90:	336d                	jal	1b3a <decode_hd_rumble_format3>
    1d92:	b70d                	j	1cb4 <decode_hd_rumble_multiformat_high_acc+0x38>
    1d94:	004a9703          	lh	a4,4(s5) # 20004 <_data_lma+0x12ff0>
    1d98:	007bc783          	lbu	a5,7(s7)
    1d9c:	070a                	slli	a4,a4,0x2
    1d9e:	975a                	add	a4,a4,s6
    1da0:	4318                	lw	a4,0(a4)
    1da2:	02e787b3          	mul	a5,a5,a4
    1da6:	8391                	srli	a5,a5,0x4
    1da8:	00fca223          	sw	a5,4(s9)
    1dac:	006a9783          	lh	a5,6(s5)
    1db0:	078a                	slli	a5,a5,0x2
    1db2:	97da                	add	a5,a5,s6
    1db4:	4388                	lw	a0,0(a5)
    1db6:	c919                	beqz	a0,1dcc <decode_hd_rumble_multiformat_high_acc+0x150>
    1db8:	14000613          	li	a2,320
    1dbc:	02c50633          	mul	a2,a0,a2
    1dc0:	4681                	li	a3,0
    1dc2:	502f9537          	lui	a0,0x502f9
    1dc6:	45a5                	li	a1,9
    1dc8:	0dc060ef          	jal	ra,7ea4 <__udivdi3>
    1dcc:	00a9a023          	sw	a0,0(s3)
    1dd0:	85ce                	mv	a1,s3
    1dd2:	4501                	li	a0,0
    1dd4:	2c09                	jal	1fe6 <push_waveform>
    1dd6:	000a9703          	lh	a4,0(s5)
    1dda:	009bc783          	lbu	a5,9(s7)
    1dde:	070a                	slli	a4,a4,0x2
    1de0:	975a                	add	a4,a4,s6
    1de2:	4318                	lw	a4,0(a4)
    1de4:	02e787b3          	mul	a5,a5,a4
    1de8:	8391                	srli	a5,a5,0x4
    1dea:	00f9a223          	sw	a5,4(s3)
    1dee:	002a9783          	lh	a5,2(s5)
    1df2:	078a                	slli	a5,a5,0x2
    1df4:	97da                	add	a5,a5,s6
    1df6:	4388                	lw	a0,0(a5)
    1df8:	c919                	beqz	a0,1e0e <decode_hd_rumble_multiformat_high_acc+0x192>
    1dfa:	0a000613          	li	a2,160
    1dfe:	02c50633          	mul	a2,a0,a2
    1e02:	4681                	li	a3,0
    1e04:	502f9537          	lui	a0,0x502f9
    1e08:	45a5                	li	a1,9
    1e0a:	09a060ef          	jal	ra,7ea4 <__udivdi3>
    1e0e:	00a9a023          	sw	a0,0(s3)
    1e12:	85ce                	mv	a1,s3
    1e14:	4509                	li	a0,2
    1e16:	2ac1                	jal	1fe6 <push_waveform>
    1e18:	0c05                	addi	s8,s8,1 # 10001 <_data_lma+0x2fed>
    1e1a:	0aa1                	addi	s5,s5,8
    1e1c:	b5c9                	j	1cde <decode_hd_rumble_multiformat_high_acc+0x62>
    1e1e:	0014c703          	lbu	a4,1(s1)
    1e22:	0024c783          	lbu	a5,2(s1)
    1e26:	0004c683          	lbu	a3,0(s1)
    1e2a:	0722                	slli	a4,a4,0x8
    1e2c:	8bbd                	andi	a5,a5,15
    1e2e:	8f55                	or	a4,a4,a3
    1e30:	07c2                	slli	a5,a5,0x10
    1e32:	8fd9                	or	a5,a5,a4
    1e34:	e789                	bnez	a5,1e3e <decode_hd_rumble_multiformat_high_acc+0x1c2>
    1e36:	8526                	mv	a0,s1
    1e38:	90dff0ef          	jal	ra,1744 <deocde_hd_rumble_format1>
    1e3c:	bdd9                	j	1d12 <decode_hd_rumble_multiformat_high_acc+0x96>
    1e3e:	8a8d                	andi	a3,a3,3
    1e40:	8526                	mv	a0,s1
    1e42:	e681                	bnez	a3,1e4a <decode_hd_rumble_multiformat_high_acc+0x1ce>
    1e44:	971ff0ef          	jal	ra,17b4 <decode_hd_rumble_format1long>
    1e48:	b5e9                	j	1d12 <decode_hd_rumble_multiformat_high_acc+0x96>
    1e4a:	9edff0ef          	jal	ra,1836 <decode_hd_rumble_format1full>
    1e4e:	b5d1                	j	1d12 <decode_hd_rumble_multiformat_high_acc+0x96>
    1e50:	0014c783          	lbu	a5,1(s1)
    1e54:	0004c703          	lbu	a4,0(s1)
    1e58:	8526                	mv	a0,s1
    1e5a:	8b8d                	andi	a5,a5,3
    1e5c:	07a2                	slli	a5,a5,0x8
    1e5e:	8fd9                	or	a5,a5,a4
    1e60:	e781                	bnez	a5,1e68 <decode_hd_rumble_multiformat_high_acc+0x1ec>
    1e62:	affff0ef          	jal	ra,1960 <decode_hd_rumble_format2>
    1e66:	b575                	j	1d12 <decode_hd_rumble_multiformat_high_acc+0x96>
    1e68:	bc5ff0ef          	jal	ra,1a2c <decode_hd_rumble_format2long>
    1e6c:	b55d                	j	1d12 <decode_hd_rumble_multiformat_high_acc+0x96>
    1e6e:	8526                	mv	a0,s1
    1e70:	ccbff0ef          	jal	ra,1b3a <decode_hd_rumble_format3>
    1e74:	bd79                	j	1d12 <decode_hd_rumble_multiformat_high_acc+0x96>
    1e76:	00441703          	lh	a4,4(s0)
    1e7a:	008a4783          	lbu	a5,8(s4)
    1e7e:	070a                	slli	a4,a4,0x2
    1e80:	974e                	add	a4,a4,s3
    1e82:	4318                	lw	a4,0(a4)
    1e84:	02e787b3          	mul	a5,a5,a4
    1e88:	8391                	srli	a5,a5,0x4
    1e8a:	00fb2223          	sw	a5,4(s6)
    1e8e:	00641783          	lh	a5,6(s0)
    1e92:	078a                	slli	a5,a5,0x2
    1e94:	97ce                	add	a5,a5,s3
    1e96:	4388                	lw	a0,0(a5)
    1e98:	c919                	beqz	a0,1eae <decode_hd_rumble_multiformat_high_acc+0x232>
    1e9a:	14000613          	li	a2,320
    1e9e:	02c50633          	mul	a2,a0,a2
    1ea2:	4681                	li	a3,0
    1ea4:	502f9537          	lui	a0,0x502f9
    1ea8:	45a5                	li	a1,9
    1eaa:	7fb050ef          	jal	ra,7ea4 <__udivdi3>
    1eae:	c088                	sw	a0,0(s1)
    1eb0:	85a6                	mv	a1,s1
    1eb2:	4505                	li	a0,1
    1eb4:	2a0d                	jal	1fe6 <push_waveform>
    1eb6:	00041703          	lh	a4,0(s0)
    1eba:	00aa4783          	lbu	a5,10(s4)
    1ebe:	070a                	slli	a4,a4,0x2
    1ec0:	974e                	add	a4,a4,s3
    1ec2:	4318                	lw	a4,0(a4)
    1ec4:	02e787b3          	mul	a5,a5,a4
    1ec8:	8391                	srli	a5,a5,0x4
    1eca:	c0dc                	sw	a5,4(s1)
    1ecc:	00241783          	lh	a5,2(s0)
    1ed0:	078a                	slli	a5,a5,0x2
    1ed2:	97ce                	add	a5,a5,s3
    1ed4:	4388                	lw	a0,0(a5)
    1ed6:	c919                	beqz	a0,1eec <decode_hd_rumble_multiformat_high_acc+0x270>
    1ed8:	0a000613          	li	a2,160
    1edc:	02c50633          	mul	a2,a0,a2
    1ee0:	4681                	li	a3,0
    1ee2:	502f9537          	lui	a0,0x502f9
    1ee6:	45a5                	li	a1,9
    1ee8:	7bd050ef          	jal	ra,7ea4 <__udivdi3>
    1eec:	c088                	sw	a0,0(s1)
    1eee:	85a6                	mv	a1,s1
    1ef0:	450d                	li	a0,3
    1ef2:	28d5                	jal	1fe6 <push_waveform>
    1ef4:	0a85                	addi	s5,s5,1
    1ef6:	0421                	addi	s0,s0,8
    1ef8:	b589                	j	1d3a <decode_hd_rumble_multiformat_high_acc+0xbe>

00001efa <hd_rumble_lookup_tb_init>:
    1efa:	a76fe2ef          	jal	t0,170 <__riscv_save_0>
    1efe:	200027b7          	lui	a5,0x20002
    1f02:	3f17c483          	lbu	s1,1009(a5) # 200023f1 <user_config+0x1>
    1f06:	20000437          	lui	s0,0x20000
    1f0a:	10000613          	li	a2,256
    1f0e:	0084f793          	andi	a5,s1,8
    1f12:	c78d                	beqz	a5,1f3c <hd_rumble_lookup_tb_init+0x42>
    1f14:	65b1                	lui	a1,0xc
    1f16:	41458593          	addi	a1,a1,1044 # c414 <amp_exp2_index_lookup_tb_high_amp_drop>
    1f1a:	14040513          	addi	a0,s0,320 # 20000140 <amp_exp2_index_lookup_tb>
    1f1e:	88c1                	andi	s1,s1,16
    1f20:	a80fe0ef          	jal	ra,1a0 <memcpy>
    1f24:	c891                	beqz	s1,1f38 <hd_rumble_lookup_tb_init+0x3e>
    1f26:	14040513          	addi	a0,s0,320
    1f2a:	65b1                	lui	a1,0xc
    1f2c:	4641                	li	a2,16
    1f2e:	51458593          	addi	a1,a1,1300 # c514 <amp_exp2_index_lookup_tb_low_amp_rise>
    1f32:	0509                	addi	a0,a0,2 # 502f9002 <_eusrstack+0x302f4002>
    1f34:	a6cfe0ef          	jal	ra,1a0 <memcpy>
    1f38:	a5cfe06f          	j	194 <__riscv_restore_0>
    1f3c:	65b1                	lui	a1,0xc
    1f3e:	52458593          	addi	a1,a1,1316 # c524 <amp_exp2_index_lookup_tb_raw>
    1f42:	bfe1                	j	1f1a <hd_rumble_lookup_tb_init+0x20>

00001f44 <hd_rumble_high_accurary_init>:
    1f44:	a2cfe2ef          	jal	t0,170 <__riscv_save_0>
    1f48:	20002637          	lui	a2,0x20002
    1f4c:	200035b7          	lui	a1,0x20003
    1f50:	20003537          	lui	a0,0x20003
    1f54:	4721                	li	a4,8
    1f56:	02000693          	li	a3,32
    1f5a:	68c60613          	addi	a2,a2,1676 # 2000268c <rumble_rb_len>
    1f5e:	a0c58593          	addi	a1,a1,-1524 # 20002a0c <left_high_rb_buf>
    1f62:	b4850513          	addi	a0,a0,-1208 # 20002b48 <left_high_rb>
    1f66:	1f4030ef          	jal	ra,515a <ring_buffer_init>
    1f6a:	20002637          	lui	a2,0x20002
    1f6e:	200035b7          	lui	a1,0x20003
    1f72:	20003537          	lui	a0,0x20003
    1f76:	4721                	li	a4,8
    1f78:	02000693          	li	a3,32
    1f7c:	6ac60613          	addi	a2,a2,1708 # 200026ac <rumble_rb_len+0x20>
    1f80:	90c58593          	addi	a1,a1,-1780 # 2000290c <left_low_rb_buf>
    1f84:	b3450513          	addi	a0,a0,-1228 # 20002b34 <left_low_rb>
    1f88:	1d2030ef          	jal	ra,515a <ring_buffer_init>
    1f8c:	20002637          	lui	a2,0x20002
    1f90:	200035b7          	lui	a1,0x20003
    1f94:	20003537          	lui	a0,0x20003
    1f98:	4721                	li	a4,8
    1f9a:	02000693          	li	a3,32
    1f9e:	6cc60613          	addi	a2,a2,1740 # 200026cc <rumble_rb_len+0x40>
    1fa2:	80c58593          	addi	a1,a1,-2036 # 2000280c <right_high_rb_buf>
    1fa6:	b2050513          	addi	a0,a0,-1248 # 20002b20 <right_high_rb>
    1faa:	1b0030ef          	jal	ra,515a <ring_buffer_init>
    1fae:	20002637          	lui	a2,0x20002
    1fb2:	200025b7          	lui	a1,0x20002
    1fb6:	20003537          	lui	a0,0x20003
    1fba:	4721                	li	a4,8
    1fbc:	02000693          	li	a3,32
    1fc0:	6ec60613          	addi	a2,a2,1772 # 200026ec <rumble_rb_len+0x60>
    1fc4:	70c58593          	addi	a1,a1,1804 # 2000270c <right_low_rb_buf>
    1fc8:	b0c50513          	addi	a0,a0,-1268 # 20002b0c <right_low_rb>
    1fcc:	18e030ef          	jal	ra,515a <ring_buffer_init>
    1fd0:	4785                	li	a5,1
    1fd2:	92f18823          	sb	a5,-1744(gp) # 20001458 <right_low_buf_stdby>
    1fd6:	92f188a3          	sb	a5,-1743(gp) # 20001459 <right_high_buf_stdby>
    1fda:	92f18923          	sb	a5,-1742(gp) # 2000145a <left_low_buf_stdby>
    1fde:	92f189a3          	sb	a5,-1741(gp) # 2000145b <left_high_buf_stdby>
    1fe2:	9b2fe06f          	j	194 <__riscv_restore_0>

00001fe6 <push_waveform>:
    1fe6:	cdb9                	beqz	a1,2044 <push_waveform+0x5e>
    1fe8:	988fe2ef          	jal	t0,170 <__riscv_save_0>
    1fec:	4789                	li	a5,2
    1fee:	02f50963          	beq	a0,a5,2020 <push_waveform+0x3a>
    1ff2:	02a7e263          	bltu	a5,a0,2016 <push_waveform+0x30>
    1ff6:	e91d                	bnez	a0,202c <push_waveform+0x46>
    1ff8:	20003537          	lui	a0,0x20003
    1ffc:	4621                	li	a2,8
    1ffe:	b4850513          	addi	a0,a0,-1208 # 20002b48 <left_high_rb>
    2002:	196030ef          	jal	ra,5198 <ring_buffer_push>
    2006:	c919                	beqz	a0,201c <push_waveform+0x36>
    2008:	4705                	li	a4,1
    200a:	4505                	li	a0,1
    200c:	90e18a23          	sb	a4,-1772(gp) # 2000143c <rumble_rb_overflow>
    2010:	604030ef          	jal	ra,5614 <flush_rgb>
    2014:	a021                	j	201c <push_waveform+0x36>
    2016:	478d                	li	a5,3
    2018:	02f50063          	beq	a0,a5,2038 <push_waveform+0x52>
    201c:	978fe06f          	j	194 <__riscv_restore_0>
    2020:	20003537          	lui	a0,0x20003
    2024:	4621                	li	a2,8
    2026:	b3450513          	addi	a0,a0,-1228 # 20002b34 <left_low_rb>
    202a:	bfe1                	j	2002 <push_waveform+0x1c>
    202c:	20003537          	lui	a0,0x20003
    2030:	4621                	li	a2,8
    2032:	b2050513          	addi	a0,a0,-1248 # 20002b20 <right_high_rb>
    2036:	b7f1                	j	2002 <push_waveform+0x1c>
    2038:	20003537          	lui	a0,0x20003
    203c:	4621                	li	a2,8
    203e:	b0c50513          	addi	a0,a0,-1268 # 20002b0c <right_low_rb>
    2042:	b7c1                	j	2002 <push_waveform+0x1c>
    2044:	8082                	ret

00002046 <push_waveform_into_buffer_task>:
    2046:	92afe2ef          	jal	t0,170 <__riscv_save_0>
    204a:	9331c783          	lbu	a5,-1741(gp) # 2000145b <left_high_buf_stdby>
    204e:	cf95                	beqz	a5,208a <push_waveform_into_buffer_task+0x44>
    2050:	20003537          	lui	a0,0x20003
    2054:	b4850793          	addi	a5,a0,-1208 # 20002b48 <left_high_rb>
    2058:	47d4                	lw	a3,12(a5)
    205a:	ca85                	beqz	a3,208a <push_waveform_into_buffer_task+0x44>
    205c:	0087c783          	lbu	a5,8(a5)
    2060:	200036b7          	lui	a3,0x20003
    2064:	a0c68693          	addi	a3,a3,-1524 # 20002a0c <left_high_rb_buf>
    2068:	078e                	slli	a5,a5,0x3
    206a:	97b6                	add	a5,a5,a3
    206c:	4394                	lw	a3,0(a5)
    206e:	43dc                	lw	a5,4(a5)
    2070:	920189a3          	sb	zero,-1741(gp) # 2000145b <left_high_buf_stdby>
    2074:	95018713          	addi	a4,gp,-1712 # 20001478 <left_high_buf>
    2078:	b4850513          	addi	a0,a0,-1208
    207c:	c35c                	sw	a5,4(a4)
    207e:	c314                	sw	a3,0(a4)
    2080:	252030ef          	jal	ra,52d2 <ring_buffer_pop>
    2084:	4705                	li	a4,1
    2086:	92e18ba3          	sb	a4,-1737(gp) # 2000145f <left_high_buf_rdy>
    208a:	9321c783          	lbu	a5,-1742(gp) # 2000145a <left_low_buf_stdby>
    208e:	cf95                	beqz	a5,20ca <push_waveform_into_buffer_task+0x84>
    2090:	20003537          	lui	a0,0x20003
    2094:	b3450793          	addi	a5,a0,-1228 # 20002b34 <left_low_rb>
    2098:	47d4                	lw	a3,12(a5)
    209a:	ca85                	beqz	a3,20ca <push_waveform_into_buffer_task+0x84>
    209c:	0087c783          	lbu	a5,8(a5)
    20a0:	200036b7          	lui	a3,0x20003
    20a4:	90c68693          	addi	a3,a3,-1780 # 2000290c <left_low_rb_buf>
    20a8:	078e                	slli	a5,a5,0x3
    20aa:	97b6                	add	a5,a5,a3
    20ac:	4394                	lw	a3,0(a5)
    20ae:	43dc                	lw	a5,4(a5)
    20b0:	92018923          	sb	zero,-1742(gp) # 2000145a <left_low_buf_stdby>
    20b4:	94818713          	addi	a4,gp,-1720 # 20001470 <left_low_buf>
    20b8:	b3450513          	addi	a0,a0,-1228
    20bc:	c35c                	sw	a5,4(a4)
    20be:	c314                	sw	a3,0(a4)
    20c0:	212030ef          	jal	ra,52d2 <ring_buffer_pop>
    20c4:	4705                	li	a4,1
    20c6:	92e18b23          	sb	a4,-1738(gp) # 2000145e <left_low_buf_rdy>
    20ca:	9311c783          	lbu	a5,-1743(gp) # 20001459 <right_high_buf_stdby>
    20ce:	cf95                	beqz	a5,210a <push_waveform_into_buffer_task+0xc4>
    20d0:	20003537          	lui	a0,0x20003
    20d4:	b2050793          	addi	a5,a0,-1248 # 20002b20 <right_high_rb>
    20d8:	47d4                	lw	a3,12(a5)
    20da:	ca85                	beqz	a3,210a <push_waveform_into_buffer_task+0xc4>
    20dc:	0087c783          	lbu	a5,8(a5)
    20e0:	200036b7          	lui	a3,0x20003
    20e4:	80c68693          	addi	a3,a3,-2036 # 2000280c <right_high_rb_buf>
    20e8:	078e                	slli	a5,a5,0x3
    20ea:	97b6                	add	a5,a5,a3
    20ec:	4394                	lw	a3,0(a5)
    20ee:	43dc                	lw	a5,4(a5)
    20f0:	920188a3          	sb	zero,-1743(gp) # 20001459 <right_high_buf_stdby>
    20f4:	94018713          	addi	a4,gp,-1728 # 20001468 <right_high_buf>
    20f8:	b2050513          	addi	a0,a0,-1248
    20fc:	c35c                	sw	a5,4(a4)
    20fe:	c314                	sw	a3,0(a4)
    2100:	1d2030ef          	jal	ra,52d2 <ring_buffer_pop>
    2104:	4705                	li	a4,1
    2106:	92e18aa3          	sb	a4,-1739(gp) # 2000145d <right_high_buf_rdy>
    210a:	9301c783          	lbu	a5,-1744(gp) # 20001458 <right_low_buf_stdby>
    210e:	cf95                	beqz	a5,214a <push_waveform_into_buffer_task+0x104>
    2110:	20003537          	lui	a0,0x20003
    2114:	b0c50793          	addi	a5,a0,-1268 # 20002b0c <right_low_rb>
    2118:	47d4                	lw	a3,12(a5)
    211a:	ca85                	beqz	a3,214a <push_waveform_into_buffer_task+0x104>
    211c:	0087c783          	lbu	a5,8(a5)
    2120:	200026b7          	lui	a3,0x20002
    2124:	70c68693          	addi	a3,a3,1804 # 2000270c <right_low_rb_buf>
    2128:	078e                	slli	a5,a5,0x3
    212a:	97b6                	add	a5,a5,a3
    212c:	4394                	lw	a3,0(a5)
    212e:	43dc                	lw	a5,4(a5)
    2130:	92018823          	sb	zero,-1744(gp) # 20001458 <right_low_buf_stdby>
    2134:	93818713          	addi	a4,gp,-1736 # 20001460 <right_low_buf>
    2138:	b0c50513          	addi	a0,a0,-1268
    213c:	c35c                	sw	a5,4(a4)
    213e:	c314                	sw	a3,0(a4)
    2140:	192030ef          	jal	ra,52d2 <ring_buffer_pop>
    2144:	4705                	li	a4,1
    2146:	92e18a23          	sb	a4,-1740(gp) # 2000145c <right_low_buf_rdy>
    214a:	84afe06f          	j	194 <__riscv_restore_0>

0000214e <step_forward>:
    214e:	c221                	beqz	a2,218e <step_forward+0x40>
    2150:	4198                	lw	a4,0(a1)
    2152:	67e1                	lui	a5,0x18
    2154:	6a078793          	addi	a5,a5,1696 # 186a0 <_data_lma+0xb68c>
    2158:	973e                	add	a4,a4,a5
    215a:	c198                	sw	a4,0(a1)
    215c:	00c77463          	bgeu	a4,a2,2164 <step_forward+0x16>
    2160:	4501                	li	a0,0
    2162:	8082                	ret
    2164:	02c756b3          	divu	a3,a4,a2
    2168:	00055783          	lhu	a5,0(a0)
    216c:	02c77733          	remu	a4,a4,a2
    2170:	97b6                	add	a5,a5,a3
    2172:	07c2                	slli	a5,a5,0x10
    2174:	83c1                	srli	a5,a5,0x10
    2176:	00f51023          	sh	a5,0(a0)
    217a:	c198                	sw	a4,0(a1)
    217c:	6705                	lui	a4,0x1
    217e:	80070713          	addi	a4,a4,-2048 # 800 <__stack_size>
    2182:	fcf77fe3          	bgeu	a4,a5,2160 <step_forward+0x12>
    2186:	7ff7f793          	andi	a5,a5,2047
    218a:	00f51023          	sh	a5,0(a0)
    218e:	4505                	li	a0,1
    2190:	8082                	ret

00002192 <rumble_pattern_check>:
    2192:	fdffd2ef          	jal	t0,170 <__riscv_save_0>
    2196:	200027b7          	lui	a5,0x20002
    219a:	3f07c783          	lbu	a5,1008(a5) # 200023f0 <user_config>
    219e:	872a                	mv	a4,a0
    21a0:	8436                	mv	s0,a3
    21a2:	0407f793          	andi	a5,a5,64
    21a6:	852e                	mv	a0,a1
    21a8:	4354                	lw	a3,4(a4)
    21aa:	85b2                	mv	a1,a2
    21ac:	c395                	beqz	a5,21d0 <rumble_pattern_check+0x3e>
    21ae:	4785                	li	a5,1
    21b0:	ce81                	beqz	a3,21c8 <rumble_pattern_check+0x36>
    21b2:	4310                	lw	a2,0(a4)
    21b4:	3f69                	jal	214e <step_forward>
    21b6:	4781                	li	a5,0
    21b8:	c901                	beqz	a0,21c8 <rumble_pattern_check+0x36>
    21ba:	8f81a783          	lw	a5,-1800(gp) # 20001420 <tim3_counter>
    21be:	8f81                	sub	a5,a5,s0
    21c0:	0fa7b793          	sltiu	a5,a5,250
    21c4:	0017c793          	xori	a5,a5,1
    21c8:	0ff7f513          	zext.b	a0,a5
    21cc:	fc9fd06f          	j	194 <__riscv_restore_0>
    21d0:	ea99                	bnez	a3,21e6 <rumble_pattern_check+0x54>
    21d2:	8f81a503          	lw	a0,-1800(gp) # 20001420 <tim3_counter>
    21d6:	8d01                	sub	a0,a0,s0
    21d8:	0fa53513          	sltiu	a0,a0,250
    21dc:	00154513          	xori	a0,a0,1
    21e0:	0ff57513          	zext.b	a0,a0
    21e4:	b7e5                	j	21cc <rumble_pattern_check+0x3a>
    21e6:	4310                	lw	a2,0(a4)
    21e8:	379d                	jal	214e <step_forward>
    21ea:	f565                	bnez	a0,21d2 <rumble_pattern_check+0x40>
    21ec:	bfd5                	j	21e0 <rumble_pattern_check+0x4e>

000021ee <TIM3_IRQHandler>:
    21ee:	40000537          	lui	a0,0x40000
    21f2:	7139                	addi	sp,sp,-64
    21f4:	4585                	li	a1,1
    21f6:	40050513          	addi	a0,a0,1024 # 40000400 <_eusrstack+0x1fffb400>
    21fa:	de22                	sw	s0,60(sp)
    21fc:	dc26                	sw	s1,56(sp)
    21fe:	da4a                	sw	s2,52(sp)
    2200:	d84e                	sw	s3,48(sp)
    2202:	d652                	sw	s4,44(sp)
    2204:	d456                	sw	s5,40(sp)
    2206:	d25a                	sw	s6,36(sp)
    2208:	d05e                	sw	s7,32(sp)
    220a:	ce62                	sw	s8,28(sp)
    220c:	cc66                	sw	s9,24(sp)
    220e:	ca6a                	sw	s10,20(sp)
    2210:	c86e                	sw	s11,16(sp)
    2212:	1ef050ef          	jal	ra,7c00 <TIM_GetITStatus>
    2216:	4785                	li	a5,1
    2218:	24f51d63          	bne	a0,a5,2472 <TIM3_IRQHandler+0x284>
    221c:	8f81a783          	lw	a5,-1800(gp) # 20001420 <tim3_counter>
    2220:	00178d13          	addi	s10,a5,1
    2224:	8fa1ac23          	sw	s10,-1800(gp) # 20001420 <tim3_counter>
    2228:	20002737          	lui	a4,0x20002
    222c:	3f174703          	lbu	a4,1009(a4) # 200023f1 <user_config+0x1>
    2230:	96018493          	addi	s1,gp,-1696 # 20001488 <right_high>
    2234:	20000437          	lui	s0,0x20000
    2238:	02077713          	andi	a4,a4,32
    223c:	97018c13          	addi	s8,gp,-1680 # 20001498 <left_high>
    2240:	96818993          	addi	s3,gp,-1688 # 20001490 <left_low>
    2244:	95818913          	addi	s2,gp,-1704 # 20001480 <right_low>
    2248:	24040413          	addi	s0,s0,576 # 20000240 <ccr_lookup_tb>
    224c:	2c070263          	beqz	a4,2510 <TIM3_IRQHandler+0x322>
    2250:	9081a683          	lw	a3,-1784(gp) # 20001430 <left_high_tick>
    2254:	92418613          	addi	a2,gp,-1756 # 2000144c <left_high_sum>
    2258:	92e18593          	addi	a1,gp,-1746 # 20001456 <left_high_pos>
    225c:	97018513          	addi	a0,gp,-1680 # 20001498 <left_high>
    2260:	c636                	sw	a3,12(sp)
    2262:	3f05                	jal	2192 <rumble_pattern_check>
    2264:	cd01                	beqz	a0,227c <TIM3_IRQHandler+0x8e>
    2266:	9371c583          	lbu	a1,-1737(gp) # 2000145f <left_high_buf_rdy>
    226a:	8f61c603          	lbu	a2,-1802(gp) # 2000141e <switch_upd>
    226e:	46b2                	lw	a3,12(sp)
    2270:	22058063          	beqz	a1,2490 <TIM3_IRQHandler+0x2a2>
    2274:	00166613          	ori	a2,a2,1
    2278:	8ec18b23          	sb	a2,-1802(gp) # 2000141e <switch_upd>
    227c:	9041a683          	lw	a3,-1788(gp) # 2000142c <left_low_tick>
    2280:	92018613          	addi	a2,gp,-1760 # 20001448 <left_low_sum>
    2284:	92c18593          	addi	a1,gp,-1748 # 20001454 <left_low_pos>
    2288:	96818513          	addi	a0,gp,-1688 # 20001490 <left_low>
    228c:	c636                	sw	a3,12(sp)
    228e:	3711                	jal	2192 <rumble_pattern_check>
    2290:	cd01                	beqz	a0,22a8 <TIM3_IRQHandler+0xba>
    2292:	9361c583          	lbu	a1,-1738(gp) # 2000145e <left_low_buf_rdy>
    2296:	8f61c603          	lbu	a2,-1802(gp) # 2000141e <switch_upd>
    229a:	46b2                	lw	a3,12(sp)
    229c:	20058a63          	beqz	a1,24b0 <TIM3_IRQHandler+0x2c2>
    22a0:	00266613          	ori	a2,a2,2
    22a4:	8ec18b23          	sb	a2,-1802(gp) # 2000141e <switch_upd>
    22a8:	9001a683          	lw	a3,-1792(gp) # 20001428 <right_high_tick>
    22ac:	91c18613          	addi	a2,gp,-1764 # 20001444 <right_high_sum>
    22b0:	92a18593          	addi	a1,gp,-1750 # 20001452 <right_high_pos>
    22b4:	96018513          	addi	a0,gp,-1696 # 20001488 <right_high>
    22b8:	c636                	sw	a3,12(sp)
    22ba:	3de1                	jal	2192 <rumble_pattern_check>
    22bc:	cd01                	beqz	a0,22d4 <TIM3_IRQHandler+0xe6>
    22be:	9351c583          	lbu	a1,-1739(gp) # 2000145d <right_high_buf_rdy>
    22c2:	8f61c603          	lbu	a2,-1802(gp) # 2000141e <switch_upd>
    22c6:	46b2                	lw	a3,12(sp)
    22c8:	20058463          	beqz	a1,24d0 <TIM3_IRQHandler+0x2e2>
    22cc:	00466613          	ori	a2,a2,4
    22d0:	8ec18b23          	sb	a2,-1802(gp) # 2000141e <switch_upd>
    22d4:	8fc1a683          	lw	a3,-1796(gp) # 20001424 <right_low_tick>
    22d8:	91818613          	addi	a2,gp,-1768 # 20001440 <right_low_sum>
    22dc:	92818593          	addi	a1,gp,-1752 # 20001450 <right_low_pos>
    22e0:	95818513          	addi	a0,gp,-1704 # 20001480 <right_low>
    22e4:	c636                	sw	a3,12(sp)
    22e6:	eadff0ef          	jal	ra,2192 <rumble_pattern_check>
    22ea:	cd01                	beqz	a0,2302 <TIM3_IRQHandler+0x114>
    22ec:	9341c583          	lbu	a1,-1740(gp) # 2000145c <right_low_buf_rdy>
    22f0:	8f61c603          	lbu	a2,-1802(gp) # 2000141e <switch_upd>
    22f4:	46b2                	lw	a3,12(sp)
    22f6:	1e058d63          	beqz	a1,24f0 <TIM3_IRQHandler+0x302>
    22fa:	00866613          	ori	a2,a2,8
    22fe:	8ec18b23          	sb	a2,-1802(gp) # 2000141e <switch_upd>
    2302:	8f61c683          	lbu	a3,-1802(gp) # 2000141e <switch_upd>
    2306:	0016f613          	andi	a2,a3,1
    230a:	c605                	beqz	a2,2332 <TIM3_IRQHandler+0x144>
    230c:	92018ba3          	sb	zero,-1737(gp) # 2000145f <left_high_buf_rdy>
    2310:	95018613          	addi	a2,gp,-1712 # 20001478 <left_high_buf>
    2314:	420c                	lw	a1,0(a2)
    2316:	4250                	lw	a2,4(a2)
    2318:	00bc2023          	sw	a1,0(s8)
    231c:	00cc2223          	sw	a2,4(s8)
    2320:	4585                	li	a1,1
    2322:	92019723          	sh	zero,-1746(gp) # 20001456 <left_high_pos>
    2326:	9201a223          	sw	zero,-1756(gp) # 2000144c <left_high_sum>
    232a:	92b189a3          	sb	a1,-1741(gp) # 2000145b <left_high_buf_stdby>
    232e:	91a1a423          	sw	s10,-1784(gp) # 20001430 <left_high_tick>
    2332:	0026f613          	andi	a2,a3,2
    2336:	c605                	beqz	a2,235e <TIM3_IRQHandler+0x170>
    2338:	92018b23          	sb	zero,-1738(gp) # 2000145e <left_low_buf_rdy>
    233c:	94818613          	addi	a2,gp,-1720 # 20001470 <left_low_buf>
    2340:	420c                	lw	a1,0(a2)
    2342:	4250                	lw	a2,4(a2)
    2344:	00b9a023          	sw	a1,0(s3)
    2348:	00c9a223          	sw	a2,4(s3)
    234c:	9201a023          	sw	zero,-1760(gp) # 20001448 <left_low_sum>
    2350:	4585                	li	a1,1
    2352:	92019623          	sh	zero,-1748(gp) # 20001454 <left_low_pos>
    2356:	92b18923          	sb	a1,-1742(gp) # 2000145a <left_low_buf_stdby>
    235a:	91a1a223          	sw	s10,-1788(gp) # 2000142c <left_low_tick>
    235e:	0046f613          	andi	a2,a3,4
    2362:	c215                	beqz	a2,2386 <TIM3_IRQHandler+0x198>
    2364:	92018aa3          	sb	zero,-1739(gp) # 2000145d <right_high_buf_rdy>
    2368:	94018613          	addi	a2,gp,-1728 # 20001468 <right_high_buf>
    236c:	420c                	lw	a1,0(a2)
    236e:	4250                	lw	a2,4(a2)
    2370:	c08c                	sw	a1,0(s1)
    2372:	c0d0                	sw	a2,4(s1)
    2374:	9001ae23          	sw	zero,-1764(gp) # 20001444 <right_high_sum>
    2378:	4585                	li	a1,1
    237a:	92019523          	sh	zero,-1750(gp) # 20001452 <right_high_pos>
    237e:	92b188a3          	sb	a1,-1743(gp) # 20001459 <right_high_buf_stdby>
    2382:	91a1a023          	sw	s10,-1792(gp) # 20001428 <right_high_tick>
    2386:	8aa1                	andi	a3,a3,8
    2388:	c685                	beqz	a3,23b0 <TIM3_IRQHandler+0x1c2>
    238a:	92018a23          	sb	zero,-1740(gp) # 2000145c <right_low_buf_rdy>
    238e:	93818693          	addi	a3,gp,-1736 # 20001460 <right_low_buf>
    2392:	4290                	lw	a2,0(a3)
    2394:	42d4                	lw	a3,4(a3)
    2396:	00c92023          	sw	a2,0(s2)
    239a:	00d92223          	sw	a3,4(s2)
    239e:	4605                	li	a2,1
    23a0:	92019423          	sh	zero,-1752(gp) # 20001450 <right_low_pos>
    23a4:	9001ac23          	sw	zero,-1768(gp) # 20001440 <right_low_sum>
    23a8:	92c18823          	sb	a2,-1744(gp) # 20001458 <right_low_buf_stdby>
    23ac:	8fa1ae23          	sw	s10,-1796(gp) # 20001424 <right_low_tick>
    23b0:	8101a683          	lw	a3,-2032(gp) # 20001338 <hd_rumble_cvr_range>
    23b4:	92e1d783          	lhu	a5,-1746(gp) # 20001456 <left_high_pos>
    23b8:	004c2703          	lw	a4,4(s8)
    23bc:	0049a603          	lw	a2,4(s3)
    23c0:	0786                	slli	a5,a5,0x1
    23c2:	97a2                	add	a5,a5,s0
    23c4:	00079783          	lh	a5,0(a5)
    23c8:	8e018b23          	sb	zero,-1802(gp) # 2000141e <switch_upd>
    23cc:	02e787b3          	mul	a5,a5,a4
    23d0:	92c1d703          	lhu	a4,-1748(gp) # 20001454 <left_low_pos>
    23d4:	0706                	slli	a4,a4,0x1
    23d6:	9722                	add	a4,a4,s0
    23d8:	00071703          	lh	a4,0(a4)
    23dc:	02c70733          	mul	a4,a4,a2
    23e0:	97ba                	add	a5,a5,a4
    23e2:	87a9                	srai	a5,a5,0xa
    23e4:	02d787b3          	mul	a5,a5,a3
    23e8:	87c5                	srai	a5,a5,0x11
    23ea:	2d078793          	addi	a5,a5,720
    23ee:	90f1a823          	sw	a5,-1776(gp) # 20001438 <tim3_irq_tmp_l>
    23f2:	92a1d783          	lhu	a5,-1750(gp) # 20001452 <right_high_pos>
    23f6:	40d8                	lw	a4,4(s1)
    23f8:	0786                	slli	a5,a5,0x1
    23fa:	97a2                	add	a5,a5,s0
    23fc:	00079783          	lh	a5,0(a5)
    2400:	02e787b3          	mul	a5,a5,a4
    2404:	9281d703          	lhu	a4,-1752(gp) # 20001450 <right_low_pos>
    2408:	0706                	slli	a4,a4,0x1
    240a:	9722                	add	a4,a4,s0
    240c:	00071703          	lh	a4,0(a4)
    2410:	00492603          	lw	a2,4(s2)
    2414:	200019b7          	lui	s3,0x20001
    2418:	02c70733          	mul	a4,a4,a2
    241c:	20001937          	lui	s2,0x20001
    2420:	3309a603          	lw	a2,816(s3) # 20001330 <hd_rumble_cvr_max>
    2424:	32c92583          	lw	a1,812(s2) # 2000132c <hd_rumble_cvr_min>
    2428:	40000437          	lui	s0,0x40000
    242c:	40040413          	addi	s0,s0,1024 # 40000400 <_eusrstack+0x1fffb400>
    2430:	97ba                	add	a5,a5,a4
    2432:	87a9                	srai	a5,a5,0xa
    2434:	02d787b3          	mul	a5,a5,a3
    2438:	87c5                	srai	a5,a5,0x11
    243a:	2d078793          	addi	a5,a5,720
    243e:	90f1a623          	sw	a5,-1780(gp) # 20001434 <tim3_irq_tmp_r>
    2442:	9101a503          	lw	a0,-1776(gp) # 20001438 <tim3_irq_tmp_l>
    2446:	bf3fe0ef          	jal	ra,1038 <i32_clamp>
    244a:	0542                	slli	a0,a0,0x10
    244c:	8141                	srli	a0,a0,0x10
    244e:	02a41e23          	sh	a0,60(s0)
    2452:	32c92583          	lw	a1,812(s2)
    2456:	3309a603          	lw	a2,816(s3)
    245a:	90c1a503          	lw	a0,-1780(gp) # 20001434 <tim3_irq_tmp_r>
    245e:	bdbfe0ef          	jal	ra,1038 <i32_clamp>
    2462:	0542                	slli	a0,a0,0x10
    2464:	8141                	srli	a0,a0,0x10
    2466:	04a41023          	sh	a0,64(s0)
    246a:	4585                	li	a1,1
    246c:	8522                	mv	a0,s0
    246e:	7ae050ef          	jal	ra,7c1c <TIM_ClearITPendingBit>
    2472:	5472                	lw	s0,60(sp)
    2474:	54e2                	lw	s1,56(sp)
    2476:	5952                	lw	s2,52(sp)
    2478:	59c2                	lw	s3,48(sp)
    247a:	5a32                	lw	s4,44(sp)
    247c:	5aa2                	lw	s5,40(sp)
    247e:	5b12                	lw	s6,36(sp)
    2480:	5b82                	lw	s7,32(sp)
    2482:	4c72                	lw	s8,28(sp)
    2484:	4ce2                	lw	s9,24(sp)
    2486:	4d52                	lw	s10,20(sp)
    2488:	4dc2                	lw	s11,16(sp)
    248a:	6121                	addi	sp,sp,64
    248c:	30200073          	mret
    2490:	6631                	lui	a2,0xc
    2492:	40dd06b3          	sub	a3,s10,a3
    2496:	34f60613          	addi	a2,a2,847 # c34f <freq_exp2_index_lookup_tb+0x3b>
    249a:	ded671e3          	bgeu	a2,a3,227c <TIM3_IRQHandler+0x8e>
    249e:	8141c683          	lbu	a3,-2028(gp) # 2000133c <switch_flag>
    24a2:	000c2223          	sw	zero,4(s8)
    24a6:	0016e693          	ori	a3,a3,1
    24aa:	80d18a23          	sb	a3,-2028(gp) # 2000133c <switch_flag>
    24ae:	b3f9                	j	227c <TIM3_IRQHandler+0x8e>
    24b0:	6631                	lui	a2,0xc
    24b2:	40dd06b3          	sub	a3,s10,a3
    24b6:	34f60613          	addi	a2,a2,847 # c34f <freq_exp2_index_lookup_tb+0x3b>
    24ba:	ded677e3          	bgeu	a2,a3,22a8 <TIM3_IRQHandler+0xba>
    24be:	8141c683          	lbu	a3,-2028(gp) # 2000133c <switch_flag>
    24c2:	0009a223          	sw	zero,4(s3)
    24c6:	0026e693          	ori	a3,a3,2
    24ca:	80d18a23          	sb	a3,-2028(gp) # 2000133c <switch_flag>
    24ce:	bbe9                	j	22a8 <TIM3_IRQHandler+0xba>
    24d0:	6631                	lui	a2,0xc
    24d2:	40dd06b3          	sub	a3,s10,a3
    24d6:	34f60613          	addi	a2,a2,847 # c34f <freq_exp2_index_lookup_tb+0x3b>
    24da:	ded67de3          	bgeu	a2,a3,22d4 <TIM3_IRQHandler+0xe6>
    24de:	8141c683          	lbu	a3,-2028(gp) # 2000133c <switch_flag>
    24e2:	0004a223          	sw	zero,4(s1)
    24e6:	0046e693          	ori	a3,a3,4
    24ea:	80d18a23          	sb	a3,-2028(gp) # 2000133c <switch_flag>
    24ee:	b3dd                	j	22d4 <TIM3_IRQHandler+0xe6>
    24f0:	6631                	lui	a2,0xc
    24f2:	40dd06b3          	sub	a3,s10,a3
    24f6:	34f60613          	addi	a2,a2,847 # c34f <freq_exp2_index_lookup_tb+0x3b>
    24fa:	e0d674e3          	bgeu	a2,a3,2302 <TIM3_IRQHandler+0x114>
    24fe:	8141c683          	lbu	a3,-2028(gp) # 2000133c <switch_flag>
    2502:	00092223          	sw	zero,4(s2)
    2506:	0086e693          	ori	a3,a3,8
    250a:	80d18a23          	sb	a3,-2028(gp) # 2000133c <switch_flag>
    250e:	bbd5                	j	2302 <TIM3_IRQHandler+0x114>
    2510:	9371c703          	lbu	a4,-1737(gp) # 2000145f <left_high_buf_rdy>
    2514:	cb0d                	beqz	a4,2546 <TIM3_IRQHandler+0x358>
    2516:	92018ba3          	sb	zero,-1737(gp) # 2000145f <left_high_buf_rdy>
    251a:	95018693          	addi	a3,gp,-1712 # 20001478 <left_high_buf>
    251e:	4298                	lw	a4,0(a3)
    2520:	42d4                	lw	a3,4(a3)
    2522:	00ec2023          	sw	a4,0(s8)
    2526:	00dc2223          	sw	a3,4(s8)
    252a:	92a189a3          	sb	a0,-1741(gp) # 2000145b <left_high_buf_stdby>
    252e:	95018793          	addi	a5,gp,-1712 # 20001478 <left_high_buf>
    2532:	c291                	beqz	a3,2536 <TIM3_IRQHandler+0x348>
    2534:	eb09                	bnez	a4,2546 <TIM3_IRQHandler+0x358>
    2536:	9201a223          	sw	zero,-1756(gp) # 2000144c <left_high_sum>
    253a:	92019723          	sh	zero,-1746(gp) # 20001456 <left_high_pos>
    253e:	000c2023          	sw	zero,0(s8)
    2542:	0007a223          	sw	zero,4(a5)
    2546:	9361c703          	lbu	a4,-1738(gp) # 2000145e <left_low_buf_rdy>
    254a:	c715                	beqz	a4,2576 <TIM3_IRQHandler+0x388>
    254c:	92018b23          	sb	zero,-1738(gp) # 2000145e <left_low_buf_rdy>
    2550:	94818793          	addi	a5,gp,-1720 # 20001470 <left_low_buf>
    2554:	4398                	lw	a4,0(a5)
    2556:	43dc                	lw	a5,4(a5)
    2558:	4605                	li	a2,1
    255a:	00e9a023          	sw	a4,0(s3)
    255e:	00f9a223          	sw	a5,4(s3)
    2562:	92c18923          	sb	a2,-1742(gp) # 2000145a <left_low_buf_stdby>
    2566:	c391                	beqz	a5,256a <TIM3_IRQHandler+0x37c>
    2568:	e719                	bnez	a4,2576 <TIM3_IRQHandler+0x388>
    256a:	9201a023          	sw	zero,-1760(gp) # 20001448 <left_low_sum>
    256e:	92019623          	sh	zero,-1748(gp) # 20001454 <left_low_pos>
    2572:	0009a023          	sw	zero,0(s3)
    2576:	9351c703          	lbu	a4,-1739(gp) # 2000145d <right_high_buf_rdy>
    257a:	c715                	beqz	a4,25a6 <TIM3_IRQHandler+0x3b8>
    257c:	92018aa3          	sb	zero,-1739(gp) # 2000145d <right_high_buf_rdy>
    2580:	94018793          	addi	a5,gp,-1728 # 20001468 <right_high_buf>
    2584:	4398                	lw	a4,0(a5)
    2586:	43dc                	lw	a5,4(a5)
    2588:	4605                	li	a2,1
    258a:	c098                	sw	a4,0(s1)
    258c:	c0dc                	sw	a5,4(s1)
    258e:	92c188a3          	sb	a2,-1743(gp) # 20001459 <right_high_buf_stdby>
    2592:	c391                	beqz	a5,2596 <TIM3_IRQHandler+0x3a8>
    2594:	eb09                	bnez	a4,25a6 <TIM3_IRQHandler+0x3b8>
    2596:	9001ae23          	sw	zero,-1764(gp) # 20001444 <right_high_sum>
    259a:	92019523          	sh	zero,-1750(gp) # 20001452 <right_high_pos>
    259e:	0004a023          	sw	zero,0(s1)
    25a2:	0004a223          	sw	zero,4(s1)
    25a6:	9341c703          	lbu	a4,-1740(gp) # 2000145c <right_low_buf_rdy>
    25aa:	c715                	beqz	a4,25d6 <TIM3_IRQHandler+0x3e8>
    25ac:	92018a23          	sb	zero,-1740(gp) # 2000145c <right_low_buf_rdy>
    25b0:	93818793          	addi	a5,gp,-1736 # 20001460 <right_low_buf>
    25b4:	4398                	lw	a4,0(a5)
    25b6:	43dc                	lw	a5,4(a5)
    25b8:	4605                	li	a2,1
    25ba:	00e92023          	sw	a4,0(s2)
    25be:	00f92223          	sw	a5,4(s2)
    25c2:	92c18823          	sb	a2,-1744(gp) # 20001458 <right_low_buf_stdby>
    25c6:	c391                	beqz	a5,25ca <TIM3_IRQHandler+0x3dc>
    25c8:	e719                	bnez	a4,25d6 <TIM3_IRQHandler+0x3e8>
    25ca:	9001ac23          	sw	zero,-1768(gp) # 20001440 <right_low_sum>
    25ce:	92019423          	sh	zero,-1752(gp) # 20001450 <right_low_pos>
    25d2:	00092023          	sw	zero,0(s2)
    25d6:	000c2603          	lw	a2,0(s8)
    25da:	92418593          	addi	a1,gp,-1756 # 2000144c <left_high_sum>
    25de:	92e18513          	addi	a0,gp,-1746 # 20001456 <left_high_pos>
    25e2:	b6dff0ef          	jal	ra,214e <step_forward>
    25e6:	0009a603          	lw	a2,0(s3)
    25ea:	92018593          	addi	a1,gp,-1760 # 20001448 <left_low_sum>
    25ee:	92c18513          	addi	a0,gp,-1748 # 20001454 <left_low_pos>
    25f2:	b5dff0ef          	jal	ra,214e <step_forward>
    25f6:	4090                	lw	a2,0(s1)
    25f8:	91c18593          	addi	a1,gp,-1764 # 20001444 <right_high_sum>
    25fc:	92a18513          	addi	a0,gp,-1750 # 20001452 <right_high_pos>
    2600:	b4fff0ef          	jal	ra,214e <step_forward>
    2604:	00092603          	lw	a2,0(s2)
    2608:	91818593          	addi	a1,gp,-1768 # 20001440 <right_low_sum>
    260c:	92818513          	addi	a0,gp,-1752 # 20001450 <right_low_pos>
    2610:	b3fff0ef          	jal	ra,214e <step_forward>
    2614:	8101a683          	lw	a3,-2032(gp) # 20001338 <hd_rumble_cvr_range>
    2618:	92e1d783          	lhu	a5,-1746(gp) # 20001456 <left_high_pos>
    261c:	004c2703          	lw	a4,4(s8)
    2620:	0049a603          	lw	a2,4(s3)
    2624:	0786                	slli	a5,a5,0x1
    2626:	97a2                	add	a5,a5,s0
    2628:	00079783          	lh	a5,0(a5)
    262c:	02e787b3          	mul	a5,a5,a4
    2630:	92c1d703          	lhu	a4,-1748(gp) # 20001454 <left_low_pos>
    2634:	0706                	slli	a4,a4,0x1
    2636:	9722                	add	a4,a4,s0
    2638:	00071703          	lh	a4,0(a4)
    263c:	02c70733          	mul	a4,a4,a2
    2640:	97ba                	add	a5,a5,a4
    2642:	87a9                	srai	a5,a5,0xa
    2644:	02d787b3          	mul	a5,a5,a3
    2648:	87c5                	srai	a5,a5,0x11
    264a:	2d078793          	addi	a5,a5,720
    264e:	90f1a823          	sw	a5,-1776(gp) # 20001438 <tim3_irq_tmp_l>
    2652:	92a1d783          	lhu	a5,-1750(gp) # 20001452 <right_high_pos>
    2656:	40d8                	lw	a4,4(s1)
    2658:	0786                	slli	a5,a5,0x1
    265a:	97a2                	add	a5,a5,s0
    265c:	00079783          	lh	a5,0(a5)
    2660:	02e787b3          	mul	a5,a5,a4
    2664:	9281d703          	lhu	a4,-1752(gp) # 20001450 <right_low_pos>
    2668:	0706                	slli	a4,a4,0x1
    266a:	943a                	add	s0,s0,a4
    266c:	00041703          	lh	a4,0(s0)
    2670:	b345                	j	2410 <TIM3_IRQHandler+0x222>

00002672 <i2c2_check_flag>:
    2672:	afffd2ef          	jal	t0,170 <__riscv_save_0>
    2676:	85aa                	mv	a1,a0
    2678:	40006537          	lui	a0,0x40006
    267c:	80050513          	addi	a0,a0,-2048 # 40005800 <_eusrstack+0x20000800>
    2680:	7ab040ef          	jal	ra,762a <I2C_GetFlagStatus>
    2684:	00153513          	seqz	a0,a0
    2688:	b0dfd06f          	j	194 <__riscv_restore_0>

0000268c <i2c2_check_event>:
    268c:	ae5fd2ef          	jal	t0,170 <__riscv_save_0>
    2690:	85aa                	mv	a1,a0
    2692:	40006537          	lui	a0,0x40006
    2696:	80050513          	addi	a0,a0,-2048 # 40005800 <_eusrstack+0x20000800>
    269a:	777040ef          	jal	ra,7610 <I2C_CheckEvent>
    269e:	0ff57513          	zext.b	a0,a0
    26a2:	af3fd06f          	j	194 <__riscv_restore_0>

000026a6 <I2C2_ER_IRQHandler>:
    26a6:	40006737          	lui	a4,0x40006
    26aa:	81475783          	lhu	a5,-2028(a4) # 40005814 <_eusrstack+0x20000814>
    26ae:	80070713          	addi	a4,a4,-2048
    26b2:	83a1                	srli	a5,a5,0x8
    26b4:	96f18ca3          	sb	a5,-1671(gp) # 200014a1 <i2c_intr_error>
    26b8:	01475783          	lhu	a5,20(a4)
    26bc:	07c2                	slli	a5,a5,0x10
    26be:	83c1                	srli	a5,a5,0x10
    26c0:	f007f793          	andi	a5,a5,-256
    26c4:	07c2                	slli	a5,a5,0x10
    26c6:	83c1                	srli	a5,a5,0x10
    26c8:	00f71a23          	sh	a5,20(a4)
    26cc:	30200073          	mret

000026d0 <i2c_software_recovery>:
    26d0:	a87fd2ef          	jal	t0,156 <__riscv_save_4>
    26d4:	40006537          	lui	a0,0x40006
    26d8:	1141                	addi	sp,sp,-16
    26da:	4581                	li	a1,0
    26dc:	80050513          	addi	a0,a0,-2048 # 40005800 <_eusrstack+0x20000800>
    26e0:	65f040ef          	jal	ra,753e <I2C_Cmd>
    26e4:	40011437          	lui	s0,0x40011
    26e8:	40000793          	li	a5,1024
    26ec:	490d                	li	s2,3
    26ee:	49d1                	li	s3,20
    26f0:	004c                	addi	a1,sp,4
    26f2:	c0040513          	addi	a0,s0,-1024 # 40010c00 <_eusrstack+0x2000bc00>
    26f6:	c23e                	sw	a5,4(sp)
    26f8:	c44a                	sw	s2,8(sp)
    26fa:	c64e                	sw	s3,12(sp)
    26fc:	6485                	lui	s1,0x1
    26fe:	3f5040ef          	jal	ra,72f2 <GPIO_Init>
    2702:	80048493          	addi	s1,s1,-2048 # 800 <__stack_size>
    2706:	004c                	addi	a1,sp,4
    2708:	c0040513          	addi	a0,s0,-1024
    270c:	c64e                	sw	s3,12(sp)
    270e:	c44a                	sw	s2,8(sp)
    2710:	00911223          	sh	s1,4(sp)
    2714:	3df040ef          	jal	ra,72f2 <GPIO_Init>
    2718:	40000593          	li	a1,1024
    271c:	c0040513          	addi	a0,s0,-1024
    2720:	4a1040ef          	jal	ra,73c0 <GPIO_ResetBits>
    2724:	85a6                	mv	a1,s1
    2726:	c0040513          	addi	a0,s0,-1024
    272a:	493040ef          	jal	ra,73bc <GPIO_SetBits>
    272e:	4505                	li	a0,1
    2730:	3ea030ef          	jal	ra,5b1a <Delay_Us>
    2734:	40000593          	li	a1,1024
    2738:	c0040513          	addi	a0,s0,-1024
    273c:	481040ef          	jal	ra,73bc <GPIO_SetBits>
    2740:	4505                	li	a0,1
    2742:	3d8030ef          	jal	ra,5b1a <Delay_Us>
    2746:	85a6                	mv	a1,s1
    2748:	c0040513          	addi	a0,s0,-1024
    274c:	475040ef          	jal	ra,73c0 <GPIO_ResetBits>
    2750:	4505                	li	a0,1
    2752:	3c8030ef          	jal	ra,5b1a <Delay_Us>
    2756:	49a9                	li	s3,10
    2758:	c0040a13          	addi	s4,s0,-1024
    275c:	6905                	lui	s2,0x1
    275e:	40000593          	li	a1,1024
    2762:	8552                	mv	a0,s4
    2764:	45d040ef          	jal	ra,73c0 <GPIO_ResetBits>
    2768:	85a6                	mv	a1,s1
    276a:	8552                	mv	a0,s4
    276c:	451040ef          	jal	ra,73bc <GPIO_SetBits>
    2770:	4505                	li	a0,1
    2772:	3a8030ef          	jal	ra,5b1a <Delay_Us>
    2776:	40000593          	li	a1,1024
    277a:	8552                	mv	a0,s4
    277c:	441040ef          	jal	ra,73bc <GPIO_SetBits>
    2780:	4505                	li	a0,1
    2782:	19fd                	addi	s3,s3,-1
    2784:	396030ef          	jal	ra,5b1a <Delay_Us>
    2788:	fc099be3          	bnez	s3,275e <i2c_software_recovery+0x8e>
    278c:	c0040513          	addi	a0,s0,-1024
    2790:	40000593          	li	a1,1024
    2794:	42d040ef          	jal	ra,73c0 <GPIO_ResetBits>
    2798:	80090593          	addi	a1,s2,-2048 # 800 <__stack_size>
    279c:	c0040513          	addi	a0,s0,-1024
    27a0:	421040ef          	jal	ra,73c0 <GPIO_ResetBits>
    27a4:	4505                	li	a0,1
    27a6:	374030ef          	jal	ra,5b1a <Delay_Us>
    27aa:	40000593          	li	a1,1024
    27ae:	c0040513          	addi	a0,s0,-1024
    27b2:	40b040ef          	jal	ra,73bc <GPIO_SetBits>
    27b6:	4505                	li	a0,1
    27b8:	362030ef          	jal	ra,5b1a <Delay_Us>
    27bc:	80090593          	addi	a1,s2,-2048
    27c0:	c0040513          	addi	a0,s0,-1024
    27c4:	3f9040ef          	jal	ra,73bc <GPIO_SetBits>
    27c8:	4505                	li	a0,1
    27ca:	350030ef          	jal	ra,5b1a <Delay_Us>
    27ce:	4791                	li	a5,4
    27d0:	004c                	addi	a1,sp,4
    27d2:	c0040513          	addi	a0,s0,-1024
    27d6:	c63e                	sw	a5,12(sp)
    27d8:	31b040ef          	jal	ra,72f2 <GPIO_Init>
    27dc:	80090593          	addi	a1,s2,-2048
    27e0:	c0040513          	addi	a0,s0,-1024
    27e4:	3cd040ef          	jal	ra,73b0 <GPIO_ReadInputDataBit>
    27e8:	0141                	addi	sp,sp,16
    27ea:	9a1fd06f          	j	18a <__riscv_restore_4>

000027ee <i2c2_reset>:
    27ee:	983fd2ef          	jal	t0,170 <__riscv_save_0>
    27f2:	40006437          	lui	s0,0x40006
    27f6:	4581                	li	a1,0
    27f8:	80040513          	addi	a0,s0,-2048 # 40005800 <_eusrstack+0x20000800>
    27fc:	96018da3          	sb	zero,-1669(gp) # 200014a3 <i2c_status>
    2800:	53f040ef          	jal	ra,753e <I2C_Cmd>
    2804:	80040513          	addi	a0,s0,-2048
    2808:	3f3040ef          	jal	ra,73fa <I2C_DeInit>
    280c:	ec5ff0ef          	jal	ra,26d0 <i2c_software_recovery>
    2810:	9791c783          	lbu	a5,-1671(gp) # 200014a1 <i2c_intr_error>
    2814:	8d5d                	or	a0,a0,a5
    2816:	0ff57513          	zext.b	a0,a0
    281a:	c901                	beqz	a0,282a <i2c2_reset+0x3c>
    281c:	000c3537          	lui	a0,0xc3
    2820:	4601                	li	a2,0
    2822:	4581                	li	a1,0
    2824:	50050513          	addi	a0,a0,1280 # c3500 <_data_lma+0xb64ec>
    2828:	2029                	jal	2832 <i2c_hardware_init>
    282a:	280030ef          	jal	ra,5aaa <Get_Systick_US>
    282e:	967fd06f          	j	194 <__riscv_restore_0>

00002832 <i2c_hardware_init>:
    2832:	925fd2ef          	jal	t0,156 <__riscv_save_4>
    2836:	1101                	addi	sp,sp,-32
    2838:	84ae                	mv	s1,a1
    283a:	892a                	mv	s2,a0
    283c:	4585                	li	a1,1
    283e:	4525                	li	a0,9
    2840:	8432                	mv	s0,a2
    2842:	c202                	sw	zero,4(sp)
    2844:	c402                	sw	zero,8(sp)
    2846:	c602                	sw	zero,12(sp)
    2848:	c802                	sw	zero,16(sp)
    284a:	ca02                	sw	zero,20(sp)
    284c:	cc02                	sw	zero,24(sp)
    284e:	ce02                	sw	zero,28(sp)
    2850:	02a050ef          	jal	ra,787a <RCC_APB2PeriphClockCmd>
    2854:	4585                	li	a1,1
    2856:	00400537          	lui	a0,0x400
    285a:	03e050ef          	jal	ra,7898 <RCC_APB1PeriphClockCmd>
    285e:	40011a37          	lui	s4,0x40011
    2862:	40000993          	li	s3,1024
    2866:	4b71                	li	s6,28
    2868:	4a8d                	li	s5,3
    286a:	004c                	addi	a1,sp,4
    286c:	c00a0513          	addi	a0,s4,-1024 # 40010c00 <_eusrstack+0x2000bc00>
    2870:	01311223          	sh	s3,4(sp)
    2874:	c65a                	sw	s6,12(sp)
    2876:	c456                	sw	s5,8(sp)
    2878:	27b040ef          	jal	ra,72f2 <GPIO_Init>
    287c:	6785                	lui	a5,0x1
    287e:	80078793          	addi	a5,a5,-2048 # 800 <__stack_size>
    2882:	004c                	addi	a1,sp,4
    2884:	c00a0513          	addi	a0,s4,-1024
    2888:	00f11223          	sh	a5,4(sp)
    288c:	c65a                	sw	s6,12(sp)
    288e:	c456                	sw	s5,8(sp)
    2890:	263040ef          	jal	ra,72f2 <GPIO_Init>
    2894:	400007b7          	lui	a5,0x40000
    2898:	00911c23          	sh	s1,24(sp)
    289c:	400064b7          	lui	s1,0x40006
    28a0:	ca3e                	sw	a5,20(sp)
    28a2:	080c                	addi	a1,sp,16
    28a4:	6791                	lui	a5,0x4
    28a6:	80048513          	addi	a0,s1,-2048 # 40005800 <_eusrstack+0x20000800>
    28aa:	00f11e23          	sh	a5,28(sp)
    28ae:	c84a                	sw	s2,16(sp)
    28b0:	01311d23          	sh	s3,26(sp)
    28b4:	379040ef          	jal	ra,742c <I2C_Init>
    28b8:	4585                	li	a1,1
    28ba:	80048513          	addi	a0,s1,-2048
    28be:	481040ef          	jal	ra,753e <I2C_Cmd>
    28c2:	6509                	lui	a0,0x2
    28c4:	0c800613          	li	a2,200
    28c8:	000205b7          	lui	a1,0x20
    28cc:	67250513          	addi	a0,a0,1650 # 2672 <i2c2_check_flag>
    28d0:	20e030ef          	jal	ra,5ade <wait_nonblocking_us>
    28d4:	c909                	beqz	a0,28e6 <i2c_hardware_init+0xb4>
    28d6:	c809                	beqz	s0,28e8 <i2c_hardware_init+0xb6>
    28d8:	4585                	li	a1,1
    28da:	80048513          	addi	a0,s1,-2048
    28de:	4f7040ef          	jal	ra,75d4 <I2C_SoftwareResetCmd>
    28e2:	f0dff0ef          	jal	ra,27ee <i2c2_reset>
    28e6:	4405                	li	s0,1
    28e8:	96818da3          	sb	s0,-1669(gp) # 200014a3 <i2c_status>
    28ec:	6105                	addi	sp,sp,32
    28ee:	89dfd06f          	j	18a <__riscv_restore_4>

000028f2 <i2c_read_start>:
    28f2:	97b1c783          	lbu	a5,-1669(gp) # 200014a3 <i2c_status>
    28f6:	12078c63          	beqz	a5,2a2e <i2c_read_start+0x13c>
    28fa:	85dfd2ef          	jal	t0,156 <__riscv_save_4>
    28fe:	40006437          	lui	s0,0x40006
    2902:	8aaa                	mv	s5,a0
    2904:	8a2e                	mv	s4,a1
    2906:	80040513          	addi	a0,s0,-2048 # 40005800 <_eusrstack+0x20000800>
    290a:	4585                	li	a1,1
    290c:	48b040ef          	jal	ra,7596 <I2C_AcknowledgeConfig>
    2910:	6509                	lui	a0,0x2
    2912:	0c800613          	li	a2,200
    2916:	000205b7          	lui	a1,0x20
    291a:	67250513          	addi	a0,a0,1650 # 2672 <i2c2_check_flag>
    291e:	1c0030ef          	jal	ra,5ade <wait_nonblocking_us>
    2922:	9791c783          	lbu	a5,-1671(gp) # 200014a1 <i2c_intr_error>
    2926:	0ff57513          	zext.b	a0,a0
    292a:	8fc9                	or	a5,a5,a0
    292c:	c791                	beqz	a5,2938 <i2c_read_start+0x46>
    292e:	4705                	li	a4,1
    2930:	96e18d23          	sb	a4,-1670(gp) # 200014a2 <i2c_error_code>
    2934:	857fd06f          	j	18a <__riscv_restore_4>
    2938:	4585                	li	a1,1
    293a:	80040513          	addi	a0,s0,-2048
    293e:	41d040ef          	jal	ra,755a <I2C_GenerateSTART>
    2942:	000309b7          	lui	s3,0x30
    2946:	6909                	lui	s2,0x2
    2948:	0c800613          	li	a2,200
    294c:	00198593          	addi	a1,s3,1 # 30001 <_data_lma+0x22fed>
    2950:	68c90513          	addi	a0,s2,1676 # 268c <i2c2_check_event>
    2954:	18a030ef          	jal	ra,5ade <wait_nonblocking_us>
    2958:	9791c783          	lbu	a5,-1671(gp) # 200014a1 <i2c_intr_error>
    295c:	0ff57513          	zext.b	a0,a0
    2960:	8fc9                	or	a5,a5,a0
    2962:	c399                	beqz	a5,2968 <i2c_read_start+0x76>
    2964:	4709                	li	a4,2
    2966:	b7e9                	j	2930 <i2c_read_start+0x3e>
    2968:	4601                	li	a2,0
    296a:	0d400593          	li	a1,212
    296e:	80040513          	addi	a0,s0,-2048
    2972:	453040ef          	jal	ra,75c4 <I2C_Send7bitAddress>
    2976:	00070b37          	lui	s6,0x70
    297a:	0c800613          	li	a2,200
    297e:	082b0593          	addi	a1,s6,130 # 70082 <_data_lma+0x6306e>
    2982:	68c90513          	addi	a0,s2,1676
    2986:	158030ef          	jal	ra,5ade <wait_nonblocking_us>
    298a:	9791c783          	lbu	a5,-1671(gp) # 200014a1 <i2c_intr_error>
    298e:	0ff57513          	zext.b	a0,a0
    2992:	8fc9                	or	a5,a5,a0
    2994:	c399                	beqz	a5,299a <i2c_read_start+0xa8>
    2996:	470d                	li	a4,3
    2998:	bf61                	j	2930 <i2c_read_start+0x3e>
    299a:	85d6                	mv	a1,s5
    299c:	80040513          	addi	a0,s0,-2048
    29a0:	415040ef          	jal	ra,75b4 <I2C_SendData>
    29a4:	0c800613          	li	a2,200
    29a8:	084b0593          	addi	a1,s6,132
    29ac:	68c90513          	addi	a0,s2,1676
    29b0:	12e030ef          	jal	ra,5ade <wait_nonblocking_us>
    29b4:	9791c783          	lbu	a5,-1671(gp) # 200014a1 <i2c_intr_error>
    29b8:	0ff57513          	zext.b	a0,a0
    29bc:	8fc9                	or	a5,a5,a0
    29be:	c399                	beqz	a5,29c4 <i2c_read_start+0xd2>
    29c0:	4711                	li	a4,4
    29c2:	b7bd                	j	2930 <i2c_read_start+0x3e>
    29c4:	85d2                	mv	a1,s4
    29c6:	80040513          	addi	a0,s0,-2048
    29ca:	3cd040ef          	jal	ra,7596 <I2C_AcknowledgeConfig>
    29ce:	4585                	li	a1,1
    29d0:	80040513          	addi	a0,s0,-2048
    29d4:	387040ef          	jal	ra,755a <I2C_GenerateSTART>
    29d8:	0c800613          	li	a2,200
    29dc:	00198593          	addi	a1,s3,1
    29e0:	68c90513          	addi	a0,s2,1676
    29e4:	0fa030ef          	jal	ra,5ade <wait_nonblocking_us>
    29e8:	9791c783          	lbu	a5,-1671(gp) # 200014a1 <i2c_intr_error>
    29ec:	0ff57513          	zext.b	a0,a0
    29f0:	8fc9                	or	a5,a5,a0
    29f2:	c399                	beqz	a5,29f8 <i2c_read_start+0x106>
    29f4:	4715                	li	a4,5
    29f6:	bf2d                	j	2930 <i2c_read_start+0x3e>
    29f8:	4605                	li	a2,1
    29fa:	0d400593          	li	a1,212
    29fe:	80040513          	addi	a0,s0,-2048
    2a02:	3c3040ef          	jal	ra,75c4 <I2C_Send7bitAddress>
    2a06:	0c800613          	li	a2,200
    2a0a:	00298593          	addi	a1,s3,2
    2a0e:	68c90513          	addi	a0,s2,1676
    2a12:	0cc030ef          	jal	ra,5ade <wait_nonblocking_us>
    2a16:	0ff57793          	zext.b	a5,a0
    2a1a:	9791c503          	lbu	a0,-1671(gp) # 200014a1 <i2c_intr_error>
    2a1e:	8d5d                	or	a0,a0,a5
    2a20:	f0050ae3          	beqz	a0,2934 <i2c_read_start+0x42>
    2a24:	4699                	li	a3,6
    2a26:	96d18d23          	sb	a3,-1670(gp) # 200014a2 <i2c_error_code>
    2a2a:	853e                	mv	a0,a5
    2a2c:	b721                	j	2934 <i2c_read_start+0x42>
    2a2e:	4505                	li	a0,1
    2a30:	8082                	ret

00002a32 <i2c_read_byte>:
    2a32:	f24fd2ef          	jal	t0,156 <__riscv_save_4>
    2a36:	892e                	mv	s2,a1
    2a38:	0ff57513          	zext.b	a0,a0
    2a3c:	4581                	li	a1,0
    2a3e:	eb5ff0ef          	jal	ra,28f2 <i2c_read_start>
    2a42:	9791c783          	lbu	a5,-1671(gp) # 200014a1 <i2c_intr_error>
    2a46:	96a18c23          	sb	a0,-1672(gp) # 200014a0 <res.0>
    2a4a:	8d5d                	or	a0,a0,a5
    2a4c:	e51d                	bnez	a0,2a7a <i2c_read_byte+0x48>
    2a4e:	000305b7          	lui	a1,0x30
    2a52:	6509                	lui	a0,0x2
    2a54:	0c800613          	li	a2,200
    2a58:	04058593          	addi	a1,a1,64 # 30040 <_data_lma+0x2302c>
    2a5c:	68c50513          	addi	a0,a0,1676 # 268c <i2c2_check_event>
    2a60:	07e030ef          	jal	ra,5ade <wait_nonblocking_us>
    2a64:	9791c783          	lbu	a5,-1671(gp) # 200014a1 <i2c_intr_error>
    2a68:	0ff57513          	zext.b	a0,a0
    2a6c:	96a18c23          	sb	a0,-1672(gp) # 200014a0 <res.0>
    2a70:	8d5d                	or	a0,a0,a5
    2a72:	c519                	beqz	a0,2a80 <i2c_read_byte+0x4e>
    2a74:	4725                	li	a4,9
    2a76:	96e18d23          	sb	a4,-1670(gp) # 200014a2 <i2c_error_code>
    2a7a:	d75ff0ef          	jal	ra,27ee <i2c2_reset>
    2a7e:	a025                	j	2aa6 <i2c_read_byte+0x74>
    2a80:	400069b7          	lui	s3,0x40006
    2a84:	80098513          	addi	a0,s3,-2048 # 40005800 <_eusrstack+0x20000800>
    2a88:	333040ef          	jal	ra,75ba <I2C_ReceiveData>
    2a8c:	00a90023          	sb	a0,0(s2)
    2a90:	4585                	li	a1,1
    2a92:	80098513          	addi	a0,s3,-2048
    2a96:	2e3040ef          	jal	ra,7578 <I2C_GenerateSTOP>
    2a9a:	9781c783          	lbu	a5,-1672(gp) # 200014a0 <res.0>
    2a9e:	9791c703          	lbu	a4,-1671(gp) # 200014a1 <i2c_intr_error>
    2aa2:	8fd9                	or	a5,a5,a4
    2aa4:	fbf9                	bnez	a5,2a7a <i2c_read_byte+0x48>
    2aa6:	9781c503          	lbu	a0,-1672(gp) # 200014a0 <res.0>
    2aaa:	200027b7          	lui	a5,0x20002
    2aae:	42a78123          	sb	a0,1058(a5) # 20002422 <user_calibration+0xa>
    2ab2:	ed8fd06f          	j	18a <__riscv_restore_4>

00002ab6 <i2c_read_continuous>:
    2ab6:	e92fd2ef          	jal	t0,148 <__riscv_save_10>
    2aba:	4785                	li	a5,1
    2abc:	00f61663          	bne	a2,a5,2ac8 <i2c_read_continuous+0x12>
    2ac0:	f73ff0ef          	jal	ra,2a32 <i2c_read_byte>
    2ac4:	ebcfd06f          	j	180 <__riscv_restore_10>
    2ac8:	892e                	mv	s2,a1
    2aca:	4585                	li	a1,1
    2acc:	8432                	mv	s0,a2
    2ace:	e25ff0ef          	jal	ra,28f2 <i2c_read_start>
    2ad2:	84aa                	mv	s1,a0
    2ad4:	e135                	bnez	a0,2b38 <i2c_read_continuous+0x82>
    2ad6:	147d                	addi	s0,s0,-1
    2ad8:	00030a37          	lui	s4,0x30
    2adc:	6a85                	lui	s5,0x1
    2ade:	400069b7          	lui	s3,0x40006
    2ae2:	0ff47413          	zext.b	s0,s0
    2ae6:	040a0a13          	addi	s4,s4,64 # 30040 <_data_lma+0x2302c>
    2aea:	6b89                	lui	s7,0x2
    2aec:	800a8a93          	addi	s5,s5,-2048 # 800 <__stack_size>
    2af0:	80098993          	addi	s3,s3,-2048 # 40005800 <_eusrstack+0x20000800>
    2af4:	0ff00793          	li	a5,255
    2af8:	02f40363          	beq	s0,a5,2b1e <i2c_read_continuous+0x68>
    2afc:	0c800613          	li	a2,200
    2b00:	85d2                	mv	a1,s4
    2b02:	68cb8513          	addi	a0,s7,1676 # 268c <i2c2_check_event>
    2b06:	7d9020ef          	jal	ra,5ade <wait_nonblocking_us>
    2b0a:	9791c783          	lbu	a5,-1671(gp) # 200014a1 <i2c_intr_error>
    2b0e:	0ff57513          	zext.b	a0,a0
    2b12:	8fc9                	or	a5,a5,a0
    2b14:	c795                	beqz	a5,2b40 <i2c_read_continuous+0x8a>
    2b16:	471d                	li	a4,7
    2b18:	96e18d23          	sb	a4,-1670(gp) # 200014a2 <i2c_error_code>
    2b1c:	84aa                	mv	s1,a0
    2b1e:	40006537          	lui	a0,0x40006
    2b22:	80050513          	addi	a0,a0,-2048 # 40005800 <_eusrstack+0x20000800>
    2b26:	4585                	li	a1,1
    2b28:	251040ef          	jal	ra,7578 <I2C_GenerateSTOP>
    2b2c:	9791c783          	lbu	a5,-1671(gp) # 200014a1 <i2c_intr_error>
    2b30:	8fc5                	or	a5,a5,s1
    2b32:	0ff7f513          	zext.b	a0,a5
    2b36:	d559                	beqz	a0,2ac4 <i2c_read_continuous+0xe>
    2b38:	cb7ff0ef          	jal	ra,27ee <i2c2_reset>
    2b3c:	8526                	mv	a0,s1
    2b3e:	b759                	j	2ac4 <i2c_read_continuous+0xe>
    2b40:	4785                	li	a5,1
    2b42:	00f41663          	bne	s0,a5,2b4e <i2c_read_continuous+0x98>
    2b46:	85d6                	mv	a1,s5
    2b48:	854e                	mv	a0,s3
    2b4a:	2a1040ef          	jal	ra,75ea <I2C_NACKPositionConfig>
    2b4e:	854e                	mv	a0,s3
    2b50:	26b040ef          	jal	ra,75ba <I2C_ReceiveData>
    2b54:	147d                	addi	s0,s0,-1
    2b56:	00a90023          	sb	a0,0(s2)
    2b5a:	0ff47413          	zext.b	s0,s0
    2b5e:	0905                	addi	s2,s2,1
    2b60:	bf51                	j	2af4 <i2c_read_continuous+0x3e>

00002b62 <i2c_write_byte>:
    2b62:	97b1c783          	lbu	a5,-1669(gp) # 200014a3 <i2c_status>
    2b66:	e391                	bnez	a5,2b6a <i2c_write_byte+0x8>
    2b68:	8082                	ret
    2b6a:	decfd2ef          	jal	t0,156 <__riscv_save_4>
    2b6e:	8aaa                	mv	s5,a0
    2b70:	6509                	lui	a0,0x2
    2b72:	1141                	addi	sp,sp,-16
    2b74:	89ae                	mv	s3,a1
    2b76:	0c800613          	li	a2,200
    2b7a:	000205b7          	lui	a1,0x20
    2b7e:	67250513          	addi	a0,a0,1650 # 2672 <i2c2_check_flag>
    2b82:	75d020ef          	jal	ra,5ade <wait_nonblocking_us>
    2b86:	9791c783          	lbu	a5,-1671(gp) # 200014a1 <i2c_intr_error>
    2b8a:	0ff57513          	zext.b	a0,a0
    2b8e:	8fc9                	or	a5,a5,a0
    2b90:	c38d                	beqz	a5,2bb2 <i2c_write_byte+0x50>
    2b92:	4729                	li	a4,10
    2b94:	96e18d23          	sb	a4,-1670(gp) # 200014a2 <i2c_error_code>
    2b98:	9791c783          	lbu	a5,-1671(gp) # 200014a1 <i2c_intr_error>
    2b9c:	8fc9                	or	a5,a5,a0
    2b9e:	0ff7f793          	zext.b	a5,a5
    2ba2:	c789                	beqz	a5,2bac <i2c_write_byte+0x4a>
    2ba4:	c62a                	sw	a0,12(sp)
    2ba6:	c49ff0ef          	jal	ra,27ee <i2c2_reset>
    2baa:	4532                	lw	a0,12(sp)
    2bac:	0141                	addi	sp,sp,16
    2bae:	ddcfd06f          	j	18a <__riscv_restore_4>
    2bb2:	40006937          	lui	s2,0x40006
    2bb6:	4585                	li	a1,1
    2bb8:	80090513          	addi	a0,s2,-2048 # 40005800 <_eusrstack+0x20000800>
    2bbc:	19f040ef          	jal	ra,755a <I2C_GenerateSTART>
    2bc0:	000305b7          	lui	a1,0x30
    2bc4:	6a09                	lui	s4,0x2
    2bc6:	0c800613          	li	a2,200
    2bca:	0585                	addi	a1,a1,1 # 30001 <_data_lma+0x22fed>
    2bcc:	68ca0513          	addi	a0,s4,1676 # 268c <i2c2_check_event>
    2bd0:	70f020ef          	jal	ra,5ade <wait_nonblocking_us>
    2bd4:	9791c783          	lbu	a5,-1671(gp) # 200014a1 <i2c_intr_error>
    2bd8:	0ff57513          	zext.b	a0,a0
    2bdc:	8fc9                	or	a5,a5,a0
    2bde:	c399                	beqz	a5,2be4 <i2c_write_byte+0x82>
    2be0:	472d                	li	a4,11
    2be2:	bf4d                	j	2b94 <i2c_write_byte+0x32>
    2be4:	4601                	li	a2,0
    2be6:	0d400593          	li	a1,212
    2bea:	80090513          	addi	a0,s2,-2048
    2bee:	1d7040ef          	jal	ra,75c4 <I2C_Send7bitAddress>
    2bf2:	00070b37          	lui	s6,0x70
    2bf6:	0c800613          	li	a2,200
    2bfa:	082b0593          	addi	a1,s6,130 # 70082 <_data_lma+0x6306e>
    2bfe:	68ca0513          	addi	a0,s4,1676
    2c02:	6dd020ef          	jal	ra,5ade <wait_nonblocking_us>
    2c06:	9791c783          	lbu	a5,-1671(gp) # 200014a1 <i2c_intr_error>
    2c0a:	0ff57513          	zext.b	a0,a0
    2c0e:	8fc9                	or	a5,a5,a0
    2c10:	c399                	beqz	a5,2c16 <i2c_write_byte+0xb4>
    2c12:	4731                	li	a4,12
    2c14:	b741                	j	2b94 <i2c_write_byte+0x32>
    2c16:	85d6                	mv	a1,s5
    2c18:	80090513          	addi	a0,s2,-2048
    2c1c:	199040ef          	jal	ra,75b4 <I2C_SendData>
    2c20:	0c800613          	li	a2,200
    2c24:	084b0593          	addi	a1,s6,132
    2c28:	68ca0513          	addi	a0,s4,1676
    2c2c:	6b3020ef          	jal	ra,5ade <wait_nonblocking_us>
    2c30:	9791c783          	lbu	a5,-1671(gp) # 200014a1 <i2c_intr_error>
    2c34:	0ff57513          	zext.b	a0,a0
    2c38:	8fc9                	or	a5,a5,a0
    2c3a:	c399                	beqz	a5,2c40 <i2c_write_byte+0xde>
    2c3c:	4735                	li	a4,13
    2c3e:	bf99                	j	2b94 <i2c_write_byte+0x32>
    2c40:	85ce                	mv	a1,s3
    2c42:	80090513          	addi	a0,s2,-2048
    2c46:	16f040ef          	jal	ra,75b4 <I2C_SendData>
    2c4a:	0c800613          	li	a2,200
    2c4e:	084b0593          	addi	a1,s6,132
    2c52:	68ca0513          	addi	a0,s4,1676
    2c56:	689020ef          	jal	ra,5ade <wait_nonblocking_us>
    2c5a:	9791c783          	lbu	a5,-1671(gp) # 200014a1 <i2c_intr_error>
    2c5e:	0ff57513          	zext.b	a0,a0
    2c62:	8fc9                	or	a5,a5,a0
    2c64:	c399                	beqz	a5,2c6a <i2c_write_byte+0x108>
    2c66:	4739                	li	a4,14
    2c68:	b735                	j	2b94 <i2c_write_byte+0x32>
    2c6a:	80090513          	addi	a0,s2,-2048
    2c6e:	4585                	li	a1,1
    2c70:	109040ef          	jal	ra,7578 <I2C_GenerateSTOP>
    2c74:	4501                	li	a0,0
    2c76:	b70d                	j	2b98 <i2c_write_byte+0x36>

00002c78 <i2c_init>:
    2c78:	000c3537          	lui	a0,0xc3
    2c7c:	4605                	li	a2,1
    2c7e:	4581                	li	a1,0
    2c80:	50050513          	addi	a0,a0,1280 # c3500 <_data_lma+0xb64ec>
    2c84:	bafff06f          	j	2832 <i2c_hardware_init>

00002c88 <imu_set_reg>:
    2c88:	ce8fd2ef          	jal	t0,170 <__riscv_save_0>
    2c8c:	1141                	addi	sp,sp,-16
    2c8e:	842e                	mv	s0,a1
    2c90:	00f10593          	addi	a1,sp,15
    2c94:	892a                	mv	s2,a0
    2c96:	84b2                	mv	s1,a2
    2c98:	d9bff0ef          	jal	ra,2a32 <i2c_read_byte>
    2c9c:	ed09                	bnez	a0,2cb6 <imu_set_reg+0x2e>
    2c9e:	00f14783          	lbu	a5,15(sp)
    2ca2:	fff4c493          	not	s1,s1
    2ca6:	854a                	mv	a0,s2
    2ca8:	8fe5                	and	a5,a5,s1
    2caa:	00f465b3          	or	a1,s0,a5
    2cae:	00b107a3          	sb	a1,15(sp)
    2cb2:	eb1ff0ef          	jal	ra,2b62 <i2c_write_byte>
    2cb6:	0141                	addi	sp,sp,16
    2cb8:	cdcfd06f          	j	194 <__riscv_restore_0>

00002cbc <imu_read>:
    2cbc:	cb4fd2ef          	jal	t0,170 <__riscv_save_0>
    2cc0:	1141                	addi	sp,sp,-16
    2cc2:	00f10593          	addi	a1,sp,15
    2cc6:	453d                	li	a0,15
    2cc8:	000107a3          	sb	zero,15(sp)
    2ccc:	d67ff0ef          	jal	ra,2a32 <i2c_read_byte>
    2cd0:	e911                	bnez	a0,2ce4 <imu_read+0x28>
    2cd2:	00f14783          	lbu	a5,15(sp)
    2cd6:	4685                	li	a3,1
    2cd8:	f9778793          	addi	a5,a5,-105
    2cdc:	0ff7f793          	zext.b	a5,a5
    2ce0:	04f6fb63          	bgeu	a3,a5,2d36 <imu_read+0x7a>
    2ce4:	9901a783          	lw	a5,-1648(gp) # 200014b8 <imu_id_read_fail_cnt>
    2ce8:	0785                	addi	a5,a5,1
    2cea:	98f1a823          	sw	a5,-1648(gp) # 200014b8 <imu_id_read_fail_cnt>
    2cee:	98c1c703          	lbu	a4,-1652(gp) # 200014b4 <imu_error>
    2cf2:	c709                	beqz	a4,2cfc <imu_read+0x40>
    2cf4:	450d                	li	a0,3
    2cf6:	0141                	addi	sp,sp,16
    2cf8:	c9cfd06f          	j	194 <__riscv_restore_0>
    2cfc:	4725                	li	a4,9
    2cfe:	00f77b63          	bgeu	a4,a5,2d14 <imu_read+0x58>
    2d02:	4785                	li	a5,1
    2d04:	4505                	li	a0,1
    2d06:	98f18623          	sb	a5,-1652(gp) # 200014b4 <imu_error>
    2d0a:	10b020ef          	jal	ra,5614 <flush_rgb>
    2d0e:	98c1c783          	lbu	a5,-1652(gp) # 200014b4 <imu_error>
    2d12:	f3ed                	bnez	a5,2cf4 <imu_read+0x38>
    2d14:	00f10593          	addi	a1,sp,15
    2d18:	4579                	li	a0,30
    2d1a:	d19ff0ef          	jal	ra,2a32 <i2c_read_byte>
    2d1e:	c51d                	beqz	a0,2d4c <imu_read+0x90>
    2d20:	9981a783          	lw	a5,-1640(gp) # 200014c0 <imu_read_cnt>
    2d24:	0785                	addi	a5,a5,1
    2d26:	98f1ac23          	sw	a5,-1640(gp) # 200014c0 <imu_read_cnt>
    2d2a:	9941a783          	lw	a5,-1644(gp) # 200014bc <imu_read_fail_cnt>
    2d2e:	0785                	addi	a5,a5,1
    2d30:	98f1aa23          	sw	a5,-1644(gp) # 200014bc <imu_read_fail_cnt>
    2d34:	b7c9                	j	2cf6 <imu_read+0x3a>
    2d36:	98c1c783          	lbu	a5,-1652(gp) # 200014b4 <imu_error>
    2d3a:	9801a823          	sw	zero,-1648(gp) # 200014b8 <imu_id_read_fail_cnt>
    2d3e:	c781                	beqz	a5,2d46 <imu_read+0x8a>
    2d40:	4505                	li	a0,1
    2d42:	0d3020ef          	jal	ra,5614 <flush_rgb>
    2d46:	98018623          	sb	zero,-1652(gp) # 200014b4 <imu_error>
    2d4a:	b7e9                	j	2d14 <imu_read+0x58>
    2d4c:	00f14783          	lbu	a5,15(sp)
    2d50:	470d                	li	a4,3
    2d52:	4509                	li	a0,2
    2d54:	8b8d                	andi	a5,a5,3
    2d56:	fae790e3          	bne	a5,a4,2cf6 <imu_read+0x3a>
    2d5a:	9981a783          	lw	a5,-1640(gp) # 200014c0 <imu_read_cnt>
    2d5e:	200035b7          	lui	a1,0x20003
    2d62:	4631                	li	a2,12
    2d64:	0785                	addi	a5,a5,1
    2d66:	bb058593          	addi	a1,a1,-1104 # 20002bb0 <imu_raw_buf>
    2d6a:	02200513          	li	a0,34
    2d6e:	98f1ac23          	sw	a5,-1640(gp) # 200014c0 <imu_read_cnt>
    2d72:	d45ff0ef          	jal	ra,2ab6 <i2c_read_continuous>
    2d76:	d141                	beqz	a0,2cf6 <imu_read+0x3a>
    2d78:	9941a783          	lw	a5,-1644(gp) # 200014bc <imu_read_fail_cnt>
    2d7c:	4505                	li	a0,1
    2d7e:	0785                	addi	a5,a5,1
    2d80:	98f1aa23          	sw	a5,-1644(gp) # 200014bc <imu_read_fail_cnt>
    2d84:	bf8d                	j	2cf6 <imu_read+0x3a>

00002d86 <set_imu_awake>:
    2d86:	beafd2ef          	jal	t0,170 <__riscv_save_0>
    2d8a:	4419                	li	s0,6
    2d8c:	0ff00613          	li	a2,255
    2d90:	4585                	li	a1,1
    2d92:	4549                	li	a0,18
    2d94:	ef5ff0ef          	jal	ra,2c88 <imu_set_reg>
    2d98:	c509                	beqz	a0,2da2 <set_imu_awake+0x1c>
    2d9a:	147d                	addi	s0,s0,-1
    2d9c:	0ff47413          	zext.b	s0,s0
    2da0:	f475                	bnez	s0,2d8c <set_imu_awake+0x6>
    2da2:	4529                	li	a0,10
    2da4:	597020ef          	jal	ra,5b3a <Delay_Ms>
    2da8:	4419                	li	s0,6
    2daa:	0ff00613          	li	a2,255
    2dae:	08000593          	li	a1,128
    2db2:	454d                	li	a0,19
    2db4:	ed5ff0ef          	jal	ra,2c88 <imu_set_reg>
    2db8:	c509                	beqz	a0,2dc2 <set_imu_awake+0x3c>
    2dba:	147d                	addi	s0,s0,-1
    2dbc:	0ff47413          	zext.b	s0,s0
    2dc0:	f46d                	bnez	s0,2daa <set_imu_awake+0x24>
    2dc2:	4419                	li	s0,6
    2dc4:	0ff00613          	li	a2,255
    2dc8:	08e00593          	li	a1,142
    2dcc:	4541                	li	a0,16
    2dce:	ebbff0ef          	jal	ra,2c88 <imu_set_reg>
    2dd2:	c509                	beqz	a0,2ddc <set_imu_awake+0x56>
    2dd4:	147d                	addi	s0,s0,-1
    2dd6:	0ff47413          	zext.b	s0,s0
    2dda:	f46d                	bnez	s0,2dc4 <set_imu_awake+0x3e>
    2ddc:	4419                	li	s0,6
    2dde:	0ff00613          	li	a2,255
    2de2:	05c00593          	li	a1,92
    2de6:	4545                	li	a0,17
    2de8:	ea1ff0ef          	jal	ra,2c88 <imu_set_reg>
    2dec:	c509                	beqz	a0,2df6 <set_imu_awake+0x70>
    2dee:	147d                	addi	s0,s0,-1
    2df0:	0ff47413          	zext.b	s0,s0
    2df4:	f46d                	bnez	s0,2dde <set_imu_awake+0x58>
    2df6:	4419                	li	s0,6
    2df8:	0ff00613          	li	a2,255
    2dfc:	04400593          	li	a1,68
    2e00:	4549                	li	a0,18
    2e02:	e87ff0ef          	jal	ra,2c88 <imu_set_reg>
    2e06:	c509                	beqz	a0,2e10 <set_imu_awake+0x8a>
    2e08:	147d                	addi	s0,s0,-1
    2e0a:	0ff47413          	zext.b	s0,s0
    2e0e:	f46d                	bnez	s0,2df8 <set_imu_awake+0x72>
    2e10:	00153513          	seqz	a0,a0
    2e14:	9aa184a3          	sb	a0,-1623(gp) # 200014d1 <imu_rdy>
    2e18:	b7cfd06f          	j	194 <__riscv_restore_0>

00002e1c <set_imu_sleep>:
    2e1c:	b54fd2ef          	jal	t0,170 <__riscv_save_0>
    2e20:	0f000613          	li	a2,240
    2e24:	4581                	li	a1,0
    2e26:	4541                	li	a0,16
    2e28:	9a0184a3          	sb	zero,-1623(gp) # 200014d1 <imu_rdy>
    2e2c:	e5dff0ef          	jal	ra,2c88 <imu_set_reg>
    2e30:	0f000613          	li	a2,240
    2e34:	4581                	li	a1,0
    2e36:	4545                	li	a0,17
    2e38:	e51ff0ef          	jal	ra,2c88 <imu_set_reg>
    2e3c:	b58fd06f          	j	194 <__riscv_restore_0>

00002e40 <imu_init>:
    2e40:	8082                	ret

00002e42 <imu_upd>:
    2e42:	afefd2ef          	jal	t0,140 <__riscv_save_12>
    2e46:	9841c783          	lbu	a5,-1660(gp) # 200014ac <imu_buf_pos>
    2e4a:	02400713          	li	a4,36
    2e4e:	20003a37          	lui	s4,0x20003
    2e52:	02e787b3          	mul	a5,a5,a4
    2e56:	20002437          	lui	s0,0x20002
    2e5a:	b5ca0713          	addi	a4,s4,-1188 # 20002b5c <imu_pack_buf>
    2e5e:	1141                	addi	sp,sp,-16
    2e60:	b5ca0693          	addi	a3,s4,-1188
    2e64:	c636                	sw	a3,12(sp)
    2e66:	97ba                	add	a5,a5,a4
    2e68:	3f040703          	lb	a4,1008(s0) # 200023f0 <user_config>
    2e6c:	98f1a023          	sw	a5,-1664(gp) # 200014a8 <rep>
    2e70:	00075d63          	bgez	a4,2e8a <imu_upd+0x48>
    2e74:	02400613          	li	a2,36
    2e78:	4581                	li	a1,0
    2e7a:	853e                	mv	a0,a5
    2e7c:	b3afd0ef          	jal	ra,1b6 <memset>
    2e80:	2f7030ef          	jal	ra,6976 <set_imu_available>
    2e84:	0141                	addi	sp,sp,16
    2e86:	af6fd06f          	j	17c <__riscv_restore_12>
    2e8a:	97b1c783          	lbu	a5,-1669(gp) # 200014a3 <i2c_status>
    2e8e:	dbfd                	beqz	a5,2e84 <imu_upd+0x42>
    2e90:	9a81c783          	lbu	a5,-1624(gp) # 200014d0 <imu_mode>
    2e94:	dbe5                	beqz	a5,2e84 <imu_upd+0x42>
    2e96:	9aa1c783          	lbu	a5,-1622(gp) # 200014d2 <imu_upd_cnt>
    2e9a:	3f040413          	addi	s0,s0,1008
    2e9e:	e781                	bnez	a5,2ea6 <imu_upd+0x64>
    2ea0:	478d                	li	a5,3
    2ea2:	9af18523          	sb	a5,-1622(gp) # 200014d2 <imu_upd_cnt>
    2ea6:	405020ef          	jal	ra,5aaa <Get_Systick_US>
    2eaa:	01044783          	lbu	a5,16(s0)
    2eae:	9881a703          	lw	a4,-1656(gp) # 200014b0 <last_imu_upd>
    2eb2:	00f44683          	lbu	a3,15(s0)
    2eb6:	07a2                	slli	a5,a5,0x8
    2eb8:	40e50733          	sub	a4,a0,a4
    2ebc:	8fd5                	or	a5,a5,a3
    2ebe:	8c2a                	mv	s8,a0
    2ec0:	fcf762e3          	bltu	a4,a5,2e84 <imu_upd+0x42>
    2ec4:	df9ff0ef          	jal	ra,2cbc <imu_read>
    2ec8:	fd55                	bnez	a0,2e84 <imu_upd+0x42>
    2eca:	20003cb7          	lui	s9,0x20003
    2ece:	bbcc8d13          	addi	s10,s9,-1092 # 20002bbc <imu_sum>
    2ed2:	20003737          	lui	a4,0x20003
    2ed6:	bb070713          	addi	a4,a4,-1104 # 20002bb0 <imu_raw_buf>
    2eda:	018d0613          	addi	a2,s10,24
    2ede:	bbcc8793          	addi	a5,s9,-1092
    2ee2:	bbcc8413          	addi	s0,s9,-1092
    2ee6:	4394                	lw	a3,0(a5)
    2ee8:	00071583          	lh	a1,0(a4)
    2eec:	0709                	addi	a4,a4,2
    2eee:	96ae                	add	a3,a3,a1
    2ef0:	c394                	sw	a3,0(a5)
    2ef2:	0791                	addi	a5,a5,4
    2ef4:	fec799e3          	bne	a5,a2,2ee6 <imu_upd+0xa4>
    2ef8:	9851c903          	lbu	s2,-1659(gp) # 200014ad <imu_sample_cnt>
    2efc:	97c1a703          	lw	a4,-1668(gp) # 200014a4 <last_upd.0>
    2f00:	0905                	addi	s2,s2,1
    2f02:	0ff97913          	zext.b	s2,s2
    2f06:	6785                	lui	a5,0x1
    2f08:	992182a3          	sb	s2,-1659(gp) # 200014ad <imu_sample_cnt>
    2f0c:	9981a423          	sw	s8,-1656(gp) # 200014b0 <last_imu_upd>
    2f10:	40ec0733          	sub	a4,s8,a4
    2f14:	38778793          	addi	a5,a5,903 # 1387 <gpio_kb_scan_init+0x57>
    2f18:	f6e7f6e3          	bgeu	a5,a4,2e84 <imu_upd+0x42>
    2f1c:	4008                	lw	a0,0(s0)
    2f1e:	20003a37          	lui	s4,0x20003
    2f22:	ba4a0493          	addi	s1,s4,-1116 # 20002ba4 <imu_res>
    2f26:	3a9070ef          	jal	ra,aace <__floatsisf>
    2f2a:	9a41a583          	lw	a1,-1628(gp) # 200014cc <imu_ratio_xf>
    2f2e:	49c070ef          	jal	ra,a3ca <__mulsf3>
    2f32:	33d070ef          	jal	ra,aa6e <__fixsfsi>
    2f36:	c008                	sw	a0,0(s0)
    2f38:	4048                	lw	a0,4(s0)
    2f3a:	395070ef          	jal	ra,aace <__floatsisf>
    2f3e:	9a01a583          	lw	a1,-1632(gp) # 200014c8 <imu_ratio_yf>
    2f42:	488070ef          	jal	ra,a3ca <__mulsf3>
    2f46:	329070ef          	jal	ra,aa6e <__fixsfsi>
    2f4a:	c048                	sw	a0,4(s0)
    2f4c:	4408                	lw	a0,8(s0)
    2f4e:	381070ef          	jal	ra,aace <__floatsisf>
    2f52:	99c1a583          	lw	a1,-1636(gp) # 200014c4 <imu_ratio_zf>
    2f56:	474070ef          	jal	ra,a3ca <__mulsf3>
    2f5a:	315070ef          	jal	ra,aa6e <__fixsfsi>
    2f5e:	4458                	lw	a4,12(s0)
    2f60:	06000793          	li	a5,96
    2f64:	06400613          	li	a2,100
    2f68:	02e78733          	mul	a4,a5,a4
    2f6c:	c408                	sw	a0,8(s0)
    2f6e:	02c74733          	div	a4,a4,a2
    2f72:	c458                	sw	a4,12(s0)
    2f74:	4818                	lw	a4,16(s0)
    2f76:	02e78733          	mul	a4,a5,a4
    2f7a:	02c74733          	div	a4,a4,a2
    2f7e:	c818                	sw	a4,16(s0)
    2f80:	4858                	lw	a4,20(s0)
    2f82:	02e787b3          	mul	a5,a5,a4
    2f86:	ba4a0713          	addi	a4,s4,-1116
    2f8a:	02c7c7b3          	div	a5,a5,a2
    2f8e:	00c48613          	addi	a2,s1,12
    2f92:	c85c                	sw	a5,20(s0)
    2f94:	4781                	li	a5,0
    2f96:	00090863          	beqz	s2,2fa6 <imu_upd+0x164>
    2f9a:	000d2783          	lw	a5,0(s10)
    2f9e:	0327c7b3          	div	a5,a5,s2
    2fa2:	07c2                	slli	a5,a5,0x10
    2fa4:	87c1                	srai	a5,a5,0x10
    2fa6:	00f71023          	sh	a5,0(a4)
    2faa:	0709                	addi	a4,a4,2
    2fac:	0d11                	addi	s10,s10,4
    2fae:	fec713e3          	bne	a4,a2,2f94 <imu_upd+0x152>
    2fb2:	4661                	li	a2,24
    2fb4:	4581                	li	a1,0
    2fb6:	bbcc8513          	addi	a0,s9,-1092
    2fba:	980182a3          	sb	zero,-1659(gp) # 200014ad <imu_sample_cnt>
    2fbe:	9f8fd0ef          	jal	ra,1b6 <memset>
    2fc2:	9801a403          	lw	s0,-1664(gp) # 200014a8 <rep>
    2fc6:	4619                	li	a2,6
    2fc8:	9781ae23          	sw	s8,-1668(gp) # 200014a4 <last_upd.0>
    2fcc:	00c40913          	addi	s2,s0,12
    2fd0:	85ca                	mv	a1,s2
    2fd2:	8522                	mv	a0,s0
    2fd4:	9ccfd0ef          	jal	ra,1a0 <memcpy>
    2fd8:	01840c13          	addi	s8,s0,24
    2fdc:	4619                	li	a2,6
    2fde:	85e2                	mv	a1,s8
    2fe0:	854a                	mv	a0,s2
    2fe2:	9befd0ef          	jal	ra,1a0 <memcpy>
    2fe6:	20003937          	lui	s2,0x20003
    2fea:	4619                	li	a2,6
    2fec:	baa90593          	addi	a1,s2,-1110 # 20002baa <imu_res+0x6>
    2ff0:	8562                	mv	a0,s8
    2ff2:	9aefd0ef          	jal	ra,1a0 <memcpy>
    2ff6:	9a81c783          	lbu	a5,-1624(gp) # 200014d0 <imu_mode>
    2ffa:	4705                	li	a4,1
    2ffc:	08e79e63          	bne	a5,a4,3098 <imu_upd+0x256>
    3000:	6799                	lui	a5,0x6
    3002:	7769                	lui	a4,0xffffa
    3004:	baa90913          	addi	s2,s2,-1110
    3008:	1a878793          	addi	a5,a5,424 # 61a8 <uart_conf_write+0x50>
    300c:	e5870713          	addi	a4,a4,-424 # ffff9e58 <_eusrstack+0xdfff4e58>
    3010:	00049683          	lh	a3,0(s1)
    3014:	06d7dd63          	bge	a5,a3,308e <imu_upd+0x24c>
    3018:	00f49023          	sh	a5,0(s1)
    301c:	0489                	addi	s1,s1,2
    301e:	ff2499e3          	bne	s1,s2,3010 <imu_upd+0x1ce>
    3022:	01240493          	addi	s1,s0,18
    3026:	4619                	li	a2,6
    3028:	85a6                	mv	a1,s1
    302a:	00640513          	addi	a0,s0,6
    302e:	972fd0ef          	jal	ra,1a0 <memcpy>
    3032:	0479                	addi	s0,s0,30
    3034:	4619                	li	a2,6
    3036:	85a2                	mv	a1,s0
    3038:	8526                	mv	a0,s1
    303a:	966fd0ef          	jal	ra,1a0 <memcpy>
    303e:	4619                	li	a2,6
    3040:	ba4a0593          	addi	a1,s4,-1116
    3044:	8522                	mv	a0,s0
    3046:	95afd0ef          	jal	ra,1a0 <memcpy>
    304a:	9aa1c783          	lbu	a5,-1622(gp) # 200014d2 <imu_upd_cnt>
    304e:	17fd                	addi	a5,a5,-1
    3050:	0ff7f793          	zext.b	a5,a5
    3054:	9af18523          	sb	a5,-1622(gp) # 200014d2 <imu_upd_cnt>
    3058:	e20796e3          	bnez	a5,2e84 <imu_upd+0x42>
    305c:	9801a503          	lw	a0,-1664(gp) # 200014a8 <rep>
    3060:	117030ef          	jal	ra,6976 <set_imu_available>
    3064:	9841c503          	lbu	a0,-1660(gp) # 200014ac <imu_buf_pos>
    3068:	02400793          	li	a5,36
    306c:	02400613          	li	a2,36
    3070:	00153513          	seqz	a0,a0
    3074:	98a18223          	sb	a0,-1660(gp) # 200014ac <imu_buf_pos>
    3078:	02f50533          	mul	a0,a0,a5
    307c:	47b2                	lw	a5,12(sp)
    307e:	4581                	li	a1,0
    3080:	953e                	add	a0,a0,a5
    3082:	934fd0ef          	jal	ra,1b6 <memset>
    3086:	478d                	li	a5,3
    3088:	9af18523          	sb	a5,-1622(gp) # 200014d2 <imu_upd_cnt>
    308c:	bbe5                	j	2e84 <imu_upd+0x42>
    308e:	f8e6d7e3          	bge	a3,a4,301c <imu_upd+0x1da>
    3092:	00e49023          	sh	a4,0(s1)
    3096:	b759                	j	301c <imu_upd+0x1da>
    3098:	4709                	li	a4,2
    309a:	fae798e3          	bne	a5,a4,304a <imu_upd+0x208>
    309e:	8522                	mv	a0,s0
    30a0:	6e2000ef          	jal	ra,3782 <imu_upd2>
    30a4:	b75d                	j	304a <imu_upd+0x208>

000030a6 <_imu_quat_normalize>:
    30a6:	8b0fd2ef          	jal	t0,156 <__riscv_save_4>
    30aa:	00052a83          	lw	s5,0(a0)
    30ae:	00452a03          	lw	s4,4(a0)
    30b2:	842a                	mv	s0,a0
    30b4:	00852983          	lw	s3,8(a0)
    30b8:	00c52903          	lw	s2,12(a0)
    30bc:	85d6                	mv	a1,s5
    30be:	8556                	mv	a0,s5
    30c0:	30a070ef          	jal	ra,a3ca <__mulsf3>
    30c4:	84aa                	mv	s1,a0
    30c6:	85d2                	mv	a1,s4
    30c8:	8552                	mv	a0,s4
    30ca:	300070ef          	jal	ra,a3ca <__mulsf3>
    30ce:	85aa                	mv	a1,a0
    30d0:	8526                	mv	a0,s1
    30d2:	379060ef          	jal	ra,9c4a <__addsf3>
    30d6:	84aa                	mv	s1,a0
    30d8:	85ce                	mv	a1,s3
    30da:	854e                	mv	a0,s3
    30dc:	2ee070ef          	jal	ra,a3ca <__mulsf3>
    30e0:	85aa                	mv	a1,a0
    30e2:	8526                	mv	a0,s1
    30e4:	367060ef          	jal	ra,9c4a <__addsf3>
    30e8:	84aa                	mv	s1,a0
    30ea:	85ca                	mv	a1,s2
    30ec:	854a                	mv	a0,s2
    30ee:	2dc070ef          	jal	ra,a3ca <__mulsf3>
    30f2:	85aa                	mv	a1,a0
    30f4:	8526                	mv	a0,s1
    30f6:	355060ef          	jal	ra,9c4a <__addsf3>
    30fa:	44f040ef          	jal	ra,7d48 <sqrtf>
    30fe:	85aa                	mv	a1,a0
    3100:	87c1a503          	lw	a0,-1924(gp) # 200013a4 <_impure_ptr+0x40>
    3104:	6af060ef          	jal	ra,9fb2 <__divsf3>
    3108:	84aa                	mv	s1,a0
    310a:	85aa                	mv	a1,a0
    310c:	8556                	mv	a0,s5
    310e:	2bc070ef          	jal	ra,a3ca <__mulsf3>
    3112:	c008                	sw	a0,0(s0)
    3114:	85a6                	mv	a1,s1
    3116:	8552                	mv	a0,s4
    3118:	2b2070ef          	jal	ra,a3ca <__mulsf3>
    311c:	c048                	sw	a0,4(s0)
    311e:	85a6                	mv	a1,s1
    3120:	854e                	mv	a0,s3
    3122:	2a8070ef          	jal	ra,a3ca <__mulsf3>
    3126:	c408                	sw	a0,8(s0)
    3128:	85a6                	mv	a1,s1
    312a:	854a                	mv	a0,s2
    312c:	29e070ef          	jal	ra,a3ca <__mulsf3>
    3130:	c448                	sw	a0,12(s0)
    3132:	858fd06f          	j	18a <__riscv_restore_4>

00003136 <_imu_rotate_quaternion>:
    3136:	812fd2ef          	jal	t0,148 <__riscv_save_10>
    313a:	00c52b83          	lw	s7,12(a0)
    313e:	45c4                	lw	s1,12(a1)
    3140:	00052a83          	lw	s5,0(a0)
    3144:	0005a983          	lw	s3,0(a1)
    3148:	00452a03          	lw	s4,4(a0)
    314c:	0045ab03          	lw	s6,4(a1)
    3150:	00852903          	lw	s2,8(a0)
    3154:	0085ac03          	lw	s8,8(a1)
    3158:	842a                	mv	s0,a0
    315a:	85a6                	mv	a1,s1
    315c:	855e                	mv	a0,s7
    315e:	26c070ef          	jal	ra,a3ca <__mulsf3>
    3162:	8caa                	mv	s9,a0
    3164:	85ce                	mv	a1,s3
    3166:	8556                	mv	a0,s5
    3168:	262070ef          	jal	ra,a3ca <__mulsf3>
    316c:	85aa                	mv	a1,a0
    316e:	8566                	mv	a0,s9
    3170:	536070ef          	jal	ra,a6a6 <__subsf3>
    3174:	8caa                	mv	s9,a0
    3176:	85da                	mv	a1,s6
    3178:	8552                	mv	a0,s4
    317a:	250070ef          	jal	ra,a3ca <__mulsf3>
    317e:	85aa                	mv	a1,a0
    3180:	8566                	mv	a0,s9
    3182:	524070ef          	jal	ra,a6a6 <__subsf3>
    3186:	8caa                	mv	s9,a0
    3188:	85e2                	mv	a1,s8
    318a:	854a                	mv	a0,s2
    318c:	23e070ef          	jal	ra,a3ca <__mulsf3>
    3190:	85aa                	mv	a1,a0
    3192:	8566                	mv	a0,s9
    3194:	512070ef          	jal	ra,a6a6 <__subsf3>
    3198:	c448                	sw	a0,12(s0)
    319a:	85ce                	mv	a1,s3
    319c:	855e                	mv	a0,s7
    319e:	22c070ef          	jal	ra,a3ca <__mulsf3>
    31a2:	8caa                	mv	s9,a0
    31a4:	85d6                	mv	a1,s5
    31a6:	8526                	mv	a0,s1
    31a8:	222070ef          	jal	ra,a3ca <__mulsf3>
    31ac:	85aa                	mv	a1,a0
    31ae:	8566                	mv	a0,s9
    31b0:	29b060ef          	jal	ra,9c4a <__addsf3>
    31b4:	8caa                	mv	s9,a0
    31b6:	85e2                	mv	a1,s8
    31b8:	8552                	mv	a0,s4
    31ba:	210070ef          	jal	ra,a3ca <__mulsf3>
    31be:	85aa                	mv	a1,a0
    31c0:	8566                	mv	a0,s9
    31c2:	289060ef          	jal	ra,9c4a <__addsf3>
    31c6:	8caa                	mv	s9,a0
    31c8:	85ca                	mv	a1,s2
    31ca:	855a                	mv	a0,s6
    31cc:	1fe070ef          	jal	ra,a3ca <__mulsf3>
    31d0:	85aa                	mv	a1,a0
    31d2:	8566                	mv	a0,s9
    31d4:	4d2070ef          	jal	ra,a6a6 <__subsf3>
    31d8:	c008                	sw	a0,0(s0)
    31da:	85da                	mv	a1,s6
    31dc:	855e                	mv	a0,s7
    31de:	1ec070ef          	jal	ra,a3ca <__mulsf3>
    31e2:	8caa                	mv	s9,a0
    31e4:	85e2                	mv	a1,s8
    31e6:	8556                	mv	a0,s5
    31e8:	1e2070ef          	jal	ra,a3ca <__mulsf3>
    31ec:	85aa                	mv	a1,a0
    31ee:	8566                	mv	a0,s9
    31f0:	4b6070ef          	jal	ra,a6a6 <__subsf3>
    31f4:	8caa                	mv	s9,a0
    31f6:	85d2                	mv	a1,s4
    31f8:	8526                	mv	a0,s1
    31fa:	1d0070ef          	jal	ra,a3ca <__mulsf3>
    31fe:	85aa                	mv	a1,a0
    3200:	8566                	mv	a0,s9
    3202:	249060ef          	jal	ra,9c4a <__addsf3>
    3206:	8caa                	mv	s9,a0
    3208:	85ca                	mv	a1,s2
    320a:	854e                	mv	a0,s3
    320c:	1be070ef          	jal	ra,a3ca <__mulsf3>
    3210:	85aa                	mv	a1,a0
    3212:	8566                	mv	a0,s9
    3214:	237060ef          	jal	ra,9c4a <__addsf3>
    3218:	c048                	sw	a0,4(s0)
    321a:	85e2                	mv	a1,s8
    321c:	855e                	mv	a0,s7
    321e:	1ac070ef          	jal	ra,a3ca <__mulsf3>
    3222:	8baa                	mv	s7,a0
    3224:	85da                	mv	a1,s6
    3226:	8556                	mv	a0,s5
    3228:	1a2070ef          	jal	ra,a3ca <__mulsf3>
    322c:	85aa                	mv	a1,a0
    322e:	855e                	mv	a0,s7
    3230:	21b060ef          	jal	ra,9c4a <__addsf3>
    3234:	8aaa                	mv	s5,a0
    3236:	85d2                	mv	a1,s4
    3238:	854e                	mv	a0,s3
    323a:	190070ef          	jal	ra,a3ca <__mulsf3>
    323e:	85aa                	mv	a1,a0
    3240:	8556                	mv	a0,s5
    3242:	464070ef          	jal	ra,a6a6 <__subsf3>
    3246:	89aa                	mv	s3,a0
    3248:	85ca                	mv	a1,s2
    324a:	8526                	mv	a0,s1
    324c:	17e070ef          	jal	ra,a3ca <__mulsf3>
    3250:	85aa                	mv	a1,a0
    3252:	854e                	mv	a0,s3
    3254:	1f7060ef          	jal	ra,9c4a <__addsf3>
    3258:	c408                	sw	a0,8(s0)
    325a:	f27fc06f          	j	180 <__riscv_restore_10>

0000325e <_imu_update_quaternion>:
    325e:	ee3fc2ef          	jal	t0,140 <__riscv_save_12>
    3262:	842a                	mv	s0,a0
    3264:	9b01a503          	lw	a0,-1616(gp) # 200014d8 <prev_timestamp.3>
    3268:	7179                	addi	sp,sp,-48
    326a:	84ae                	mv	s1,a1
    326c:	40a60533          	sub	a0,a2,a0
    3270:	8a32                	mv	s4,a2
    3272:	169060ef          	jal	ra,9bda <__floatunsidf>
    3276:	89aa                	mv	s3,a0
    3278:	0014c503          	lbu	a0,1(s1)
    327c:	0004c783          	lbu	a5,0(s1)
    3280:	892e                	mv	s2,a1
    3282:	0522                	slli	a0,a0,0x8
    3284:	8d5d                	or	a0,a0,a5
    3286:	0542                	slli	a0,a0,0x10
    3288:	8541                	srai	a0,a0,0x10
    328a:	9b41a823          	sw	s4,-1616(gp) # 200014d8 <prev_timestamp.3>
    328e:	0dd060ef          	jal	ra,9b6a <__floatsidf>
    3292:	864e                	mv	a2,s3
    3294:	86ca                	mv	a3,s2
    3296:	455050ef          	jal	ra,8eea <__muldf3>
    329a:	8401a603          	lw	a2,-1984(gp) # 20001368 <_impure_ptr+0x4>
    329e:	8441a683          	lw	a3,-1980(gp) # 2000136c <_impure_ptr+0x8>
    32a2:	449050ef          	jal	ra,8eea <__muldf3>
    32a6:	8d2a                	mv	s10,a0
    32a8:	0034c503          	lbu	a0,3(s1)
    32ac:	0024c783          	lbu	a5,2(s1)
    32b0:	8cae                	mv	s9,a1
    32b2:	0522                	slli	a0,a0,0x8
    32b4:	8d5d                	or	a0,a0,a5
    32b6:	0542                	slli	a0,a0,0x10
    32b8:	8541                	srai	a0,a0,0x10
    32ba:	0b1060ef          	jal	ra,9b6a <__floatsidf>
    32be:	864e                	mv	a2,s3
    32c0:	86ca                	mv	a3,s2
    32c2:	429050ef          	jal	ra,8eea <__muldf3>
    32c6:	8401a603          	lw	a2,-1984(gp) # 20001368 <_impure_ptr+0x4>
    32ca:	8441a683          	lw	a3,-1980(gp) # 2000136c <_impure_ptr+0x8>
    32ce:	41d050ef          	jal	ra,8eea <__muldf3>
    32d2:	8c2a                	mv	s8,a0
    32d4:	0054c503          	lbu	a0,5(s1)
    32d8:	0044c783          	lbu	a5,4(s1)
    32dc:	8bae                	mv	s7,a1
    32de:	0522                	slli	a0,a0,0x8
    32e0:	8d5d                	or	a0,a0,a5
    32e2:	0542                	slli	a0,a0,0x10
    32e4:	8541                	srai	a0,a0,0x10
    32e6:	085060ef          	jal	ra,9b6a <__floatsidf>
    32ea:	864e                	mv	a2,s3
    32ec:	86ca                	mv	a3,s2
    32ee:	3fd050ef          	jal	ra,8eea <__muldf3>
    32f2:	8401a603          	lw	a2,-1984(gp) # 20001368 <_impure_ptr+0x4>
    32f6:	8441a683          	lw	a3,-1980(gp) # 2000136c <_impure_ptr+0x8>
    32fa:	3f1050ef          	jal	ra,8eea <__muldf3>
    32fe:	8a2a                	mv	s4,a0
    3300:	89ae                	mv	s3,a1
    3302:	866a                	mv	a2,s10
    3304:	86e6                	mv	a3,s9
    3306:	856a                	mv	a0,s10
    3308:	85e6                	mv	a1,s9
    330a:	3e1050ef          	jal	ra,8eea <__muldf3>
    330e:	892a                	mv	s2,a0
    3310:	84ae                	mv	s1,a1
    3312:	8662                	mv	a2,s8
    3314:	86de                	mv	a3,s7
    3316:	8562                	mv	a0,s8
    3318:	85de                	mv	a1,s7
    331a:	3d1050ef          	jal	ra,8eea <__muldf3>
    331e:	862a                	mv	a2,a0
    3320:	86ae                	mv	a3,a1
    3322:	854a                	mv	a0,s2
    3324:	85a6                	mv	a1,s1
    3326:	72f040ef          	jal	ra,8254 <__adddf3>
    332a:	892a                	mv	s2,a0
    332c:	84ae                	mv	s1,a1
    332e:	8652                	mv	a2,s4
    3330:	86ce                	mv	a3,s3
    3332:	8552                	mv	a0,s4
    3334:	85ce                	mv	a1,s3
    3336:	3b5050ef          	jal	ra,8eea <__muldf3>
    333a:	862a                	mv	a2,a0
    333c:	86ae                	mv	a3,a1
    333e:	854a                	mv	a0,s2
    3340:	85a6                	mv	a1,s1
    3342:	713040ef          	jal	ra,8254 <__adddf3>
    3346:	862a                	mv	a2,a0
    3348:	86ae                	mv	a3,a1
    334a:	892a                	mv	s2,a0
    334c:	84ae                	mv	s1,a1
    334e:	39d050ef          	jal	ra,8eea <__muldf3>
    3352:	8481a603          	lw	a2,-1976(gp) # 20001370 <_impure_ptr+0xc>
    3356:	84c1a683          	lw	a3,-1972(gp) # 20001374 <_impure_ptr+0x10>
    335a:	8dae                	mv	s11,a1
    335c:	c62a                	sw	a0,12(sp)
    335e:	5de050ef          	jal	ra,893c <__divdf3>
    3362:	8501a603          	lw	a2,-1968(gp) # 20001378 <_impure_ptr+0x14>
    3366:	8541a683          	lw	a3,-1964(gp) # 2000137c <_impure_ptr+0x18>
    336a:	8b2a                	mv	s6,a0
    336c:	8aae                	mv	s5,a1
    336e:	854a                	mv	a0,s2
    3370:	85a6                	mv	a1,s1
    3372:	5ca050ef          	jal	ra,893c <__divdf3>
    3376:	862a                	mv	a2,a0
    3378:	86ae                	mv	a3,a1
    337a:	855a                	mv	a0,s6
    337c:	85d6                	mv	a1,s5
    337e:	0b6060ef          	jal	ra,9434 <__subdf3>
    3382:	8581a603          	lw	a2,-1960(gp) # 20001380 <_impure_ptr+0x1c>
    3386:	85c1a683          	lw	a3,-1956(gp) # 20001384 <_impure_ptr+0x20>
    338a:	6cb040ef          	jal	ra,8254 <__adddf3>
    338e:	8b2a                	mv	s6,a0
    3390:	8aae                	mv	s5,a1
    3392:	862a                	mv	a2,a0
    3394:	86ae                	mv	a3,a1
    3396:	856a                	mv	a0,s10
    3398:	85e6                	mv	a1,s9
    339a:	351050ef          	jal	ra,8eea <__muldf3>
    339e:	1d9070ef          	jal	ra,ad76 <__truncdfsf2>
    33a2:	865a                	mv	a2,s6
    33a4:	86d6                	mv	a3,s5
    33a6:	ca2a                	sw	a0,20(sp)
    33a8:	85de                	mv	a1,s7
    33aa:	8562                	mv	a0,s8
    33ac:	33f050ef          	jal	ra,8eea <__muldf3>
    33b0:	1c7070ef          	jal	ra,ad76 <__truncdfsf2>
    33b4:	865a                	mv	a2,s6
    33b6:	86d6                	mv	a3,s5
    33b8:	cc2a                	sw	a0,24(sp)
    33ba:	85ce                	mv	a1,s3
    33bc:	8552                	mv	a0,s4
    33be:	32d050ef          	jal	ra,8eea <__muldf3>
    33c2:	1b5070ef          	jal	ra,ad76 <__truncdfsf2>
    33c6:	47b2                	lw	a5,12(sp)
    33c8:	8601a603          	lw	a2,-1952(gp) # 20001388 <_impure_ptr+0x24>
    33cc:	8641a683          	lw	a3,-1948(gp) # 2000138c <_impure_ptr+0x28>
    33d0:	ce2a                	sw	a0,28(sp)
    33d2:	85ee                	mv	a1,s11
    33d4:	853e                	mv	a0,a5
    33d6:	566050ef          	jal	ra,893c <__divdf3>
    33da:	8681a603          	lw	a2,-1944(gp) # 20001390 <_impure_ptr+0x2c>
    33de:	86c1a683          	lw	a3,-1940(gp) # 20001394 <_impure_ptr+0x30>
    33e2:	8a2a                	mv	s4,a0
    33e4:	89ae                	mv	s3,a1
    33e6:	854a                	mv	a0,s2
    33e8:	85a6                	mv	a1,s1
    33ea:	301050ef          	jal	ra,8eea <__muldf3>
    33ee:	862a                	mv	a2,a0
    33f0:	86ae                	mv	a3,a1
    33f2:	8552                	mv	a0,s4
    33f4:	85ce                	mv	a1,s3
    33f6:	03e060ef          	jal	ra,9434 <__subdf3>
    33fa:	8701a603          	lw	a2,-1936(gp) # 20001398 <_impure_ptr+0x34>
    33fe:	8741a683          	lw	a3,-1932(gp) # 2000139c <_impure_ptr+0x38>
    3402:	200014b7          	lui	s1,0x20001
    3406:	64f040ef          	jal	ra,8254 <__adddf3>
    340a:	16d070ef          	jal	ra,ad76 <__truncdfsf2>
    340e:	084c                	addi	a1,sp,20
    3410:	d02a                	sw	a0,32(sp)
    3412:	24048513          	addi	a0,s1,576 # 20001240 <_imu_quat_state>
    3416:	d21ff0ef          	jal	ra,3136 <_imu_rotate_quaternion>
    341a:	24048513          	addi	a0,s1,576
    341e:	c89ff0ef          	jal	ra,30a6 <_imu_quat_normalize>
    3422:	00144783          	lbu	a5,1(s0)
    3426:	00044703          	lbu	a4,0(s0)
    342a:	24048493          	addi	s1,s1,576
    342e:	07a2                	slli	a5,a5,0x8
    3430:	8fd9                	or	a5,a5,a4
    3432:	00f49823          	sh	a5,16(s1)
    3436:	00344783          	lbu	a5,3(s0)
    343a:	00244703          	lbu	a4,2(s0)
    343e:	07a2                	slli	a5,a5,0x8
    3440:	8fd9                	or	a5,a5,a4
    3442:	00f49923          	sh	a5,18(s1)
    3446:	00544783          	lbu	a5,5(s0)
    344a:	00444703          	lbu	a4,4(s0)
    344e:	07a2                	slli	a5,a5,0x8
    3450:	8fd9                	or	a5,a5,a4
    3452:	00f49a23          	sh	a5,20(s1)
    3456:	6145                	addi	sp,sp,48
    3458:	d25fc06f          	j	17c <__riscv_restore_12>

0000345c <switch_motion_pack_quat>:
    345c:	cedfc2ef          	jal	t0,148 <__riscv_save_10>
    3460:	0065c783          	lbu	a5,6(a1)
    3464:	20003937          	lui	s2,0x20003
    3468:	1141                	addi	sp,sp,-16
    346a:	9bf1                	andi	a5,a5,-4
    346c:	0027e793          	ori	a5,a5,2
    3470:	00f58323          	sb	a5,6(a1)
    3474:	9aa1c703          	lbu	a4,-1622(gp) # 200014d2 <imu_upd_cnt>
    3478:	478d                	li	a5,3
    347a:	84aa                	mv	s1,a0
    347c:	842e                	mv	s0,a1
    347e:	bd490913          	addi	s2,s2,-1068 # 20002bd4 <gyo_samples.1>
    3482:	02f71263          	bne	a4,a5,34a6 <switch_motion_pack_quat+0x4a>
    3486:	63c020ef          	jal	ra,5ac2 <Get_Systick_MS>
    348a:	9aa1a623          	sw	a0,-1620(gp) # 200014d4 <timestamp.2>
    348e:	00092023          	sw	zero,0(s2)
    3492:	00092223          	sw	zero,4(s2)
    3496:	00092423          	sw	zero,8(s2)
    349a:	00092623          	sw	zero,12(s2)
    349e:	00091823          	sh	zero,16(s2)
    34a2:	9a0185a3          	sb	zero,-1621(gp) # 200014d3 <pos.0>
    34a6:	9ab1c503          	lbu	a0,-1621(gp) # 200014d3 <pos.0>
    34aa:	4799                	li	a5,6
    34ac:	4619                	li	a2,6
    34ae:	00150a13          	addi	s4,a0,1
    34b2:	02f50533          	mul	a0,a0,a5
    34b6:	0ffa7a13          	zext.b	s4,s4
    34ba:	9b4185a3          	sb	s4,-1621(gp) # 200014d3 <pos.0>
    34be:	200039b7          	lui	s3,0x20003
    34c2:	ba498593          	addi	a1,s3,-1116 # 20002ba4 <imu_res>
    34c6:	954a                	add	a0,a0,s2
    34c8:	cd9fc0ef          	jal	ra,1a0 <memcpy>
    34cc:	478d                	li	a5,3
    34ce:	26fa1b63          	bne	s4,a5,3744 <switch_motion_pack_quat+0x2e8>
    34d2:	00644783          	lbu	a5,6(s0)
    34d6:	80000b37          	lui	s6,0x80000
    34da:	4a85                	li	s5,1
    34dc:	9bcd                	andi	a5,a5,-13
    34de:	00f40323          	sb	a5,6(s0)
    34e2:	1b7d                	addi	s6,s6,-1 # 7fffffff <_eusrstack+0x5fffafff>
    34e4:	4b91                	li	s7,4
    34e6:	00644a03          	lbu	s4,6(s0)
    34ea:	002a9793          	slli	a5,s5,0x2
    34ee:	97a6                	add	a5,a5,s1
    34f0:	4388                	lw	a0,0(a5)
    34f2:	00ca7793          	andi	a5,s4,12
    34f6:	97a6                	add	a5,a5,s1
    34f8:	438c                	lw	a1,0(a5)
    34fa:	01657533          	and	a0,a0,s6
    34fe:	0165f5b3          	and	a1,a1,s6
    3502:	59b060ef          	jal	ra,a29c <__gesf2>
    3506:	00a05b63          	blez	a0,351c <switch_motion_pack_quat+0xc0>
    350a:	003af793          	andi	a5,s5,3
    350e:	078a                	slli	a5,a5,0x2
    3510:	ff3a7a13          	andi	s4,s4,-13
    3514:	00fa6a33          	or	s4,s4,a5
    3518:	01440323          	sb	s4,6(s0)
    351c:	0a85                	addi	s5,s5,1
    351e:	fd7a94e3          	bne	s5,s7,34e6 <switch_motion_pack_quat+0x8a>
    3522:	00644a03          	lbu	s4,6(s0)
    3526:	00000593          	li	a1,0
    352a:	002a5a13          	srli	s4,s4,0x2
    352e:	003a7a13          	andi	s4,s4,3
    3532:	002a1793          	slli	a5,s4,0x2
    3536:	97a6                	add	a5,a5,s1
    3538:	4388                	lw	a0,0(a5)
    353a:	5f9060ef          	jal	ra,a332 <__lesf2>
    353e:	22055f63          	bgez	a0,377c <switch_motion_pack_quat+0x320>
    3542:	8801ab03          	lw	s6,-1920(gp) # 200013a8 <_impure_ptr+0x44>
    3546:	8841ab83          	lw	s7,-1916(gp) # 200013ac <_impure_ptr+0x48>
    354a:	00410c13          	addi	s8,sp,4
    354e:	4a81                	li	s5,0
    3550:	0a05                	addi	s4,s4,1
    3552:	4c8d                	li	s9,3
    3554:	015a07b3          	add	a5,s4,s5
    3558:	8b8d                	andi	a5,a5,3
    355a:	078a                	slli	a5,a5,0x2
    355c:	97a6                	add	a5,a5,s1
    355e:	4388                	lw	a0,0(a5)
    3560:	85de                	mv	a1,s7
    3562:	0a85                	addi	s5,s5,1
    3564:	667060ef          	jal	ra,a3ca <__mulsf3>
    3568:	85da                	mv	a1,s6
    356a:	661060ef          	jal	ra,a3ca <__mulsf3>
    356e:	500070ef          	jal	ra,aa6e <__fixsfsi>
    3572:	00ac2023          	sw	a0,0(s8)
    3576:	0c11                	addi	s8,s8,4
    3578:	fd9a9ee3          	bne	s5,s9,3554 <switch_motion_pack_quat+0xf8>
    357c:	02144783          	lbu	a5,33(s0)
    3580:	00644703          	lbu	a4,6(s0)
    3584:	00040aa3          	sb	zero,21(s0)
    3588:	f807f793          	andi	a5,a5,-128
    358c:	02f400a3          	sb	a5,33(s0)
    3590:	4792                	lw	a5,4(sp)
    3592:	8b3d                	andi	a4,a4,15
    3594:	00040b23          	sb	zero,22(s0)
    3598:	87a5                	srai	a5,a5,0x9
    359a:	00f7f693          	andi	a3,a5,15
    359e:	0692                	slli	a3,a3,0x4
    35a0:	8f55                	or	a4,a4,a3
    35a2:	00e40323          	sb	a4,6(s0)
    35a6:	0047d713          	srli	a4,a5,0x4
    35aa:	00e403a3          	sb	a4,7(s0)
    35ae:	00c7d713          	srli	a4,a5,0xc
    35b2:	00e40423          	sb	a4,8(s0)
    35b6:	4722                	lw	a4,8(sp)
    35b8:	83d1                	srli	a5,a5,0x14
    35ba:	8b85                	andi	a5,a5,1
    35bc:	8725                	srai	a4,a4,0x9
    35be:	07f77693          	andi	a3,a4,127
    35c2:	0686                	slli	a3,a3,0x1
    35c4:	8fd5                	or	a5,a5,a3
    35c6:	00f404a3          	sb	a5,9(s0)
    35ca:	00775793          	srli	a5,a4,0x7
    35ce:	00f40523          	sb	a5,10(s0)
    35d2:	47b2                	lw	a5,12(sp)
    35d4:	833d                	srli	a4,a4,0xf
    35d6:	03f77713          	andi	a4,a4,63
    35da:	4097d693          	srai	a3,a5,0x9
    35de:	069a                	slli	a3,a3,0x6
    35e0:	8f55                	or	a4,a4,a3
    35e2:	87ad                	srai	a5,a5,0xb
    35e4:	00e405a3          	sb	a4,11(s0)
    35e8:	00040ba3          	sb	zero,23(s0)
    35ec:	00040fa3          	sb	zero,31(s0)
    35f0:	02040023          	sb	zero,32(s0)
    35f4:	0087d713          	srli	a4,a5,0x8
    35f8:	00f40923          	sb	a5,18(s0)
    35fc:	83c1                	srli	a5,a5,0x10
    35fe:	00e409a3          	sb	a4,19(s0)
    3602:	8b9d                	andi	a5,a5,7
    3604:	9ac1a703          	lw	a4,-1620(gp) # 200014d4 <timestamp.2>
    3608:	00f40a23          	sb	a5,20(s0)
    360c:	02144783          	lbu	a5,33(s0)
    3610:	8b05                	andi	a4,a4,1
    3612:	071e                	slli	a4,a4,0x7
    3614:	07f7f793          	andi	a5,a5,127
    3618:	8fd9                	or	a5,a5,a4
    361a:	02f400a3          	sb	a5,33(s0)
    361e:	9ac1a783          	lw	a5,-1620(gp) # 200014d4 <timestamp.2>
    3622:	00040f23          	sb	zero,30(s0)
    3626:	ba498993          	addi	s3,s3,-1116
    362a:	8385                	srli	a5,a5,0x1
    362c:	02f40123          	sb	a5,34(s0)
    3630:	9ac1a703          	lw	a4,-1620(gp) # 200014d4 <timestamp.2>
    3634:	02344783          	lbu	a5,35(s0)
    3638:	8325                	srli	a4,a4,0x9
    363a:	8b0d                	andi	a4,a4,3
    363c:	9bf1                	andi	a5,a5,-4
    363e:	8fd9                	or	a5,a5,a4
    3640:	02f401a3          	sb	a5,35(s0)
    3644:	47e020ef          	jal	ra,5ac2 <Get_Systick_MS>
    3648:	9ac1a783          	lw	a5,-1620(gp) # 200014d4 <timestamp.2>
    364c:	8d1d                	sub	a0,a0,a5
    364e:	02344783          	lbu	a5,35(s0)
    3652:	050a                	slli	a0,a0,0x2
    3654:	8b8d                	andi	a5,a5,3
    3656:	8fc9                	or	a5,a5,a0
    3658:	02f401a3          	sb	a5,35(s0)
    365c:	00099703          	lh	a4,0(s3)
    3660:	00091803          	lh	a6,0(s2)
    3664:	01444783          	lbu	a5,20(s0)
    3668:	410706b3          	sub	a3,a4,a6
    366c:	0f86f613          	andi	a2,a3,248
    3670:	8b9d                	andi	a5,a5,7
    3672:	8fd1                	or	a5,a5,a2
    3674:	82a1                	srli	a3,a3,0x8
    3676:	00f40a23          	sb	a5,20(s0)
    367a:	00d40aa3          	sb	a3,21(s0)
    367e:	00299603          	lh	a2,2(s3)
    3682:	00291883          	lh	a7,2(s2)
    3686:	01744683          	lbu	a3,23(s0)
    368a:	411607b3          	sub	a5,a2,a7
    368e:	878d                	srai	a5,a5,0x3
    3690:	00f40b23          	sb	a5,22(s0)
    3694:	83a1                	srli	a5,a5,0x8
    3696:	9a81                	andi	a3,a3,-32
    3698:	8bfd                	andi	a5,a5,31
    369a:	8fd5                	or	a5,a5,a3
    369c:	00f40ba3          	sb	a5,23(s0)
    36a0:	00499683          	lh	a3,4(s3)
    36a4:	00491503          	lh	a0,4(s2)
    36a8:	01744583          	lbu	a1,23(s0)
    36ac:	40a687b3          	sub	a5,a3,a0
    36b0:	4037d313          	srai	t1,a5,0x3
    36b4:	0316                	slli	t1,t1,0x5
    36b6:	89fd                	andi	a1,a1,31
    36b8:	0065e5b3          	or	a1,a1,t1
    36bc:	00b40ba3          	sb	a1,23(s0)
    36c0:	00691303          	lh	t1,6(s2)
    36c4:	8799                	srai	a5,a5,0x6
    36c6:	0087d593          	srli	a1,a5,0x8
    36ca:	00f40f23          	sb	a5,30(s0)
    36ce:	010707b3          	add	a5,a4,a6
    36d2:	979a                	add	a5,a5,t1
    36d4:	5875                	li	a6,-3
    36d6:	0307c7b3          	div	a5,a5,a6
    36da:	0035f713          	andi	a4,a1,3
    36de:	979a                	add	a5,a5,t1
    36e0:	87a5                	srai	a5,a5,0x9
    36e2:	03f7f313          	andi	t1,a5,63
    36e6:	030a                	slli	t1,t1,0x2
    36e8:	00676733          	or	a4,a4,t1
    36ec:	00e40fa3          	sb	a4,31(s0)
    36f0:	02044703          	lbu	a4,32(s0)
    36f4:	8399                	srli	a5,a5,0x6
    36f6:	8b85                	andi	a5,a5,1
    36f8:	9b79                	andi	a4,a4,-2
    36fa:	8fd9                	or	a5,a5,a4
    36fc:	02f40023          	sb	a5,32(s0)
    3700:	00891703          	lh	a4,8(s2)
    3704:	011607b3          	add	a5,a2,a7
    3708:	97ba                	add	a5,a5,a4
    370a:	0307c7b3          	div	a5,a5,a6
    370e:	97ba                	add	a5,a5,a4
    3710:	02044703          	lbu	a4,32(s0)
    3714:	87a5                	srai	a5,a5,0x9
    3716:	0786                	slli	a5,a5,0x1
    3718:	8b05                	andi	a4,a4,1
    371a:	8fd9                	or	a5,a5,a4
    371c:	02f40023          	sb	a5,32(s0)
    3720:	00a91703          	lh	a4,10(s2)
    3724:	00a687b3          	add	a5,a3,a0
    3728:	97ba                	add	a5,a5,a4
    372a:	0307c7b3          	div	a5,a5,a6
    372e:	97ba                	add	a5,a5,a4
    3730:	02144703          	lbu	a4,33(s0)
    3734:	87a5                	srai	a5,a5,0x9
    3736:	07f7f793          	andi	a5,a5,127
    373a:	f8077713          	andi	a4,a4,-128
    373e:	8fd9                	or	a5,a5,a4
    3740:	02f400a3          	sb	a5,33(s0)
    3744:	0104c783          	lbu	a5,16(s1)
    3748:	00f40023          	sb	a5,0(s0)
    374c:	0114c783          	lbu	a5,17(s1)
    3750:	00f400a3          	sb	a5,1(s0)
    3754:	0124c783          	lbu	a5,18(s1)
    3758:	00f40123          	sb	a5,2(s0)
    375c:	0124d783          	lhu	a5,18(s1)
    3760:	83a1                	srli	a5,a5,0x8
    3762:	00f401a3          	sb	a5,3(s0)
    3766:	0144c783          	lbu	a5,20(s1)
    376a:	00f40223          	sb	a5,4(s0)
    376e:	0154c783          	lbu	a5,21(s1)
    3772:	00f402a3          	sb	a5,5(s0)
    3776:	0141                	addi	sp,sp,16
    3778:	a09fc06f          	j	180 <__riscv_restore_10>
    377c:	87c1ab03          	lw	s6,-1924(gp) # 200013a4 <_impure_ptr+0x40>
    3780:	b3d9                	j	3546 <switch_motion_pack_quat+0xea>

00003782 <imu_upd2>:
    3782:	9effc2ef          	jal	t0,170 <__riscv_save_0>
    3786:	842a                	mv	s0,a0
    3788:	322020ef          	jal	ra,5aaa <Get_Systick_US>
    378c:	862a                	mv	a2,a0
    378e:	200035b7          	lui	a1,0x20003
    3792:	20003537          	lui	a0,0x20003
    3796:	ba458593          	addi	a1,a1,-1116 # 20002ba4 <imu_res>
    379a:	baa50513          	addi	a0,a0,-1110 # 20002baa <imu_res+0x6>
    379e:	ac1ff0ef          	jal	ra,325e <_imu_update_quaternion>
    37a2:	20001537          	lui	a0,0x20001
    37a6:	85a2                	mv	a1,s0
    37a8:	24050513          	addi	a0,a0,576 # 20001240 <_imu_quat_state>
    37ac:	cb1ff0ef          	jal	ra,345c <switch_motion_pack_quat>
    37b0:	9e5fc06f          	j	194 <__riscv_restore_0>

000037b4 <button_upd_all>:
    37b4:	9bdfc2ef          	jal	t0,170 <__riscv_save_0>
    37b8:	cc7fd0ef          	jal	ra,147e <gpio_read_all>
    37bc:	9e01c783          	lbu	a5,-1568(gp) # 20001508 <top_trigger>
    37c0:	c391                	beqz	a5,37c4 <button_upd_all+0x10>
    37c2:	4501                	li	a0,0
    37c4:	8ea1a023          	sw	a0,-1824(gp) # 20001408 <sts_button>
    37c8:	9cdfc06f          	j	194 <__riscv_restore_0>

000037cc <get_peripheral_data_handler.part.0>:
    37cc:	9a5fc2ef          	jal	t0,170 <__riscv_save_0>
    37d0:	842a                	mv	s0,a0
    37d2:	fe3ff0ef          	jal	ra,37b4 <button_upd_all>
    37d6:	200027b7          	lui	a5,0x20002
    37da:	3f07c783          	lbu	a5,1008(a5) # 200023f0 <user_config>
    37de:	8b91                	andi	a5,a5,4
    37e0:	c7a5                	beqz	a5,3848 <get_peripheral_data_handler.part.0+0x7c>
    37e2:	8e01a703          	lw	a4,-1824(gp) # 20001408 <sts_button>
    37e6:	000f07b7          	lui	a5,0xf0
    37ea:	8ff9                	and	a5,a5,a4
    37ec:	cfb1                	beqz	a5,3848 <get_peripheral_data_handler.part.0+0x7c>
    37ee:	000807b7          	lui	a5,0x80
    37f2:	8ff9                	and	a5,a5,a4
    37f4:	efd1                	bnez	a5,3890 <get_peripheral_data_handler.part.0+0xc4>
    37f6:	008017b7          	lui	a5,0x801
    37fa:	80078793          	addi	a5,a5,-2048 # 800800 <_data_lma+0x7f37ec>
    37fe:	000405b7          	lui	a1,0x40
    3802:	9cf1ae23          	sw	a5,-1572(gp) # 20001504 <sts_ljoy>
    3806:	8df9                	and	a1,a1,a4
    3808:	c589                	beqz	a1,3812 <get_peripheral_data_handler.part.0+0x46>
    380a:	70878793          	addi	a5,a5,1800
    380e:	9cf1ae23          	sw	a5,-1572(gp) # 20001504 <sts_ljoy>
    3812:	000207b7          	lui	a5,0x20
    3816:	8ff9                	and	a5,a5,a4
    3818:	cb81                	beqz	a5,3828 <get_peripheral_data_handler.part.0+0x5c>
    381a:	9dc1a783          	lw	a5,-1572(gp) # 20001504 <sts_ljoy>
    381e:	ff8f85b7          	lui	a1,0xff8f8
    3822:	97ae                	add	a5,a5,a1
    3824:	9cf1ae23          	sw	a5,-1572(gp) # 20001504 <sts_ljoy>
    3828:	67c1                	lui	a5,0x10
    382a:	8ff9                	and	a5,a5,a4
    382c:	cb81                	beqz	a5,383c <get_peripheral_data_handler.part.0+0x70>
    382e:	9dc1a783          	lw	a5,-1572(gp) # 20001504 <sts_ljoy>
    3832:	007085b7          	lui	a1,0x708
    3836:	97ae                	add	a5,a5,a1
    3838:	9cf1ae23          	sw	a5,-1572(gp) # 20001504 <sts_ljoy>
    383c:	fff107b7          	lui	a5,0xfff10
    3840:	17fd                	addi	a5,a5,-1 # fff0ffff <_eusrstack+0xdff0afff>
    3842:	8f7d                	and	a4,a4,a5
    3844:	8ee1a023          	sw	a4,-1824(gp) # 20001408 <sts_button>
    3848:	8e01c783          	lbu	a5,-1824(gp) # 20001408 <sts_button>
    384c:	00f40023          	sb	a5,0(s0)
    3850:	8e11c783          	lbu	a5,-1823(gp) # 20001409 <sts_button+0x1>
    3854:	00f400a3          	sb	a5,1(s0)
    3858:	8e21c783          	lbu	a5,-1822(gp) # 2000140a <sts_button+0x2>
    385c:	00f40123          	sb	a5,2(s0)
    3860:	9dc1a783          	lw	a5,-1572(gp) # 20001504 <sts_ljoy>
    3864:	00f401a3          	sb	a5,3(s0)
    3868:	0087d713          	srli	a4,a5,0x8
    386c:	83c1                	srli	a5,a5,0x10
    386e:	00f402a3          	sb	a5,5(s0)
    3872:	9d81a783          	lw	a5,-1576(gp) # 20001500 <sts_rjoy>
    3876:	00e40223          	sb	a4,4(s0)
    387a:	00f40323          	sb	a5,6(s0)
    387e:	0087d713          	srli	a4,a5,0x8
    3882:	83c1                	srli	a5,a5,0x10
    3884:	00e403a3          	sb	a4,7(s0)
    3888:	00f40423          	sb	a5,8(s0)
    388c:	909fc06f          	j	194 <__riscv_restore_0>
    3890:	008007b7          	lui	a5,0x800
    3894:	0f878793          	addi	a5,a5,248 # 8000f8 <_data_lma+0x7f30e4>
    3898:	b79d                	j	37fe <get_peripheral_data_handler.part.0+0x32>

0000389a <get_peripheral_data_handler>:
    389a:	c119                	beqz	a0,38a0 <get_peripheral_data_handler+0x6>
    389c:	f31ff06f          	j	37cc <get_peripheral_data_handler.part.0>
    38a0:	8082                	ret

000038a2 <joystick_snapback_filter>:
    38a2:	8a7fc2ef          	jal	t0,148 <__riscv_save_10>
    38a6:	20002437          	lui	s0,0x20002
    38aa:	3f040793          	addi	a5,s0,1008 # 200023f0 <user_config>
    38ae:	0017c703          	lbu	a4,1(a5)
    38b2:	4689                	li	a3,2
    38b4:	8a32                	mv	s4,a2
    38b6:	8319                	srli	a4,a4,0x6
    38b8:	3f040413          	addi	s0,s0,1008
    38bc:	00161793          	slli	a5,a2,0x1
    38c0:	1cd70563          	beq	a4,a3,3a8a <joystick_snapback_filter+0x1e8>
    38c4:	468d                	li	a3,3
    38c6:	1ed70b63          	beq	a4,a3,3abc <joystick_snapback_filter+0x21a>
    38ca:	4685                	li	a3,1
    38cc:	02d71863          	bne	a4,a3,38fc <joystick_snapback_filter+0x5a>
    38d0:	41f55693          	srai	a3,a0,0x1f
    38d4:	00a6c733          	xor	a4,a3,a0
    38d8:	8f15                	sub	a4,a4,a3
    38da:	00f406b3          	add	a3,s0,a5
    38de:	0226c603          	lbu	a2,34(a3)
    38e2:	00c75d63          	bge	a4,a2,38fc <joystick_snapback_filter+0x5a>
    38e6:	41f5d613          	srai	a2,a1,0x1f
    38ea:	0236c683          	lbu	a3,35(a3)
    38ee:	00b64733          	xor	a4,a2,a1
    38f2:	8f11                	sub	a4,a4,a2
    38f4:	00d75463          	bge	a4,a3,38fc <joystick_snapback_filter+0x5a>
    38f8:	4581                	li	a1,0
    38fa:	4501                	li	a0,0
    38fc:	97a2                	add	a5,a5,s0
    38fe:	00b78983          	lb	s3,11(a5)
    3902:	00c78903          	lb	s2,12(a5)
    3906:	01644783          	lbu	a5,22(s0)
    390a:	02a989b3          	mul	s3,s3,a0
    390e:	01544703          	lbu	a4,21(s0)
    3912:	07a2                	slli	a5,a5,0x8
    3914:	8fd9                	or	a5,a5,a4
    3916:	02b90933          	mul	s2,s2,a1
    391a:	4059d993          	srai	s3,s3,0x5
    391e:	40595913          	srai	s2,s2,0x5
    3922:	cfbd                	beqz	a5,39a0 <joystick_snapback_filter+0xfe>
    3924:	032907b3          	mul	a5,s2,s2
    3928:	002a1713          	slli	a4,s4,0x2
    392c:	9c018623          	sb	zero,-1588(gp) # 200014f4 <set.16>
    3930:	033984b3          	mul	s1,s3,s3
    3934:	94be                	add	s1,s1,a5
    3936:	8c818793          	addi	a5,gp,-1848 # 200013f0 <joystick_snapback_deadzone_sq>
    393a:	97ba                	add	a5,a5,a4
    393c:	439c                	lw	a5,0(a5)
    393e:	00f4e563          	bltu	s1,a5,3948 <joystick_snapback_filter+0xa6>
    3942:	4785                	li	a5,1
    3944:	9cf18623          	sb	a5,-1588(gp) # 200014f4 <set.16>
    3948:	162020ef          	jal	ra,5aaa <Get_Systick_US>
    394c:	e111                	bnez	a0,3950 <joystick_snapback_filter+0xae>
    394e:	4505                	li	a0,1
    3950:	47e1                	li	a5,24
    3952:	02fa07b3          	mul	a5,s4,a5
    3956:	20003737          	lui	a4,0x20003
    395a:	bf870693          	addi	a3,a4,-1032 # 20002bf8 <js_snapback_samples>
    395e:	bf870593          	addi	a1,a4,-1032
    3962:	96be                	add	a3,a3,a5
    3964:	429c                	lw	a5,0(a3)
    3966:	cf89                	beqz	a5,3980 <joystick_snapback_filter+0xde>
    3968:	40f50733          	sub	a4,a0,a5
    396c:	01644783          	lbu	a5,22(s0)
    3970:	01544603          	lbu	a2,21(s0)
    3974:	07a2                	slli	a5,a5,0x8
    3976:	8fd1                	or	a5,a5,a2
    3978:	18f76963          	bltu	a4,a5,3b0a <joystick_snapback_filter+0x268>
    397c:	0006a023          	sw	zero,0(a3)
    3980:	9cc1c783          	lbu	a5,-1588(gp) # 200014f4 <set.16>
    3984:	cf91                	beqz	a5,39a0 <joystick_snapback_filter+0xfe>
    3986:	47e1                	li	a5,24
    3988:	02fa07b3          	mul	a5,s4,a5
    398c:	00f58733          	add	a4,a1,a5
    3990:	cb04                	sw	s1,16(a4)
    3992:	84fd                	srai	s1,s1,0x1f
    3994:	01372223          	sw	s3,4(a4)
    3998:	01272423          	sw	s2,8(a4)
    399c:	cb44                	sw	s1,20(a4)
    399e:	c308                	sw	a0,0(a4)
    39a0:	6785                	lui	a5,0x1
    39a2:	80078493          	addi	s1,a5,-2048 # 800 <__stack_size>
    39a6:	17fd                	addi	a5,a5,-1
    39a8:	9cf1a023          	sw	a5,-1600(gp) # 200014e8 <py.13>
    39ac:	9af1ae23          	sw	a5,-1604(gp) # 200014e4 <px.12>
    39b0:	00144783          	lbu	a5,1(s0)
    39b4:	9c01a423          	sw	zero,-1592(gp) # 200014f0 <ny.15>
    39b8:	9c01a223          	sw	zero,-1596(gp) # 200014ec <nx.14>
    39bc:	8b91                	andi	a5,a5,4
    39be:	99a6                	add	s3,s3,s1
    39c0:	9926                	add	s2,s2,s1
    39c2:	c3d5                	beqz	a5,3a66 <joystick_snapback_filter+0x1c4>
    39c4:	47a5                	li	a5,9
    39c6:	02fa07b3          	mul	a5,s4,a5
    39ca:	20002637          	lui	a2,0x20002
    39ce:	46060613          	addi	a2,a2,1120 # 20002460 <factory_configuration>
    39d2:	963e                	add	a2,a2,a5
    39d4:	04464783          	lbu	a5,68(a2)
    39d8:	04364703          	lbu	a4,67(a2)
    39dc:	00f7f513          	andi	a0,a5,15
    39e0:	0522                	slli	a0,a0,0x8
    39e2:	8d59                	or	a0,a0,a4
    39e4:	9ca1a223          	sw	a0,-1596(gp) # 200014ec <nx.14>
    39e8:	03e64703          	lbu	a4,62(a2)
    39ec:	03d64683          	lbu	a3,61(a2)
    39f0:	00f77593          	andi	a1,a4,15
    39f4:	05a2                	slli	a1,a1,0x8
    39f6:	8dd5                	or	a1,a1,a3
    39f8:	9ab1ae23          	sw	a1,-1604(gp) # 200014e4 <px.12>
    39fc:	0047d693          	srli	a3,a5,0x4
    3a00:	04564783          	lbu	a5,69(a2)
    3a04:	8311                	srli	a4,a4,0x4
    3a06:	0792                	slli	a5,a5,0x4
    3a08:	8fd5                	or	a5,a5,a3
    3a0a:	9cf1a423          	sw	a5,-1592(gp) # 200014f0 <ny.15>
    3a0e:	03f64783          	lbu	a5,63(a2)
    3a12:	0792                	slli	a5,a5,0x4
    3a14:	8fd9                	or	a5,a5,a4
    3a16:	9cf1a023          	sw	a5,-1600(gp) # 200014e8 <py.13>
    3a1a:	dfafd0ef          	jal	ra,1014 <i32_min>
    3a1e:	9c01a583          	lw	a1,-1600(gp) # 200014e8 <py.13>
    3a22:	9ca1a223          	sw	a0,-1596(gp) # 200014ec <nx.14>
    3a26:	9aa1ae23          	sw	a0,-1604(gp) # 200014e4 <px.12>
    3a2a:	9c81a503          	lw	a0,-1592(gp) # 200014f0 <ny.15>
    3a2e:	de6fd0ef          	jal	ra,1014 <i32_min>
    3a32:	9bc1a603          	lw	a2,-1604(gp) # 200014e4 <px.12>
    3a36:	9c41a583          	lw	a1,-1596(gp) # 200014ec <nx.14>
    3a3a:	9ca1a423          	sw	a0,-1592(gp) # 200014f0 <ny.15>
    3a3e:	9ca1a023          	sw	a0,-1600(gp) # 200014e8 <py.13>
    3a42:	9626                	add	a2,a2,s1
    3a44:	40b485b3          	sub	a1,s1,a1
    3a48:	854e                	mv	a0,s3
    3a4a:	deefd0ef          	jal	ra,1038 <i32_clamp>
    3a4e:	9c01a603          	lw	a2,-1600(gp) # 200014e8 <py.13>
    3a52:	9c81a583          	lw	a1,-1592(gp) # 200014f0 <ny.15>
    3a56:	89aa                	mv	s3,a0
    3a58:	9626                	add	a2,a2,s1
    3a5a:	854a                	mv	a0,s2
    3a5c:	40b485b3          	sub	a1,s1,a1
    3a60:	dd8fd0ef          	jal	ra,1038 <i32_clamp>
    3a64:	892a                	mv	s2,a0
    3a66:	6485                	lui	s1,0x1
    3a68:	fff48613          	addi	a2,s1,-1 # fff <read_flash+0x1b>
    3a6c:	4581                	li	a1,0
    3a6e:	854e                	mv	a0,s3
    3a70:	dc8fd0ef          	jal	ra,1038 <i32_clamp>
    3a74:	842a                	mv	s0,a0
    3a76:	fff48613          	addi	a2,s1,-1
    3a7a:	4581                	li	a1,0
    3a7c:	854a                	mv	a0,s2
    3a7e:	dbafd0ef          	jal	ra,1038 <i32_clamp>
    3a82:	0532                	slli	a0,a0,0xc
    3a84:	9522                	add	a0,a0,s0
    3a86:	efafc06f          	j	180 <__riscv_restore_10>
    3a8a:	41f55693          	srai	a3,a0,0x1f
    3a8e:	00a6c733          	xor	a4,a3,a0
    3a92:	8f15                	sub	a4,a4,a3
    3a94:	00f406b3          	add	a3,s0,a5
    3a98:	0226c683          	lbu	a3,34(a3)
    3a9c:	00d75363          	bge	a4,a3,3aa2 <joystick_snapback_filter+0x200>
    3aa0:	4501                	li	a0,0
    3aa2:	41f5d693          	srai	a3,a1,0x1f
    3aa6:	00b6c733          	xor	a4,a3,a1
    3aaa:	8f15                	sub	a4,a4,a3
    3aac:	00f406b3          	add	a3,s0,a5
    3ab0:	0236c683          	lbu	a3,35(a3)
    3ab4:	e4d754e3          	bge	a4,a3,38fc <joystick_snapback_filter+0x5a>
    3ab8:	4581                	li	a1,0
    3aba:	b589                	j	38fc <joystick_snapback_filter+0x5a>
    3abc:	00f40733          	add	a4,s0,a5
    3ac0:	41f55613          	srai	a2,a0,0x1f
    3ac4:	02274703          	lbu	a4,34(a4)
    3ac8:	00a646b3          	xor	a3,a2,a0
    3acc:	8e91                	sub	a3,a3,a2
    3ace:	02e6cc63          	blt	a3,a4,3b06 <joystick_snapback_filter+0x264>
    3ad2:	56fd                	li	a3,-1
    3ad4:	00a04363          	bgtz	a0,3ada <joystick_snapback_filter+0x238>
    3ad8:	4685                	li	a3,1
    3ada:	02d70733          	mul	a4,a4,a3
    3ade:	953a                	add	a0,a0,a4
    3ae0:	00f40733          	add	a4,s0,a5
    3ae4:	41f5d613          	srai	a2,a1,0x1f
    3ae8:	02374703          	lbu	a4,35(a4)
    3aec:	00b646b3          	xor	a3,a2,a1
    3af0:	8e91                	sub	a3,a3,a2
    3af2:	fce6c3e3          	blt	a3,a4,3ab8 <joystick_snapback_filter+0x216>
    3af6:	56fd                	li	a3,-1
    3af8:	00b04363          	bgtz	a1,3afe <joystick_snapback_filter+0x25c>
    3afc:	4685                	li	a3,1
    3afe:	02d70733          	mul	a4,a4,a3
    3b02:	95ba                	add	a1,a1,a4
    3b04:	bbe5                	j	38fc <joystick_snapback_filter+0x5a>
    3b06:	4501                	li	a0,0
    3b08:	bfe1                	j	3ae0 <joystick_snapback_filter+0x23e>
    3b0a:	42d8                	lw	a4,4(a3)
    3b0c:	469c                	lw	a5,8(a3)
    3b0e:	02e98733          	mul	a4,s3,a4
    3b12:	02f907b3          	mul	a5,s2,a5
    3b16:	973e                	add	a4,a4,a5
    3b18:	e60754e3          	bgez	a4,3980 <joystick_snapback_filter+0xde>
    3b1c:	4a90                	lw	a2,16(a3)
    3b1e:	4ad4                	lw	a3,20(a3)
    3b20:	41f4d793          	srai	a5,s1,0x1f
    3b24:	02f607b3          	mul	a5,a2,a5
    3b28:	029686b3          	mul	a3,a3,s1
    3b2c:	02960833          	mul	a6,a2,s1
    3b30:	97b6                	add	a5,a5,a3
    3b32:	02963633          	mulhu	a2,a2,s1
    3b36:	97b2                	add	a5,a5,a2
    3b38:	460d                	li	a2,3
    3b3a:	02f607b3          	mul	a5,a2,a5
    3b3e:	030606b3          	mul	a3,a2,a6
    3b42:	03063633          	mulhu	a2,a2,a6
    3b46:	828d                	srli	a3,a3,0x3
    3b48:	97b2                	add	a5,a5,a2
    3b4a:	01d79613          	slli	a2,a5,0x1d
    3b4e:	8ed1                	or	a3,a3,a2
    3b50:	02e70633          	mul	a2,a4,a4
    3b54:	878d                	srai	a5,a5,0x3
    3b56:	02e71733          	mulh	a4,a4,a4
    3b5a:	e2f763e3          	bltu	a4,a5,3980 <joystick_snapback_filter+0xde>
    3b5e:	00e79463          	bne	a5,a4,3b66 <joystick_snapback_filter+0x2c4>
    3b62:	e0d66fe3          	bltu	a2,a3,3980 <joystick_snapback_filter+0xde>
    3b66:	9c018623          	sb	zero,-1588(gp) # 200014f4 <set.16>
    3b6a:	4901                	li	s2,0
    3b6c:	4981                	li	s3,0
    3b6e:	bd09                	j	3980 <joystick_snapback_filter+0xde>

00003b70 <joystick_debounce_task>:
    3b70:	e00fc2ef          	jal	t0,170 <__riscv_save_0>
    3b74:	8d418793          	addi	a5,gp,-1836 # 200013fc <adc_data>
    3b78:	0047d703          	lhu	a4,4(a5)
    3b7c:	0007d503          	lhu	a0,0(a5)
    3b80:	0027d583          	lhu	a1,2(a5)
    3b84:	200034b7          	lui	s1,0x20003
    3b88:	0067d783          	lhu	a5,6(a5)
    3b8c:	20002437          	lui	s0,0x20002
    3b90:	41840413          	addi	s0,s0,1048 # 20002418 <user_calibration>
    3b94:	c2848493          	addi	s1,s1,-984 # 20002c28 <adc_debounce>
    3b98:	c498                	sw	a4,8(s1)
    3b9a:	00444703          	lbu	a4,4(s0)
    3b9e:	c4dc                	sw	a5,12(s1)
    3ba0:	00344783          	lbu	a5,3(s0)
    3ba4:	0722                	slli	a4,a4,0x8
    3ba6:	00144683          	lbu	a3,1(s0)
    3baa:	8f5d                	or	a4,a4,a5
    3bac:	00244783          	lbu	a5,2(s0)
    3bb0:	c088                	sw	a0,0(s1)
    3bb2:	c0cc                	sw	a1,4(s1)
    3bb4:	07a2                	slli	a5,a5,0x8
    3bb6:	8fd5                	or	a5,a5,a3
    3bb8:	8d99                	sub	a1,a1,a4
    3bba:	4601                	li	a2,0
    3bbc:	8d1d                	sub	a0,a0,a5
    3bbe:	ce5ff0ef          	jal	ra,38a2 <joystick_snapback_filter>
    3bc2:	00844703          	lbu	a4,8(s0)
    3bc6:	9ca1ae23          	sw	a0,-1572(gp) # 20001504 <sts_ljoy>
    3bca:	00744783          	lbu	a5,7(s0)
    3bce:	0722                	slli	a4,a4,0x8
    3bd0:	00544683          	lbu	a3,5(s0)
    3bd4:	8f5d                	or	a4,a4,a5
    3bd6:	00644783          	lbu	a5,6(s0)
    3bda:	44cc                	lw	a1,12(s1)
    3bdc:	4488                	lw	a0,8(s1)
    3bde:	07a2                	slli	a5,a5,0x8
    3be0:	8fd5                	or	a5,a5,a3
    3be2:	4605                	li	a2,1
    3be4:	8d99                	sub	a1,a1,a4
    3be6:	8d1d                	sub	a0,a0,a5
    3be8:	cbbff0ef          	jal	ra,38a2 <joystick_snapback_filter>
    3bec:	9ca1ac23          	sw	a0,-1576(gp) # 20001500 <sts_rjoy>
    3bf0:	da4fc06f          	j	194 <__riscv_restore_0>

00003bf4 <func_switch_task>:
    3bf4:	d62fc2ef          	jal	t0,156 <__riscv_save_4>
    3bf8:	9e01c783          	lbu	a5,-1568(gp) # 20001508 <top_trigger>
    3bfc:	9a018da3          	sb	zero,-1605(gp) # 200014e3 <save.8>
    3c00:	9a018d23          	sb	zero,-1606(gp) # 200014e2 <upd.7>
    3c04:	1c078963          	beqz	a5,3dd6 <func_switch_task+0x1e2>
    3c08:	450d                	li	a0,3
    3c0a:	969fd0ef          	jal	ra,1572 <button_read_raw>
    3c0e:	9e01c783          	lbu	a5,-1568(gp) # 20001508 <top_trigger>
    3c12:	1c078263          	beqz	a5,3dd6 <func_switch_task+0x1e2>
    3c16:	4521                	li	a0,8
    3c18:	95bfd0ef          	jal	ra,1572 <button_read_raw>
    3c1c:	1a050d63          	beqz	a0,3dd6 <func_switch_task+0x1e2>
    3c20:	9b91c783          	lbu	a5,-1607(gp) # 200014e1 <f1.5>
    3c24:	c78d                	beqz	a5,3c4e <func_switch_task+0x5a>
    3c26:	20002737          	lui	a4,0x20002
    3c2a:	3f070713          	addi	a4,a4,1008 # 200023f0 <user_config>
    3c2e:	00074783          	lbu	a5,0(a4)
    3c32:	0807c693          	xori	a3,a5,128
    3c36:	0806f693          	andi	a3,a3,128
    3c3a:	07f7f793          	andi	a5,a5,127
    3c3e:	8fd5                	or	a5,a5,a3
    3c40:	00f70023          	sb	a5,0(a4)
    3c44:	4785                	li	a5,1
    3c46:	9af18da3          	sb	a5,-1605(gp) # 200014e3 <save.8>
    3c4a:	9af18d23          	sb	a5,-1606(gp) # 200014e2 <upd.7>
    3c4e:	4781                	li	a5,0
    3c50:	9af18ca3          	sb	a5,-1607(gp) # 200014e1 <f1.5>
    3c54:	9e01c783          	lbu	a5,-1568(gp) # 20001508 <top_trigger>
    3c58:	18078163          	beqz	a5,3dda <func_switch_task+0x1e6>
    3c5c:	4525                	li	a0,9
    3c5e:	915fd0ef          	jal	ra,1572 <button_read_raw>
    3c62:	16050c63          	beqz	a0,3dda <func_switch_task+0x1e6>
    3c66:	9b81c783          	lbu	a5,-1608(gp) # 200014e0 <f2.4>
    3c6a:	cb9d                	beqz	a5,3ca0 <func_switch_task+0xac>
    3c6c:	200027b7          	lui	a5,0x20002
    3c70:	3f078793          	addi	a5,a5,1008 # 200023f0 <user_config>
    3c74:	0007c503          	lbu	a0,0(a5)
    3c78:	fff54713          	not	a4,a0
    3c7c:	02077713          	andi	a4,a4,32
    3c80:	fdf57513          	andi	a0,a0,-33
    3c84:	8d59                	or	a0,a0,a4
    3c86:	00a78023          	sb	a0,0(a5)
    3c8a:	8115                	srli	a0,a0,0x5
    3c8c:	00154513          	xori	a0,a0,1
    3c90:	8905                	andi	a0,a0,1
    3c92:	a09fd0ef          	jal	ra,169a <hd_rumble_set_status>
    3c96:	4785                	li	a5,1
    3c98:	9af18da3          	sb	a5,-1605(gp) # 200014e3 <save.8>
    3c9c:	9af18d23          	sb	a5,-1606(gp) # 200014e2 <upd.7>
    3ca0:	4781                	li	a5,0
    3ca2:	9af18c23          	sb	a5,-1608(gp) # 200014e0 <f2.4>
    3ca6:	9e01c783          	lbu	a5,-1568(gp) # 20001508 <top_trigger>
    3caa:	12078a63          	beqz	a5,3dde <func_switch_task+0x1ea>
    3cae:	4535                	li	a0,13
    3cb0:	8c3fd0ef          	jal	ra,1572 <button_read_raw>
    3cb4:	12050563          	beqz	a0,3dde <func_switch_task+0x1ea>
    3cb8:	9b71c783          	lbu	a5,-1609(gp) # 200014df <f3.3>
    3cbc:	c39d                	beqz	a5,3ce2 <func_switch_task+0xee>
    3cbe:	20002737          	lui	a4,0x20002
    3cc2:	3f070713          	addi	a4,a4,1008 # 200023f0 <user_config>
    3cc6:	00074783          	lbu	a5,0(a4)
    3cca:	fff7c693          	not	a3,a5
    3cce:	8a89                	andi	a3,a3,2
    3cd0:	9bf5                	andi	a5,a5,-3
    3cd2:	8fd5                	or	a5,a5,a3
    3cd4:	00f70023          	sb	a5,0(a4)
    3cd8:	4785                	li	a5,1
    3cda:	9af18da3          	sb	a5,-1605(gp) # 200014e3 <save.8>
    3cde:	9af18d23          	sb	a5,-1606(gp) # 200014e2 <upd.7>
    3ce2:	4781                	li	a5,0
    3ce4:	9af18ba3          	sb	a5,-1609(gp) # 200014df <f3.3>
    3ce8:	9e01c783          	lbu	a5,-1568(gp) # 20001508 <top_trigger>
    3cec:	0e078b63          	beqz	a5,3de2 <func_switch_task+0x1ee>
    3cf0:	4529                	li	a0,10
    3cf2:	881fd0ef          	jal	ra,1572 <button_read_raw>
    3cf6:	0e050663          	beqz	a0,3de2 <func_switch_task+0x1ee>
    3cfa:	9b61c783          	lbu	a5,-1610(gp) # 200014de <f4.2>
    3cfe:	cf85                	beqz	a5,3d36 <func_switch_task+0x142>
    3d00:	20003537          	lui	a0,0x20003
    3d04:	be855783          	lhu	a5,-1048(a0) # 20002be8 <pkt>
    3d08:	7779                	lui	a4,0xffffe
    3d0a:	08070713          	addi	a4,a4,128 # ffffe080 <_eusrstack+0xdfff9080>
    3d0e:	8ff9                	and	a5,a5,a4
    3d10:	6007e793          	ori	a5,a5,1536
    3d14:	bef51423          	sh	a5,-1048(a0)
    3d18:	9f11c783          	lbu	a5,-1551(gp) # 20001519 <force_esp32_active>
    3d1c:	be850713          	addi	a4,a0,-1048
    3d20:	be850513          	addi	a0,a0,-1048
    3d24:	0017b793          	seqz	a5,a5
    3d28:	00f701a3          	sb	a5,3(a4)
    3d2c:	31c020ef          	jal	ra,6048 <send_uart_pkt>
    3d30:	4785                	li	a5,1
    3d32:	9af18d23          	sb	a5,-1606(gp) # 200014e2 <upd.7>
    3d36:	4781                	li	a5,0
    3d38:	9af18b23          	sb	a5,-1610(gp) # 200014de <f4.2>
    3d3c:	9e01c783          	lbu	a5,-1568(gp) # 20001508 <top_trigger>
    3d40:	c3dd                	beqz	a5,3de6 <func_switch_task+0x1f2>
    3d42:	452d                	li	a0,11
    3d44:	82ffd0ef          	jal	ra,1572 <button_read_raw>
    3d48:	cd59                	beqz	a0,3de6 <func_switch_task+0x1f2>
    3d4a:	9b51c783          	lbu	a5,-1611(gp) # 200014dd <f5.1>
    3d4e:	c3a1                	beqz	a5,3d8e <func_switch_task+0x19a>
    3d50:	200025b7          	lui	a1,0x20002
    3d54:	3f058793          	addi	a5,a1,1008 # 200023f0 <user_config>
    3d58:	ffa78513          	addi	a0,a5,-6
    3d5c:	3f058593          	addi	a1,a1,1008
    3d60:	0ff00693          	li	a3,255
    3d64:	01c7c703          	lbu	a4,28(a5)
    3d68:	00170613          	addi	a2,a4,1
    3d6c:	00c78e23          	sb	a2,28(a5)
    3d70:	00d71563          	bne	a4,a3,3d7a <func_switch_task+0x186>
    3d74:	17fd                	addi	a5,a5,-1
    3d76:	fea797e3          	bne	a5,a0,3d64 <func_switch_task+0x170>
    3d7a:	20003537          	lui	a0,0x20003
    3d7e:	4619                	li	a2,6
    3d80:	05dd                	addi	a1,a1,23
    3d82:	11e50513          	addi	a0,a0,286 # 2000311e <connection_state+0x6>
    3d86:	c1afc0ef          	jal	ra,1a0 <memcpy>
    3d8a:	cf3fc0ef          	jal	ra,a7c <custom_conf_write>
    3d8e:	4781                	li	a5,0
    3d90:	9af18aa3          	sb	a5,-1611(gp) # 200014dd <f5.1>
    3d94:	9e01c783          	lbu	a5,-1568(gp) # 20001508 <top_trigger>
    3d98:	cba9                	beqz	a5,3dea <func_switch_task+0x1f6>
    3d9a:	200037b7          	lui	a5,0x20003
    3d9e:	11d7c783          	lbu	a5,285(a5) # 2000311d <connection_state+0x5>
    3da2:	e7a1                	bnez	a5,3dea <func_switch_task+0x1f6>
    3da4:	4531                	li	a0,12
    3da6:	fccfd0ef          	jal	ra,1572 <button_read_raw>
    3daa:	c121                	beqz	a0,3dea <func_switch_task+0x1f6>
    3dac:	9b41c783          	lbu	a5,-1612(gp) # 200014dc <f6.0>
    3db0:	c781                	beqz	a5,3db8 <func_switch_task+0x1c4>
    3db2:	4505                	li	a0,1
    3db4:	47a020ef          	jal	ra,622e <set_bt_connect_mode>
    3db8:	9a018a23          	sb	zero,-1612(gp) # 200014dc <f6.0>
    3dbc:	9ba1c783          	lbu	a5,-1606(gp) # 200014e2 <upd.7>
    3dc0:	c781                	beqz	a5,3dc8 <func_switch_task+0x1d4>
    3dc2:	4505                	li	a0,1
    3dc4:	051010ef          	jal	ra,5614 <flush_rgb>
    3dc8:	9bb1c783          	lbu	a5,-1605(gp) # 200014e3 <save.8>
    3dcc:	c399                	beqz	a5,3dd2 <func_switch_task+0x1de>
    3dce:	caffc0ef          	jal	ra,a7c <custom_conf_write>
    3dd2:	bb8fc06f          	j	18a <__riscv_restore_4>
    3dd6:	4785                	li	a5,1
    3dd8:	bda5                	j	3c50 <func_switch_task+0x5c>
    3dda:	4785                	li	a5,1
    3ddc:	b5d9                	j	3ca2 <func_switch_task+0xae>
    3dde:	4785                	li	a5,1
    3de0:	b711                	j	3ce4 <func_switch_task+0xf0>
    3de2:	4785                	li	a5,1
    3de4:	bf91                	j	3d38 <func_switch_task+0x144>
    3de6:	4785                	li	a5,1
    3de8:	b765                	j	3d90 <func_switch_task+0x19c>
    3dea:	4501                	li	a0,0
    3dec:	9a018a23          	sb	zero,-1612(gp) # 200014dc <f6.0>
    3df0:	43e020ef          	jal	ra,622e <set_bt_connect_mode>
    3df4:	b7e1                	j	3dbc <func_switch_task+0x1c8>

00003df6 <top_timer>:
    3df6:	b7afc2ef          	jal	t0,170 <__riscv_save_0>
    3dfa:	00020537          	lui	a0,0x20
    3dfe:	0511                	addi	a0,a0,4 # 20004 <_data_lma+0x12ff0>
    3e00:	f00fd0ef          	jal	ra,1500 <gpio_read>
    3e04:	e915                	bnez	a0,3e38 <top_timer+0x42>
    3e06:	9d41a783          	lw	a5,-1580(gp) # 200014fc <top_tick>
    3e0a:	c395                	beqz	a5,3e2e <top_timer+0x38>
    3e0c:	4b7010ef          	jal	ra,5ac2 <Get_Systick_MS>
    3e10:	9d41a783          	lw	a5,-1580(gp) # 200014fc <top_tick>
    3e14:	8d1d                	sub	a0,a0,a5
    3e16:	06400793          	li	a5,100
    3e1a:	00a7f863          	bgeu	a5,a0,3e2a <top_timer+0x34>
    3e1e:	4705                	li	a4,1
    3e20:	4505                	li	a0,1
    3e22:	9ee18023          	sb	a4,-1568(gp) # 20001508 <top_trigger>
    3e26:	1d7010ef          	jal	ra,57fc <set_indicate_led_mode>
    3e2a:	b6afc06f          	j	194 <__riscv_restore_0>
    3e2e:	495010ef          	jal	ra,5ac2 <Get_Systick_MS>
    3e32:	9ca1aa23          	sw	a0,-1580(gp) # 200014fc <top_tick>
    3e36:	bfd5                	j	3e2a <top_timer+0x34>
    3e38:	9e01c783          	lbu	a5,-1568(gp) # 20001508 <top_trigger>
    3e3c:	d7fd                	beqz	a5,3e2a <top_timer+0x34>
    3e3e:	4501                	li	a0,0
    3e40:	1bd010ef          	jal	ra,57fc <set_indicate_led_mode>
    3e44:	9e018023          	sb	zero,-1568(gp) # 20001508 <top_trigger>
    3e48:	9c01aa23          	sw	zero,-1580(gp) # 200014fc <top_tick>
    3e4c:	bff9                	j	3e2a <top_timer+0x34>

00003e4e <routine_service>:
    3e4e:	b22fc2ef          	jal	t0,170 <__riscv_save_0>
    3e52:	9ec1a783          	lw	a5,-1556(gp) # 20001514 <rts_cnt>
    3e56:	0785                	addi	a5,a5,1
    3e58:	9ef1a623          	sw	a5,-1556(gp) # 20001514 <rts_cnt>
    3e5c:	e781                	bnez	a5,3e64 <routine_service+0x16>
    3e5e:	4705                	li	a4,1
    3e60:	80e1ac23          	sw	a4,-2024(gp) # 20001340 <rts_tcnt>
    3e64:	45f010ef          	jal	ra,5ac2 <Get_Systick_MS>
    3e68:	9d01a783          	lw	a5,-1584(gp) # 200014f8 <routine_tick>
    3e6c:	02f50063          	beq	a0,a5,3e8c <routine_service+0x3e>
    3e70:	453010ef          	jal	ra,5ac2 <Get_Systick_MS>
    3e74:	8181a783          	lw	a5,-2024(gp) # 20001340 <rts_tcnt>
    3e78:	9d01a683          	lw	a3,-1584(gp) # 200014f8 <routine_tick>
    3e7c:	8f95                	sub	a5,a5,a3
    3e7e:	97aa                	add	a5,a5,a0
    3e80:	80f1ac23          	sw	a5,-2024(gp) # 20001340 <rts_tcnt>
    3e84:	43f010ef          	jal	ra,5ac2 <Get_Systick_MS>
    3e88:	9ca1a823          	sw	a0,-1584(gp) # 200014f8 <routine_tick>
    3e8c:	f6bff0ef          	jal	ra,3df6 <top_timer>
    3e90:	9b6fe0ef          	jal	ra,2046 <push_waveform_into_buffer_task>
    3e94:	faffe0ef          	jal	ra,2e42 <imu_upd>
    3e98:	d5dff0ef          	jal	ra,3bf4 <func_switch_task>
    3e9c:	200037b7          	lui	a5,0x20003
    3ea0:	11d7c503          	lbu	a0,285(a5) # 2000311d <connection_state+0x5>
    3ea4:	16d010ef          	jal	ra,5810 <indicate_rgb_task>
    3ea8:	045020ef          	jal	ra,66ec <reliable_uart_task>
    3eac:	ae8fc06f          	j	194 <__riscv_restore_0>

00003eb0 <set_peripherals_state>:
    3eb0:	ac0fc2ef          	jal	t0,170 <__riscv_save_0>
    3eb4:	842a                	mv	s0,a0
    3eb6:	85aa                	mv	a1,a0
    3eb8:	20000513          	li	a0,512
    3ebc:	1bf030ef          	jal	ra,787a <RCC_APB2PeriphClockCmd>
    3ec0:	85a2                	mv	a1,s0
    3ec2:	4505                	li	a0,1
    3ec4:	199030ef          	jal	ra,785c <RCC_AHBPeriphClockCmd>
    3ec8:	85a2                	mv	a1,s0
    3eca:	4505                	li	a0,1
    3ecc:	1cd030ef          	jal	ra,7898 <RCC_APB1PeriphClockCmd>
    3ed0:	85a2                	mv	a1,s0
    3ed2:	4509                	li	a0,2
    3ed4:	1c5030ef          	jal	ra,7898 <RCC_APB1PeriphClockCmd>
    3ed8:	85a2                	mv	a1,s0
    3eda:	6505                	lui	a0,0x1
    3edc:	19f030ef          	jal	ra,787a <RCC_APB2PeriphClockCmd>
    3ee0:	85a2                	mv	a1,s0
    3ee2:	6511                	lui	a0,0x4
    3ee4:	197030ef          	jal	ra,787a <RCC_APB2PeriphClockCmd>
    3ee8:	400204b7          	lui	s1,0x40020
    3eec:	85a2                	mv	a1,s0
    3eee:	04448513          	addi	a0,s1,68 # 40020044 <_eusrstack+0x2001b044>
    3ef2:	08c030ef          	jal	ra,6f7e <DMA_Cmd>
    3ef6:	85a2                	mv	a1,s0
    3ef8:	05848513          	addi	a0,s1,88
    3efc:	082030ef          	jal	ra,6f7e <DMA_Cmd>
    3f00:	85a2                	mv	a1,s0
    3f02:	00848513          	addi	a0,s1,8
    3f06:	078030ef          	jal	ra,6f7e <DMA_Cmd>
    3f0a:	85a2                	mv	a1,s0
    3f0c:	40000537          	lui	a0,0x40000
    3f10:	447030ef          	jal	ra,7b56 <TIM_Cmd>
    3f14:	40000537          	lui	a0,0x40000
    3f18:	85a2                	mv	a1,s0
    3f1a:	40050513          	addi	a0,a0,1024 # 40000400 <_eusrstack+0x1fffb400>
    3f1e:	439030ef          	jal	ra,7b56 <TIM_Cmd>
    3f22:	400144b7          	lui	s1,0x40014
    3f26:	85a2                	mv	a1,s0
    3f28:	80048513          	addi	a0,s1,-2048 # 40013800 <_eusrstack+0x2000e800>
    3f2c:	5a5030ef          	jal	ra,7cd0 <USART_Cmd>
    3f30:	8622                	mv	a2,s0
    3f32:	04000593          	li	a1,64
    3f36:	80048513          	addi	a0,s1,-2048
    3f3a:	5af030ef          	jal	ra,7ce8 <USART_DMACmd>
    3f3e:	a56fc06f          	j	194 <__riscv_restore_0>

00003f42 <init_all>:
    3f42:	a2efc2ef          	jal	t0,170 <__riscv_save_0>
    3f46:	40021737          	lui	a4,0x40021
    3f4a:	431c                	lw	a5,0(a4)
    3f4c:	000806b7          	lui	a3,0x80
    3f50:	1101                	addi	sp,sp,-32
    3f52:	8fd5                	or	a5,a5,a3
    3f54:	c31c                	sw	a5,0(a4)
    3f56:	4505                	li	a0,1
    3f58:	041030ef          	jal	ra,7798 <RCC_LSICmd>
    3f5c:	6571                	lui	a0,0x1c
    3f5e:	20050513          	addi	a0,a0,512 # 1c200 <_data_lma+0xf1ec>
    3f62:	5b7030ef          	jal	ra,7d18 <USART_printf_Init>
    3f66:	20003537          	lui	a0,0x20003
    3f6a:	02500613          	li	a2,37
    3f6e:	4581                	li	a1,0
    3f70:	11850513          	addi	a0,a0,280 # 20003118 <connection_state>
    3f74:	a42fc0ef          	jal	ra,1b6 <memset>
    3f78:	6535                	lui	a0,0xd
    3f7a:	b2450513          	addi	a0,a0,-1244 # cb24 <exp2_lookup_tb+0x500>
    3f7e:	120070ef          	jal	ra,b09e <puts>
    3f82:	4585                	li	a1,1
    3f84:	4571                	li	a0,28
    3f86:	0f5030ef          	jal	ra,787a <RCC_APB2PeriphClockCmd>
    3f8a:	4585                	li	a1,1
    3f8c:	20000513          	li	a0,512
    3f90:	0eb030ef          	jal	ra,787a <RCC_APB2PeriphClockCmd>
    3f94:	4585                	li	a1,1
    3f96:	4505                	li	a0,1
    3f98:	0c5030ef          	jal	ra,785c <RCC_AHBPeriphClockCmd>
    3f9c:	4585                	li	a1,1
    3f9e:	4505                	li	a0,1
    3fa0:	0f9030ef          	jal	ra,7898 <RCC_APB1PeriphClockCmd>
    3fa4:	4585                	li	a1,1
    3fa6:	4509                	li	a0,2
    3fa8:	0f1030ef          	jal	ra,7898 <RCC_APB1PeriphClockCmd>
    3fac:	4585                	li	a1,1
    3fae:	6505                	lui	a0,0x1
    3fb0:	0cb030ef          	jal	ra,787a <RCC_APB2PeriphClockCmd>
    3fb4:	4585                	li	a1,1
    3fb6:	6511                	lui	a0,0x4
    3fb8:	0c3030ef          	jal	ra,787a <RCC_APB2PeriphClockCmd>
    3fbc:	30d010ef          	jal	ra,5ac8 <HighPrecisionTimer_Init>
    3fc0:	2d9010ef          	jal	ra,5a98 <SysTick_Init>
    3fc4:	4529                	li	a0,10
    3fc6:	375010ef          	jal	ra,5b3a <Delay_Ms>
    3fca:	6ec020ef          	jal	ra,66b6 <reliable_uart_init>
    3fce:	b6ffc0ef          	jal	ra,b3c <conf_init>
    3fd2:	0068                	addi	a0,sp,12
    3fd4:	7d8030ef          	jal	ra,77ac <RCC_GetClocksFreq>
    3fd8:	be4fd0ef          	jal	ra,13bc <gpio_init>
    3fdc:	477010ef          	jal	ra,5c52 <UART1_Init>
    3fe0:	3c5010ef          	jal	ra,5ba4 <UART1_DMA_Init>
    3fe4:	96efd0ef          	jal	ra,1152 <adc_init>
    3fe8:	308020ef          	jal	ra,62f0 <wake_esp32>
    3fec:	0a8010ef          	jal	ra,5094 <top_init>
    3ff0:	638010ef          	jal	ra,5628 <spi_init>
    3ff4:	c85fe0ef          	jal	ra,2c78 <i2c_init>
    3ff8:	e49fe0ef          	jal	ra,2e40 <imu_init>
    3ffc:	d8bfe0ef          	jal	ra,2d86 <set_imu_awake>
    4000:	ab1fc0ef          	jal	ra,ab0 <conf_flush>
    4004:	9eefc0ef          	jal	ra,1f2 <USBFS_RCC_Init>
    4008:	704030ef          	jal	ra,770c <PWR_VDD_SupplyVoltage>
    400c:	85aa                	mv	a1,a0
    400e:	4505                	li	a0,1
    4010:	8dbfc0ef          	jal	ra,8ea <USBFS_Device_Init>
    4014:	6105                	addi	sp,sp,32
    4016:	97efc06f          	j	194 <__riscv_restore_0>

0000401a <main>:
    401a:	93cfc2ef          	jal	t0,156 <__riscv_save_4>
    401e:	4505                	li	a0,1
    4020:	63c030ef          	jal	ra,765c <NVIC_PriorityGroupConfig>
    4024:	16b010ef          	jal	ra,598e <SystemCoreClockUpdate>
    4028:	f1bff0ef          	jal	ra,3f42 <init_all>
    402c:	8241a583          	lw	a1,-2012(gp) # 2000134c <SystemCoreClock>
    4030:	6535                	lui	a0,0xd
    4032:	b3850513          	addi	a0,a0,-1224 # cb38 <exp2_lookup_tb+0x514>
    4036:	721060ef          	jal	ra,af56 <iprintf>
    403a:	4531                	li	a0,12
    403c:	cc4fd0ef          	jal	ra,1500 <gpio_read>
    4040:	9ea18823          	sb	a0,-1552(gp) # 20001518 <is_rumble_start>
    4044:	74b000ef          	jal	ra,4f8e <ns_mux_init>
    4048:	6511                	lui	a0,0x4
    404a:	89a50513          	addi	a0,a0,-1894 # 389a <get_peripheral_data_handler>
    404e:	057020ef          	jal	ra,68a4 <ns_set_peripheral_data_getter>
    4052:	12d020ef          	jal	ra,697e <hid_init>
    4056:	4501                	li	a0,0
    4058:	20003437          	lui	s0,0x20003
    405c:	d28fd0ef          	jal	ra,1584 <hd_rumble_init>
    4060:	200044b7          	lui	s1,0x20004
    4064:	11840413          	addi	s0,s0,280 # 20003118 <connection_state>
    4068:	4985                	li	s3,1
    406a:	6a3010ef          	jal	ra,5f0c <UART1_Rx_Service>
    406e:	b03ff0ef          	jal	ra,3b70 <joystick_debounce_task>
    4072:	21048513          	addi	a0,s1,528 # 20004210 <global_input_data>
    4076:	f56ff0ef          	jal	ra,37cc <get_peripheral_data_handler.part.0>
    407a:	8b21c783          	lbu	a5,-1870(gp) # 200013da <USBFS_DevEnumStatus>
    407e:	cf91                	beqz	a5,409a <main+0x80>
    4080:	01340223          	sb	s3,4(s0)
    4084:	1f5020ef          	jal	ra,6a78 <hid_rx_service>
    4088:	105020ef          	jal	ra,698c <hid_tx_service>
    408c:	7b8020ef          	jal	ra,6844 <uart_com_task>
    4090:	4e9010ef          	jal	ra,5d78 <UART1_Tx_Service>
    4094:	dbbff0ef          	jal	ra,3e4e <routine_service>
    4098:	bfc9                	j	406a <main+0x50>
    409a:	000402a3          	sb	zero,5(s0)
    409e:	00040223          	sb	zero,4(s0)
    40a2:	b7ed                	j	408c <main+0x72>

000040a4 <ns_subcommand_set_hci_state>:
    40a4:	8082                	ret

000040a6 <ns_subcommand_set_imu_register>:
    40a6:	00d54583          	lbu	a1,13(a0)
    40aa:	00b54503          	lbu	a0,11(a0)
    40ae:	0ff00613          	li	a2,255
    40b2:	bd7fe06f          	j	2c88 <imu_set_reg>

000040b6 <ns_subcommand_reset_mcu>:
    40b6:	8082                	ret

000040b8 <ns_subcommand_set_home_led>:
    40b8:	8082                	ret

000040ba <ns_subcommand_reset_pairing_info>:
    40ba:	8082                	ret

000040bc <pkt_clr>:
    40bc:	200037b7          	lui	a5,0x20003
    40c0:	c3878793          	addi	a5,a5,-968 # 20002c38 <pkt>
    40c4:	0207a623          	sw	zero,44(a5)
    40c8:	02079423          	sh	zero,40(a5)
    40cc:	0207a223          	sw	zero,36(a5)
    40d0:	8082                	ret

000040d2 <ns_subcommand_set_mcu_conf>:
    40d2:	89efc2ef          	jal	t0,170 <__riscv_save_0>
    40d6:	20003437          	lui	s0,0x20003
    40da:	84aa                	mv	s1,a0
    40dc:	fe1ff0ef          	jal	ra,40bc <pkt_clr>
    40e0:	c3840913          	addi	s2,s0,-968 # 20002c38 <pkt>
    40e4:	6789                	lui	a5,0x2
    40e6:	1a078793          	addi	a5,a5,416 # 21a0 <rumble_pattern_check+0xe>
    40ea:	02200613          	li	a2,34
    40ee:	00b48593          	addi	a1,s1,11
    40f2:	00290513          	addi	a0,s2,2
    40f6:	c2f41c23          	sh	a5,-968(s0)
    40fa:	8a6fc0ef          	jal	ra,1a0 <memcpy>
    40fe:	02400793          	li	a5,36
    4102:	c3840513          	addi	a0,s0,-968
    4106:	02f91423          	sh	a5,40(s2)
    410a:	6cf000ef          	jal	ra,4fd8 <ns_send_report>
    410e:	886fc06f          	j	194 <__riscv_restore_0>

00004112 <ns_subcommand_default>:
    4112:	85efc2ef          	jal	t0,170 <__riscv_save_0>
    4116:	842a                	mv	s0,a0
    4118:	fa5ff0ef          	jal	ra,40bc <pkt_clr>
    411c:	00a44703          	lbu	a4,10(s0)
    4120:	20003537          	lui	a0,0x20003
    4124:	c3850793          	addi	a5,a0,-968 # 20002c38 <pkt>
    4128:	f8000693          	li	a3,-128
    412c:	00e780a3          	sb	a4,1(a5)
    4130:	c3850513          	addi	a0,a0,-968
    4134:	470d                	li	a4,3
    4136:	00d78023          	sb	a3,0(a5)
    413a:	00e78123          	sb	a4,2(a5)
    413e:	02e79423          	sh	a4,40(a5)
    4142:	697000ef          	jal	ra,4fd8 <ns_send_report>
    4146:	84efc06f          	j	194 <__riscv_restore_0>

0000414a <ns_subcommand_pair_by_wire>:
    414a:	80cfc2ef          	jal	t0,156 <__riscv_save_4>
    414e:	84aa                	mv	s1,a0
    4150:	f6dff0ef          	jal	ra,40bc <pkt_clr>
    4154:	00a4c703          	lbu	a4,10(s1)
    4158:	00b4c983          	lbu	s3,11(s1)
    415c:	20003a37          	lui	s4,0x20003
    4160:	c38a0793          	addi	a5,s4,-968 # 20002c38 <pkt>
    4164:	f8100693          	li	a3,-127
    4168:	00d78023          	sb	a3,0(a5)
    416c:	00e780a3          	sb	a4,1(a5)
    4170:	01378123          	sb	s3,2(a5)
    4174:	4785                	li	a5,1
    4176:	c38a0913          	addi	s2,s4,-968
    417a:	00f98e63          	beq	s3,a5,4196 <ns_subcommand_pair_by_wire+0x4c>
    417e:	4789                	li	a5,2
    4180:	04f98a63          	beq	s3,a5,41d4 <ns_subcommand_pair_by_wire+0x8a>
    4184:	478d                	li	a5,3
    4186:	c38a0513          	addi	a0,s4,-968
    418a:	02f91423          	sh	a5,40(s2)
    418e:	64b000ef          	jal	ra,4fd8 <ns_send_report>
    4192:	ff9fb06f          	j	18a <__riscv_restore_4>
    4196:	20003437          	lui	s0,0x20003
    419a:	11840413          	addi	s0,s0,280 # 20003118 <connection_state>
    419e:	4619                	li	a2,6
    41a0:	00c48593          	addi	a1,s1,12
    41a4:	00c40513          	addi	a0,s0,12
    41a8:	ff9fb0ef          	jal	ra,1a0 <memcpy>
    41ac:	4619                	li	a2,6
    41ae:	00640593          	addi	a1,s0,6
    41b2:	00390513          	addi	a0,s2,3
    41b6:	013409a3          	sb	s3,19(s0)
    41ba:	fe7fb0ef          	jal	ra,1a0 <memcpy>
    41be:	65b1                	lui	a1,0xc
    41c0:	4661                	li	a2,24
    41c2:	2a058593          	addi	a1,a1,672 # c2a0 <_read+0xc>
    41c6:	00990513          	addi	a0,s2,9
    41ca:	fd7fb0ef          	jal	ra,1a0 <memcpy>
    41ce:	02100793          	li	a5,33
    41d2:	bf55                	j	4186 <ns_subcommand_pair_by_wire+0x3c>
    41d4:	200035b7          	lui	a1,0x20003
    41d8:	4641                	li	a2,16
    41da:	12c58593          	addi	a1,a1,300 # 2000312c <connection_state+0x14>
    41de:	00390513          	addi	a0,s2,3
    41e2:	fbffb0ef          	jal	ra,1a0 <memcpy>
    41e6:	47cd                	li	a5,19
    41e8:	bf79                	j	4186 <ns_subcommand_pair_by_wire+0x3c>

000041ea <ns_subcommand_get_device_info>:
    41ea:	f87fb2ef          	jal	t0,170 <__riscv_save_0>
    41ee:	842a                	mv	s0,a0
    41f0:	ecdff0ef          	jal	ra,40bc <pkt_clr>
    41f4:	200027b7          	lui	a5,0x20002
    41f8:	4107c783          	lbu	a5,1040(a5) # 20002410 <user_config+0x20>
    41fc:	cfad                	beqz	a5,4276 <ns_subcommand_get_device_info+0x8c>
    41fe:	4705                	li	a4,1
    4200:	06e78f63          	beq	a5,a4,427e <ns_subcommand_get_device_info+0x94>
    4204:	470d                	li	a4,3
    4206:	04900793          	li	a5,73
    420a:	200015b7          	lui	a1,0x20001
    420e:	26c58693          	addi	a3,a1,620 # 2000126c <default_device_info>
    4212:	00e68023          	sb	a4,0(a3) # 80000 <_data_lma+0x72fec>
    4216:	00a44703          	lbu	a4,10(s0)
    421a:	20003437          	lui	s0,0x20003
    421e:	00f680a3          	sb	a5,1(a3)
    4222:	c3840793          	addi	a5,s0,-968 # 20002c38 <pkt>
    4226:	f8200693          	li	a3,-126
    422a:	00d78023          	sb	a3,0(a5)
    422e:	00e780a3          	sb	a4,1(a5)
    4232:	200037b7          	lui	a5,0x20003
    4236:	11878793          	addi	a5,a5,280 # 20003118 <connection_state>
    423a:	26c58713          	addi	a4,a1,620
    423e:	ffa78693          	addi	a3,a5,-6
    4242:	c3840493          	addi	s1,s0,-968
    4246:	00b7c603          	lbu	a2,11(a5)
    424a:	17fd                	addi	a5,a5,-1
    424c:	0705                	addi	a4,a4,1 # 40021001 <_eusrstack+0x2001c001>
    424e:	00c701a3          	sb	a2,3(a4)
    4252:	fed79ae3          	bne	a5,a3,4246 <ns_subcommand_get_device_info+0x5c>
    4256:	4631                	li	a2,12
    4258:	26c58593          	addi	a1,a1,620
    425c:	00248513          	addi	a0,s1,2
    4260:	f41fb0ef          	jal	ra,1a0 <memcpy>
    4264:	47b9                	li	a5,14
    4266:	c3840513          	addi	a0,s0,-968
    426a:	02f49423          	sh	a5,40(s1)
    426e:	56b000ef          	jal	ra,4fd8 <ns_send_report>
    4272:	f23fb06f          	j	194 <__riscv_restore_0>
    4276:	470d                	li	a4,3
    4278:	04800793          	li	a5,72
    427c:	b779                	j	420a <ns_subcommand_get_device_info+0x20>
    427e:	4711                	li	a4,4
    4280:	03300793          	li	a5,51
    4284:	b759                	j	420a <ns_subcommand_get_device_info+0x20>

00004286 <ns_subcommand_set_input_mode>:
    4286:	eebfb2ef          	jal	t0,170 <__riscv_save_0>
    428a:	842a                	mv	s0,a0
    428c:	e31ff0ef          	jal	ra,40bc <pkt_clr>
    4290:	00b44703          	lbu	a4,11(s0)
    4294:	468d                	li	a3,3
    4296:	fd070793          	addi	a5,a4,-48
    429a:	0ff7f793          	zext.b	a5,a5
    429e:	00f6e463          	bltu	a3,a5,42a6 <ns_subcommand_set_input_mode+0x20>
    42a2:	80e18aa3          	sb	a4,-2027(gp) # 2000133d <input_mode>
    42a6:	00a44703          	lbu	a4,10(s0)
    42aa:	20003537          	lui	a0,0x20003
    42ae:	c3850793          	addi	a5,a0,-968 # 20002c38 <pkt>
    42b2:	f8000693          	li	a3,-128
    42b6:	00e780a3          	sb	a4,1(a5)
    42ba:	c3850513          	addi	a0,a0,-968
    42be:	4709                	li	a4,2
    42c0:	00d78023          	sb	a3,0(a5)
    42c4:	02e79423          	sh	a4,40(a5)
    42c8:	511000ef          	jal	ra,4fd8 <ns_send_report>
    42cc:	ec9fb06f          	j	194 <__riscv_restore_0>

000042d0 <ns_subcommand_trigger_buttons_elapsed_time>:
    42d0:	ea1fb2ef          	jal	t0,170 <__riscv_save_0>
    42d4:	842a                	mv	s0,a0
    42d6:	de7ff0ef          	jal	ra,40bc <pkt_clr>
    42da:	00a44783          	lbu	a5,10(s0)
    42de:	200034b7          	lui	s1,0x20003
    42e2:	c3848413          	addi	s0,s1,-968 # 20002c38 <pkt>
    42e6:	200015b7          	lui	a1,0x20001
    42ea:	f8300713          	li	a4,-125
    42ee:	4639                	li	a2,14
    42f0:	25c58593          	addi	a1,a1,604 # 2000125c <default_et>
    42f4:	00240513          	addi	a0,s0,2
    42f8:	00e40023          	sb	a4,0(s0)
    42fc:	00f400a3          	sb	a5,1(s0)
    4300:	ea1fb0ef          	jal	ra,1a0 <memcpy>
    4304:	47c1                	li	a5,16
    4306:	c3848513          	addi	a0,s1,-968
    430a:	02f41423          	sh	a5,40(s0)
    430e:	4cb000ef          	jal	ra,4fd8 <ns_send_report>
    4312:	e83fb06f          	j	194 <__riscv_restore_0>

00004316 <ns_subcommand_get_page_list_state>:
    4316:	e5bfb2ef          	jal	t0,170 <__riscv_save_0>
    431a:	842a                	mv	s0,a0
    431c:	da1ff0ef          	jal	ra,40bc <pkt_clr>
    4320:	00a44703          	lbu	a4,10(s0)
    4324:	20003537          	lui	a0,0x20003
    4328:	c3850793          	addi	a5,a0,-968 # 20002c38 <pkt>
    432c:	00e780a3          	sb	a4,1(a5)
    4330:	4705                	li	a4,1
    4332:	f8000693          	li	a3,-128
    4336:	00e78123          	sb	a4,2(a5)
    433a:	c3850513          	addi	a0,a0,-968
    433e:	470d                	li	a4,3
    4340:	00d78023          	sb	a3,0(a5)
    4344:	02e79423          	sh	a4,40(a5)
    4348:	491000ef          	jal	ra,4fd8 <ns_send_report>
    434c:	e49fb06f          	j	194 <__riscv_restore_0>

00004350 <ns_subcommand_set_shipping_mode>:
    4350:	e21fb2ef          	jal	t0,170 <__riscv_save_0>
    4354:	842a                	mv	s0,a0
    4356:	d67ff0ef          	jal	ra,40bc <pkt_clr>
    435a:	00a44703          	lbu	a4,10(s0)
    435e:	20003537          	lui	a0,0x20003
    4362:	c3850793          	addi	a5,a0,-968 # 20002c38 <pkt>
    4366:	f8000693          	li	a3,-128
    436a:	00e780a3          	sb	a4,1(a5)
    436e:	c3850513          	addi	a0,a0,-968
    4372:	470d                	li	a4,3
    4374:	00d78023          	sb	a3,0(a5)
    4378:	00078123          	sb	zero,2(a5)
    437c:	02e79423          	sh	a4,40(a5)
    4380:	459000ef          	jal	ra,4fd8 <ns_send_report>
    4384:	e11fb06f          	j	194 <__riscv_restore_0>

00004388 <ns_subcommand_spi_erase>:
    4388:	fc9ff06f          	j	4350 <ns_subcommand_set_shipping_mode>

0000438c <ns_subcommand_enable_mcu_polling>:
    438c:	fc5ff06f          	j	4350 <ns_subcommand_set_shipping_mode>

00004390 <ns_subcommand_disable_mcu_polling>:
    4390:	fc1ff06f          	j	4350 <ns_subcommand_set_shipping_mode>

00004394 <ns_subcommand_spi_read>:
    4394:	dc3fb2ef          	jal	t0,156 <__riscv_save_4>
    4398:	1141                	addi	sp,sp,-16
    439a:	84aa                	mv	s1,a0
    439c:	d21ff0ef          	jal	ra,40bc <pkt_clr>
    43a0:	00b48593          	addi	a1,s1,11
    43a4:	852e                	mv	a0,a1
    43a6:	c62e                	sw	a1,12(sp)
    43a8:	c79fc0ef          	jal	ra,1020 <fetch_uint32>
    43ac:	00f4c783          	lbu	a5,15(s1)
    43b0:	4775                	li	a4,29
    43b2:	45b2                	lw	a1,12(sp)
    43b4:	892a                	mv	s2,a0
    43b6:	4475                	li	s0,29
    43b8:	00f76463          	bltu	a4,a5,43c0 <ns_subcommand_spi_read+0x2c>
    43bc:	0ff7f413          	zext.b	s0,a5
    43c0:	00a4c783          	lbu	a5,10(s1)
    43c4:	200039b7          	lui	s3,0x20003
    43c8:	20003537          	lui	a0,0x20003
    43cc:	f9000713          	li	a4,-112
    43d0:	c3898493          	addi	s1,s3,-968 # 20002c38 <pkt>
    43d4:	4615                	li	a2,5
    43d6:	c3a50513          	addi	a0,a0,-966 # 20002c3a <pkt+0x2>
    43da:	00e48023          	sb	a4,0(s1)
    43de:	00f480a3          	sb	a5,1(s1)
    43e2:	dbffb0ef          	jal	ra,1a0 <memcpy>
    43e6:	200035b7          	lui	a1,0x20003
    43ea:	8622                	mv	a2,s0
    43ec:	c3f58593          	addi	a1,a1,-961 # 20002c3f <pkt+0x7>
    43f0:	854a                	mv	a0,s2
    43f2:	dfefc0ef          	jal	ra,9f0 <conf_read>
    43f6:	041d                	addi	s0,s0,7
    43f8:	0ff47413          	zext.b	s0,s0
    43fc:	c3898513          	addi	a0,s3,-968
    4400:	02849423          	sh	s0,40(s1)
    4404:	3d5000ef          	jal	ra,4fd8 <ns_send_report>
    4408:	0141                	addi	sp,sp,16
    440a:	d81fb06f          	j	18a <__riscv_restore_4>

0000440e <ns_subcommand_spi_write>:
    440e:	d63fb2ef          	jal	t0,170 <__riscv_save_0>
    4412:	1141                	addi	sp,sp,-16
    4414:	842a                	mv	s0,a0
    4416:	ca7ff0ef          	jal	ra,40bc <pkt_clr>
    441a:	00b40513          	addi	a0,s0,11
    441e:	c03fc0ef          	jal	ra,1020 <fetch_uint32>
    4422:	00f44603          	lbu	a2,15(s0)
    4426:	01040593          	addi	a1,s0,16
    442a:	4685                	li	a3,1
    442c:	84aa                	mv	s1,a0
    442e:	c632                	sw	a2,12(sp)
    4430:	c42e                	sw	a1,8(sp)
    4432:	a39fc0ef          	jal	ra,e6a <conf_write>
    4436:	4632                	lw	a2,12(sp)
    4438:	45a2                	lw	a1,8(sp)
    443a:	8526                	mv	a0,s1
    443c:	51d010ef          	jal	ra,6158 <uart_conf_write>
    4440:	00a44703          	lbu	a4,10(s0)
    4444:	20003537          	lui	a0,0x20003
    4448:	c3850793          	addi	a5,a0,-968 # 20002c38 <pkt>
    444c:	f8000693          	li	a3,-128
    4450:	00e780a3          	sb	a4,1(a5)
    4454:	c3850513          	addi	a0,a0,-968
    4458:	470d                	li	a4,3
    445a:	00d78023          	sb	a3,0(a5)
    445e:	00078123          	sb	zero,2(a5)
    4462:	02e79423          	sh	a4,40(a5)
    4466:	373000ef          	jal	ra,4fd8 <ns_send_report>
    446a:	0141                	addi	sp,sp,16
    446c:	d29fb06f          	j	194 <__riscv_restore_0>

00004470 <ns_subcommand_set_mcu_state>:
    4470:	d01fb2ef          	jal	t0,170 <__riscv_save_0>
    4474:	842a                	mv	s0,a0
    4476:	c47ff0ef          	jal	ra,40bc <pkt_clr>
    447a:	00a44703          	lbu	a4,10(s0)
    447e:	20003537          	lui	a0,0x20003
    4482:	c3850793          	addi	a5,a0,-968 # 20002c38 <pkt>
    4486:	f8000693          	li	a3,-128
    448a:	00e780a3          	sb	a4,1(a5)
    448e:	c3850513          	addi	a0,a0,-968
    4492:	4709                	li	a4,2
    4494:	00d78023          	sb	a3,0(a5)
    4498:	02e79423          	sh	a4,40(a5)
    449c:	33d000ef          	jal	ra,4fd8 <ns_send_report>
    44a0:	cf5fb06f          	j	194 <__riscv_restore_0>

000044a4 <ns_subcommand_attachmend_write>:
    44a4:	fcdff06f          	j	4470 <ns_subcommand_set_mcu_state>

000044a8 <ns_subcommand_write_charge_setting>:
    44a8:	fc9ff06f          	j	4470 <ns_subcommand_set_mcu_state>

000044ac <ns_subcommand_attachmend_read>:
    44ac:	cc5fb2ef          	jal	t0,170 <__riscv_save_0>
    44b0:	842a                	mv	s0,a0
    44b2:	c0bff0ef          	jal	ra,40bc <pkt_clr>
    44b6:	00a44703          	lbu	a4,10(s0)
    44ba:	20003537          	lui	a0,0x20003
    44be:	c3850793          	addi	a5,a0,-968 # 20002c38 <pkt>
    44c2:	f8000693          	li	a3,-128
    44c6:	00e780a3          	sb	a4,1(a5)
    44ca:	c3850513          	addi	a0,a0,-968
    44ce:	02400713          	li	a4,36
    44d2:	00d78023          	sb	a3,0(a5)
    44d6:	02e79423          	sh	a4,40(a5)
    44da:	2ff000ef          	jal	ra,4fd8 <ns_send_report>
    44de:	cb7fb06f          	j	194 <__riscv_restore_0>

000044e2 <ns_subcommand_attachment_state>:
    44e2:	c8ffb2ef          	jal	t0,170 <__riscv_save_0>
    44e6:	842a                	mv	s0,a0
    44e8:	bd5ff0ef          	jal	ra,40bc <pkt_clr>
    44ec:	00a44703          	lbu	a4,10(s0)
    44f0:	20003537          	lui	a0,0x20003
    44f4:	c3850793          	addi	a5,a0,-968 # 20002c38 <pkt>
    44f8:	00e780a3          	sb	a4,1(a5)
    44fc:	c3850513          	addi	a0,a0,-968
    4500:	4709                	li	a4,2
    4502:	00078023          	sb	zero,0(a5)
    4506:	02e79423          	sh	a4,40(a5)
    450a:	2cf000ef          	jal	ra,4fd8 <ns_send_report>
    450e:	c87fb06f          	j	194 <__riscv_restore_0>

00004512 <ns_subcommand_get_attachment_info>:
    4512:	c5ffb2ef          	jal	t0,170 <__riscv_save_0>
    4516:	842a                	mv	s0,a0
    4518:	ba5ff0ef          	jal	ra,40bc <pkt_clr>
    451c:	00a44703          	lbu	a4,10(s0)
    4520:	20003537          	lui	a0,0x20003
    4524:	c3850793          	addi	a5,a0,-968 # 20002c38 <pkt>
    4528:	f8000693          	li	a3,-128
    452c:	00e780a3          	sb	a4,1(a5)
    4530:	c3850513          	addi	a0,a0,-968
    4534:	4759                	li	a4,22
    4536:	00d78023          	sb	a3,0(a5)
    453a:	02e79423          	sh	a4,40(a5)
    453e:	29b000ef          	jal	ra,4fd8 <ns_send_report>
    4542:	c53fb06f          	j	194 <__riscv_restore_0>

00004546 <ns_subcommand_set_indicate_led>:
    4546:	c2bfb2ef          	jal	t0,170 <__riscv_save_0>
    454a:	842a                	mv	s0,a0
    454c:	b71ff0ef          	jal	ra,40bc <pkt_clr>
    4550:	00b44503          	lbu	a0,11(s0)
    4554:	9ea184a3          	sb	a0,-1559(gp) # 20001511 <indicate_led_status>
    4558:	298010ef          	jal	ra,57f0 <set_indicate_led_status>
    455c:	00a44703          	lbu	a4,10(s0)
    4560:	20003537          	lui	a0,0x20003
    4564:	c3850793          	addi	a5,a0,-968 # 20002c38 <pkt>
    4568:	f8000693          	li	a3,-128
    456c:	00e780a3          	sb	a4,1(a5)
    4570:	c3850513          	addi	a0,a0,-968
    4574:	4709                	li	a4,2
    4576:	00d78023          	sb	a3,0(a5)
    457a:	02e79423          	sh	a4,40(a5)
    457e:	25b000ef          	jal	ra,4fd8 <ns_send_report>
    4582:	200037b7          	lui	a5,0x20003
    4586:	4705                	li	a4,1
    4588:	10e78ea3          	sb	a4,285(a5) # 2000311d <connection_state+0x5>
    458c:	c09fb06f          	j	194 <__riscv_restore_0>

00004590 <ns_subcommand_get_indicate_led>:
    4590:	be1fb2ef          	jal	t0,170 <__riscv_save_0>
    4594:	842a                	mv	s0,a0
    4596:	b27ff0ef          	jal	ra,40bc <pkt_clr>
    459a:	00a44703          	lbu	a4,10(s0)
    459e:	20003537          	lui	a0,0x20003
    45a2:	c3850793          	addi	a5,a0,-968 # 20002c38 <pkt>
    45a6:	00e780a3          	sb	a4,1(a5)
    45aa:	9e91c703          	lbu	a4,-1559(gp) # 20001511 <indicate_led_status>
    45ae:	fb000693          	li	a3,-80
    45b2:	c3850513          	addi	a0,a0,-968
    45b6:	00e78123          	sb	a4,2(a5)
    45ba:	470d                	li	a4,3
    45bc:	00d78023          	sb	a3,0(a5)
    45c0:	02e79423          	sh	a4,40(a5)
    45c4:	215000ef          	jal	ra,4fd8 <ns_send_report>
    45c8:	bcdfb06f          	j	194 <__riscv_restore_0>

000045cc <ns_subcommand_set_imu_state>:
    45cc:	ba5fb2ef          	jal	t0,170 <__riscv_save_0>
    45d0:	842a                	mv	s0,a0
    45d2:	aebff0ef          	jal	ra,40bc <pkt_clr>
    45d6:	00b44783          	lbu	a5,11(s0)
    45da:	20003537          	lui	a0,0x20003
    45de:	9ef18223          	sb	a5,-1564(gp) # 2000150c <imu_conf>
    45e2:	9af18423          	sb	a5,-1624(gp) # 200014d0 <imu_mode>
    45e6:	00a44703          	lbu	a4,10(s0)
    45ea:	c3850793          	addi	a5,a0,-968 # 20002c38 <pkt>
    45ee:	f8000693          	li	a3,-128
    45f2:	00e780a3          	sb	a4,1(a5)
    45f6:	c3850513          	addi	a0,a0,-968
    45fa:	4709                	li	a4,2
    45fc:	00d78023          	sb	a3,0(a5)
    4600:	02e79423          	sh	a4,40(a5)
    4604:	1d5000ef          	jal	ra,4fd8 <ns_send_report>
    4608:	b8dfb06f          	j	194 <__riscv_restore_0>

0000460c <ns_subcommand_set_imu_conf>:
    460c:	b65fb2ef          	jal	t0,170 <__riscv_save_0>
    4610:	200034b7          	lui	s1,0x20003
    4614:	842a                	mv	s0,a0
    4616:	aa7ff0ef          	jal	ra,40bc <pkt_clr>
    461a:	c3848793          	addi	a5,s1,-968 # 20002c38 <pkt>
    461e:	14000713          	li	a4,320
    4622:	00e79123          	sh	a4,2(a5)
    4626:	9e41c703          	lbu	a4,-1564(gp) # 2000150c <imu_conf>
    462a:	c3848913          	addi	s2,s1,-968
    462e:	9e418793          	addi	a5,gp,-1564 # 2000150c <imu_conf>
    4632:	e701                	bnez	a4,463a <ns_subcommand_set_imu_conf+0x2e>
    4634:	4705                	li	a4,1
    4636:	00e78023          	sb	a4,0(a5)
    463a:	4611                	li	a2,4
    463c:	00b40593          	addi	a1,s0,11
    4640:	00178513          	addi	a0,a5,1
    4644:	b5dfb0ef          	jal	ra,1a0 <memcpy>
    4648:	00a44783          	lbu	a5,10(s0)
    464c:	f8000713          	li	a4,-128
    4650:	c3848513          	addi	a0,s1,-968
    4654:	00f900a3          	sb	a5,1(s2)
    4658:	4789                	li	a5,2
    465a:	00e90023          	sb	a4,0(s2)
    465e:	02f91423          	sh	a5,40(s2)
    4662:	177000ef          	jal	ra,4fd8 <ns_send_report>
    4666:	b2ffb06f          	j	194 <__riscv_restore_0>

0000466a <ns_subcommand_read_imu_register>:
    466a:	b07fb2ef          	jal	t0,170 <__riscv_save_0>
    466e:	84aa                	mv	s1,a0
    4670:	a4dff0ef          	jal	ra,40bc <pkt_clr>
    4674:	00c4c703          	lbu	a4,12(s1)
    4678:	02000693          	li	a3,32
    467c:	00b4c503          	lbu	a0,11(s1)
    4680:	02000793          	li	a5,32
    4684:	00e6e363          	bltu	a3,a4,468a <ns_subcommand_read_imu_register+0x20>
    4688:	87ba                	mv	a5,a4
    468a:	00a4c703          	lbu	a4,10(s1)
    468e:	0ff7f413          	zext.b	s0,a5
    4692:	20003937          	lui	s2,0x20003
    4696:	200035b7          	lui	a1,0x20003
    469a:	c3890493          	addi	s1,s2,-968 # 20002c38 <pkt>
    469e:	fc000693          	li	a3,-64
    46a2:	8622                	mv	a2,s0
    46a4:	c3c58593          	addi	a1,a1,-964 # 20002c3c <pkt+0x4>
    46a8:	00d48023          	sb	a3,0(s1)
    46ac:	00e480a3          	sb	a4,1(s1)
    46b0:	00f481a3          	sb	a5,3(s1)
    46b4:	00a48123          	sb	a0,2(s1)
    46b8:	0411                	addi	s0,s0,4
    46ba:	bfcfe0ef          	jal	ra,2ab6 <i2c_read_continuous>
    46be:	0ff47413          	zext.b	s0,s0
    46c2:	c3890513          	addi	a0,s2,-968
    46c6:	02849423          	sh	s0,40(s1)
    46ca:	10f000ef          	jal	ra,4fd8 <ns_send_report>
    46ce:	ac7fb06f          	j	194 <__riscv_restore_0>

000046d2 <ns_subcommand_set_rumble_state>:
    46d2:	a9ffb2ef          	jal	t0,170 <__riscv_save_0>
    46d6:	842a                	mv	s0,a0
    46d8:	9e5ff0ef          	jal	ra,40bc <pkt_clr>
    46dc:	00b44703          	lbu	a4,11(s0)
    46e0:	200017b7          	lui	a5,0x20001
    46e4:	20003537          	lui	a0,0x20003
    46e8:	32e78423          	sb	a4,808(a5) # 20001328 <rumble_state>
    46ec:	00a44703          	lbu	a4,10(s0)
    46f0:	c3850793          	addi	a5,a0,-968 # 20002c38 <pkt>
    46f4:	f8000693          	li	a3,-128
    46f8:	00e780a3          	sb	a4,1(a5)
    46fc:	c3850513          	addi	a0,a0,-968
    4700:	4709                	li	a4,2
    4702:	00d78023          	sb	a3,0(a5)
    4706:	02e79423          	sh	a4,40(a5)
    470a:	0cf000ef          	jal	ra,4fd8 <ns_send_report>
    470e:	a87fb06f          	j	194 <__riscv_restore_0>

00004712 <ns_subcommand_get_battery_voltage>:
    4712:	a5ffb2ef          	jal	t0,170 <__riscv_save_0>
    4716:	842a                	mv	s0,a0
    4718:	9a5ff0ef          	jal	ra,40bc <pkt_clr>
    471c:	00a44703          	lbu	a4,10(s0)
    4720:	20003537          	lui	a0,0x20003
    4724:	c3850793          	addi	a5,a0,-968 # 20002c38 <pkt>
    4728:	00e780a3          	sb	a4,1(a5)
    472c:	61800713          	li	a4,1560
    4730:	fd000693          	li	a3,-48
    4734:	00e79123          	sh	a4,2(a5)
    4738:	c3850513          	addi	a0,a0,-968
    473c:	4711                	li	a4,4
    473e:	00d78023          	sb	a3,0(a5)
    4742:	02e79423          	sh	a4,40(a5)
    4746:	093000ef          	jal	ra,4fd8 <ns_send_report>
    474a:	a4bfb06f          	j	194 <__riscv_restore_0>

0000474e <ns_subcommand_read_charge_setting>:
    474e:	a23fb2ef          	jal	t0,170 <__riscv_save_0>
    4752:	842a                	mv	s0,a0
    4754:	969ff0ef          	jal	ra,40bc <pkt_clr>
    4758:	00a44703          	lbu	a4,10(s0)
    475c:	20003537          	lui	a0,0x20003
    4760:	c3850793          	addi	a5,a0,-968 # 20002c38 <pkt>
    4764:	00e780a3          	sb	a4,1(a5)
    4768:	4751                	li	a4,20
    476a:	fd100693          	li	a3,-47
    476e:	00e78123          	sb	a4,2(a5)
    4772:	c3850513          	addi	a0,a0,-968
    4776:	470d                	li	a4,3
    4778:	00d78023          	sb	a3,0(a5)
    477c:	02e79423          	sh	a4,40(a5)
    4780:	059000ef          	jal	ra,4fd8 <ns_send_report>
    4784:	a11fb06f          	j	194 <__riscv_restore_0>

00004788 <ns_subcommand_callback_init>:
    4788:	200037b7          	lui	a5,0x20003
    478c:	6711                	lui	a4,0x4
    478e:	c6878793          	addi	a5,a5,-920 # 20002c68 <ns_cmd_subcommand_cb_tb>
    4792:	11270713          	addi	a4,a4,274 # 4112 <ns_subcommand_default>
    4796:	c398                	sw	a4,0(a5)
    4798:	6711                	lui	a4,0x4
    479a:	14a70713          	addi	a4,a4,330 # 414a <ns_subcommand_pair_by_wire>
    479e:	c3d8                	sw	a4,4(a5)
    47a0:	6711                	lui	a4,0x4
    47a2:	1ea70713          	addi	a4,a4,490 # 41ea <ns_subcommand_get_device_info>
    47a6:	c798                	sw	a4,8(a5)
    47a8:	6711                	lui	a4,0x4
    47aa:	28670713          	addi	a4,a4,646 # 4286 <ns_subcommand_set_input_mode>
    47ae:	c7d8                	sw	a4,12(a5)
    47b0:	6711                	lui	a4,0x4
    47b2:	2d070713          	addi	a4,a4,720 # 42d0 <ns_subcommand_trigger_buttons_elapsed_time>
    47b6:	cb98                	sw	a4,16(a5)
    47b8:	6711                	lui	a4,0x4
    47ba:	31670713          	addi	a4,a4,790 # 4316 <ns_subcommand_get_page_list_state>
    47be:	cbd8                	sw	a4,20(a5)
    47c0:	6711                	lui	a4,0x4
    47c2:	0a470713          	addi	a4,a4,164 # 40a4 <ns_subcommand_set_hci_state>
    47c6:	cf98                	sw	a4,24(a5)
    47c8:	6711                	lui	a4,0x4
    47ca:	0ba70713          	addi	a4,a4,186 # 40ba <ns_subcommand_reset_pairing_info>
    47ce:	cfd8                	sw	a4,28(a5)
    47d0:	6711                	lui	a4,0x4
    47d2:	35070713          	addi	a4,a4,848 # 4350 <ns_subcommand_set_shipping_mode>
    47d6:	d398                	sw	a4,32(a5)
    47d8:	6711                	lui	a4,0x4
    47da:	39470713          	addi	a4,a4,916 # 4394 <ns_subcommand_spi_read>
    47de:	c3b8                	sw	a4,64(a5)
    47e0:	6711                	lui	a4,0x4
    47e2:	40e70713          	addi	a4,a4,1038 # 440e <ns_subcommand_spi_write>
    47e6:	c3f8                	sw	a4,68(a5)
    47e8:	6711                	lui	a4,0x4
    47ea:	38870713          	addi	a4,a4,904 # 4388 <ns_subcommand_spi_erase>
    47ee:	6691                	lui	a3,0x4
    47f0:	c7b8                	sw	a4,72(a5)
    47f2:	0b668693          	addi	a3,a3,182 # 40b6 <ns_subcommand_reset_mcu>
    47f6:	08078713          	addi	a4,a5,128
    47fa:	c314                	sw	a3,0(a4)
    47fc:	6691                	lui	a3,0x4
    47fe:	0d268693          	addi	a3,a3,210 # 40d2 <ns_subcommand_set_mcu_conf>
    4802:	c354                	sw	a3,4(a4)
    4804:	6691                	lui	a3,0x4
    4806:	47068693          	addi	a3,a3,1136 # 4470 <ns_subcommand_set_mcu_state>
    480a:	c714                	sw	a3,8(a4)
    480c:	6691                	lui	a3,0x4
    480e:	38c68693          	addi	a3,a3,908 # 438c <ns_subcommand_enable_mcu_polling>
    4812:	cb14                	sw	a3,16(a4)
    4814:	6691                	lui	a3,0x4
    4816:	39068693          	addi	a3,a3,912 # 4390 <ns_subcommand_disable_mcu_polling>
    481a:	cb54                	sw	a3,20(a4)
    481c:	6691                	lui	a3,0x4
    481e:	4a468693          	addi	a3,a3,1188 # 44a4 <ns_subcommand_attachmend_write>
    4822:	d314                	sw	a3,32(a4)
    4824:	6691                	lui	a3,0x4
    4826:	4ac68693          	addi	a3,a3,1196 # 44ac <ns_subcommand_attachmend_read>
    482a:	d354                	sw	a3,36(a4)
    482c:	6691                	lui	a3,0x4
    482e:	4e268693          	addi	a3,a3,1250 # 44e2 <ns_subcommand_attachment_state>
    4832:	d714                	sw	a3,40(a4)
    4834:	6691                	lui	a3,0x4
    4836:	51268693          	addi	a3,a3,1298 # 4512 <ns_subcommand_get_attachment_info>
    483a:	d754                	sw	a3,44(a4)
    483c:	6691                	lui	a3,0x4
    483e:	54668693          	addi	a3,a3,1350 # 4546 <ns_subcommand_set_indicate_led>
    4842:	c334                	sw	a3,64(a4)
    4844:	6691                	lui	a3,0x4
    4846:	59068693          	addi	a3,a3,1424 # 4590 <ns_subcommand_get_indicate_led>
    484a:	c374                	sw	a3,68(a4)
    484c:	6691                	lui	a3,0x4
    484e:	0b868693          	addi	a3,a3,184 # 40b8 <ns_subcommand_set_home_led>
    4852:	d334                	sw	a3,96(a4)
    4854:	6711                	lui	a4,0x4
    4856:	10078793          	addi	a5,a5,256
    485a:	5cc70713          	addi	a4,a4,1484 # 45cc <ns_subcommand_set_imu_state>
    485e:	c398                	sw	a4,0(a5)
    4860:	6711                	lui	a4,0x4
    4862:	60c70713          	addi	a4,a4,1548 # 460c <ns_subcommand_set_imu_conf>
    4866:	c3d8                	sw	a4,4(a5)
    4868:	6711                	lui	a4,0x4
    486a:	0a670713          	addi	a4,a4,166 # 40a6 <ns_subcommand_set_imu_register>
    486e:	c798                	sw	a4,8(a5)
    4870:	6711                	lui	a4,0x4
    4872:	66a70713          	addi	a4,a4,1642 # 466a <ns_subcommand_read_imu_register>
    4876:	c7d8                	sw	a4,12(a5)
    4878:	6711                	lui	a4,0x4
    487a:	6d270713          	addi	a4,a4,1746 # 46d2 <ns_subcommand_set_rumble_state>
    487e:	d398                	sw	a4,32(a5)
    4880:	6711                	lui	a4,0x4
    4882:	71270713          	addi	a4,a4,1810 # 4712 <ns_subcommand_get_battery_voltage>
    4886:	c3b8                	sw	a4,64(a5)
    4888:	6711                	lui	a4,0x4
    488a:	4a870713          	addi	a4,a4,1192 # 44a8 <ns_subcommand_write_charge_setting>
    488e:	c3f8                	sw	a4,68(a5)
    4890:	6711                	lui	a4,0x4
    4892:	74e70713          	addi	a4,a4,1870 # 474e <ns_subcommand_read_charge_setting>
    4896:	c7b8                	sw	a4,72(a5)
    4898:	8082                	ret

0000489a <ns_rumble_handler>:
    489a:	9f01c783          	lbu	a5,-1552(gp) # 20001518 <is_rumble_start>
    489e:	c799                	beqz	a5,48ac <ns_rumble_handler+0x12>
    48a0:	4108                	lw	a0,0(a0)
    48a2:	00650593          	addi	a1,a0,6
    48a6:	0509                	addi	a0,a0,2
    48a8:	bd4fd06f          	j	1c7c <decode_hd_rumble_multiformat_high_acc>
    48ac:	8082                	ret

000048ae <ns_cmd_subcommand_dispatcher>:
    48ae:	8c3fb2ef          	jal	t0,170 <__riscv_save_0>
    48b2:	842a                	mv	s0,a0
    48b4:	00444583          	lbu	a1,4(s0)
    48b8:	4108                	lw	a0,0(a0)
    48ba:	20003737          	lui	a4,0x20003
    48be:	15d1                	addi	a1,a1,-12
    48c0:	0ff5f593          	zext.b	a1,a1
    48c4:	00b40223          	sb	a1,4(s0)
    48c8:	00a54783          	lbu	a5,10(a0)
    48cc:	c6870713          	addi	a4,a4,-920 # 20002c68 <ns_cmd_subcommand_cb_tb>
    48d0:	078a                	slli	a5,a5,0x2
    48d2:	97ba                	add	a5,a5,a4
    48d4:	439c                	lw	a5,0(a5)
    48d6:	c399                	beqz	a5,48dc <ns_cmd_subcommand_dispatcher+0x2e>
    48d8:	9782                	jalr	a5
    48da:	a019                	j	48e0 <ns_cmd_subcommand_dispatcher+0x32>
    48dc:	431c                	lw	a5,0(a4)
    48de:	ffed                	bnez	a5,48d8 <ns_cmd_subcommand_dispatcher+0x2a>
    48e0:	8522                	mv	a0,s0
    48e2:	fb9ff0ef          	jal	ra,489a <ns_rumble_handler>
    48e6:	8affb06f          	j	194 <__riscv_restore_0>

000048ea <ns_mux_usb_handshake_handler>:
    48ea:	00454703          	lbu	a4,4(a0)
    48ee:	4785                	li	a5,1
    48f0:	08e7f363          	bgeu	a5,a4,4976 <ns_mux_usb_handshake_handler+0x8c>
    48f4:	411c                	lw	a5,0(a0)
    48f6:	c3c1                	beqz	a5,4976 <ns_mux_usb_handshake_handler+0x8c>
    48f8:	0017c783          	lbu	a5,1(a5)
    48fc:	4715                	li	a4,5
    48fe:	17fd                	addi	a5,a5,-1
    4900:	0ff7f793          	zext.b	a5,a5
    4904:	06f76963          	bltu	a4,a5,4976 <ns_mux_usb_handshake_handler+0x8c>
    4908:	869fb2ef          	jal	t0,170 <__riscv_save_0>
    490c:	6735                	lui	a4,0xd
    490e:	078a                	slli	a5,a5,0x2
    4910:	b4870713          	addi	a4,a4,-1208 # cb48 <exp2_lookup_tb+0x524>
    4914:	97ba                	add	a5,a5,a4
    4916:	439c                	lw	a5,0(a5)
    4918:	20003437          	lui	s0,0x20003
    491c:	8782                	jr	a5
    491e:	030007b7          	lui	a5,0x3000
    4922:	0d840513          	addi	a0,s0,216 # 200030d8 <usb_handshake_buf>
    4926:	18178793          	addi	a5,a5,385 # 3000181 <_data_lma+0x2ff316d>
    492a:	200035b7          	lui	a1,0x20003
    492e:	c11c                	sw	a5,0(a0)
    4930:	4619                	li	a2,6
    4932:	11e58593          	addi	a1,a1,286 # 2000311e <connection_state+0x6>
    4936:	0511                	addi	a0,a0,4
    4938:	869fb0ef          	jal	ra,1a0 <memcpy>
    493c:	4685                	li	a3,1
    493e:	4629                	li	a2,10
    4940:	0d840593          	addi	a1,s0,216
    4944:	6e818513          	addi	a0,gp,1768 # 20002210 <ns_usb_send_rb>
    4948:	0e1000ef          	jal	ra,5228 <ring_buffer_push_with_hdr>
    494c:	849fb06f          	j	194 <__riscv_restore_0>
    4950:	28100793          	li	a5,641
    4954:	0cf41c23          	sh	a5,216(s0)
    4958:	4685                	li	a3,1
    495a:	4609                	li	a2,2
    495c:	b7d5                	j	4940 <ns_mux_usb_handshake_handler+0x56>
    495e:	38100793          	li	a5,897
    4962:	bfcd                	j	4954 <ns_mux_usb_handshake_handler+0x6a>
    4964:	48100793          	li	a5,1153
    4968:	b7f5                	j	4954 <ns_mux_usb_handshake_handler+0x6a>
    496a:	58100793          	li	a5,1409
    496e:	b7dd                	j	4954 <ns_mux_usb_handshake_handler+0x6a>
    4970:	68100793          	li	a5,1665
    4974:	b7c5                	j	4954 <ns_mux_usb_handshake_handler+0x6a>
    4976:	8082                	ret

00004978 <fw_snd_pkt>:
    4978:	200037b7          	lui	a5,0x20003
    497c:	09878713          	addi	a4,a5,152 # 20003098 <fw_buf_raw>
    4980:	00a700a3          	sb	a0,1(a4)
    4984:	56f9                	li	a3,-2
    4986:	00258613          	addi	a2,a1,2
    498a:	00d70023          	sb	a3,0(a4)
    498e:	0ff67613          	zext.b	a2,a2
    4992:	4685                	li	a3,1
    4994:	09878593          	addi	a1,a5,152
    4998:	6e818513          	addi	a0,gp,1768 # 20002210 <ns_usb_send_rb>
    499c:	08d0006f          	j	5228 <ring_buffer_push_with_hdr>

000049a0 <fw_subcommand_read_setting>:
    49a0:	fd0fb2ef          	jal	t0,170 <__riscv_save_0>
    49a4:	20003537          	lui	a0,0x20003
    49a8:	465d                	li	a2,23
    49aa:	4581                	li	a1,0
    49ac:	0c150513          	addi	a0,a0,193 # 200030c1 <fw_buf_raw+0x29>
    49b0:	807fb0ef          	jal	ra,1b6 <memset>
    49b4:	20003437          	lui	s0,0x20003
    49b8:	09840413          	addi	s0,s0,152 # 20003098 <fw_buf_raw>
    49bc:	200025b7          	lui	a1,0x20002
    49c0:	02600613          	li	a2,38
    49c4:	3f058593          	addi	a1,a1,1008 # 200023f0 <user_config>
    49c8:	00340513          	addi	a0,s0,3
    49cc:	00040123          	sb	zero,2(s0)
    49d0:	fd0fb0ef          	jal	ra,1a0 <memcpy>
    49d4:	02700593          	li	a1,39
    49d8:	4505                	li	a0,1
    49da:	f9fff0ef          	jal	ra,4978 <fw_snd_pkt>
    49de:	1ff00793          	li	a5,511
    49e2:	4589                	li	a1,2
    49e4:	4505                	li	a0,1
    49e6:	00f41123          	sh	a5,2(s0)
    49ea:	f8fff0ef          	jal	ra,4978 <fw_snd_pkt>
    49ee:	fa6fb06f          	j	194 <__riscv_restore_0>

000049f2 <fw_subcommand_read_emulate_rom>:
    49f2:	f64fb2ef          	jal	t0,156 <__riscv_save_4>
    49f6:	842a                	mv	s0,a0
    49f8:	4108                	lw	a0,0(a0)
    49fa:	1141                	addi	sp,sp,-16
    49fc:	200034b7          	lui	s1,0x20003
    4a00:	0505                	addi	a0,a0,1
    4a02:	e1efc0ef          	jal	ra,1020 <fetch_uint32>
    4a06:	401c                	lw	a5,0(s0)
    4a08:	200039b7          	lui	s3,0x20003
    4a0c:	c62a                	sw	a0,12(sp)
    4a0e:	0057c403          	lbu	s0,5(a5)
    4a12:	03900a13          	li	s4,57
    4a16:	20003ab7          	lui	s5,0x20003
    4a1a:	09a48493          	addi	s1,s1,154 # 2000309a <fw_buf_raw+0x2>
    4a1e:	09898993          	addi	s3,s3,152 # 20003098 <fw_buf_raw>
    4a22:	048a6563          	bltu	s4,s0,4a6c <fw_subcommand_read_emulate_rom+0x7a>
    4a26:	c021                	beqz	s0,4a66 <fw_subcommand_read_emulate_rom+0x74>
    4a28:	4532                	lw	a0,12(sp)
    4a2a:	200035b7          	lui	a1,0x20003
    4a2e:	09f58593          	addi	a1,a1,159 # 2000309f <fw_buf_raw+0x7>
    4a32:	8622                	mv	a2,s0
    4a34:	fbdfb0ef          	jal	ra,9f0 <conf_read>
    4a38:	00c15703          	lhu	a4,12(sp)
    4a3c:	200037b7          	lui	a5,0x20003
    4a40:	09a78793          	addi	a5,a5,154 # 2000309a <fw_buf_raw+0x2>
    4a44:	00e79023          	sh	a4,0(a5)
    4a48:	00e15703          	lhu	a4,14(sp)
    4a4c:	00540593          	addi	a1,s0,5
    4a50:	0ff5f593          	zext.b	a1,a1
    4a54:	00e79123          	sh	a4,2(a5)
    4a58:	450d                	li	a0,3
    4a5a:	200037b7          	lui	a5,0x20003
    4a5e:	08878f23          	sb	s0,158(a5) # 2000309e <fw_buf_raw+0x6>
    4a62:	f17ff0ef          	jal	ra,4978 <fw_snd_pkt>
    4a66:	0141                	addi	sp,sp,16
    4a68:	f22fb06f          	j	18a <__riscv_restore_4>
    4a6c:	4932                	lw	s2,12(sp)
    4a6e:	09fa8593          	addi	a1,s5,159 # 2000309f <fw_buf_raw+0x7>
    4a72:	03900613          	li	a2,57
    4a76:	854a                	mv	a0,s2
    4a78:	f79fb0ef          	jal	ra,9f0 <conf_read>
    4a7c:	00c15783          	lhu	a5,12(sp)
    4a80:	03990913          	addi	s2,s2,57
    4a84:	fc740413          	addi	s0,s0,-57
    4a88:	00f49023          	sh	a5,0(s1)
    4a8c:	00e15783          	lhu	a5,14(sp)
    4a90:	03e00593          	li	a1,62
    4a94:	450d                	li	a0,3
    4a96:	00f49123          	sh	a5,2(s1)
    4a9a:	01498323          	sb	s4,6(s3)
    4a9e:	0ff47413          	zext.b	s0,s0
    4aa2:	c64a                	sw	s2,12(sp)
    4aa4:	ed5ff0ef          	jal	ra,4978 <fw_snd_pkt>
    4aa8:	bfad                	j	4a22 <fw_subcommand_read_emulate_rom+0x30>

00004aaa <fw_subcommand_write_emulate_rom>:
    4aaa:	ec6fb2ef          	jal	t0,170 <__riscv_save_0>
    4aae:	842a                	mv	s0,a0
    4ab0:	4108                	lw	a0,0(a0)
    4ab2:	200034b7          	lui	s1,0x20003
    4ab6:	09848493          	addi	s1,s1,152 # 20003098 <fw_buf_raw>
    4aba:	0505                	addi	a0,a0,1
    4abc:	d64fc0ef          	jal	ra,1020 <fetch_uint32>
    4ac0:	401c                	lw	a5,0(s0)
    4ac2:	0067c783          	lbu	a5,6(a5)
    4ac6:	00f48123          	sb	a5,2(s1)
    4aca:	400c                	lw	a1,0(s0)
    4acc:	0065c683          	lbu	a3,6(a1)
    4ad0:	0055c603          	lbu	a2,5(a1)
    4ad4:	059d                	addi	a1,a1,7
    4ad6:	b94fc0ef          	jal	ra,e6a <conf_write>
    4ada:	00a481a3          	sb	a0,3(s1)
    4ade:	4589                	li	a1,2
    4ae0:	4511                	li	a0,4
    4ae2:	e97ff0ef          	jal	ra,4978 <fw_snd_pkt>
    4ae6:	eaefb06f          	j	194 <__riscv_restore_0>

00004aea <_calibrate_imu_raw>:
    4aea:	e6cfb2ef          	jal	t0,156 <__riscv_save_4>
    4aee:	20003437          	lui	s0,0x20003
    4af2:	89aa                	mv	s3,a0
    4af4:	03000613          	li	a2,48
    4af8:	4581                	li	a1,0
    4afa:	06840513          	addi	a0,s0,104 # 20003068 <calibrate_imu_raw_buf>
    4afe:	eb8fb0ef          	jal	ra,1b6 <memset>
    4b02:	4a81                	li	s5,0
    4b04:	20003a37          	lui	s4,0x20003
    4b08:	013a9463          	bne	s5,s3,4b10 <_calibrate_imu_raw+0x26>
    4b0c:	4481                	li	s1,0
    4b0e:	a025                	j	4b36 <_calibrate_imu_raw+0x4c>
    4b10:	04b00513          	li	a0,75
    4b14:	026010ef          	jal	ra,5b3a <Delay_Ms>
    4b18:	4919                	li	s2,6
    4b1a:	9a2fe0ef          	jal	ra,2cbc <imu_read>
    4b1e:	84aa                	mv	s1,a0
    4b20:	03200513          	li	a0,50
    4b24:	016010ef          	jal	ra,5b3a <Delay_Ms>
    4b28:	0a048463          	beqz	s1,4bd0 <_calibrate_imu_raw+0xe6>
    4b2c:	197d                	addi	s2,s2,-1
    4b2e:	0ff97913          	zext.b	s2,s2
    4b32:	fe0914e3          	bnez	s2,4b1a <_calibrate_imu_raw+0x30>
    4b36:	06840413          	addi	s0,s0,104
    4b3a:	404c                	lw	a1,4(s0)
    4b3c:	4008                	lw	a0,0(s0)
    4b3e:	0f2060ef          	jal	ra,ac30 <__floatdisf>
    4b42:	9a41a583          	lw	a1,-1628(gp) # 200014cc <imu_ratio_xf>
    4b46:	085050ef          	jal	ra,a3ca <__mulsf3>
    4b4a:	050060ef          	jal	ra,ab9a <__fixsfdi>
    4b4e:	c008                	sw	a0,0(s0)
    4b50:	c04c                	sw	a1,4(s0)
    4b52:	4408                	lw	a0,8(s0)
    4b54:	444c                	lw	a1,12(s0)
    4b56:	0da060ef          	jal	ra,ac30 <__floatdisf>
    4b5a:	9a01a583          	lw	a1,-1632(gp) # 200014c8 <imu_ratio_yf>
    4b5e:	06d050ef          	jal	ra,a3ca <__mulsf3>
    4b62:	038060ef          	jal	ra,ab9a <__fixsfdi>
    4b66:	c408                	sw	a0,8(s0)
    4b68:	c44c                	sw	a1,12(s0)
    4b6a:	4808                	lw	a0,16(s0)
    4b6c:	484c                	lw	a1,20(s0)
    4b6e:	0c2060ef          	jal	ra,ac30 <__floatdisf>
    4b72:	99c1a583          	lw	a1,-1636(gp) # 200014c4 <imu_ratio_zf>
    4b76:	055050ef          	jal	ra,a3ca <__mulsf3>
    4b7a:	020060ef          	jal	ra,ab9a <__fixsfdi>
    4b7e:	c808                	sw	a0,16(s0)
    4b80:	c84c                	sw	a1,20(s0)
    4b82:	4c08                	lw	a0,24(s0)
    4b84:	4c4c                	lw	a1,28(s0)
    4b86:	0aa060ef          	jal	ra,ac30 <__floatdisf>
    4b8a:	8881a583          	lw	a1,-1912(gp) # 200013b0 <_impure_ptr+0x4c>
    4b8e:	03d050ef          	jal	ra,a3ca <__mulsf3>
    4b92:	008060ef          	jal	ra,ab9a <__fixsfdi>
    4b96:	cc08                	sw	a0,24(s0)
    4b98:	cc4c                	sw	a1,28(s0)
    4b9a:	5008                	lw	a0,32(s0)
    4b9c:	504c                	lw	a1,36(s0)
    4b9e:	092060ef          	jal	ra,ac30 <__floatdisf>
    4ba2:	8881a583          	lw	a1,-1912(gp) # 200013b0 <_impure_ptr+0x4c>
    4ba6:	025050ef          	jal	ra,a3ca <__mulsf3>
    4baa:	7f1050ef          	jal	ra,ab9a <__fixsfdi>
    4bae:	d04c                	sw	a1,36(s0)
    4bb0:	d008                	sw	a0,32(s0)
    4bb2:	5408                	lw	a0,40(s0)
    4bb4:	544c                	lw	a1,44(s0)
    4bb6:	07a060ef          	jal	ra,ac30 <__floatdisf>
    4bba:	8881a583          	lw	a1,-1912(gp) # 200013b0 <_impure_ptr+0x4c>
    4bbe:	00d050ef          	jal	ra,a3ca <__mulsf3>
    4bc2:	7d9050ef          	jal	ra,ab9a <__fixsfdi>
    4bc6:	d408                	sw	a0,40(s0)
    4bc8:	d44c                	sw	a1,44(s0)
    4bca:	8526                	mv	a0,s1
    4bcc:	dbefb06f          	j	18a <__riscv_restore_4>
    4bd0:	06840793          	addi	a5,s0,104
    4bd4:	bb0a0613          	addi	a2,s4,-1104 # 20002bb0 <imu_raw_buf>
    4bd8:	03078513          	addi	a0,a5,48
    4bdc:	4398                	lw	a4,0(a5)
    4bde:	00061683          	lh	a3,0(a2)
    4be2:	43cc                	lw	a1,4(a5)
    4be4:	0609                	addi	a2,a2,2
    4be6:	41f6d813          	srai	a6,a3,0x1f
    4bea:	96ba                	add	a3,a3,a4
    4bec:	00e6b733          	sltu	a4,a3,a4
    4bf0:	95c2                	add	a1,a1,a6
    4bf2:	972e                	add	a4,a4,a1
    4bf4:	c394                	sw	a3,0(a5)
    4bf6:	c3d8                	sw	a4,4(a5)
    4bf8:	07a1                	addi	a5,a5,8
    4bfa:	fef511e3          	bne	a0,a5,4bdc <_calibrate_imu_raw+0xf2>
    4bfe:	0a85                	addi	s5,s5,1
    4c00:	b721                	j	4b08 <_calibrate_imu_raw+0x1e>

00004c02 <calibrate_imu>:
    4c02:	d54fb2ef          	jal	t0,156 <__riscv_save_4>
    4c06:	ee5ff0ef          	jal	ra,4aea <_calibrate_imu_raw>
    4c0a:	8a2a                	mv	s4,a0
    4c0c:	16051d63          	bnez	a0,4d86 <calibrate_imu+0x184>
    4c10:	200034b7          	lui	s1,0x20003
    4c14:	06848493          	addi	s1,s1,104 # 20003068 <calibrate_imu_raw_buf>
    4c18:	4ccc                	lw	a1,28(s1)
    4c1a:	4c88                	lw	a0,24(s1)
    4c1c:	014060ef          	jal	ra,ac30 <__floatdisf>
    4c20:	88c1a583          	lw	a1,-1908(gp) # 200013b4 <_impure_ptr+0x50>
    4c24:	20002437          	lui	s0,0x20002
    4c28:	46040413          	addi	s0,s0,1120 # 20002460 <factory_configuration>
    4c2c:	386050ef          	jal	ra,9fb2 <__divsf3>
    4c30:	8901a583          	lw	a1,-1904(gp) # 200013b8 <_impure_ptr+0x54>
    4c34:	016050ef          	jal	ra,9c4a <__addsf3>
    4c38:	08144783          	lbu	a5,129(s0)
    4c3c:	08044703          	lbu	a4,128(s0)
    4c40:	8aaa                	mv	s5,a0
    4c42:	07a2                	slli	a5,a5,0x8
    4c44:	8fd9                	or	a5,a5,a4
    4c46:	40f00533          	neg	a0,a5
    4c4a:	685050ef          	jal	ra,aace <__floatsisf>
    4c4e:	85aa                	mv	a1,a0
    4c50:	8556                	mv	a0,s5
    4c52:	7f9040ef          	jal	ra,9c4a <__addsf3>
    4c56:	619050ef          	jal	ra,aa6e <__fixsfsi>
    4c5a:	50cc                	lw	a1,36(s1)
    4c5c:	01051793          	slli	a5,a0,0x10
    4c60:	02a40023          	sb	a0,32(s0)
    4c64:	5088                	lw	a0,32(s1)
    4c66:	83c1                	srli	a5,a5,0x10
    4c68:	83a1                	srli	a5,a5,0x8
    4c6a:	02f400a3          	sb	a5,33(s0)
    4c6e:	7c3050ef          	jal	ra,ac30 <__floatdisf>
    4c72:	88c1a583          	lw	a1,-1908(gp) # 200013b4 <_impure_ptr+0x50>
    4c76:	33c050ef          	jal	ra,9fb2 <__divsf3>
    4c7a:	8901a583          	lw	a1,-1904(gp) # 200013b8 <_impure_ptr+0x54>
    4c7e:	7cd040ef          	jal	ra,9c4a <__addsf3>
    4c82:	08344783          	lbu	a5,131(s0)
    4c86:	08244703          	lbu	a4,130(s0)
    4c8a:	8aaa                	mv	s5,a0
    4c8c:	07a2                	slli	a5,a5,0x8
    4c8e:	8fd9                	or	a5,a5,a4
    4c90:	40f00533          	neg	a0,a5
    4c94:	63b050ef          	jal	ra,aace <__floatsisf>
    4c98:	85aa                	mv	a1,a0
    4c9a:	8556                	mv	a0,s5
    4c9c:	7af040ef          	jal	ra,9c4a <__addsf3>
    4ca0:	5cf050ef          	jal	ra,aa6e <__fixsfsi>
    4ca4:	54cc                	lw	a1,44(s1)
    4ca6:	01051793          	slli	a5,a0,0x10
    4caa:	02a40123          	sb	a0,34(s0)
    4cae:	5488                	lw	a0,40(s1)
    4cb0:	83c1                	srli	a5,a5,0x10
    4cb2:	83a1                	srli	a5,a5,0x8
    4cb4:	02f401a3          	sb	a5,35(s0)
    4cb8:	779050ef          	jal	ra,ac30 <__floatdisf>
    4cbc:	88c1a583          	lw	a1,-1908(gp) # 200013b4 <_impure_ptr+0x50>
    4cc0:	2f2050ef          	jal	ra,9fb2 <__divsf3>
    4cc4:	8901a583          	lw	a1,-1904(gp) # 200013b8 <_impure_ptr+0x54>
    4cc8:	783040ef          	jal	ra,9c4a <__addsf3>
    4ccc:	08444703          	lbu	a4,132(s0)
    4cd0:	08544783          	lbu	a5,133(s0)
    4cd4:	8aaa                	mv	s5,a0
    4cd6:	07a2                	slli	a5,a5,0x8
    4cd8:	8fd9                	or	a5,a5,a4
    4cda:	40f00533          	neg	a0,a5
    4cde:	5f1050ef          	jal	ra,aace <__floatsisf>
    4ce2:	85aa                	mv	a1,a0
    4ce4:	8556                	mv	a0,s5
    4ce6:	765040ef          	jal	ra,9c4a <__addsf3>
    4cea:	585050ef          	jal	ra,aa6e <__fixsfsi>
    4cee:	40cc                	lw	a1,4(s1)
    4cf0:	01051793          	slli	a5,a0,0x10
    4cf4:	02a40223          	sb	a0,36(s0)
    4cf8:	4088                	lw	a0,0(s1)
    4cfa:	83c1                	srli	a5,a5,0x10
    4cfc:	83a1                	srli	a5,a5,0x8
    4cfe:	02f402a3          	sb	a5,37(s0)
    4d02:	72f050ef          	jal	ra,ac30 <__floatdisf>
    4d06:	88c1a583          	lw	a1,-1908(gp) # 200013b4 <_impure_ptr+0x50>
    4d0a:	2a8050ef          	jal	ra,9fb2 <__divsf3>
    4d0e:	8901a583          	lw	a1,-1904(gp) # 200013b8 <_impure_ptr+0x54>
    4d12:	739040ef          	jal	ra,9c4a <__addsf3>
    4d16:	559050ef          	jal	ra,aa6e <__fixsfsi>
    4d1a:	44cc                	lw	a1,12(s1)
    4d1c:	01051793          	slli	a5,a0,0x10
    4d20:	02a40623          	sb	a0,44(s0)
    4d24:	4488                	lw	a0,8(s1)
    4d26:	83c1                	srli	a5,a5,0x10
    4d28:	83a1                	srli	a5,a5,0x8
    4d2a:	02f406a3          	sb	a5,45(s0)
    4d2e:	703050ef          	jal	ra,ac30 <__floatdisf>
    4d32:	88c1a583          	lw	a1,-1908(gp) # 200013b4 <_impure_ptr+0x50>
    4d36:	27c050ef          	jal	ra,9fb2 <__divsf3>
    4d3a:	8901a583          	lw	a1,-1904(gp) # 200013b8 <_impure_ptr+0x54>
    4d3e:	70d040ef          	jal	ra,9c4a <__addsf3>
    4d42:	52d050ef          	jal	ra,aa6e <__fixsfsi>
    4d46:	48cc                	lw	a1,20(s1)
    4d48:	01051793          	slli	a5,a0,0x10
    4d4c:	02a40723          	sb	a0,46(s0)
    4d50:	4888                	lw	a0,16(s1)
    4d52:	83c1                	srli	a5,a5,0x10
    4d54:	83a1                	srli	a5,a5,0x8
    4d56:	02f407a3          	sb	a5,47(s0)
    4d5a:	6d7050ef          	jal	ra,ac30 <__floatdisf>
    4d5e:	88c1a583          	lw	a1,-1908(gp) # 200013b4 <_impure_ptr+0x50>
    4d62:	250050ef          	jal	ra,9fb2 <__divsf3>
    4d66:	8901a583          	lw	a1,-1904(gp) # 200013b8 <_impure_ptr+0x54>
    4d6a:	6e1040ef          	jal	ra,9c4a <__addsf3>
    4d6e:	501050ef          	jal	ra,aa6e <__fixsfsi>
    4d72:	01051793          	slli	a5,a0,0x10
    4d76:	83c1                	srli	a5,a5,0x10
    4d78:	83a1                	srli	a5,a5,0x8
    4d7a:	02a40823          	sb	a0,48(s0)
    4d7e:	02f408a3          	sb	a5,49(s0)
    4d82:	d1dfb0ef          	jal	ra,a9e <fac_conf_write>
    4d86:	8552                	mv	a0,s4
    4d88:	c02fb06f          	j	18a <__riscv_restore_4>

00004d8c <fw_subcommand_calibrate_imu>:
    4d8c:	be4fb2ef          	jal	t0,170 <__riscv_save_0>
    4d90:	03200513          	li	a0,50
    4d94:	e6fff0ef          	jal	ra,4c02 <calibrate_imu>
    4d98:	97a1c703          	lbu	a4,-1670(gp) # 200014a2 <i2c_error_code>
    4d9c:	200037b7          	lui	a5,0x20003
    4da0:	09878793          	addi	a5,a5,152 # 20003098 <fw_buf_raw>
    4da4:	00a78123          	sb	a0,2(a5)
    4da8:	4589                	li	a1,2
    4daa:	4515                	li	a0,5
    4dac:	00e781a3          	sb	a4,3(a5)
    4db0:	bc9ff0ef          	jal	ra,4978 <fw_snd_pkt>
    4db4:	be0fb06f          	j	194 <__riscv_restore_0>

00004db8 <fw_subcommand_calibrate_js_offset>:
    4db8:	bb8fb2ef          	jal	t0,170 <__riscv_save_0>
    4dbc:	8d418713          	addi	a4,gp,-1836 # 200013fc <adc_data>
    4dc0:	00075683          	lhu	a3,0(a4)
    4dc4:	200027b7          	lui	a5,0x20002
    4dc8:	41878793          	addi	a5,a5,1048 # 20002418 <user_calibration>
    4dcc:	00d780a3          	sb	a3,1(a5)
    4dd0:	82a1                	srli	a3,a3,0x8
    4dd2:	00d78123          	sb	a3,2(a5)
    4dd6:	00275683          	lhu	a3,2(a4)
    4dda:	4601                	li	a2,0
    4ddc:	4581                	li	a1,0
    4dde:	00d781a3          	sb	a3,3(a5)
    4de2:	82a1                	srli	a3,a3,0x8
    4de4:	00d78223          	sb	a3,4(a5)
    4de8:	00475683          	lhu	a3,4(a4)
    4dec:	00675703          	lhu	a4,6(a4)
    4df0:	6521                	lui	a0,0x8
    4df2:	00d782a3          	sb	a3,5(a5)
    4df6:	82a1                	srli	a3,a3,0x8
    4df8:	00d78323          	sb	a3,6(a5)
    4dfc:	00e783a3          	sb	a4,7(a5)
    4e00:	4685                	li	a3,1
    4e02:	8321                	srli	a4,a4,0x8
    4e04:	00e78423          	sb	a4,8(a5)
    4e08:	00078023          	sb	zero,0(a5)
    4e0c:	85efc0ef          	jal	ra,e6a <conf_write>
    4e10:	200037b7          	lui	a5,0x20003
    4e14:	08a78d23          	sb	a0,154(a5) # 2000309a <fw_buf_raw+0x2>
    4e18:	4585                	li	a1,1
    4e1a:	451d                	li	a0,7
    4e1c:	b5dff0ef          	jal	ra,4978 <fw_snd_pkt>
    4e20:	b74fb06f          	j	194 <__riscv_restore_0>

00004e24 <fw_subcommand_get_status>:
    4e24:	b4cfb2ef          	jal	t0,170 <__riscv_save_0>
    4e28:	200035b7          	lui	a1,0x20003
    4e2c:	09b58593          	addi	a1,a1,155 # 2000309b <fw_buf_raw+0x3>
    4e30:	453d                	li	a0,15
    4e32:	c01fd0ef          	jal	ra,2a32 <i2c_read_byte>
    4e36:	200037b7          	lui	a5,0x20003
    4e3a:	09878713          	addi	a4,a5,152 # 20003098 <fw_buf_raw>
    4e3e:	00a70123          	sb	a0,2(a4)
    4e42:	8181a703          	lw	a4,-2024(gp) # 20001340 <rts_tcnt>
    4e46:	09878793          	addi	a5,a5,152
    4e4a:	e701                	bnez	a4,4e52 <fw_subcommand_get_status+0x2e>
    4e4c:	4705                	li	a4,1
    4e4e:	80e1ac23          	sw	a4,-2024(gp) # 20001340 <rts_tcnt>
    4e52:	8181a683          	lw	a3,-2024(gp) # 20001340 <rts_tcnt>
    4e56:	9ec1a703          	lw	a4,-1556(gp) # 20001514 <rts_cnt>
    4e5a:	20003537          	lui	a0,0x20003
    4e5e:	02d75733          	divu	a4,a4,a3
    4e62:	4611                	li	a2,4
    4e64:	99818593          	addi	a1,gp,-1640 # 200014c0 <imu_read_cnt>
    4e68:	09d50513          	addi	a0,a0,157 # 2000309d <fw_buf_raw+0x5>
    4e6c:	00e78223          	sb	a4,4(a5)
    4e70:	b30fb0ef          	jal	ra,1a0 <memcpy>
    4e74:	20003537          	lui	a0,0x20003
    4e78:	4611                	li	a2,4
    4e7a:	99418593          	addi	a1,gp,-1644 # 200014bc <imu_read_fail_cnt>
    4e7e:	0a150513          	addi	a0,a0,161 # 200030a1 <fw_buf_raw+0x9>
    4e82:	b1efb0ef          	jal	ra,1a0 <memcpy>
    4e86:	45ad                	li	a1,11
    4e88:	0fd00513          	li	a0,253
    4e8c:	aedff0ef          	jal	ra,4978 <fw_snd_pkt>
    4e90:	b04fb06f          	j	194 <__riscv_restore_0>

00004e94 <fw_subcommand_reboot>:
    4e94:	adcfb2ef          	jal	t0,170 <__riscv_save_0>
    4e98:	4501                	li	a0,0
    4e9a:	77a000ef          	jal	ra,5614 <flush_rgb>
    4e9e:	4529                	li	a0,10
    4ea0:	49b000ef          	jal	ra,5b3a <Delay_Ms>
    4ea4:	beef07b7          	lui	a5,0xbeef0
    4ea8:	e000e737          	lui	a4,0xe000e
    4eac:	08078793          	addi	a5,a5,128 # beef0080 <_eusrstack+0x9eeeb080>
    4eb0:	c73c                	sw	a5,72(a4)
    4eb2:	ae2fb06f          	j	194 <__riscv_restore_0>

00004eb6 <fw_subcommand_get_version>:
    4eb6:	8981d683          	lhu	a3,-1896(gp) # 200013c0 <FW_VERSION>
    4eba:	89818713          	addi	a4,gp,-1896 # 200013c0 <FW_VERSION>
    4ebe:	00275703          	lhu	a4,2(a4) # e000e002 <_eusrstack+0xc0009002>
    4ec2:	200037b7          	lui	a5,0x20003
    4ec6:	09a78793          	addi	a5,a5,154 # 2000309a <fw_buf_raw+0x2>
    4eca:	00e79123          	sh	a4,2(a5)
    4ece:	00d79023          	sh	a3,0(a5)
    4ed2:	8941d683          	lhu	a3,-1900(gp) # 200013bc <FW_SUB_VERSION>
    4ed6:	89418713          	addi	a4,gp,-1900 # 200013bc <FW_SUB_VERSION>
    4eda:	00275703          	lhu	a4,2(a4)
    4ede:	200037b7          	lui	a5,0x20003
    4ee2:	09e78793          	addi	a5,a5,158 # 2000309e <fw_buf_raw+0x6>
    4ee6:	45a1                	li	a1,8
    4ee8:	0ff00513          	li	a0,255
    4eec:	00d79023          	sh	a3,0(a5)
    4ef0:	00e79123          	sh	a4,2(a5)
    4ef4:	a85ff06f          	j	4978 <fw_snd_pkt>

00004ef8 <fw_subcommand_dispatcher>:
    4ef8:	4114                	lw	a3,0(a0)
    4efa:	4605                	li	a2,1
    4efc:	00168793          	addi	a5,a3,1
    4f00:	c11c                	sw	a5,0(a0)
    4f02:	00454783          	lbu	a5,4(a0)
    4f06:	08f67363          	bgeu	a2,a5,4f8c <fw_subcommand_dispatcher+0x94>
    4f0a:	a66fb2ef          	jal	t0,170 <__riscv_save_0>
    4f0e:	17fd                	addi	a5,a5,-1
    4f10:	00f50223          	sb	a5,4(a0)
    4f14:	0016c783          	lbu	a5,1(a3)
    4f18:	469d                	li	a3,7
    4f1a:	02f6e063          	bltu	a3,a5,4f3a <fw_subcommand_dispatcher+0x42>
    4f1e:	cb95                	beqz	a5,4f52 <fw_subcommand_dispatcher+0x5a>
    4f20:	17fd                	addi	a5,a5,-1
    4f22:	0ff7f793          	zext.b	a5,a5
    4f26:	4699                	li	a3,6
    4f28:	02f6e563          	bltu	a3,a5,4f52 <fw_subcommand_dispatcher+0x5a>
    4f2c:	66b5                	lui	a3,0xd
    4f2e:	078a                	slli	a5,a5,0x2
    4f30:	b6068693          	addi	a3,a3,-1184 # cb60 <exp2_lookup_tb+0x53c>
    4f34:	97b6                	add	a5,a5,a3
    4f36:	439c                	lw	a5,0(a5)
    4f38:	8782                	jr	a5
    4f3a:	0fe00713          	li	a4,254
    4f3e:	02e78e63          	beq	a5,a4,4f7a <fw_subcommand_dispatcher+0x82>
    4f42:	0ff00713          	li	a4,255
    4f46:	02e78763          	beq	a5,a4,4f74 <fw_subcommand_dispatcher+0x7c>
    4f4a:	0fd00713          	li	a4,253
    4f4e:	02e78963          	beq	a5,a4,4f80 <fw_subcommand_dispatcher+0x88>
    4f52:	a42fb06f          	j	194 <__riscv_restore_0>
    4f56:	a4bff0ef          	jal	ra,49a0 <fw_subcommand_read_setting>
    4f5a:	bfe5                	j	4f52 <fw_subcommand_dispatcher+0x5a>
    4f5c:	b55fb0ef          	jal	ra,ab0 <conf_flush>
    4f60:	bfcd                	j	4f52 <fw_subcommand_dispatcher+0x5a>
    4f62:	a91ff0ef          	jal	ra,49f2 <fw_subcommand_read_emulate_rom>
    4f66:	b7f5                	j	4f52 <fw_subcommand_dispatcher+0x5a>
    4f68:	b43ff0ef          	jal	ra,4aaa <fw_subcommand_write_emulate_rom>
    4f6c:	b7dd                	j	4f52 <fw_subcommand_dispatcher+0x5a>
    4f6e:	e1fff0ef          	jal	ra,4d8c <fw_subcommand_calibrate_imu>
    4f72:	b7c5                	j	4f52 <fw_subcommand_dispatcher+0x5a>
    4f74:	f43ff0ef          	jal	ra,4eb6 <fw_subcommand_get_version>
    4f78:	bfe9                	j	4f52 <fw_subcommand_dispatcher+0x5a>
    4f7a:	f1bff0ef          	jal	ra,4e94 <fw_subcommand_reboot>
    4f7e:	bfd1                	j	4f52 <fw_subcommand_dispatcher+0x5a>
    4f80:	ea5ff0ef          	jal	ra,4e24 <fw_subcommand_get_status>
    4f84:	b7f9                	j	4f52 <fw_subcommand_dispatcher+0x5a>
    4f86:	e33ff0ef          	jal	ra,4db8 <fw_subcommand_calibrate_js_offset>
    4f8a:	b7e1                	j	4f52 <fw_subcommand_dispatcher+0x5a>
    4f8c:	8082                	ret

00004f8e <ns_mux_init>:
    4f8e:	ffaff06f          	j	4788 <ns_subcommand_callback_init>

00004f92 <hid_dispatch>:
    4f92:	9defb2ef          	jal	t0,170 <__riscv_save_0>
    4f96:	411c                	lw	a5,0(a0)
    4f98:	08000713          	li	a4,128
    4f9c:	0007c783          	lbu	a5,0(a5)
    4fa0:	02e78963          	beq	a5,a4,4fd2 <hid_dispatch+0x40>
    4fa4:	00f76a63          	bltu	a4,a5,4fb8 <hid_dispatch+0x26>
    4fa8:	4705                	li	a4,1
    4faa:	00e78e63          	beq	a5,a4,4fc6 <hid_dispatch+0x34>
    4fae:	4741                	li	a4,16
    4fb0:	00e78e63          	beq	a5,a4,4fcc <hid_dispatch+0x3a>
    4fb4:	9e0fb06f          	j	194 <__riscv_restore_0>
    4fb8:	0fe00713          	li	a4,254
    4fbc:	fee79ce3          	bne	a5,a4,4fb4 <hid_dispatch+0x22>
    4fc0:	f39ff0ef          	jal	ra,4ef8 <fw_subcommand_dispatcher>
    4fc4:	bfc5                	j	4fb4 <hid_dispatch+0x22>
    4fc6:	8e9ff0ef          	jal	ra,48ae <ns_cmd_subcommand_dispatcher>
    4fca:	b7ed                	j	4fb4 <hid_dispatch+0x22>
    4fcc:	8cfff0ef          	jal	ra,489a <ns_rumble_handler>
    4fd0:	b7d5                	j	4fb4 <hid_dispatch+0x22>
    4fd2:	919ff0ef          	jal	ra,48ea <ns_mux_usb_handshake_handler>
    4fd6:	bff9                	j	4fb4 <hid_dispatch+0x22>

00004fd8 <ns_send_report>:
    4fd8:	02854603          	lbu	a2,40(a0)
    4fdc:	85aa                	mv	a1,a0
    4fde:	4681                	li	a3,0
    4fe0:	6e818513          	addi	a0,gp,1768 # 20002210 <ns_usb_send_rb>
    4fe4:	a491                	j	5228 <ring_buffer_push_with_hdr>

00004fe6 <setup_exti>:
    4fe6:	98afb2ef          	jal	t0,170 <__riscv_save_0>
    4fea:	1141                	addi	sp,sp,-16
    4fec:	842a                	mv	s0,a0
    4fee:	4585                	li	a1,1
    4ff0:	4505                	li	a0,1
    4ff2:	c002                	sw	zero,0(sp)
    4ff4:	c202                	sw	zero,4(sp)
    4ff6:	c402                	sw	zero,8(sp)
    4ff8:	c602                	sw	zero,12(sp)
    4ffa:	081020ef          	jal	ra,787a <RCC_APB2PeriphClockCmd>
    4ffe:	4585                	li	a1,1
    5000:	4521                	li	a0,8
    5002:	079020ef          	jal	ra,787a <RCC_APB2PeriphClockCmd>
    5006:	4585                	li	a1,1
    5008:	4541                	li	a0,16
    500a:	071020ef          	jal	ra,787a <RCC_APB2PeriphClockCmd>
    500e:	45bd                	li	a1,15
    5010:	4505                	li	a0,1
    5012:	3bc020ef          	jal	ra,73ce <GPIO_EXTILineConfig>
    5016:	4911                	li	s2,4
    5018:	44c1                	li	s1,16
    501a:	4789                	li	a5,2
    501c:	850a                	mv	a0,sp
    501e:	c03e                	sw	a5,0(sp)
    5020:	c24a                	sw	s2,4(sp)
    5022:	c426                	sw	s1,8(sp)
    5024:	c622                	sw	s0,12(sp)
    5026:	7b7010ef          	jal	ra,6fdc <EXTI_Init>
    502a:	45bd                	li	a1,15
    502c:	4509                	li	a0,2
    502e:	3a0020ef          	jal	ra,73ce <GPIO_EXTILineConfig>
    5032:	67a1                	lui	a5,0x8
    5034:	850a                	mv	a0,sp
    5036:	c03e                	sw	a5,0(sp)
    5038:	c24a                	sw	s2,4(sp)
    503a:	c426                	sw	s1,8(sp)
    503c:	c622                	sw	s0,12(sp)
    503e:	79f010ef          	jal	ra,6fdc <EXTI_Init>
    5042:	4599                	li	a1,6
    5044:	4505                	li	a0,1
    5046:	388020ef          	jal	ra,73ce <GPIO_EXTILineConfig>
    504a:	04000793          	li	a5,64
    504e:	850a                	mv	a0,sp
    5050:	c03e                	sw	a5,0(sp)
    5052:	c24a                	sw	s2,4(sp)
    5054:	c426                	sw	s1,8(sp)
    5056:	c622                	sw	s0,12(sp)
    5058:	785010ef          	jal	ra,6fdc <EXTI_Init>
    505c:	459d                	li	a1,7
    505e:	4505                	li	a0,1
    5060:	36e020ef          	jal	ra,73ce <GPIO_EXTILineConfig>
    5064:	08000793          	li	a5,128
    5068:	850a                	mv	a0,sp
    506a:	c03e                	sw	a5,0(sp)
    506c:	c24a                	sw	s2,4(sp)
    506e:	c426                	sw	s1,8(sp)
    5070:	c622                	sw	s0,12(sp)
    5072:	76b010ef          	jal	ra,6fdc <EXTI_Init>
    5076:	45b9                	li	a1,14
    5078:	4505                	li	a0,1
    507a:	354020ef          	jal	ra,73ce <GPIO_EXTILineConfig>
    507e:	6791                	lui	a5,0x4
    5080:	850a                	mv	a0,sp
    5082:	c03e                	sw	a5,0(sp)
    5084:	c24a                	sw	s2,4(sp)
    5086:	c426                	sw	s1,8(sp)
    5088:	c622                	sw	s0,12(sp)
    508a:	753010ef          	jal	ra,6fdc <EXTI_Init>
    508e:	0141                	addi	sp,sp,16
    5090:	904fb06f          	j	194 <__riscv_restore_0>

00005094 <top_init>:
    5094:	8dcfb2ef          	jal	t0,170 <__riscv_save_0>
    5098:	1141                	addi	sp,sp,-16
    509a:	40011537          	lui	a0,0x40011
    509e:	4791                	li	a5,4
    50a0:	004c                	addi	a1,sp,4
    50a2:	c0050513          	addi	a0,a0,-1024 # 40010c00 <_eusrstack+0x2000bc00>
    50a6:	c63e                	sw	a5,12(sp)
    50a8:	00f11223          	sh	a5,4(sp)
    50ac:	00011323          	sh	zero,6(sp)
    50b0:	00011423          	sh	zero,8(sp)
    50b4:	00011523          	sh	zero,10(sp)
    50b8:	23a020ef          	jal	ra,72f2 <GPIO_Init>
    50bc:	0141                	addi	sp,sp,16
    50be:	8d6fb06f          	j	194 <__riscv_restore_0>

000050c2 <set_pwr_mode_sleep>:
    50c2:	8aefb2ef          	jal	t0,170 <__riscv_save_0>
    50c6:	40021737          	lui	a4,0x40021
    50ca:	435c                	lw	a5,4(a4)
    50cc:	4691                	li	a3,4
    50ce:	8bb1                	andi	a5,a5,12
    50d0:	00d78663          	beq	a5,a3,50dc <set_pwr_mode_sleep+0x1a>
    50d4:	435c                	lw	a5,4(a4)
    50d6:	6741                	lui	a4,0x10
    50d8:	8ff9                	and	a5,a5,a4
    50da:	c781                	beqz	a5,50e2 <set_pwr_mode_sleep+0x20>
    50dc:	4501                	li	a0,0
    50de:	670020ef          	jal	ra,774e <RCC_HSICmd>
    50e2:	e000f7b7          	lui	a5,0xe000f
    50e6:	d0078793          	addi	a5,a5,-768 # e000ed00 <_eusrstack+0xc0009d00>
    50ea:	4b98                	lw	a4,16(a5)
    50ec:	02876713          	ori	a4,a4,40
    50f0:	cb98                	sw	a4,16(a5)
    50f2:	4b98                	lw	a4,16(a5)
    50f4:	00876713          	ori	a4,a4,8
    50f8:	cb98                	sw	a4,16(a5)
    50fa:	10500073          	wfi
    50fe:	4b98                	lw	a4,16(a5)
    5100:	00876713          	ori	a4,a4,8
    5104:	cb98                	sw	a4,16(a5)
    5106:	10500073          	wfi
    510a:	88afb06f          	j	194 <__riscv_restore_0>

0000510e <set_pwr_mode_stop>:
    510e:	862fb2ef          	jal	t0,170 <__riscv_save_0>
    5112:	4501                	li	a0,0
    5114:	2301                	jal	5614 <flush_rgb>
    5116:	4529                	li	a0,10
    5118:	223000ef          	jal	ra,5b3a <Delay_Ms>
    511c:	6535                	lui	a0,0xd
    511e:	b7c50513          	addi	a0,a0,-1156 # cb7c <exp2_lookup_tb+0x558>
    5122:	77d050ef          	jal	ra,b09e <puts>
    5126:	4501                	li	a0,0
    5128:	d89fe0ef          	jal	ra,3eb0 <set_peripherals_state>
    512c:	cf1fd0ef          	jal	ra,2e1c <set_imu_sleep>
    5130:	4505                	li	a0,1
    5132:	eb5ff0ef          	jal	ra,4fe6 <setup_exti>
    5136:	4505                	li	a0,1
    5138:	660020ef          	jal	ra,7798 <RCC_LSICmd>
    513c:	06100513          	li	a0,97
    5140:	7b2020ef          	jal	ra,78f2 <RCC_GetFlagStatus>
    5144:	4785                	li	a5,1
    5146:	c519                	beqz	a0,5154 <set_pwr_mode_stop+0x46>
    5148:	f7bff0ef          	jal	ra,50c2 <set_pwr_mode_sleep>
    514c:	4501                	li	a0,0
    514e:	e99ff0ef          	jal	ra,4fe6 <setup_exti>
    5152:	4781                	li	a5,0
    5154:	853e                	mv	a0,a5
    5156:	83efb06f          	j	194 <__riscv_restore_0>

0000515a <ring_buffer_init>:
    515a:	cd0d                	beqz	a0,5194 <ring_buffer_init+0x3a>
    515c:	ffbfa2ef          	jal	t0,156 <__riscv_save_4>
    5160:	842a                	mv	s0,a0
    5162:	84ae                	mv	s1,a1
    5164:	4505                	li	a0,1
    5166:	c58d                	beqz	a1,5190 <ring_buffer_init+0x36>
    5168:	8a32                	mv	s4,a2
    516a:	4581                	li	a1,0
    516c:	462d                	li	a2,11
    516e:	00940513          	addi	a0,s0,9
    5172:	89b6                	mv	s3,a3
    5174:	893a                	mv	s2,a4
    5176:	840fb0ef          	jal	ra,1b6 <memset>
    517a:	4785                	li	a5,1
    517c:	c004                	sw	s1,0(s0)
    517e:	01442223          	sw	s4,4(s0)
    5182:	01340523          	sb	s3,10(s0)
    5186:	00f40423          	sb	a5,8(s0)
    518a:	012408a3          	sb	s2,17(s0)
    518e:	4501                	li	a0,0
    5190:	ffbfa06f          	j	18a <__riscv_restore_4>
    5194:	4505                	li	a0,1
    5196:	8082                	ret

00005198 <ring_buffer_push>:
    5198:	fd9fa2ef          	jal	t0,170 <__riscv_save_0>
    519c:	0ff00493          	li	s1,255
    51a0:	cd3d                	beqz	a0,521e <ring_buffer_push+0x86>
    51a2:	cdb5                	beqz	a1,521e <ring_buffer_push+0x86>
    51a4:	411c                	lw	a5,0(a0)
    51a6:	842a                	mv	s0,a0
    51a8:	cbbd                	beqz	a5,521e <ring_buffer_push+0x86>
    51aa:	01054483          	lbu	s1,16(a0)
    51ae:	e8bd                	bnez	s1,5224 <ring_buffer_push+0x8c>
    51b0:	00a54703          	lbu	a4,10(a0)
    51b4:	455c                	lw	a5,12(a0)
    51b6:	06e7d763          	bge	a5,a4,5224 <ring_buffer_push+0x8c>
    51ba:	01154783          	lbu	a5,17(a0)
    51be:	0ff7f913          	zext.b	s2,a5
    51c2:	00f67463          	bgeu	a2,a5,51ca <ring_buffer_push+0x32>
    51c6:	0ff67913          	zext.b	s2,a2
    51ca:	4785                	li	a5,1
    51cc:	00c40713          	addi	a4,s0,12
    51d0:	00f727af          	amoadd.w	a5,a5,(a4)
    51d4:	445c                	lw	a5,12(s0)
    51d6:	00944783          	lbu	a5,9(s0)
    51da:	00a44703          	lbu	a4,10(s0)
    51de:	0785                	addi	a5,a5,1
    51e0:	0ff7f793          	zext.b	a5,a5
    51e4:	00e7e363          	bltu	a5,a4,51ea <ring_buffer_push+0x52>
    51e8:	4781                	li	a5,0
    51ea:	01144503          	lbu	a0,17(s0)
    51ee:	00f404a3          	sb	a5,9(s0)
    51f2:	864a                	mv	a2,s2
    51f4:	02f507b3          	mul	a5,a0,a5
    51f8:	4008                	lw	a0,0(s0)
    51fa:	953e                	add	a0,a0,a5
    51fc:	fa5fa0ef          	jal	ra,1a0 <memcpy>
    5200:	405c                	lw	a5,4(s0)
    5202:	c791                	beqz	a5,520e <ring_buffer_push+0x76>
    5204:	00944703          	lbu	a4,9(s0)
    5208:	97ba                	add	a5,a5,a4
    520a:	01278023          	sb	s2,0(a5)
    520e:	00a44783          	lbu	a5,10(s0)
    5212:	4458                	lw	a4,12(s0)
    5214:	00f74563          	blt	a4,a5,521e <ring_buffer_push+0x86>
    5218:	4785                	li	a5,1
    521a:	00f40823          	sb	a5,16(s0)
    521e:	8526                	mv	a0,s1
    5220:	f75fa06f          	j	194 <__riscv_restore_0>
    5224:	4485                	li	s1,1
    5226:	bfe5                	j	521e <ring_buffer_push+0x86>

00005228 <ring_buffer_push_with_hdr>:
    5228:	f49fa2ef          	jal	t0,170 <__riscv_save_0>
    522c:	0ff00913          	li	s2,255
    5230:	cd41                	beqz	a0,52c8 <ring_buffer_push_with_hdr+0xa0>
    5232:	c9d9                	beqz	a1,52c8 <ring_buffer_push_with_hdr+0xa0>
    5234:	411c                	lw	a5,0(a0)
    5236:	842a                	mv	s0,a0
    5238:	cbc1                	beqz	a5,52c8 <ring_buffer_push_with_hdr+0xa0>
    523a:	01054903          	lbu	s2,16(a0)
    523e:	08091863          	bnez	s2,52ce <ring_buffer_push_with_hdr+0xa6>
    5242:	00a54703          	lbu	a4,10(a0)
    5246:	455c                	lw	a5,12(a0)
    5248:	08e7d363          	bge	a5,a4,52ce <ring_buffer_push_with_hdr+0xa6>
    524c:	01154783          	lbu	a5,17(a0)
    5250:	84b2                	mv	s1,a2
    5252:	00f66563          	bltu	a2,a5,525c <ring_buffer_push_with_hdr+0x34>
    5256:	17fd                	addi	a5,a5,-1
    5258:	0ff7f493          	zext.b	s1,a5
    525c:	4785                	li	a5,1
    525e:	00c40713          	addi	a4,s0,12
    5262:	00f727af          	amoadd.w	a5,a5,(a4)
    5266:	445c                	lw	a5,12(s0)
    5268:	00944783          	lbu	a5,9(s0)
    526c:	00a44703          	lbu	a4,10(s0)
    5270:	0785                	addi	a5,a5,1
    5272:	0ff7f793          	zext.b	a5,a5
    5276:	00e7e363          	bltu	a5,a4,527c <ring_buffer_push_with_hdr+0x54>
    527a:	4781                	li	a5,0
    527c:	01144703          	lbu	a4,17(s0)
    5280:	00f404a3          	sb	a5,9(s0)
    5284:	8626                	mv	a2,s1
    5286:	02f70733          	mul	a4,a4,a5
    528a:	401c                	lw	a5,0(s0)
    528c:	97ba                	add	a5,a5,a4
    528e:	00d78023          	sb	a3,0(a5)
    5292:	01144783          	lbu	a5,17(s0)
    5296:	00944703          	lbu	a4,9(s0)
    529a:	4008                	lw	a0,0(s0)
    529c:	02e787b3          	mul	a5,a5,a4
    52a0:	0785                	addi	a5,a5,1
    52a2:	953e                	add	a0,a0,a5
    52a4:	efdfa0ef          	jal	ra,1a0 <memcpy>
    52a8:	405c                	lw	a5,4(s0)
    52aa:	c799                	beqz	a5,52b8 <ring_buffer_push_with_hdr+0x90>
    52ac:	00944703          	lbu	a4,9(s0)
    52b0:	0485                	addi	s1,s1,1
    52b2:	97ba                	add	a5,a5,a4
    52b4:	00978023          	sb	s1,0(a5)
    52b8:	00a44783          	lbu	a5,10(s0)
    52bc:	4458                	lw	a4,12(s0)
    52be:	00f74563          	blt	a4,a5,52c8 <ring_buffer_push_with_hdr+0xa0>
    52c2:	4785                	li	a5,1
    52c4:	00f40823          	sb	a5,16(s0)
    52c8:	854a                	mv	a0,s2
    52ca:	ecbfa06f          	j	194 <__riscv_restore_0>
    52ce:	4905                	li	s2,1
    52d0:	bfe5                	j	52c8 <ring_buffer_push_with_hdr+0xa0>

000052d2 <ring_buffer_pop>:
    52d2:	87aa                	mv	a5,a0
    52d4:	c531                	beqz	a0,5320 <ring_buffer_pop+0x4e>
    52d6:	4118                	lw	a4,0(a0)
    52d8:	0ff00513          	li	a0,255
    52dc:	c721                	beqz	a4,5324 <ring_buffer_pop+0x52>
    52de:	47d8                	lw	a4,12(a5)
    52e0:	e319                	bnez	a4,52e6 <ring_buffer_pop+0x14>
    52e2:	4501                	li	a0,0
    52e4:	8082                	ret
    52e6:	577d                	li	a4,-1
    52e8:	00c78693          	addi	a3,a5,12
    52ec:	00e6a72f          	amoadd.w	a4,a4,(a3)
    52f0:	47d8                	lw	a4,12(a5)
    52f2:	0087c703          	lbu	a4,8(a5)
    52f6:	00a7c683          	lbu	a3,10(a5)
    52fa:	0705                	addi	a4,a4,1 # 10001 <_data_lma+0x2fed>
    52fc:	0ff77713          	zext.b	a4,a4
    5300:	00d76363          	bltu	a4,a3,5306 <ring_buffer_pop+0x34>
    5304:	4701                	li	a4,0
    5306:	00e78423          	sb	a4,8(a5)
    530a:	0107c703          	lbu	a4,16(a5)
    530e:	db71                	beqz	a4,52e2 <ring_buffer_pop+0x10>
    5310:	47d8                	lw	a4,12(a5)
    5312:	00d726b3          	slt	a3,a4,a3
    5316:	0016c693          	xori	a3,a3,1
    531a:	00d78823          	sb	a3,16(a5)
    531e:	b7d1                	j	52e2 <ring_buffer_pop+0x10>
    5320:	0ff00513          	li	a0,255
    5324:	8082                	ret

00005326 <SPI_FullDuplex_Init>:
    5326:	e4bfa2ef          	jal	t0,170 <__riscv_save_0>
    532a:	6505                	lui	a0,0x1
    532c:	1101                	addi	sp,sp,-32
    532e:	4585                	li	a1,1
    5330:	0511                	addi	a0,a0,4 # 1004 <read_flash+0x20>
    5332:	c002                	sw	zero,0(sp)
    5334:	c202                	sw	zero,4(sp)
    5336:	c402                	sw	zero,8(sp)
    5338:	c602                	sw	zero,12(sp)
    533a:	c802                	sw	zero,16(sp)
    533c:	ca02                	sw	zero,20(sp)
    533e:	cc02                	sw	zero,24(sp)
    5340:	00011e23          	sh	zero,28(sp)
    5344:	536020ef          	jal	ra,787a <RCC_APB2PeriphClockCmd>
    5348:	08000793          	li	a5,128
    534c:	00f11023          	sh	a5,0(sp)
    5350:	40011537          	lui	a0,0x40011
    5354:	47e1                	li	a5,24
    5356:	c43e                	sw	a5,8(sp)
    5358:	858a                	mv	a1,sp
    535a:	478d                	li	a5,3
    535c:	80050513          	addi	a0,a0,-2048 # 40010800 <_eusrstack+0x2000b800>
    5360:	c23e                	sw	a5,4(sp)
    5362:	791010ef          	jal	ra,72f2 <GPIO_Init>
    5366:	0104c7b7          	lui	a5,0x104c
    536a:	c63e                	sw	a5,12(sp)
    536c:	020007b7          	lui	a5,0x2000
    5370:	ca3e                	sw	a5,20(sp)
    5372:	02000793          	li	a5,32
    5376:	cc3e                	sw	a5,24(sp)
    5378:	006c                	addi	a1,sp,12
    537a:	479d                	li	a5,7
    537c:	40013537          	lui	a0,0x40013
    5380:	00f11e23          	sh	a5,28(sp)
    5384:	c802                	sw	zero,16(sp)
    5386:	59a020ef          	jal	ra,7920 <SPI_Init>
    538a:	4605                	li	a2,1
    538c:	4589                	li	a1,2
    538e:	40013537          	lui	a0,0x40013
    5392:	606020ef          	jal	ra,7998 <SPI_I2S_DMACmd>
    5396:	6105                	addi	sp,sp,32
    5398:	dfdfa06f          	j	194 <__riscv_restore_0>

0000539c <spi_DMA_Tx_Init>:
    539c:	dbbfa2ef          	jal	t0,156 <__riscv_save_4>
    53a0:	7179                	addi	sp,sp,-48
    53a2:	842a                	mv	s0,a0
    53a4:	89ae                	mv	s3,a1
    53a6:	8932                	mv	s2,a2
    53a8:	4581                	li	a1,0
    53aa:	02c00613          	li	a2,44
    53ae:	0048                	addi	a0,sp,4
    53b0:	84b6                	mv	s1,a3
    53b2:	e05fa0ef          	jal	ra,1b6 <memset>
    53b6:	4585                	li	a1,1
    53b8:	4505                	li	a0,1
    53ba:	4a2020ef          	jal	ra,785c <RCC_AHBPeriphClockCmd>
    53be:	8522                	mv	a0,s0
    53c0:	2a7010ef          	jal	ra,6e66 <DMA_DeInit>
    53c4:	47c1                	li	a5,16
    53c6:	c63e                	sw	a5,12(sp)
    53c8:	08000793          	li	a5,128
    53cc:	cc3e                	sw	a5,24(sp)
    53ce:	004c                	addi	a1,sp,4
    53d0:	6785                	lui	a5,0x1
    53d2:	8522                	mv	a0,s0
    53d4:	c24e                	sw	s3,4(sp)
    53d6:	c44a                	sw	s2,8(sp)
    53d8:	c826                	sw	s1,16(sp)
    53da:	d43e                	sw	a5,40(sp)
    53dc:	ca02                	sw	zero,20(sp)
    53de:	ce02                	sw	zero,28(sp)
    53e0:	d002                	sw	zero,32(sp)
    53e2:	d202                	sw	zero,36(sp)
    53e4:	d602                	sw	zero,44(sp)
    53e6:	361010ef          	jal	ra,6f46 <DMA_Init>
    53ea:	6145                	addi	sp,sp,48
    53ec:	d9ffa06f          	j	18a <__riscv_restore_4>

000053f0 <rgb_spi_pkg_gen>:
    53f0:	010006b7          	lui	a3,0x1000
    53f4:	1141                	addi	sp,sp,-16
    53f6:	4701                	li	a4,0
    53f8:	4781                	li	a5,0
    53fa:	82018593          	addi	a1,gp,-2016 # 20001348 <spi_rgb_trans>
    53fe:	16fd                	addi	a3,a3,-1 # ffffff <_data_lma+0xff2feb>
    5400:	4861                	li	a6,24
    5402:	00157613          	andi	a2,a0,1
    5406:	962e                	add	a2,a2,a1
    5408:	00064603          	lbu	a2,0(a2)
    540c:	8105                	srli	a0,a0,0x1
    540e:	00e61633          	sll	a2,a2,a4
    5412:	8fd1                	or	a5,a5,a2
    5414:	070d                	addi	a4,a4,3
    5416:	8ff5                	and	a5,a5,a3
    5418:	ff0715e3          	bne	a4,a6,5402 <rgb_spi_pkg_gen+0x12>
    541c:	01079513          	slli	a0,a5,0x10
    5420:	8141                	srli	a0,a0,0x10
    5422:	9ea19c23          	sh	a0,-1544(gp) # 20001520 <p.2>
    5426:	83c1                	srli	a5,a5,0x10
    5428:	0ff57513          	zext.b	a0,a0
    542c:	9f818693          	addi	a3,gp,-1544 # 20001520 <p.2>
    5430:	00a68123          	sb	a0,2(a3)
    5434:	9ef18c23          	sb	a5,-1544(gp) # 20001520 <p.2>
    5438:	9f81d783          	lhu	a5,-1544(gp) # 20001520 <p.2>
    543c:	0542                	slli	a0,a0,0x10
    543e:	8d5d                	or	a0,a0,a5
    5440:	0141                	addi	sp,sp,16
    5442:	8082                	ret

00005444 <set_led_rgb>:
    5444:	d13fa2ef          	jal	t0,156 <__riscv_save_4>
    5448:	4a8d                	li	s5,3
    544a:	035504b3          	mul	s1,a0,s5
    544e:	20003437          	lui	s0,0x20003
    5452:	8532                	mv	a0,a2
    5454:	14040413          	addi	s0,s0,320 # 20003140 <spi_tx_buf>
    5458:	8a2e                	mv	s4,a1
    545a:	89b6                	mv	s3,a3
    545c:	f95ff0ef          	jal	ra,53f0 <rgb_spi_pkg_gen>
    5460:	00855793          	srli	a5,a0,0x8
    5464:	01048913          	addi	s2,s1,16
    5468:	03590933          	mul	s2,s2,s5
    546c:	9922                	add	s2,s2,s0
    546e:	00a90023          	sb	a0,0(s2)
    5472:	8141                	srli	a0,a0,0x10
    5474:	00f900a3          	sb	a5,1(s2)
    5478:	00a90123          	sb	a0,2(s2)
    547c:	01148913          	addi	s2,s1,17
    5480:	03590933          	mul	s2,s2,s5
    5484:	04c9                	addi	s1,s1,18
    5486:	8552                	mv	a0,s4
    5488:	f69ff0ef          	jal	ra,53f0 <rgb_spi_pkg_gen>
    548c:	00855793          	srli	a5,a0,0x8
    5490:	035484b3          	mul	s1,s1,s5
    5494:	9922                	add	s2,s2,s0
    5496:	00a90023          	sb	a0,0(s2)
    549a:	8141                	srli	a0,a0,0x10
    549c:	00a90123          	sb	a0,2(s2)
    54a0:	854e                	mv	a0,s3
    54a2:	00f900a3          	sb	a5,1(s2)
    54a6:	f4bff0ef          	jal	ra,53f0 <rgb_spi_pkg_gen>
    54aa:	00855793          	srli	a5,a0,0x8
    54ae:	9426                	add	s0,s0,s1
    54b0:	00a40023          	sb	a0,0(s0)
    54b4:	8141                	srli	a0,a0,0x10
    54b6:	00f400a3          	sb	a5,1(s0)
    54ba:	00a40123          	sb	a0,2(s0)
    54be:	ccdfa06f          	j	18a <__riscv_restore_4>

000054c2 <flush_spi_tx_seq>:
    54c2:	c87fa2ef          	jal	t0,148 <__riscv_save_10>
    54c6:	7bc18793          	addi	a5,gp,1980 # 200022e4 <smashpro_factory_config>
    54ca:	0077ca83          	lbu	s5,7(a5) # 1007 <read_flash+0x23>
    54ce:	7bc18413          	addi	s0,gp,1980 # 200022e4 <smashpro_factory_config>
    54d2:	e979                	bnez	a0,55a8 <flush_spi_tx_seq+0xe6>
    54d4:	000a8763          	beqz	s5,54e2 <flush_spi_tx_seq+0x20>
    54d8:	4581                	li	a1,0
    54da:	00028537          	lui	a0,0x28
    54de:	876fc0ef          	jal	ra,1554 <gpio_set>
    54e2:	4481                	li	s1,0
    54e4:	00a44783          	lbu	a5,10(s0)
    54e8:	00f4c463          	blt	s1,a5,54f0 <flush_spi_tx_seq+0x2e>
    54ec:	c95fa06f          	j	180 <__riscv_restore_10>
    54f0:	0ff4f513          	zext.b	a0,s1
    54f4:	4681                	li	a3,0
    54f6:	4601                	li	a2,0
    54f8:	4581                	li	a1,0
    54fa:	f4bff0ef          	jal	ra,5444 <set_led_rgb>
    54fe:	0485                	addi	s1,s1,1
    5500:	b7d5                	j	54e4 <flush_spi_tx_seq+0x22>
    5502:	0009c703          	lbu	a4,0(s3)
    5506:	8b09                	andi	a4,a4,2
    5508:	c735                	beqz	a4,5574 <flush_spi_tx_seq+0xb2>
    550a:	4681                	li	a3,0
    550c:	4601                	li	a2,0
    550e:	4581                	li	a1,0
    5510:	0ff4f513          	zext.b	a0,s1
    5514:	f31ff0ef          	jal	ra,5444 <set_led_rgb>
    5518:	0485                	addi	s1,s1,1
    551a:	00a44703          	lbu	a4,10(s0)
    551e:	00844783          	lbu	a5,8(s0)
    5522:	fee4c0e3          	blt	s1,a4,5502 <flush_spi_tx_seq+0x40>
    5526:	4705                	li	a4,1
    5528:	4491                	li	s1,4
    552a:	00e79363          	bne	a5,a4,5530 <flush_spi_tx_seq+0x6e>
    552e:	44b1                	li	s1,12
    5530:	00944783          	lbu	a5,9(s0)
    5534:	eb85                	bnez	a5,5564 <flush_spi_tx_seq+0xa2>
    5536:	20002437          	lui	s0,0x20002
    553a:	2f040413          	addi	s0,s0,752 # 200022f0 <rgb_data>
    553e:	02344683          	lbu	a3,35(s0)
    5542:	02244603          	lbu	a2,34(s0)
    5546:	02144583          	lbu	a1,33(s0)
    554a:	8526                	mv	a0,s1
    554c:	ef9ff0ef          	jal	ra,5444 <set_led_rgb>
    5550:	03244683          	lbu	a3,50(s0)
    5554:	03144603          	lbu	a2,49(s0)
    5558:	03044583          	lbu	a1,48(s0)
    555c:	00148513          	addi	a0,s1,1
    5560:	ee5ff0ef          	jal	ra,5444 <set_led_rgb>
    5564:	f80a84e3          	beqz	s5,54ec <flush_spi_tx_seq+0x2a>
    5568:	4585                	li	a1,1
    556a:	00028537          	lui	a0,0x28
    556e:	fe7fb0ef          	jal	ra,1554 <gpio_set>
    5572:	bfad                	j	54ec <flush_spi_tx_seq+0x2a>
    5574:	c395                	beqz	a5,5598 <flush_spi_tx_seq+0xd6>
    5576:	03778463          	beq	a5,s7,559e <flush_spi_tx_seq+0xdc>
    557a:	036907b3          	mul	a5,s2,s6
    557e:	0ff4f513          	zext.b	a0,s1
    5582:	0905                	addi	s2,s2,1
    5584:	97d2                	add	a5,a5,s4
    5586:	0027c683          	lbu	a3,2(a5)
    558a:	0017c603          	lbu	a2,1(a5)
    558e:	0007c583          	lbu	a1,0(a5)
    5592:	eb3ff0ef          	jal	ra,5444 <set_led_rgb>
    5596:	b749                	j	5518 <flush_spi_tx_seq+0x56>
    5598:	fe9b41e3          	blt	s6,s1,557a <flush_spi_tx_seq+0xb8>
    559c:	bfb5                	j	5518 <flush_spi_tx_seq+0x56>
    559e:	ffc48793          	addi	a5,s1,-4
    55a2:	fcfb6ce3          	bltu	s6,a5,557a <flush_spi_tx_seq+0xb8>
    55a6:	bf8d                	j	5518 <flush_spi_tx_seq+0x56>
    55a8:	200029b7          	lui	s3,0x20002
    55ac:	20002a37          	lui	s4,0x20002
    55b0:	4901                	li	s2,0
    55b2:	4481                	li	s1,0
    55b4:	3f098993          	addi	s3,s3,1008 # 200023f0 <user_config>
    55b8:	2f0a0a13          	addi	s4,s4,752 # 200022f0 <rgb_data>
    55bc:	4b0d                	li	s6,3
    55be:	4b85                	li	s7,1
    55c0:	bfa9                	j	551a <flush_spi_tx_seq+0x58>

000055c2 <_flush_rgb>:
    55c2:	baffa2ef          	jal	t0,170 <__riscv_save_0>
    55c6:	4581                	li	a1,0
    55c8:	40013537          	lui	a0,0x40013
    55cc:	3ae020ef          	jal	ra,797a <SPI_Cmd>
    55d0:	40020437          	lui	s0,0x40020
    55d4:	03040513          	addi	a0,s0,48 # 40020030 <_eusrstack+0x2001b030>
    55d8:	4581                	li	a1,0
    55da:	1a5010ef          	jal	ra,6f7e <DMA_Cmd>
    55de:	200037b7          	lui	a5,0x20003
    55e2:	03040513          	addi	a0,s0,48
    55e6:	14078793          	addi	a5,a5,320 # 20003140 <spi_tx_buf>
    55ea:	c55c                	sw	a5,12(a0)
    55ec:	7c61c783          	lbu	a5,1990(gp) # 200022ee <smashpro_factory_config+0xa>
    55f0:	470d                	li	a4,3
    55f2:	4585                	li	a1,1
    55f4:	02e787b3          	mul	a5,a5,a4
    55f8:	02078793          	addi	a5,a5,32
    55fc:	02e787b3          	mul	a5,a5,a4
    5600:	c15c                	sw	a5,4(a0)
    5602:	17d010ef          	jal	ra,6f7e <DMA_Cmd>
    5606:	4585                	li	a1,1
    5608:	40013537          	lui	a0,0x40013
    560c:	36e020ef          	jal	ra,797a <SPI_Cmd>
    5610:	b85fa06f          	j	194 <__riscv_restore_0>

00005614 <flush_rgb>:
    5614:	b5dfa2ef          	jal	t0,170 <__riscv_save_0>
    5618:	842a                	mv	s0,a0
    561a:	ea9ff0ef          	jal	ra,54c2 <flush_spi_tx_seq>
    561e:	8522                	mv	a0,s0
    5620:	fa3ff0ef          	jal	ra,55c2 <_flush_rgb>
    5624:	b71fa06f          	j	194 <__riscv_restore_0>

00005628 <spi_init>:
    5628:	b49fa2ef          	jal	t0,170 <__riscv_save_0>
    562c:	20003437          	lui	s0,0x20003
    5630:	35d00613          	li	a2,861
    5634:	4581                	li	a1,0
    5636:	14040513          	addi	a0,s0,320 # 20003140 <spi_tx_buf>
    563a:	b7dfa0ef          	jal	ra,1b6 <memset>
    563e:	ce9ff0ef          	jal	ra,5326 <SPI_FullDuplex_Init>
    5642:	4509                	li	a0,2
    5644:	29dd                	jal	5b3a <Delay_Ms>
    5646:	7c61c783          	lbu	a5,1990(gp) # 200022ee <smashpro_factory_config+0xa>
    564a:	470d                	li	a4,3
    564c:	468d                	li	a3,3
    564e:	02e787b3          	mul	a5,a5,a4
    5652:	400135b7          	lui	a1,0x40013
    5656:	40020537          	lui	a0,0x40020
    565a:	14040613          	addi	a2,s0,320
    565e:	05b1                	addi	a1,a1,12 # 4001300c <_eusrstack+0x2000e00c>
    5660:	03050513          	addi	a0,a0,48 # 40020030 <_eusrstack+0x2001b030>
    5664:	02078793          	addi	a5,a5,32
    5668:	02d786b3          	mul	a3,a5,a3
    566c:	d31ff0ef          	jal	ra,539c <spi_DMA_Tx_Init>
    5670:	4505                	li	a0,1
    5672:	fa3ff0ef          	jal	ra,5614 <flush_rgb>
    5676:	4501                	li	a0,0
    5678:	b1dfa06f          	j	194 <__riscv_restore_0>

0000567c <set_indicate_led_function>:
    567c:	adbfa2ef          	jal	t0,156 <__riscv_save_4>
    5680:	7c41c403          	lbu	s0,1988(gp) # 200022ec <smashpro_factory_config+0x8>
    5684:	200037b7          	lui	a5,0x20003
    5688:	11a7c683          	lbu	a3,282(a5) # 2000311a <connection_state+0x2>
    568c:	03200793          	li	a5,50
    5690:	147d                	addi	s0,s0,-1
    5692:	02f686b3          	mul	a3,a3,a5
    5696:	00143413          	seqz	s0,s0
    569a:	040a                	slli	s0,s0,0x2
    569c:	8522                	mv	a0,s0
    569e:	00140493          	addi	s1,s0,1
    56a2:	0ff6f693          	zext.b	a3,a3
    56a6:	8636                	mv	a2,a3
    56a8:	85b6                	mv	a1,a3
    56aa:	d9bff0ef          	jal	ra,5444 <set_led_rgb>
    56ae:	200027b7          	lui	a5,0x20002
    56b2:	3f07ca03          	lbu	s4,1008(a5) # 200023f0 <user_config>
    56b6:	3f078993          	addi	s3,a5,1008
    56ba:	4681                	li	a3,0
    56bc:	018a1913          	slli	s2,s4,0x18
    56c0:	41895913          	srai	s2,s2,0x18
    56c4:	00094463          	bltz	s2,56cc <set_indicate_led_function+0x50>
    56c8:	03200693          	li	a3,50
    56cc:	8636                	mv	a2,a3
    56ce:	85b6                	mv	a1,a3
    56d0:	8526                	mv	a0,s1
    56d2:	d73ff0ef          	jal	ra,5444 <set_led_rgb>
    56d6:	9f11c683          	lbu	a3,-1551(gp) # 20001519 <force_esp32_active>
    56da:	03200793          	li	a5,50
    56de:	00340513          	addi	a0,s0,3
    56e2:	02f686b3          	mul	a3,a3,a5
    56e6:	0ff6f693          	zext.b	a3,a3
    56ea:	8636                	mv	a2,a3
    56ec:	85b6                	mv	a1,a3
    56ee:	d57ff0ef          	jal	ra,5444 <set_led_rgb>
    56f2:	00094f63          	bltz	s2,5710 <set_indicate_led_function+0x94>
    56f6:	98c1c783          	lbu	a5,-1652(gp) # 200014b4 <imu_error>
    56fa:	e781                	bnez	a5,5702 <set_indicate_led_function+0x86>
    56fc:	97b1c783          	lbu	a5,-1669(gp) # 200014a3 <i2c_status>
    5700:	eb81                	bnez	a5,5710 <set_indicate_led_function+0x94>
    5702:	4681                	li	a3,0
    5704:	4601                	li	a2,0
    5706:	03200593          	li	a1,50
    570a:	8526                	mv	a0,s1
    570c:	d39ff0ef          	jal	ra,5444 <set_led_rgb>
    5710:	020a7793          	andi	a5,s4,32
    5714:	0409                	addi	s0,s0,2
    5716:	4681                	li	a3,0
    5718:	eb81                	bnez	a5,5728 <set_indicate_led_function+0xac>
    571a:	0019c783          	lbu	a5,1(s3)
    571e:	0207f793          	andi	a5,a5,32
    5722:	c785                	beqz	a5,574a <set_indicate_led_function+0xce>
    5724:	03200693          	li	a3,50
    5728:	4601                	li	a2,0
    572a:	4581                	li	a1,0
    572c:	8522                	mv	a0,s0
    572e:	d17ff0ef          	jal	ra,5444 <set_led_rgb>
    5732:	9141c783          	lbu	a5,-1772(gp) # 2000143c <rumble_rb_overflow>
    5736:	cb81                	beqz	a5,5746 <set_indicate_led_function+0xca>
    5738:	4681                	li	a3,0
    573a:	4601                	li	a2,0
    573c:	03200593          	li	a1,50
    5740:	8522                	mv	a0,s0
    5742:	d03ff0ef          	jal	ra,5444 <set_led_rgb>
    5746:	a45fa06f          	j	18a <__riscv_restore_4>
    574a:	4681                	li	a3,0
    574c:	03200613          	li	a2,50
    5750:	bfe9                	j	572a <set_indicate_led_function+0xae>

00005752 <set_indicate_led_player>:
    5752:	a05fa2ef          	jal	t0,156 <__riscv_save_4>
    5756:	7c41c403          	lbu	s0,1988(gp) # 200022ec <smashpro_factory_config+0x8>
    575a:	9fc1c903          	lbu	s2,-1540(gp) # 20001524 <indi_status>
    575e:	147d                	addi	s0,s0,-1
    5760:	00143413          	seqz	s0,s0
    5764:	040a                	slli	s0,s0,0x2
    5766:	c509                	beqz	a0,5770 <set_indicate_led_player+0x1e>
    5768:	00495793          	srli	a5,s2,0x4
    576c:	0127e933          	or	s2,a5,s2
    5770:	02090863          	beqz	s2,57a0 <set_indicate_led_player+0x4e>
    5774:	4481                	li	s1,0
    5776:	4991                	li	s3,4
    5778:	409957b3          	sra	a5,s2,s1
    577c:	00940533          	add	a0,s0,s1
    5780:	8b85                	andi	a5,a5,1
    5782:	0ff57513          	zext.b	a0,a0
    5786:	4681                	li	a3,0
    5788:	4601                	li	a2,0
    578a:	03200593          	li	a1,50
    578e:	e391                	bnez	a5,5792 <set_indicate_led_player+0x40>
    5790:	4581                	li	a1,0
    5792:	0485                	addi	s1,s1,1
    5794:	cb1ff0ef          	jal	ra,5444 <set_led_rgb>
    5798:	ff3490e3          	bne	s1,s3,5778 <set_indicate_led_player+0x26>
    579c:	9effa06f          	j	18a <__riscv_restore_4>
    57a0:	8522                	mv	a0,s0
    57a2:	03200693          	li	a3,50
    57a6:	03200613          	li	a2,50
    57aa:	03200593          	li	a1,50
    57ae:	c97ff0ef          	jal	ra,5444 <set_led_rgb>
    57b2:	00140513          	addi	a0,s0,1
    57b6:	03200693          	li	a3,50
    57ba:	03200613          	li	a2,50
    57be:	03200593          	li	a1,50
    57c2:	c83ff0ef          	jal	ra,5444 <set_led_rgb>
    57c6:	00240513          	addi	a0,s0,2
    57ca:	03200693          	li	a3,50
    57ce:	03200613          	li	a2,50
    57d2:	03200593          	li	a1,50
    57d6:	c6fff0ef          	jal	ra,5444 <set_led_rgb>
    57da:	03200693          	li	a3,50
    57de:	03200613          	li	a2,50
    57e2:	03200593          	li	a1,50
    57e6:	00340513          	addi	a0,s0,3
    57ea:	c5bff0ef          	jal	ra,5444 <set_led_rgb>
    57ee:	b77d                	j	579c <set_indicate_led_player+0x4a>

000057f0 <set_indicate_led_status>:
    57f0:	9ea18e23          	sb	a0,-1540(gp) # 20001524 <indi_status>
    57f4:	4705                	li	a4,1
    57f6:	80e18e23          	sb	a4,-2020(gp) # 20001344 <indicate_led_updated>
    57fa:	8082                	ret

000057fc <set_indicate_led_mode>:
    57fc:	9fb1c703          	lbu	a4,-1541(gp) # 20001523 <indicate_led_override>
    5800:	00a70763          	beq	a4,a0,580e <set_indicate_led_mode+0x12>
    5804:	9ea18da3          	sb	a0,-1541(gp) # 20001523 <indicate_led_override>
    5808:	4705                	li	a4,1
    580a:	80e18e23          	sb	a4,-2020(gp) # 20001344 <indicate_led_updated>
    580e:	8082                	ret

00005810 <indicate_rgb_task>:
    5810:	961fa2ef          	jal	t0,170 <__riscv_save_0>
    5814:	842a                	mv	s0,a0
    5816:	2475                	jal	5ac2 <Get_Systick_MS>
    5818:	9f41a783          	lw	a5,-1548(gp) # 2000151c <indicate_rgb_task_tick.0>
    581c:	8d1d                	sub	a0,a0,a5
    581e:	479d                	li	a5,7
    5820:	00a7fd63          	bgeu	a5,a0,583a <indicate_rgb_task+0x2a>
    5824:	2c79                	jal	5ac2 <Get_Systick_MS>
    5826:	9fb1c783          	lbu	a5,-1541(gp) # 20001523 <indicate_led_override>
    582a:	9ea1aa23          	sw	a0,-1548(gp) # 2000151c <indicate_rgb_task_tick.0>
    582e:	cb81                	beqz	a5,583e <indicate_rgb_task+0x2e>
    5830:	e4dff0ef          	jal	ra,567c <set_indicate_led_function>
    5834:	4505                	li	a0,1
    5836:	d8dff0ef          	jal	ra,55c2 <_flush_rgb>
    583a:	95bfa06f          	j	194 <__riscv_restore_0>
    583e:	81c1c783          	lbu	a5,-2020(gp) # 20001344 <indicate_led_updated>
    5842:	dfe5                	beqz	a5,583a <indicate_rgb_task+0x2a>
    5844:	8522                	mv	a0,s0
    5846:	f0dff0ef          	jal	ra,5752 <set_indicate_led_player>
    584a:	4505                	li	a0,1
    584c:	d77ff0ef          	jal	ra,55c2 <_flush_rgb>
    5850:	80018e23          	sb	zero,-2020(gp) # 20001344 <indicate_led_updated>
    5854:	b7dd                	j	583a <indicate_rgb_task+0x2a>

00005856 <DMA1_Channel3_IRQHandler>:
    5856:	20000513          	li	a0,512
    585a:	77a010ef          	jal	ra,6fd4 <DMA_GetITStatus>
    585e:	c10d                	beqz	a0,5880 <DMA1_Channel3_IRQHandler+0x2a>
    5860:	10000513          	li	a0,256
    5864:	774010ef          	jal	ra,6fd8 <DMA_ClearITPendingBit>
    5868:	40020537          	lui	a0,0x40020
    586c:	4581                	li	a1,0
    586e:	03050513          	addi	a0,a0,48 # 40020030 <_eusrstack+0x2001b030>
    5872:	70c010ef          	jal	ra,6f7e <DMA_Cmd>
    5876:	4581                	li	a1,0
    5878:	40013537          	lui	a0,0x40013
    587c:	0fe020ef          	jal	ra,797a <SPI_Cmd>
    5880:	30200073          	mret

00005884 <SetSysClockTo72_HSE>:
    5884:	1141                	addi	sp,sp,-16
    5886:	c402                	sw	zero,8(sp)
    5888:	40021737          	lui	a4,0x40021
    588c:	c602                	sw	zero,12(sp)
    588e:	431c                	lw	a5,0(a4)
    5890:	66c1                	lui	a3,0x10
    5892:	00020637          	lui	a2,0x20
    5896:	8fd5                	or	a5,a5,a3
    5898:	c31c                	sw	a5,0(a4)
    589a:	400216b7          	lui	a3,0x40021
    589e:	6715                	lui	a4,0x5
    58a0:	429c                	lw	a5,0(a3)
    58a2:	8ff1                	and	a5,a5,a2
    58a4:	c63e                	sw	a5,12(sp)
    58a6:	47a2                	lw	a5,8(sp)
    58a8:	0785                	addi	a5,a5,1
    58aa:	c43e                	sw	a5,8(sp)
    58ac:	47b2                	lw	a5,12(sp)
    58ae:	e781                	bnez	a5,58b6 <SetSysClockTo72_HSE+0x32>
    58b0:	47a2                	lw	a5,8(sp)
    58b2:	fee797e3          	bne	a5,a4,58a0 <SetSysClockTo72_HSE+0x1c>
    58b6:	400217b7          	lui	a5,0x40021
    58ba:	439c                	lw	a5,0(a5)
    58bc:	00020737          	lui	a4,0x20
    58c0:	8ff9                	and	a5,a5,a4
    58c2:	c3c9                	beqz	a5,5944 <SetSysClockTo72_HSE+0xc0>
    58c4:	4785                	li	a5,1
    58c6:	c63e                	sw	a5,12(sp)
    58c8:	4732                	lw	a4,12(sp)
    58ca:	4785                	li	a5,1
    58cc:	06f71e63          	bne	a4,a5,5948 <SetSysClockTo72_HSE+0xc4>
    58d0:	400227b7          	lui	a5,0x40022
    58d4:	4398                	lw	a4,0(a5)
    58d6:	ffc106b7          	lui	a3,0xffc10
    58da:	16fd                	addi	a3,a3,-1 # ffc0ffff <_eusrstack+0xdfc0afff>
    58dc:	01076713          	ori	a4,a4,16
    58e0:	c398                	sw	a4,0(a5)
    58e2:	4398                	lw	a4,0(a5)
    58e4:	9b71                	andi	a4,a4,-4
    58e6:	c398                	sw	a4,0(a5)
    58e8:	4398                	lw	a4,0(a5)
    58ea:	00276713          	ori	a4,a4,2
    58ee:	c398                	sw	a4,0(a5)
    58f0:	400217b7          	lui	a5,0x40021
    58f4:	43d8                	lw	a4,4(a5)
    58f6:	c3d8                	sw	a4,4(a5)
    58f8:	43d8                	lw	a4,4(a5)
    58fa:	c3d8                	sw	a4,4(a5)
    58fc:	43d8                	lw	a4,4(a5)
    58fe:	c3d8                	sw	a4,4(a5)
    5900:	43d8                	lw	a4,4(a5)
    5902:	8f75                	and	a4,a4,a3
    5904:	c3d8                	sw	a4,4(a5)
    5906:	43d8                	lw	a4,4(a5)
    5908:	001d06b7          	lui	a3,0x1d0
    590c:	8f55                	or	a4,a4,a3
    590e:	c3d8                	sw	a4,4(a5)
    5910:	4398                	lw	a4,0(a5)
    5912:	010006b7          	lui	a3,0x1000
    5916:	8f55                	or	a4,a4,a3
    5918:	c398                	sw	a4,0(a5)
    591a:	020006b7          	lui	a3,0x2000
    591e:	4398                	lw	a4,0(a5)
    5920:	8f75                	and	a4,a4,a3
    5922:	df75                	beqz	a4,591e <SetSysClockTo72_HSE+0x9a>
    5924:	43d8                	lw	a4,4(a5)
    5926:	400216b7          	lui	a3,0x40021
    592a:	9b71                	andi	a4,a4,-4
    592c:	c3d8                	sw	a4,4(a5)
    592e:	43d8                	lw	a4,4(a5)
    5930:	00276713          	ori	a4,a4,2
    5934:	c3d8                	sw	a4,4(a5)
    5936:	4721                	li	a4,8
    5938:	42dc                	lw	a5,4(a3)
    593a:	8bb1                	andi	a5,a5,12
    593c:	fee79ee3          	bne	a5,a4,5938 <SetSysClockTo72_HSE+0xb4>
    5940:	0141                	addi	sp,sp,16
    5942:	8082                	ret
    5944:	c602                	sw	zero,12(sp)
    5946:	b749                	j	58c8 <SetSysClockTo72_HSE+0x44>
    5948:	a001                	j	5948 <SetSysClockTo72_HSE+0xc4>

0000594a <SystemInit>:
    594a:	400217b7          	lui	a5,0x40021
    594e:	4398                	lw	a4,0(a5)
    5950:	f8ff06b7          	lui	a3,0xf8ff0
    5954:	00176713          	ori	a4,a4,1
    5958:	c398                	sw	a4,0(a5)
    595a:	43d8                	lw	a4,4(a5)
    595c:	8f75                	and	a4,a4,a3
    595e:	c3d8                	sw	a4,4(a5)
    5960:	4398                	lw	a4,0(a5)
    5962:	fef706b7          	lui	a3,0xfef70
    5966:	16fd                	addi	a3,a3,-1 # fef6ffff <_eusrstack+0xdef6afff>
    5968:	8f75                	and	a4,a4,a3
    596a:	c398                	sw	a4,0(a5)
    596c:	4398                	lw	a4,0(a5)
    596e:	fffc06b7          	lui	a3,0xfffc0
    5972:	16fd                	addi	a3,a3,-1 # fffbffff <_eusrstack+0xdffbafff>
    5974:	8f75                	and	a4,a4,a3
    5976:	c398                	sw	a4,0(a5)
    5978:	43d8                	lw	a4,4(a5)
    597a:	ff8106b7          	lui	a3,0xff810
    597e:	16fd                	addi	a3,a3,-1 # ff80ffff <_eusrstack+0xdf80afff>
    5980:	8f75                	and	a4,a4,a3
    5982:	c3d8                	sw	a4,4(a5)
    5984:	009f0737          	lui	a4,0x9f0
    5988:	c798                	sw	a4,8(a5)
    598a:	efbff06f          	j	5884 <SetSysClockTo72_HSE>

0000598e <SystemCoreClockUpdate>:
    598e:	40021737          	lui	a4,0x40021
    5992:	435c                	lw	a5,4(a4)
    5994:	46a1                	li	a3,8
    5996:	8bb1                	andi	a5,a5,12
    5998:	06d79163          	bne	a5,a3,59fa <SystemCoreClockUpdate+0x6c>
    599c:	435c                	lw	a5,4(a4)
    599e:	4354                	lw	a3,4(a4)
    59a0:	6641                	lui	a2,0x10
    59a2:	83c9                	srli	a5,a5,0x12
    59a4:	8bbd                	andi	a5,a5,15
    59a6:	8ef1                	and	a3,a3,a2
    59a8:	0789                	addi	a5,a5,2 # 40021002 <_eusrstack+0x2001c002>
    59aa:	ee81                	bnez	a3,59c2 <SystemCoreClockUpdate+0x34>
    59ac:	40024737          	lui	a4,0x40024
    59b0:	80072703          	lw	a4,-2048(a4) # 40023800 <_eusrstack+0x2001e800>
    59b4:	8b41                	andi	a4,a4,16
    59b6:	cb19                	beqz	a4,59cc <SystemCoreClockUpdate+0x3e>
    59b8:	007a1737          	lui	a4,0x7a1
    59bc:	20070713          	addi	a4,a4,512 # 7a1200 <_data_lma+0x7941ec>
    59c0:	a811                	j	59d4 <SystemCoreClockUpdate+0x46>
    59c2:	4358                	lw	a4,4(a4)
    59c4:	000206b7          	lui	a3,0x20
    59c8:	8f75                	and	a4,a4,a3
    59ca:	d77d                	beqz	a4,59b8 <SystemCoreClockUpdate+0x2a>
    59cc:	003d1737          	lui	a4,0x3d1
    59d0:	90070713          	addi	a4,a4,-1792 # 3d0900 <_data_lma+0x3c38ec>
    59d4:	02e787b3          	mul	a5,a5,a4
    59d8:	40021737          	lui	a4,0x40021
    59dc:	4354                	lw	a3,4(a4)
    59de:	20001737          	lui	a4,0x20001
    59e2:	27870713          	addi	a4,a4,632 # 20001278 <AHBPrescTable>
    59e6:	8291                	srli	a3,a3,0x4
    59e8:	8abd                	andi	a3,a3,15
    59ea:	9736                	add	a4,a4,a3
    59ec:	00074703          	lbu	a4,0(a4)
    59f0:	00e7d7b3          	srl	a5,a5,a4
    59f4:	82f1a223          	sw	a5,-2012(gp) # 2000134c <SystemCoreClock>
    59f8:	8082                	ret
    59fa:	007a17b7          	lui	a5,0x7a1
    59fe:	20078793          	addi	a5,a5,512 # 7a1200 <_data_lma+0x7941ec>
    5a02:	bfd9                	j	59d8 <SystemCoreClockUpdate+0x4a>

00005a04 <SetSysClock>:
    5a04:	e81ff06f          	j	5884 <SetSysClockTo72_HSE>

00005a08 <TIM2_IRQHandler>:
    5a08:	4585                	li	a1,1
    5a0a:	40000537          	lui	a0,0x40000
    5a0e:	1e6020ef          	jal	ra,7bf4 <TIM_GetFlagStatus>
    5a12:	4785                	li	a5,1
    5a14:	00f51c63          	bne	a0,a5,5a2c <TIM2_IRQHandler+0x24>
    5a18:	a081a783          	lw	a5,-1528(gp) # 20001530 <Systick_MS>
    5a1c:	4585                	li	a1,1
    5a1e:	40000537          	lui	a0,0x40000
    5a22:	0785                	addi	a5,a5,1
    5a24:	a0f1a423          	sw	a5,-1528(gp) # 20001530 <Systick_MS>
    5a28:	1f4020ef          	jal	ra,7c1c <TIM_ClearITPendingBit>
    5a2c:	30200073          	mret

00005a30 <_systick_init>:
    5a30:	f40fa2ef          	jal	t0,170 <__riscv_save_0>
    5a34:	1101                	addi	sp,sp,-32
    5a36:	04700793          	li	a5,71
    5a3a:	ca3e                	sw	a5,20(sp)
    5a3c:	084c                	addi	a1,sp,20
    5a3e:	3e700793          	li	a5,999
    5a42:	40000537          	lui	a0,0x40000
    5a46:	cc3e                	sw	a5,24(sp)
    5a48:	767010ef          	jal	ra,79ae <TIM_TimeBaseInit>
    5a4c:	4605                	li	a2,1
    5a4e:	4585                	li	a1,1
    5a50:	40000537          	lui	a0,0x40000
    5a54:	134020ef          	jal	ra,7b88 <TIM_ITConfig>
    5a58:	4585                	li	a1,1
    5a5a:	40000537          	lui	a0,0x40000
    5a5e:	0f8020ef          	jal	ra,7b56 <TIM_Cmd>
    5a62:	02c00793          	li	a5,44
    5a66:	00f11623          	sh	a5,12(sp)
    5a6a:	4789                	li	a5,2
    5a6c:	00f10723          	sb	a5,14(sp)
    5a70:	0068                	addi	a0,sp,12
    5a72:	4785                	li	a5,1
    5a74:	c83e                	sw	a5,16(sp)
    5a76:	3f7010ef          	jal	ra,766c <NVIC_Init>
    5a7a:	6799                	lui	a5,0x6
    5a7c:	e000e737          	lui	a4,0xe000e
    5a80:	a0878793          	addi	a5,a5,-1528 # 5a08 <TIM2_IRQHandler>
    5a84:	c37c                	sw	a5,68(a4)
    5a86:	07b2                	slli	a5,a5,0xc
    5a88:	2c0006b7          	lui	a3,0x2c000
    5a8c:	83b1                	srli	a5,a5,0xc
    5a8e:	8fd5                	or	a5,a5,a3
    5a90:	d37c                	sw	a5,100(a4)
    5a92:	6105                	addi	sp,sp,32
    5a94:	f00fa06f          	j	194 <__riscv_restore_0>

00005a98 <SysTick_Init>:
    5a98:	a001a703          	lw	a4,-1536(gp) # 20001528 <inited.0>
    5a9c:	e711                	bnez	a4,5aa8 <SysTick_Init+0x10>
    5a9e:	4705                	li	a4,1
    5aa0:	a0e1a023          	sw	a4,-1536(gp) # 20001528 <inited.0>
    5aa4:	f8dff06f          	j	5a30 <_systick_init>
    5aa8:	8082                	ret

00005aaa <Get_Systick_US>:
    5aaa:	a081a783          	lw	a5,-1528(gp) # 20001530 <Systick_MS>
    5aae:	3e800713          	li	a4,1000
    5ab2:	02e787b3          	mul	a5,a5,a4
    5ab6:	40000737          	lui	a4,0x40000
    5aba:	02475503          	lhu	a0,36(a4) # 40000024 <_eusrstack+0x1fffb024>
    5abe:	953e                	add	a0,a0,a5
    5ac0:	8082                	ret

00005ac2 <Get_Systick_MS>:
    5ac2:	a081a503          	lw	a0,-1528(gp) # 20001530 <Systick_MS>
    5ac6:	8082                	ret

00005ac8 <HighPrecisionTimer_Init>:
    5ac8:	8241a783          	lw	a5,-2012(gp) # 2000134c <SystemCoreClock>
    5acc:	007a1737          	lui	a4,0x7a1
    5ad0:	20070713          	addi	a4,a4,512 # 7a1200 <_data_lma+0x7941ec>
    5ad4:	02e7d7b3          	divu	a5,a5,a4
    5ad8:	a0f18223          	sb	a5,-1532(gp) # 2000152c <p_us>
    5adc:	8082                	ret

00005ade <wait_nonblocking_us>:
    5ade:	e519                	bnez	a0,5aec <wait_nonblocking_us+0xe>
    5ae0:	4501                	li	a0,0
    5ae2:	8082                	ret
    5ae4:	4501                	li	a0,0
    5ae6:	0141                	addi	sp,sp,16
    5ae8:	eacfa06f          	j	194 <__riscv_restore_0>
    5aec:	e84fa2ef          	jal	t0,170 <__riscv_save_0>
    5af0:	1141                	addi	sp,sp,-16
    5af2:	842a                	mv	s0,a0
    5af4:	84ae                	mv	s1,a1
    5af6:	8932                	mv	s2,a2
    5af8:	fb3ff0ef          	jal	ra,5aaa <Get_Systick_US>
    5afc:	c62a                	sw	a0,12(sp)
    5afe:	8526                	mv	a0,s1
    5b00:	9402                	jalr	s0
    5b02:	f16d                	bnez	a0,5ae4 <wait_nonblocking_us+0x6>
    5b04:	fa7ff0ef          	jal	ra,5aaa <Get_Systick_US>
    5b08:	47b2                	lw	a5,12(sp)
    5b0a:	8d1d                	sub	a0,a0,a5
    5b0c:	fea979e3          	bgeu	s2,a0,5afe <wait_nonblocking_us+0x20>
    5b10:	8526                	mv	a0,s1
    5b12:	9402                	jalr	s0
    5b14:	00153513          	seqz	a0,a0
    5b18:	b7f9                	j	5ae6 <wait_nonblocking_us+0x8>

00005b1a <Delay_Us>:
    5b1a:	e56fa2ef          	jal	t0,170 <__riscv_save_0>
    5b1e:	1141                	addi	sp,sp,-16
    5b20:	842a                	mv	s0,a0
    5b22:	f89ff0ef          	jal	ra,5aaa <Get_Systick_US>
    5b26:	c62a                	sw	a0,12(sp)
    5b28:	f83ff0ef          	jal	ra,5aaa <Get_Systick_US>
    5b2c:	47b2                	lw	a5,12(sp)
    5b2e:	8d1d                	sub	a0,a0,a5
    5b30:	fea47ce3          	bgeu	s0,a0,5b28 <Delay_Us+0xe>
    5b34:	0141                	addi	sp,sp,16
    5b36:	e5efa06f          	j	194 <__riscv_restore_0>

00005b3a <Delay_Ms>:
    5b3a:	a081a783          	lw	a5,-1528(gp) # 20001530 <Systick_MS>
    5b3e:	1141                	addi	sp,sp,-16
    5b40:	c63e                	sw	a5,12(sp)
    5b42:	a081a783          	lw	a5,-1528(gp) # 20001530 <Systick_MS>
    5b46:	46b2                	lw	a3,12(sp)
    5b48:	8f95                	sub	a5,a5,a3
    5b4a:	fef57ce3          	bgeu	a0,a5,5b42 <Delay_Ms+0x8>
    5b4e:	0141                	addi	sp,sp,16
    5b50:	8082                	ret

00005b52 <decode_uart_pkt.part.0>:
    5b52:	00254603          	lbu	a2,2(a0) # 40000002 <_eusrstack+0x1fffb002>
    5b56:	00350693          	addi	a3,a0,3
    5b5a:	4701                	li	a4,0
    5b5c:	07f67613          	andi	a2,a2,127
    5b60:	459d                	li	a1,7
    5b62:	0006c803          	lbu	a6,0(a3) # 2c000000 <_eusrstack+0xbffb000>
    5b66:	40e657b3          	sra	a5,a2,a4
    5b6a:	079e                	slli	a5,a5,0x7
    5b6c:	0107e7b3          	or	a5,a5,a6
    5b70:	00f68023          	sb	a5,0(a3)
    5b74:	0705                	addi	a4,a4,1
    5b76:	0685                	addi	a3,a3,1
    5b78:	feb715e3          	bne	a4,a1,5b62 <decode_uart_pkt.part.0+0x10>
    5b7c:	00154783          	lbu	a5,1(a0)
    5b80:	00a54703          	lbu	a4,10(a0)
    5b84:	8395                	srli	a5,a5,0x5
    5b86:	8b8d                	andi	a5,a5,3
    5b88:	00779693          	slli	a3,a5,0x7
    5b8c:	8f55                	or	a4,a4,a3
    5b8e:	00e50523          	sb	a4,10(a0)
    5b92:	00b54703          	lbu	a4,11(a0)
    5b96:	079a                	slli	a5,a5,0x6
    5b98:	f807f793          	andi	a5,a5,-128
    5b9c:	8fd9                	or	a5,a5,a4
    5b9e:	00f505a3          	sb	a5,11(a0)
    5ba2:	8082                	ret

00005ba4 <UART1_DMA_Init>:
    5ba4:	dccfa2ef          	jal	t0,170 <__riscv_save_0>
    5ba8:	7179                	addi	sp,sp,-48
    5baa:	02c00613          	li	a2,44
    5bae:	4581                	li	a1,0
    5bb0:	0048                	addi	a0,sp,4
    5bb2:	e04fa0ef          	jal	ra,1b6 <memset>
    5bb6:	40020437          	lui	s0,0x40020
    5bba:	4581                	li	a1,0
    5bbc:	04440513          	addi	a0,s0,68 # 40020044 <_eusrstack+0x2001b044>
    5bc0:	3be010ef          	jal	ra,6f7e <DMA_Cmd>
    5bc4:	04440513          	addi	a0,s0,68
    5bc8:	29e010ef          	jal	ra,6e66 <DMA_DeInit>
    5bcc:	400144b7          	lui	s1,0x40014
    5bd0:	80448793          	addi	a5,s1,-2044 # 40013804 <_eusrstack+0x2000e804>
    5bd4:	c23e                	sw	a5,4(sp)
    5bd6:	47c1                	li	a5,16
    5bd8:	c63e                	sw	a5,12(sp)
    5bda:	08000793          	li	a5,128
    5bde:	cc3e                	sw	a5,24(sp)
    5be0:	004c                	addi	a1,sp,4
    5be2:	6785                	lui	a5,0x1
    5be4:	04440513          	addi	a0,s0,68
    5be8:	d43e                	sw	a5,40(sp)
    5bea:	c402                	sw	zero,8(sp)
    5bec:	c802                	sw	zero,16(sp)
    5bee:	ca02                	sw	zero,20(sp)
    5bf0:	ce02                	sw	zero,28(sp)
    5bf2:	d002                	sw	zero,32(sp)
    5bf4:	d202                	sw	zero,36(sp)
    5bf6:	d602                	sw	zero,44(sp)
    5bf8:	34e010ef          	jal	ra,6f46 <DMA_Init>
    5bfc:	4581                	li	a1,0
    5bfe:	05840513          	addi	a0,s0,88
    5c02:	37c010ef          	jal	ra,6f7e <DMA_Cmd>
    5c06:	05840513          	addi	a0,s0,88
    5c0a:	25c010ef          	jal	ra,6e66 <DMA_DeInit>
    5c0e:	200047b7          	lui	a5,0x20004
    5c12:	be878793          	addi	a5,a5,-1048 # 20003be8 <UART1_RxBuffer>
    5c16:	c43e                	sw	a5,8(sp)
    5c18:	18000793          	li	a5,384
    5c1c:	c83e                	sw	a5,16(sp)
    5c1e:	02000793          	li	a5,32
    5c22:	d23e                	sw	a5,36(sp)
    5c24:	004c                	addi	a1,sp,4
    5c26:	6789                	lui	a5,0x2
    5c28:	05840513          	addi	a0,s0,88
    5c2c:	d43e                	sw	a5,40(sp)
    5c2e:	c602                	sw	zero,12(sp)
    5c30:	316010ef          	jal	ra,6f46 <DMA_Init>
    5c34:	05840513          	addi	a0,s0,88
    5c38:	4585                	li	a1,1
    5c3a:	344010ef          	jal	ra,6f7e <DMA_Cmd>
    5c3e:	4605                	li	a2,1
    5c40:	04000593          	li	a1,64
    5c44:	80048513          	addi	a0,s1,-2048
    5c48:	0a0020ef          	jal	ra,7ce8 <USART_DMACmd>
    5c4c:	6145                	addi	sp,sp,48
    5c4e:	d46fa06f          	j	194 <__riscv_restore_0>

00005c52 <UART1_Init>:
    5c52:	d1efa2ef          	jal	t0,170 <__riscv_save_0>
    5c56:	1101                	addi	sp,sp,-32
    5c58:	4585                	li	a1,1
    5c5a:	4511                	li	a0,4
    5c5c:	c202                	sw	zero,4(sp)
    5c5e:	c402                	sw	zero,8(sp)
    5c60:	c602                	sw	zero,12(sp)
    5c62:	c802                	sw	zero,16(sp)
    5c64:	ca02                	sw	zero,20(sp)
    5c66:	cc02                	sw	zero,24(sp)
    5c68:	ce02                	sw	zero,28(sp)
    5c6a:	411010ef          	jal	ra,787a <RCC_APB2PeriphClockCmd>
    5c6e:	4585                	li	a1,1
    5c70:	6511                	lui	a0,0x4
    5c72:	409010ef          	jal	ra,787a <RCC_APB2PeriphClockCmd>
    5c76:	20000793          	li	a5,512
    5c7a:	00f11223          	sh	a5,4(sp)
    5c7e:	40011437          	lui	s0,0x40011
    5c82:	478d                	li	a5,3
    5c84:	c43e                	sw	a5,8(sp)
    5c86:	004c                	addi	a1,sp,4
    5c88:	47e1                	li	a5,24
    5c8a:	80040513          	addi	a0,s0,-2048 # 40010800 <_eusrstack+0x2000b800>
    5c8e:	c63e                	sw	a5,12(sp)
    5c90:	662010ef          	jal	ra,72f2 <GPIO_Init>
    5c94:	40000793          	li	a5,1024
    5c98:	00f11223          	sh	a5,4(sp)
    5c9c:	004c                	addi	a1,sp,4
    5c9e:	04800793          	li	a5,72
    5ca2:	80040513          	addi	a0,s0,-2048
    5ca6:	c63e                	sw	a5,12(sp)
    5ca8:	64a010ef          	jal	ra,72f2 <GPIO_Init>
    5cac:	002dc7b7          	lui	a5,0x2dc
    5cb0:	40014437          	lui	s0,0x40014
    5cb4:	6c078793          	addi	a5,a5,1728 # 2dc6c0 <_data_lma+0x2cf6ac>
    5cb8:	c83e                	sw	a5,16(sp)
    5cba:	080c                	addi	a1,sp,16
    5cbc:	000c07b7          	lui	a5,0xc0
    5cc0:	80040513          	addi	a0,s0,-2048 # 40013800 <_eusrstack+0x2000e800>
    5cc4:	cc3e                	sw	a5,24(sp)
    5cc6:	ca02                	sw	zero,20(sp)
    5cc8:	00011e23          	sh	zero,28(sp)
    5ccc:	75f010ef          	jal	ra,7c2a <USART_Init>
    5cd0:	80040513          	addi	a0,s0,-2048
    5cd4:	04000593          	li	a1,64
    5cd8:	032020ef          	jal	ra,7d0a <USART_ClearFlag>
    5cdc:	80040513          	addi	a0,s0,-2048
    5ce0:	4585                	li	a1,1
    5ce2:	7ef010ef          	jal	ra,7cd0 <USART_Cmd>
    5ce6:	20003637          	lui	a2,0x20003
    5cea:	200045b7          	lui	a1,0x20004
    5cee:	20003537          	lui	a0,0x20003
    5cf2:	4735                	li	a4,13
    5cf4:	04000693          	li	a3,64
    5cf8:	52860613          	addi	a2,a2,1320 # 20003528 <uart_rx_rb_len>
    5cfc:	8a858593          	addi	a1,a1,-1880 # 200038a8 <uart_rx_rb_buf>
    5d00:	4d450513          	addi	a0,a0,1236 # 200034d4 <uart_rx_rb>
    5d04:	c56ff0ef          	jal	ra,515a <ring_buffer_init>
    5d08:	20003637          	lui	a2,0x20003
    5d0c:	200035b7          	lui	a1,0x20003
    5d10:	20003537          	lui	a0,0x20003
    5d14:	4735                	li	a4,13
    5d16:	04000693          	li	a3,64
    5d1a:	4e860613          	addi	a2,a2,1256 # 200034e8 <uart_tx_rb_len>
    5d1e:	56858593          	addi	a1,a1,1384 # 20003568 <uart_tx_rb_buf>
    5d22:	4c050513          	addi	a0,a0,1216 # 200034c0 <uart_tx_rb>
    5d26:	c34ff0ef          	jal	ra,515a <ring_buffer_init>
    5d2a:	6105                	addi	sp,sp,32
    5d2c:	c68fa06f          	j	194 <__riscv_restore_0>

00005d30 <UART1_DMA_Tx>:
    5d30:	c26fa2ef          	jal	t0,156 <__riscv_save_4>
    5d34:	400149b7          	lui	s3,0x40014
    5d38:	892a                	mv	s2,a0
    5d3a:	84ae                	mv	s1,a1
    5d3c:	80098513          	addi	a0,s3,-2048 # 40013800 <_eusrstack+0x2000e800>
    5d40:	04000593          	li	a1,64
    5d44:	40020437          	lui	s0,0x40020
    5d48:	7c3010ef          	jal	ra,7d0a <USART_ClearFlag>
    5d4c:	04440513          	addi	a0,s0,68 # 40020044 <_eusrstack+0x2001b044>
    5d50:	4581                	li	a1,0
    5d52:	22c010ef          	jal	ra,6f7e <DMA_Cmd>
    5d56:	05242823          	sw	s2,80(s0)
    5d5a:	04440513          	addi	a0,s0,68
    5d5e:	c144                	sw	s1,4(a0)
    5d60:	4585                	li	a1,1
    5d62:	21c010ef          	jal	ra,6f7e <DMA_Cmd>
    5d66:	4605                	li	a2,1
    5d68:	08000593          	li	a1,128
    5d6c:	80098513          	addi	a0,s3,-2048
    5d70:	779010ef          	jal	ra,7ce8 <USART_DMACmd>
    5d74:	c16fa06f          	j	18a <__riscv_restore_4>

00005d78 <UART1_Tx_Service>:
    5d78:	bf8fa2ef          	jal	t0,170 <__riscv_save_0>
    5d7c:	a161c783          	lbu	a5,-1514(gp) # 2000153e <UART1_Tx_Flag>
    5d80:	cb9d                	beqz	a5,5db6 <UART1_Tx_Service+0x3e>
    5d82:	400144b7          	lui	s1,0x40014
    5d86:	04000593          	li	a1,64
    5d8a:	80048513          	addi	a0,s1,-2048 # 40013800 <_eusrstack+0x2000e800>
    5d8e:	771010ef          	jal	ra,7cfe <USART_GetFlagStatus>
    5d92:	c105                	beqz	a0,5db2 <UART1_Tx_Service+0x3a>
    5d94:	04000593          	li	a1,64
    5d98:	80048513          	addi	a0,s1,-2048
    5d9c:	76f010ef          	jal	ra,7d0a <USART_ClearFlag>
    5da0:	4601                	li	a2,0
    5da2:	08000593          	li	a1,128
    5da6:	80048513          	addi	a0,s1,-2048
    5daa:	73f010ef          	jal	ra,7ce8 <USART_DMACmd>
    5dae:	a0018b23          	sb	zero,-1514(gp) # 2000153e <UART1_Tx_Flag>
    5db2:	be2fa06f          	j	194 <__riscv_restore_0>
    5db6:	200037b7          	lui	a5,0x20003
    5dba:	4c078713          	addi	a4,a5,1216 # 200034c0 <uart_tx_rb>
    5dbe:	474c                	lw	a1,12(a4)
    5dc0:	4c078793          	addi	a5,a5,1216
    5dc4:	d5fd                	beqz	a1,5db2 <UART1_Tx_Service+0x3a>
    5dc6:	0087c603          	lbu	a2,8(a5)
    5dca:	4535                	li	a0,13
    5dcc:	0097c803          	lbu	a6,9(a5)
    5dd0:	02a60533          	mul	a0,a2,a0
    5dd4:	20003737          	lui	a4,0x20003
    5dd8:	56870713          	addi	a4,a4,1384 # 20003568 <uart_tx_rb_buf>
    5ddc:	00a7c683          	lbu	a3,10(a5)
    5de0:	953a                	add	a0,a0,a4
    5de2:	00180713          	addi	a4,a6,1
    5de6:	02c87663          	bgeu	a6,a2,5e12 <UART1_Tx_Service+0x9a>
    5dea:	8e91                	sub	a3,a3,a2
    5dec:	01069593          	slli	a1,a3,0x10
    5df0:	81c1                	srli	a1,a1,0x10
    5df2:	c7d8                	sw	a4,12(a5)
    5df4:	00078423          	sb	zero,8(a5)
    5df8:	00078823          	sb	zero,16(a5)
    5dfc:	47b5                	li	a5,13
    5dfe:	02f585b3          	mul	a1,a1,a5
    5e02:	05c2                	slli	a1,a1,0x10
    5e04:	81c1                	srli	a1,a1,0x10
    5e06:	f2bff0ef          	jal	ra,5d30 <UART1_DMA_Tx>
    5e0a:	4785                	li	a5,1
    5e0c:	a0f18b23          	sb	a5,-1514(gp) # 2000153e <UART1_Tx_Flag>
    5e10:	b74d                	j	5db2 <UART1_Tx_Service+0x3a>
    5e12:	05c2                	slli	a1,a1,0x10
    5e14:	0ff77713          	zext.b	a4,a4
    5e18:	81c1                	srli	a1,a1,0x10
    5e1a:	00d76363          	bltu	a4,a3,5e20 <UART1_Tx_Service+0xa8>
    5e1e:	4701                	li	a4,0
    5e20:	00e78423          	sb	a4,8(a5)
    5e24:	0007a623          	sw	zero,12(a5)
    5e28:	bfc1                	j	5df8 <UART1_Tx_Service+0x80>

00005e2a <encode_uart_pkt>:
    5e2a:	c555                	beqz	a0,5ed6 <encode_uart_pkt+0xac>
    5e2c:	4701                	li	a4,0
    5e2e:	4781                	li	a5,0
    5e30:	461d                	li	a2,7
    5e32:	00f506b3          	add	a3,a0,a5
    5e36:	0036c683          	lbu	a3,3(a3)
    5e3a:	0077c593          	xori	a1,a5,7
    5e3e:	0785                	addi	a5,a5,1
    5e40:	0806f693          	andi	a3,a3,128
    5e44:	40b6d6b3          	sra	a3,a3,a1
    5e48:	8f55                	or	a4,a4,a3
    5e4a:	07f77713          	andi	a4,a4,127
    5e4e:	fec792e3          	bne	a5,a2,5e32 <encode_uart_pkt+0x8>
    5e52:	00254783          	lbu	a5,2(a0)
    5e56:	00c50693          	addi	a3,a0,12
    5e5a:	f807f793          	andi	a5,a5,-128
    5e5e:	8fd9                	or	a5,a5,a4
    5e60:	00f50123          	sb	a5,2(a0)
    5e64:	00b54783          	lbu	a5,11(a0)
    5e68:	00a54703          	lbu	a4,10(a0)
    5e6c:	8799                	srai	a5,a5,0x6
    5e6e:	831d                	srli	a4,a4,0x7
    5e70:	8b89                	andi	a5,a5,2
    5e72:	8fd9                	or	a5,a5,a4
    5e74:	00154703          	lbu	a4,1(a0)
    5e78:	0796                	slli	a5,a5,0x5
    5e7a:	f9f77713          	andi	a4,a4,-97
    5e7e:	8fd9                	or	a5,a5,a4
    5e80:	00f500a3          	sb	a5,1(a0)
    5e84:	00350793          	addi	a5,a0,3
    5e88:	0007c703          	lbu	a4,0(a5)
    5e8c:	0785                	addi	a5,a5,1
    5e8e:	07f77713          	andi	a4,a4,127
    5e92:	fee78fa3          	sb	a4,-1(a5)
    5e96:	fef699e3          	bne	a3,a5,5e88 <encode_uart_pkt+0x5e>
    5e9a:	00054783          	lbu	a5,0(a0)
    5e9e:	4705                	li	a4,1
    5ea0:	46b1                	li	a3,12
    5ea2:	07f7f793          	andi	a5,a5,127
    5ea6:	00e50633          	add	a2,a0,a4
    5eaa:	00064603          	lbu	a2,0(a2)
    5eae:	0705                	addi	a4,a4,1
    5eb0:	8fb1                	xor	a5,a5,a2
    5eb2:	07f7f793          	andi	a5,a5,127
    5eb6:	fed718e3          	bne	a4,a3,5ea6 <encode_uart_pkt+0x7c>
    5eba:	00154703          	lbu	a4,1(a0)
    5ebe:	00f50623          	sb	a5,12(a0)
    5ec2:	07f77713          	andi	a4,a4,127
    5ec6:	00e500a3          	sb	a4,1(a0)
    5eca:	00254703          	lbu	a4,2(a0)
    5ece:	07f77713          	andi	a4,a4,127
    5ed2:	00e50123          	sb	a4,2(a0)
    5ed6:	8082                	ret

00005ed8 <check_uart_pkt>:
    5ed8:	c51d                	beqz	a0,5f06 <check_uart_pkt+0x2e>
    5eda:	00054783          	lbu	a5,0(a0)
    5ede:	4705                	li	a4,1
    5ee0:	46b1                	li	a3,12
    5ee2:	07f7f793          	andi	a5,a5,127
    5ee6:	00e50633          	add	a2,a0,a4
    5eea:	00064603          	lbu	a2,0(a2)
    5eee:	0705                	addi	a4,a4,1
    5ef0:	8fb1                	xor	a5,a5,a2
    5ef2:	fed71ae3          	bne	a4,a3,5ee6 <check_uart_pkt+0xe>
    5ef6:	00c54503          	lbu	a0,12(a0)
    5efa:	07f57513          	andi	a0,a0,127
    5efe:	8d1d                	sub	a0,a0,a5
    5f00:	00a03533          	snez	a0,a0
    5f04:	8082                	ret
    5f06:	0ff00513          	li	a0,255
    5f0a:	8082                	ret

00005f0c <UART1_Rx_Service>:
    5f0c:	a4afa2ef          	jal	t0,156 <__riscv_save_4>
    5f10:	40020537          	lui	a0,0x40020
    5f14:	05850513          	addi	a0,a0,88 # 40020058 <_eusrstack+0x2001b058>
    5f18:	07a010ef          	jal	ra,6f92 <DMA_GetCurrDataCounter>
    5f1c:	a0a19a23          	sh	a0,-1516(gp) # 2000153c <UART1_RX_CurCnt>
    5f20:	a121d603          	lhu	a2,-1518(gp) # 2000153a <UART1_RX_LastCnt>
    5f24:	a141d783          	lhu	a5,-1516(gp) # 2000153c <UART1_RX_CurCnt>
    5f28:	04f60063          	beq	a2,a5,5f68 <UART1_Rx_Service+0x5c>
    5f2c:	a121d603          	lhu	a2,-1518(gp) # 2000153a <UART1_RX_LastCnt>
    5f30:	a141d783          	lhu	a5,-1516(gp) # 2000153c <UART1_RX_CurCnt>
    5f34:	04c7f863          	bgeu	a5,a2,5f84 <UART1_Rx_Service+0x78>
    5f38:	a121d783          	lhu	a5,-1518(gp) # 2000153a <UART1_RX_LastCnt>
    5f3c:	a141d603          	lhu	a2,-1516(gp) # 2000153c <UART1_RX_CurCnt>
    5f40:	a141d703          	lhu	a4,-1516(gp) # 2000153c <UART1_RX_CurCnt>
    5f44:	8f91                	sub	a5,a5,a2
    5f46:	07c2                	slli	a5,a5,0x10
    5f48:	0742                	slli	a4,a4,0x10
    5f4a:	8341                	srli	a4,a4,0x10
    5f4c:	a0e19923          	sh	a4,-1518(gp) # 2000153a <UART1_RX_LastCnt>
    5f50:	a101d703          	lhu	a4,-1520(gp) # 20001538 <UART1_Rx_RemainLen>
    5f54:	83c1                	srli	a5,a5,0x10
    5f56:	18000693          	li	a3,384
    5f5a:	973e                	add	a4,a4,a5
    5f5c:	02e6db63          	bge	a3,a4,5f92 <UART1_Rx_Service+0x86>
    5f60:	a0d19823          	sh	a3,-1520(gp) # 20001538 <UART1_Rx_RemainLen>
    5f64:	a0019c23          	sh	zero,-1512(gp) # 20001540 <UART1_TimeOut>
    5f68:	20004937          	lui	s2,0x20004
    5f6c:	20003a37          	lui	s4,0x20003
    5f70:	be890913          	addi	s2,s2,-1048 # 20003be8 <UART1_RxBuffer>
    5f74:	4b0a0a93          	addi	s5,s4,1200 # 200034b0 <rx_filter_buf>
    5f78:	4b05                	li	s6,1
    5f7a:	a101d783          	lhu	a5,-1520(gp) # 20001538 <UART1_Rx_RemainLen>
    5f7e:	e395                	bnez	a5,5fa2 <UART1_Rx_Service+0x96>
    5f80:	a0afa06f          	j	18a <__riscv_restore_4>
    5f84:	a121d783          	lhu	a5,-1518(gp) # 2000153a <UART1_RX_LastCnt>
    5f88:	a141d603          	lhu	a2,-1516(gp) # 2000153c <UART1_RX_CurCnt>
    5f8c:	18078793          	addi	a5,a5,384
    5f90:	bf45                	j	5f40 <UART1_Rx_Service+0x34>
    5f92:	a101d703          	lhu	a4,-1520(gp) # 20001538 <UART1_Rx_RemainLen>
    5f96:	97ba                	add	a5,a5,a4
    5f98:	07c2                	slli	a5,a5,0x10
    5f9a:	83c1                	srli	a5,a5,0x10
    5f9c:	a0f19823          	sh	a5,-1520(gp) # 20001538 <UART1_Rx_RemainLen>
    5fa0:	b7d1                	j	5f64 <UART1_Rx_Service+0x58>
    5fa2:	a0e1d783          	lhu	a5,-1522(gp) # 20001536 <UART1_Rx_Deal_Ptr>
    5fa6:	97ca                	add	a5,a5,s2
    5fa8:	00078783          	lb	a5,0(a5)
    5fac:	0407d263          	bgez	a5,5ff0 <UART1_Rx_Service+0xe4>
    5fb0:	a0e1d783          	lhu	a5,-1522(gp) # 20001536 <UART1_Rx_Deal_Ptr>
    5fb4:	a1618623          	sb	s6,-1524(gp) # 20001534 <rx_ptr>
    5fb8:	97ca                	add	a5,a5,s2
    5fba:	0007c783          	lbu	a5,0(a5)
    5fbe:	00fa8023          	sb	a5,0(s5)
    5fc2:	a101d783          	lhu	a5,-1520(gp) # 20001538 <UART1_Rx_RemainLen>
    5fc6:	17fd                	addi	a5,a5,-1
    5fc8:	07c2                	slli	a5,a5,0x10
    5fca:	83c1                	srli	a5,a5,0x10
    5fcc:	a0f19823          	sh	a5,-1520(gp) # 20001538 <UART1_Rx_RemainLen>
    5fd0:	a0e1d783          	lhu	a5,-1522(gp) # 20001536 <UART1_Rx_Deal_Ptr>
    5fd4:	0785                	addi	a5,a5,1
    5fd6:	07c2                	slli	a5,a5,0x10
    5fd8:	83c1                	srli	a5,a5,0x10
    5fda:	a0f19723          	sh	a5,-1522(gp) # 20001536 <UART1_Rx_Deal_Ptr>
    5fde:	a0e1d703          	lhu	a4,-1522(gp) # 20001536 <UART1_Rx_Deal_Ptr>
    5fe2:	17f00793          	li	a5,383
    5fe6:	f8e7fae3          	bgeu	a5,a4,5f7a <UART1_Rx_Service+0x6e>
    5fea:	a0019723          	sh	zero,-1522(gp) # 20001536 <UART1_Rx_Deal_Ptr>
    5fee:	b769                	j	5f78 <UART1_Rx_Service+0x6c>
    5ff0:	a0c18783          	lb	a5,-1524(gp) # 20001534 <rx_ptr>
    5ff4:	04f05763          	blez	a5,6042 <UART1_Rx_Service+0x136>
    5ff8:	a0e1d683          	lhu	a3,-1522(gp) # 20001536 <UART1_Rx_Deal_Ptr>
    5ffc:	00178713          	addi	a4,a5,1
    6000:	0762                	slli	a4,a4,0x18
    6002:	96ca                	add	a3,a3,s2
    6004:	0006c683          	lbu	a3,0(a3)
    6008:	97d6                	add	a5,a5,s5
    600a:	8761                	srai	a4,a4,0x18
    600c:	00d78023          	sb	a3,0(a5)
    6010:	a0e18623          	sb	a4,-1524(gp) # 20001534 <rx_ptr>
    6014:	47b1                	li	a5,12
    6016:	fae7d6e3          	bge	a5,a4,5fc2 <UART1_Rx_Service+0xb6>
    601a:	8556                	mv	a0,s5
    601c:	a0018623          	sb	zero,-1524(gp) # 20001534 <rx_ptr>
    6020:	eb9ff0ef          	jal	ra,5ed8 <check_uart_pkt>
    6024:	fd59                	bnez	a0,5fc2 <UART1_Rx_Service+0xb6>
    6026:	4b0a0513          	addi	a0,s4,1200
    602a:	b29ff0ef          	jal	ra,5b52 <decode_uart_pkt.part.0>
    602e:	20003537          	lui	a0,0x20003
    6032:	4635                	li	a2,13
    6034:	4b0a0593          	addi	a1,s4,1200
    6038:	4d450513          	addi	a0,a0,1236 # 200034d4 <uart_rx_rb>
    603c:	95cff0ef          	jal	ra,5198 <ring_buffer_push>
    6040:	b749                	j	5fc2 <UART1_Rx_Service+0xb6>
    6042:	a0018623          	sb	zero,-1524(gp) # 20001534 <rx_ptr>
    6046:	bfb5                	j	5fc2 <UART1_Rx_Service+0xb6>

00006048 <send_uart_pkt>:
    6048:	c131                	beqz	a0,608c <send_uart_pkt+0x44>
    604a:	926fa2ef          	jal	t0,170 <__riscv_save_0>
    604e:	20003437          	lui	s0,0x20003
    6052:	85aa                	mv	a1,a0
    6054:	4635                	li	a2,13
    6056:	4a040513          	addi	a0,s0,1184 # 200034a0 <send_buf>
    605a:	946fa0ef          	jal	ra,1a0 <memcpy>
    605e:	4a040513          	addi	a0,s0,1184
    6062:	dc9ff0ef          	jal	ra,5e2a <encode_uart_pkt>
    6066:	4a040493          	addi	s1,s0,1184
    606a:	0004c783          	lbu	a5,0(s1)
    606e:	20003537          	lui	a0,0x20003
    6072:	4635                	li	a2,13
    6074:	f807e793          	ori	a5,a5,-128
    6078:	4a040593          	addi	a1,s0,1184
    607c:	4c050513          	addi	a0,a0,1216 # 200034c0 <uart_tx_rb>
    6080:	00f48023          	sb	a5,0(s1)
    6084:	914ff0ef          	jal	ra,5198 <ring_buffer_push>
    6088:	90cfa06f          	j	194 <__riscv_restore_0>
    608c:	0fe00513          	li	a0,254
    6090:	8082                	ret

00006092 <send_uart_large_pkt>:
    6092:	8c4fa2ef          	jal	t0,156 <__riscv_save_4>
    6096:	1141                	addi	sp,sp,-16
    6098:	c002                	sw	zero,0(sp)
    609a:	01f67993          	andi	s3,a2,31
    609e:	892a                	mv	s2,a0
    60a0:	842e                	mv	s0,a1
    60a2:	c202                	sw	zero,4(sp)
    60a4:	c402                	sw	zero,8(sp)
    60a6:	00010623          	sb	zero,12(sp)
    60aa:	013100a3          	sb	s3,1(sp)
    60ae:	4481                	li	s1,0
    60b0:	4a21                	li	s4,8
    60b2:	008a6563          	bltu	s4,s0,60bc <send_uart_large_pkt+0x2a>
    60b6:	ec15                	bnez	s0,60f2 <send_uart_large_pkt+0x60>
    60b8:	4501                	li	a0,0
    60ba:	a80d                	j	60ec <send_uart_large_pkt+0x5a>
    60bc:	85ca                	mv	a1,s2
    60be:	4625                	li	a2,9
    60c0:	00310513          	addi	a0,sp,3
    60c4:	8dcfa0ef          	jal	ra,1a0 <memcpy>
    60c8:	00014783          	lbu	a5,0(sp)
    60cc:	07f4f713          	andi	a4,s1,127
    60d0:	850a                	mv	a0,sp
    60d2:	f807f793          	andi	a5,a5,-128
    60d6:	8fd9                	or	a5,a5,a4
    60d8:	145d                	addi	s0,s0,-9
    60da:	00f10023          	sb	a5,0(sp)
    60de:	f6bff0ef          	jal	ra,6048 <send_uart_pkt>
    60e2:	0ff47413          	zext.b	s0,s0
    60e6:	0925                	addi	s2,s2,9
    60e8:	0485                	addi	s1,s1,1
    60ea:	d561                	beqz	a0,60b2 <send_uart_large_pkt+0x20>
    60ec:	0141                	addi	sp,sp,16
    60ee:	89cfa06f          	j	18a <__riscv_restore_4>
    60f2:	8622                	mv	a2,s0
    60f4:	85ca                	mv	a1,s2
    60f6:	00310513          	addi	a0,sp,3
    60fa:	c002                	sw	zero,0(sp)
    60fc:	c202                	sw	zero,4(sp)
    60fe:	c402                	sw	zero,8(sp)
    6100:	00010623          	sb	zero,12(sp)
    6104:	89cfa0ef          	jal	ra,1a0 <memcpy>
    6108:	00014783          	lbu	a5,0(sp)
    610c:	07f4f493          	andi	s1,s1,127
    6110:	850a                	mv	a0,sp
    6112:	f807f793          	andi	a5,a5,-128
    6116:	8fc5                	or	a5,a5,s1
    6118:	00f10023          	sb	a5,0(sp)
    611c:	00114783          	lbu	a5,1(sp)
    6120:	9b81                	andi	a5,a5,-32
    6122:	0137e7b3          	or	a5,a5,s3
    6126:	00f100a3          	sb	a5,1(sp)
    612a:	f1fff0ef          	jal	ra,6048 <send_uart_pkt>
    612e:	b769                	j	60b8 <send_uart_large_pkt+0x26>

00006130 <reliable_uart_send_acc.part.0>:
    6130:	840fa2ef          	jal	t0,170 <__riscv_save_0>
    6134:	1141                	addi	sp,sp,-16
    6136:	85aa                	mv	a1,a0
    6138:	4635                	li	a2,13
    613a:	850a                	mv	a0,sp
    613c:	864fa0ef          	jal	ra,1a0 <memcpy>
    6140:	00314783          	lbu	a5,3(sp)
    6144:	850a                	mv	a0,sp
    6146:	f807e793          	ori	a5,a5,-128
    614a:	00f101a3          	sb	a5,3(sp)
    614e:	efbff0ef          	jal	ra,6048 <send_uart_pkt>
    6152:	0141                	addi	sp,sp,16
    6154:	840fa06f          	j	194 <__riscv_restore_0>

00006158 <uart_conf_write>:
    6158:	ffff92ef          	jal	t0,156 <__riscv_save_4>
    615c:	00c55793          	srli	a5,a0,0xc
    6160:	6685                	lui	a3,0x1
    6162:	80068693          	addi	a3,a3,-2048 # 800 <__stack_size>
    6166:	07f7f793          	andi	a5,a5,127
    616a:	8fd5                	or	a5,a5,a3
    616c:	6689                	lui	a3,0x2
    616e:	20004737          	lui	a4,0x20004
    6172:	f7f68693          	addi	a3,a3,-129 # 1f7f <hd_rumble_high_accurary_init+0x3b>
    6176:	8ff5                	and	a5,a5,a3
    6178:	1bc75683          	lhu	a3,444(a4) # 200041bc <pkt>
    617c:	89b2                	mv	s3,a2
    617e:	7679                	lui	a2,0xffffe
    6180:	08060613          	addi	a2,a2,128 # ffffe080 <_eusrstack+0xdfff9080>
    6184:	8ef1                	and	a3,a3,a2
    6186:	8fd5                	or	a5,a5,a3
    6188:	892a                	mv	s2,a0
    618a:	8a2e                	mv	s4,a1
    618c:	1af71e23          	sh	a5,444(a4)
    6190:	4481                	li	s1,0
    6192:	1bc70413          	addi	s0,a4,444
    6196:	20004ab7          	lui	s5,0x20004
    619a:	009a05b3          	add	a1,s4,s1
    619e:	0134c463          	blt	s1,s3,61a6 <uart_conf_write+0x4e>
    61a2:	fe9f906f          	j	18a <__riscv_restore_4>
    61a6:	009907b3          	add	a5,s2,s1
    61aa:	4621                	li	a2,8
    61ac:	1c0a8513          	addi	a0,s5,448 # 200041c0 <pkt+0x4>
    61b0:	00f401a3          	sb	a5,3(s0)
    61b4:	fedf90ef          	jal	ra,1a0 <memcpy>
    61b8:	8522                	mv	a0,s0
    61ba:	e8fff0ef          	jal	ra,6048 <send_uart_pkt>
    61be:	04a1                	addi	s1,s1,8
    61c0:	bfe9                	j	619a <uart_conf_write+0x42>

000061c2 <imu_buffer_reset_notifier>:
    61c2:	4705                	li	a4,1
    61c4:	a2e18423          	sb	a4,-1496(gp) # 20001550 <imu_report_buffer_ptr_reset_flag>
    61c8:	8082                	ret

000061ca <send_input_with_uart>:
    61ca:	fa7f92ef          	jal	t0,170 <__riscv_save_0>
    61ce:	20004437          	lui	s0,0x20004
    61d2:	1bc40513          	addi	a0,s0,444 # 200041bc <pkt>
    61d6:	200045b7          	lui	a1,0x20004
    61da:	10100793          	li	a5,257
    61de:	00052023          	sw	zero,0(a0)
    61e2:	00052223          	sw	zero,4(a0)
    61e6:	00052423          	sw	zero,8(a0)
    61ea:	00050623          	sb	zero,12(a0)
    61ee:	4625                	li	a2,9
    61f0:	21058593          	addi	a1,a1,528 # 20004210 <global_input_data>
    61f4:	050d                	addi	a0,a0,3
    61f6:	1af41e23          	sh	a5,444(s0)
    61fa:	fa7f90ef          	jal	ra,1a0 <memcpy>
    61fe:	1bc40513          	addi	a0,s0,444
    6202:	e47ff0ef          	jal	ra,6048 <send_uart_pkt>
    6206:	200027b7          	lui	a5,0x20002
    620a:	3f078783          	lb	a5,1008(a5) # 200023f0 <user_config>
    620e:	0007ce63          	bltz	a5,622a <send_input_with_uart+0x60>
    6212:	a281c783          	lbu	a5,-1496(gp) # 20001550 <imu_report_buffer_ptr_reset_flag>
    6216:	cb91                	beqz	a5,622a <send_input_with_uart+0x60>
    6218:	a381a503          	lw	a0,-1480(gp) # 20001560 <imu_report_buffer_ptr>
    621c:	462d                	li	a2,11
    621e:	02400593          	li	a1,36
    6222:	e71ff0ef          	jal	ra,6092 <send_uart_large_pkt>
    6226:	a2018423          	sb	zero,-1496(gp) # 20001550 <imu_report_buffer_ptr_reset_flag>
    622a:	f6bf906f          	j	194 <__riscv_restore_0>

0000622e <set_bt_connect_mode>:
    622e:	82a18423          	sb	a0,-2008(gp) # 20001350 <bt_connect_mode>
    6232:	8082                	ret

00006234 <start_connect>:
    6234:	8e01a783          	lw	a5,-1824(gp) # 20001408 <sts_button>
    6238:	cbdd                	beqz	a5,62ee <start_connect+0xba>
    623a:	f37f92ef          	jal	t0,170 <__riscv_save_0>
    623e:	20003437          	lui	s0,0x20003
    6242:	11840413          	addi	s0,s0,280 # 20003118 <connection_state>
    6246:	00544783          	lbu	a5,5(s0)
    624a:	e3ad                	bnez	a5,62ac <start_connect+0x78>
    624c:	877ff0ef          	jal	ra,5ac2 <Get_Systick_MS>
    6250:	a1c1a783          	lw	a5,-1508(gp) # 20001544 <tick.1>
    6254:	8d1d                	sub	a0,a0,a5
    6256:	3e800793          	li	a5,1000
    625a:	04a7f963          	bgeu	a5,a0,62ac <start_connect+0x78>
    625e:	00044783          	lbu	a5,0(s0)
    6262:	c7a9                	beqz	a5,62ac <start_connect+0x78>
    6264:	00144783          	lbu	a5,1(s0)
    6268:	00244703          	lbu	a4,2(s0)
    626c:	8fd9                	or	a5,a5,a4
    626e:	ef9d                	bnez	a5,62ac <start_connect+0x78>
    6270:	853ff0ef          	jal	ra,5ac2 <Get_Systick_MS>
    6274:	a0a1ae23          	sw	a0,-1508(gp) # 20001544 <tick.1>
    6278:	20004537          	lui	a0,0x20004
    627c:	1bc55783          	lhu	a5,444(a0) # 200041bc <pkt>
    6280:	7779                	lui	a4,0xffffe
    6282:	08070713          	addi	a4,a4,128 # ffffe080 <_eusrstack+0xdfff9080>
    6286:	8ff9                	and	a5,a5,a4
    6288:	3007e793          	ori	a5,a5,768
    628c:	1af51e23          	sh	a5,444(a0)
    6290:	00344783          	lbu	a5,3(s0)
    6294:	4719                	li	a4,6
    6296:	00e79d63          	bne	a5,a4,62b0 <start_connect+0x7c>
    629a:	1bc50793          	addi	a5,a0,444
    629e:	4711                	li	a4,4
    62a0:	00e781a3          	sb	a4,3(a5)
    62a4:	1bc50513          	addi	a0,a0,444
    62a8:	da1ff0ef          	jal	ra,6048 <send_uart_pkt>
    62ac:	ee9f906f          	j	194 <__riscv_restore_0>
    62b0:	dff5                	beqz	a5,62ac <start_connect+0x78>
    62b2:	8281c703          	lbu	a4,-2008(gp) # 20001350 <bt_connect_mode>
    62b6:	eb01                	bnez	a4,62c6 <start_connect+0x92>
    62b8:	4711                	li	a4,4
    62ba:	fee789e3          	beq	a5,a4,62ac <start_connect+0x78>
    62be:	1bc50793          	addi	a5,a0,444
    62c2:	4705                	li	a4,1
    62c4:	bff1                	j	62a0 <start_connect+0x6c>
    62c6:	4685                	li	a3,1
    62c8:	fcd71ee3          	bne	a4,a3,62a4 <start_connect+0x70>
    62cc:	4711                	li	a4,4
    62ce:	00e79663          	bne	a5,a4,62da <start_connect+0xa6>
    62d2:	1bc50793          	addi	a5,a0,444
    62d6:	4709                	li	a4,2
    62d8:	b7e1                	j	62a0 <start_connect+0x6c>
    62da:	4709                	li	a4,2
    62dc:	fce788e3          	beq	a5,a4,62ac <start_connect+0x78>
    62e0:	4705                	li	a4,1
    62e2:	fce791e3          	bne	a5,a4,62a4 <start_connect+0x70>
    62e6:	1bc50793          	addi	a5,a0,444
    62ea:	470d                	li	a4,3
    62ec:	bf55                	j	62a0 <start_connect+0x6c>
    62ee:	8082                	ret

000062f0 <wake_esp32>:
    62f0:	e81f92ef          	jal	t0,170 <__riscv_save_0>
    62f4:	1141                	addi	sp,sp,-16
    62f6:	00020437          	lui	s0,0x20
    62fa:	0411                	addi	s0,s0,4 # 20004 <_data_lma+0x12ff0>
    62fc:	4651                	li	a2,20
    62fe:	0068                	addi	a0,sp,12
    6300:	4585                	li	a1,1
    6302:	c622                	sw	s0,12(sp)
    6304:	f5ffa0ef          	jal	ra,1262 <_gpio_init>
    6308:	4581                	li	a1,0
    630a:	8522                	mv	a0,s0
    630c:	a48fb0ef          	jal	ra,1554 <gpio_set>
    6310:	4529                	li	a0,10
    6312:	829ff0ef          	jal	ra,5b3a <Delay_Ms>
    6316:	0068                	addi	a0,sp,12
    6318:	04800613          	li	a2,72
    631c:	4585                	li	a1,1
    631e:	f45fa0ef          	jal	ra,1262 <_gpio_init>
    6322:	0141                	addi	sp,sp,16
    6324:	e71f906f          	j	194 <__riscv_restore_0>

00006328 <recv_esp32_connect_control>:
    6328:	200045b7          	lui	a1,0x20004
    632c:	1bc58793          	addi	a5,a1,444 # 200041bc <pkt>
    6330:	439c                	lw	a5,0(a5)
    6332:	473d                	li	a4,15
    6334:	07f7f793          	andi	a5,a5,127
    6338:	0cf76863          	bltu	a4,a5,6408 <recv_esp32_connect_control+0xe0>
    633c:	e35f92ef          	jal	t0,170 <__riscv_save_0>
    6340:	6735                	lui	a4,0xd
    6342:	078a                	slli	a5,a5,0x2
    6344:	b8470713          	addi	a4,a4,-1148 # cb84 <exp2_lookup_tb+0x560>
    6348:	97ba                	add	a5,a5,a4
    634a:	439c                	lw	a5,0(a5)
    634c:	1bc58593          	addi	a1,a1,444
    6350:	8782                	jr	a5
    6352:	20003437          	lui	s0,0x20003
    6356:	11840413          	addi	s0,s0,280 # 20003118 <connection_state>
    635a:	4619                	li	a2,6
    635c:	058d                	addi	a1,a1,3
    635e:	00640513          	addi	a0,s0,6
    6362:	e3ff90ef          	jal	ra,1a0 <memcpy>
    6366:	4785                	li	a5,1
    6368:	00f40923          	sb	a5,18(s0)
    636c:	e29f906f          	j	194 <__riscv_restore_0>
    6370:	87ae                	mv	a5,a1
    6372:	00958693          	addi	a3,a1,9
    6376:	0037c703          	lbu	a4,3(a5)
    637a:	0785                	addi	a5,a5,1
    637c:	faa74713          	xori	a4,a4,-86
    6380:	00e78123          	sb	a4,2(a5)
    6384:	fed799e3          	bne	a5,a3,6376 <recv_esp32_connect_control+0x4e>
    6388:	20003537          	lui	a0,0x20003
    638c:	4625                	li	a2,9
    638e:	058d                	addi	a1,a1,3
    6390:	12c50513          	addi	a0,a0,300 # 2000312c <connection_state+0x14>
    6394:	e0df90ef          	jal	ra,1a0 <memcpy>
    6398:	bfd1                	j	636c <recv_esp32_connect_control+0x44>
    639a:	00758713          	addi	a4,a1,7
    639e:	0035c783          	lbu	a5,3(a1)
    63a2:	0585                	addi	a1,a1,1
    63a4:	faa7c793          	xori	a5,a5,-86
    63a8:	00f58123          	sb	a5,2(a1)
    63ac:	fee599e3          	bne	a1,a4,639e <recv_esp32_connect_control+0x76>
    63b0:	200045b7          	lui	a1,0x20004
    63b4:	20003537          	lui	a0,0x20003
    63b8:	461d                	li	a2,7
    63ba:	1bf58593          	addi	a1,a1,447 # 200041bf <pkt+0x3>
    63be:	13550513          	addi	a0,a0,309 # 20003135 <connection_state+0x1d>
    63c2:	ddff90ef          	jal	ra,1a0 <memcpy>
    63c6:	200037b7          	lui	a5,0x20003
    63ca:	4705                	li	a4,1
    63cc:	12e78e23          	sb	a4,316(a5) # 2000313c <connection_state+0x24>
    63d0:	bf71                	j	636c <recv_esp32_connect_control+0x44>
    63d2:	200037b7          	lui	a5,0x20003
    63d6:	11878793          	addi	a5,a5,280 # 20003118 <connection_state>
    63da:	0017c503          	lbu	a0,1(a5)
    63de:	0035c703          	lbu	a4,3(a1)
    63e2:	00153513          	seqz	a0,a0
    63e6:	00e78123          	sb	a4,2(a5)
    63ea:	a2aff0ef          	jal	ra,5614 <flush_rgb>
    63ee:	bfbd                	j	636c <recv_esp32_connect_control+0x44>
    63f0:	200037b7          	lui	a5,0x20003
    63f4:	120785a3          	sb	zero,299(a5) # 2000312b <connection_state+0x13>
    63f8:	bf95                	j	636c <recv_esp32_connect_control+0x44>
    63fa:	0035c703          	lbu	a4,3(a1)
    63fe:	200037b7          	lui	a5,0x20003
    6402:	10e78da3          	sb	a4,283(a5) # 2000311b <connection_state+0x3>
    6406:	b79d                	j	636c <recv_esp32_connect_control+0x44>
    6408:	8082                	ret

0000640a <recv_rumble_frame>:
    640a:	200047b7          	lui	a5,0x20004
    640e:	1bc7a783          	lw	a5,444(a5) # 200041bc <pkt>
    6412:	07f7f793          	andi	a5,a5,127
    6416:	eb99                	bnez	a5,642c <recv_rumble_frame+0x22>
    6418:	200045b7          	lui	a1,0x20004
    641c:	20004537          	lui	a0,0x20004
    6420:	1c358593          	addi	a1,a1,451 # 200041c3 <pkt+0x7>
    6424:	1bf50513          	addi	a0,a0,447 # 200041bf <pkt+0x3>
    6428:	855fb06f          	j	1c7c <decode_hd_rumble_multiformat_high_acc>
    642c:	8082                	ret

0000642e <recv_pwr_control>:
    642e:	20004737          	lui	a4,0x20004
    6432:	1bc70713          	addi	a4,a4,444 # 200041bc <pkt>
    6436:	431c                	lw	a5,0(a4)
    6438:	4685                	li	a3,1
    643a:	07f7f793          	andi	a5,a5,127
    643e:	02d78163          	beq	a5,a3,6460 <recv_pwr_control+0x32>
    6442:	d2ff92ef          	jal	t0,170 <__riscv_save_0>
    6446:	4689                	li	a3,2
    6448:	02d78163          	beq	a5,a3,646a <recv_pwr_control+0x3c>
    644c:	eb81                	bnez	a5,645c <recv_pwr_control+0x2e>
    644e:	00374703          	lbu	a4,3(a4)
    6452:	4505                	li	a0,1
    6454:	9ee188a3          	sb	a4,-1551(gp) # 20001519 <force_esp32_active>
    6458:	9bcff0ef          	jal	ra,5614 <flush_rgb>
    645c:	d39f906f          	j	194 <__riscv_restore_0>
    6460:	20003737          	lui	a4,0x20003
    6464:	10f70ca3          	sb	a5,281(a4) # 20003119 <connection_state+0x1>
    6468:	8082                	ret
    646a:	4501                	li	a0,0
    646c:	9a8ff0ef          	jal	ra,5614 <flush_rgb>
    6470:	4529                	li	a0,10
    6472:	ec8ff0ef          	jal	ra,5b3a <Delay_Ms>
    6476:	beef07b7          	lui	a5,0xbeef0
    647a:	e000e737          	lui	a4,0xe000e
    647e:	08078793          	addi	a5,a5,128 # beef0080 <_eusrstack+0x9eeeb080>
    6482:	c73c                	sw	a5,72(a4)
    6484:	bfe1                	j	645c <recv_pwr_control+0x2e>

00006486 <recv_flash_operation>:
    6486:	cebf92ef          	jal	t0,170 <__riscv_save_0>
    648a:	200044b7          	lui	s1,0x20004
    648e:	1bc48413          	addi	s0,s1,444 # 200041bc <pkt>
    6492:	00144703          	lbu	a4,1(s0)
    6496:	47a1                	li	a5,8
    6498:	01e77693          	andi	a3,a4,30
    649c:	04f69763          	bne	a3,a5,64ea <recv_flash_operation+0x64>
    64a0:	401c                	lw	a5,0(s0)
    64a2:	8b7d                	andi	a4,a4,31
    64a4:	8bbd                	andi	a5,a5,15
    64a6:	04d71d63          	bne	a4,a3,6500 <recv_flash_operation+0x7a>
    64aa:	04e78263          	beq	a5,a4,64ee <recv_flash_operation+0x68>
    64ae:	473d                	li	a4,15
    64b0:	00e78e63          	beq	a5,a4,64cc <recv_flash_operation+0x46>
    64b4:	4719                	li	a4,6
    64b6:	02e79663          	bne	a5,a4,64e2 <recv_flash_operation+0x5c>
    64ba:	200045b7          	lui	a1,0x20004
    64be:	00344503          	lbu	a0,3(s0)
    64c2:	4621                	li	a2,8
    64c4:	1c058593          	addi	a1,a1,448 # 200041c0 <pkt+0x4>
    64c8:	6799                	lui	a5,0x6
    64ca:	a809                	j	64dc <recv_flash_operation+0x56>
    64cc:	00344503          	lbu	a0,3(s0)
    64d0:	200045b7          	lui	a1,0x20004
    64d4:	4621                	li	a2,8
    64d6:	1c058593          	addi	a1,a1,448 # 200041c0 <pkt+0x4>
    64da:	67bd                	lui	a5,0xf
    64dc:	8d5d                	or	a0,a0,a5
    64de:	d12fa0ef          	jal	ra,9f0 <conf_read>
    64e2:	1bc48513          	addi	a0,s1,444
    64e6:	b63ff0ef          	jal	ra,6048 <send_uart_pkt>
    64ea:	cabf906f          	j	194 <__riscv_restore_0>
    64ee:	200045b7          	lui	a1,0x20004
    64f2:	00344503          	lbu	a0,3(s0)
    64f6:	4621                	li	a2,8
    64f8:	1c058593          	addi	a1,a1,448 # 200041c0 <pkt+0x4>
    64fc:	67a1                	lui	a5,0x8
    64fe:	bff9                	j	64dc <recv_flash_operation+0x56>
    6500:	06d78463          	beq	a5,a3,6568 <recv_flash_operation+0xe2>
    6504:	473d                	li	a4,15
    6506:	02e78963          	beq	a5,a4,6538 <recv_flash_operation+0xb2>
    650a:	4719                	li	a4,6
    650c:	fce79be3          	bne	a5,a4,64e2 <recv_flash_operation+0x5c>
    6510:	00344903          	lbu	s2,3(s0)
    6514:	0b100593          	li	a1,177
    6518:	4521                	li	a0,8
    651a:	412585b3          	sub	a1,a1,s2
    651e:	af7fa0ef          	jal	ra,1014 <i32_min>
    6522:	4014                	lw	a3,0(s0)
    6524:	200045b7          	lui	a1,0x20004
    6528:	0ff57613          	zext.b	a2,a0
    652c:	8291                	srli	a3,a3,0x4
    652e:	8a9d                	andi	a3,a3,7
    6530:	1c058593          	addi	a1,a1,448 # 200041c0 <pkt+0x4>
    6534:	6519                	lui	a0,0x6
    6536:	a025                	j	655e <recv_flash_operation+0xd8>
    6538:	00344903          	lbu	s2,3(s0)
    653c:	02600593          	li	a1,38
    6540:	4521                	li	a0,8
    6542:	412585b3          	sub	a1,a1,s2
    6546:	acffa0ef          	jal	ra,1014 <i32_min>
    654a:	4014                	lw	a3,0(s0)
    654c:	200045b7          	lui	a1,0x20004
    6550:	0ff57613          	zext.b	a2,a0
    6554:	8291                	srli	a3,a3,0x4
    6556:	8a9d                	andi	a3,a3,7
    6558:	1c058593          	addi	a1,a1,448 # 200041c0 <pkt+0x4>
    655c:	653d                	lui	a0,0xf
    655e:	00a96533          	or	a0,s2,a0
    6562:	909fa0ef          	jal	ra,e6a <conf_write>
    6566:	bfb5                	j	64e2 <recv_flash_operation+0x5c>
    6568:	00344903          	lbu	s2,3(s0)
    656c:	04800593          	li	a1,72
    6570:	4521                	li	a0,8
    6572:	412585b3          	sub	a1,a1,s2
    6576:	a9ffa0ef          	jal	ra,1014 <i32_min>
    657a:	4014                	lw	a3,0(s0)
    657c:	200045b7          	lui	a1,0x20004
    6580:	0ff57613          	zext.b	a2,a0
    6584:	8291                	srli	a3,a3,0x4
    6586:	8a9d                	andi	a3,a3,7
    6588:	1c058593          	addi	a1,a1,448 # 200041c0 <pkt+0x4>
    658c:	6521                	lui	a0,0x8
    658e:	bfc1                	j	655e <recv_flash_operation+0xd8>

00006590 <connection_state_handler>:
    6590:	be1f92ef          	jal	t0,170 <__riscv_save_0>
    6594:	ca1ff0ef          	jal	ra,6234 <start_connect>
    6598:	20003437          	lui	s0,0x20003
    659c:	11840793          	addi	a5,s0,280 # 20003118 <connection_state>
    65a0:	0047c703          	lbu	a4,4(a5) # 8004 <__udivdi3+0x160>
    65a4:	11840413          	addi	s0,s0,280
    65a8:	e315                	bnez	a4,65cc <connection_state_handler+0x3c>
    65aa:	0017c783          	lbu	a5,1(a5)
    65ae:	cf99                	beqz	a5,65cc <connection_state_handler+0x3c>
    65b0:	b5ffe0ef          	jal	ra,510e <set_pwr_mode_stop>
    65b4:	c901                	beqz	a0,65c4 <connection_state_handler+0x34>
    65b6:	beef07b7          	lui	a5,0xbeef0
    65ba:	e000e737          	lui	a4,0xe000e
    65be:	08078793          	addi	a5,a5,128 # beef0080 <_eusrstack+0x9eeeb080>
    65c2:	c73c                	sw	a5,72(a4)
    65c4:	97ffd0ef          	jal	ra,3f42 <init_all>
    65c8:	bcdf906f          	j	194 <__riscv_restore_0>
    65cc:	00044783          	lbu	a5,0(s0)
    65d0:	dfe5                	beqz	a5,65c8 <connection_state_handler+0x38>
    65d2:	00144783          	lbu	a5,1(s0)
    65d6:	fbed                	bnez	a5,65c8 <connection_state_handler+0x38>
    65d8:	ceaff0ef          	jal	ra,5ac2 <Get_Systick_MS>
    65dc:	a2c1a783          	lw	a5,-1492(gp) # 20001554 <input_update_tick>
    65e0:	8d1d                	sub	a0,a0,a5
    65e2:	4789                	li	a5,2
    65e4:	fea7f2e3          	bgeu	a5,a0,65c8 <connection_state_handler+0x38>
    65e8:	cdaff0ef          	jal	ra,5ac2 <Get_Systick_MS>
    65ec:	01344783          	lbu	a5,19(s0)
    65f0:	a2a1a623          	sw	a0,-1492(gp) # 20001554 <input_update_tick>
    65f4:	c3a1                	beqz	a5,6634 <connection_state_handler+0xa4>
    65f6:	20004937          	lui	s2,0x20004
    65fa:	1bc90493          	addi	s1,s2,444 # 200041bc <pkt>
    65fe:	0004c783          	lbu	a5,0(s1)
    6602:	20004537          	lui	a0,0x20004
    6606:	462d                	li	a2,11
    6608:	f807f793          	andi	a5,a5,-128
    660c:	0037e793          	ori	a5,a5,3
    6610:	4581                	li	a1,0
    6612:	1bd50513          	addi	a0,a0,445 # 200041bd <pkt+0x1>
    6616:	00f48023          	sb	a5,0(s1)
    661a:	b9df90ef          	jal	ra,1b6 <memset>
    661e:	4619                	li	a2,6
    6620:	00c40593          	addi	a1,s0,12
    6624:	00348513          	addi	a0,s1,3
    6628:	b79f90ef          	jal	ra,1a0 <memcpy>
    662c:	1bc90513          	addi	a0,s2,444
    6630:	a19ff0ef          	jal	ra,6048 <send_uart_pkt>
    6634:	00544783          	lbu	a5,5(s0)
    6638:	ebb1                	bnez	a5,668c <connection_state_handler+0xfc>
    663a:	b91ff0ef          	jal	ra,61ca <send_input_with_uart>
    663e:	01244783          	lbu	a5,18(s0)
    6642:	e38d                	bnez	a5,6664 <connection_state_handler+0xd4>
    6644:	20004537          	lui	a0,0x20004
    6648:	1bc55783          	lhu	a5,444(a0) # 200041bc <pkt>
    664c:	7779                	lui	a4,0xffffe
    664e:	08070713          	addi	a4,a4,128 # ffffe080 <_eusrstack+0xdfff9080>
    6652:	8ff9                	and	a5,a5,a4
    6654:	3017e793          	ori	a5,a5,769
    6658:	1af51e23          	sh	a5,444(a0)
    665c:	1bc50513          	addi	a0,a0,444
    6660:	9e9ff0ef          	jal	ra,6048 <send_uart_pkt>
    6664:	02444783          	lbu	a5,36(s0)
    6668:	f3a5                	bnez	a5,65c8 <connection_state_handler+0x38>
    666a:	20004537          	lui	a0,0x20004
    666e:	1bc55783          	lhu	a5,444(a0) # 200041bc <pkt>
    6672:	7779                	lui	a4,0xffffe
    6674:	08070713          	addi	a4,a4,128 # ffffe080 <_eusrstack+0xdfff9080>
    6678:	8ff9                	and	a5,a5,a4
    667a:	3027e793          	ori	a5,a5,770
    667e:	1af51e23          	sh	a5,444(a0)
    6682:	1bc50513          	addi	a0,a0,444
    6686:	9c3ff0ef          	jal	ra,6048 <send_uart_pkt>
    668a:	bf3d                	j	65c8 <connection_state_handler+0x38>
    668c:	00344783          	lbu	a5,3(s0)
    6690:	8b85                	andi	a5,a5,1
    6692:	db9d                	beqz	a5,65c8 <connection_state_handler+0x38>
    6694:	20004537          	lui	a0,0x20004
    6698:	1bc55783          	lhu	a5,444(a0) # 200041bc <pkt>
    669c:	7779                	lui	a4,0xffffe
    669e:	08070713          	addi	a4,a4,128 # ffffe080 <_eusrstack+0xdfff9080>
    66a2:	8ff9                	and	a5,a5,a4
    66a4:	3007e793          	ori	a5,a5,768
    66a8:	1af51e23          	sh	a5,444(a0)
    66ac:	1bc50793          	addi	a5,a0,444
    66b0:	000781a3          	sb	zero,3(a5)
    66b4:	b7f9                	j	6682 <connection_state_handler+0xf2>

000066b6 <reliable_uart_init>:
    66b6:	abbf92ef          	jal	t0,170 <__riscv_save_0>
    66ba:	200045b7          	lui	a1,0x20004
    66be:	20004537          	lui	a0,0x20004
    66c2:	4705                	li	a4,1
    66c4:	04000693          	li	a3,64
    66c8:	4601                	li	a2,0
    66ca:	d6858593          	addi	a1,a1,-664 # 20003d68 <r_wait_queue_buffer>
    66ce:	da850513          	addi	a0,a0,-600 # 20003da8 <r_wait_queue>
    66d2:	a89fe0ef          	jal	ra,515a <ring_buffer_init>
    66d6:	20004537          	lui	a0,0x20004
    66da:	40000613          	li	a2,1024
    66de:	4581                	li	a1,0
    66e0:	dbc50513          	addi	a0,a0,-580 # 20003dbc <rurt_lst>
    66e4:	ad3f90ef          	jal	ra,1b6 <memset>
    66e8:	aadf906f          	j	194 <__riscv_restore_0>

000066ec <reliable_uart_task>:
    66ec:	a6bf92ef          	jal	t0,156 <__riscv_save_4>
    66f0:	20004937          	lui	s2,0x20004
    66f4:	200044b7          	lui	s1,0x20004
    66f8:	da890413          	addi	s0,s2,-600 # 20003da8 <r_wait_queue>
    66fc:	dbc48493          	addi	s1,s1,-580 # 20003dbc <rurt_lst>
    6700:	445c                	lw	a5,12(s0)
    6702:	e399                	bnez	a5,6708 <reliable_uart_task+0x1c>
    6704:	a87f906f          	j	18a <__riscv_restore_4>
    6708:	01144783          	lbu	a5,17(s0)
    670c:	00844703          	lbu	a4,8(s0)
    6710:	02f70733          	mul	a4,a4,a5
    6714:	401c                	lw	a5,0(s0)
    6716:	97ba                	add	a5,a5,a4
    6718:	0007c783          	lbu	a5,0(a5)
    671c:	a0f18d23          	sb	a5,-1510(gp) # 20001542 <id.0>
    6720:	0792                	slli	a5,a5,0x4
    6722:	97a6                	add	a5,a5,s1
    6724:	439c                	lw	a5,0(a5)
    6726:	c79d                	beqz	a5,6754 <reliable_uart_task+0x68>
    6728:	b9aff0ef          	jal	ra,5ac2 <Get_Systick_MS>
    672c:	a1a1c783          	lbu	a5,-1510(gp) # 20001542 <id.0>
    6730:	0792                	slli	a5,a5,0x4
    6732:	97a6                	add	a5,a5,s1
    6734:	4398                	lw	a4,0(a5)
    6736:	8d19                	sub	a0,a0,a4
    6738:	3e700713          	li	a4,999
    673c:	fca774e3          	bgeu	a4,a0,6704 <reliable_uart_task+0x18>
    6740:	4798                	lw	a4,8(a5)
    6742:	c701                	beqz	a4,674a <reliable_uart_task+0x5e>
    6744:	47cc                	lw	a1,12(a5)
    6746:	4505                	li	a0,1
    6748:	9702                	jalr	a4
    674a:	a241a783          	lw	a5,-1500(gp) # 2000154c <reliable_uart_timeout_cnt>
    674e:	0785                	addi	a5,a5,1
    6750:	a2f1a223          	sw	a5,-1500(gp) # 2000154c <reliable_uart_timeout_cnt>
    6754:	a201a783          	lw	a5,-1504(gp) # 20001548 <reliable_uart_handled_cnt>
    6758:	da890513          	addi	a0,s2,-600
    675c:	0785                	addi	a5,a5,1
    675e:	a2f1a023          	sw	a5,-1504(gp) # 20001548 <reliable_uart_handled_cnt>
    6762:	b71fe0ef          	jal	ra,52d2 <ring_buffer_pop>
    6766:	bf69                	j	6700 <reliable_uart_task+0x14>

00006768 <reliable_uart_handler>:
    6768:	a09f92ef          	jal	t0,170 <__riscv_save_0>
    676c:	20004437          	lui	s0,0x20004
    6770:	1bc40493          	addi	s1,s0,444 # 200041bc <pkt>
    6774:	00348783          	lb	a5,3(s1)
    6778:	0407d163          	bgez	a5,67ba <reliable_uart_handler+0x52>
    677c:	1bc40913          	addi	s2,s0,444
    6780:	00394683          	lbu	a3,3(s2)
    6784:	200047b7          	lui	a5,0x20004
    6788:	dbc78713          	addi	a4,a5,-580 # 20003dbc <rurt_lst>
    678c:	07f6f693          	andi	a3,a3,127
    6790:	0692                	slli	a3,a3,0x4
    6792:	9736                	add	a4,a4,a3
    6794:	4314                	lw	a3,0(a4)
    6796:	dbc78413          	addi	s0,a5,-580
    679a:	ce91                	beqz	a3,67b6 <reliable_uart_handler+0x4e>
    679c:	471c                	lw	a5,8(a4)
    679e:	c781                	beqz	a5,67a6 <reliable_uart_handler+0x3e>
    67a0:	474c                	lw	a1,12(a4)
    67a2:	4501                	li	a0,0
    67a4:	9782                	jalr	a5
    67a6:	00394783          	lbu	a5,3(s2)
    67aa:	07f7f793          	andi	a5,a5,127
    67ae:	0792                	slli	a5,a5,0x4
    67b0:	97a2                	add	a5,a5,s0
    67b2:	0007a023          	sw	zero,0(a5)
    67b6:	9dff906f          	j	194 <__riscv_restore_0>
    67ba:	1bc40513          	addi	a0,s0,444
    67be:	973ff0ef          	jal	ra,6130 <reliable_uart_send_acc.part.0>
    67c2:	0004c783          	lbu	a5,0(s1)
    67c6:	8bbd                	andi	a5,a5,15
    67c8:	f7fd                	bnez	a5,67b6 <reliable_uart_handler+0x4e>
    67ca:	4098                	lw	a4,0(s1)
    67cc:	76f9                	lui	a3,0xffffe
    67ce:	08068693          	addi	a3,a3,128 # ffffe080 <_eusrstack+0xdfff9080>
    67d2:	00f77793          	andi	a5,a4,15
    67d6:	8311                	srli	a4,a4,0x4
    67d8:	8b1d                	andi	a4,a4,7
    67da:	07a2                	slli	a5,a5,0x8
    67dc:	8fd9                	or	a5,a5,a4
    67de:	1bc45703          	lhu	a4,444(s0)
    67e2:	8f75                	and	a4,a4,a3
    67e4:	8fd9                	or	a5,a5,a4
    67e6:	1af41e23          	sh	a5,444(s0)
    67ea:	2011                	jal	67ee <recv_esp32_pkg>
    67ec:	b7e9                	j	67b6 <reliable_uart_handler+0x4e>

000067ee <recv_esp32_pkg>:
    67ee:	20004737          	lui	a4,0x20004
    67f2:	1bc70793          	addi	a5,a4,444 # 200041bc <pkt>
    67f6:	439c                	lw	a5,0(a5)
    67f8:	46ad                	li	a3,11
    67fa:	83a1                	srli	a5,a5,0x8
    67fc:	8bfd                	andi	a5,a5,31
    67fe:	04f6e263          	bltu	a3,a5,6842 <recv_esp32_pkg+0x54>
    6802:	96ff92ef          	jal	t0,170 <__riscv_save_0>
    6806:	66b5                	lui	a3,0xd
    6808:	078a                	slli	a5,a5,0x2
    680a:	bc468693          	addi	a3,a3,-1084 # cbc4 <exp2_lookup_tb+0x5a0>
    680e:	97b6                	add	a5,a5,a3
    6810:	439c                	lw	a5,0(a5)
    6812:	8782                	jr	a5
    6814:	f55ff0ef          	jal	ra,6768 <reliable_uart_handler>
    6818:	97df906f          	j	194 <__riscv_restore_0>
    681c:	b0dff0ef          	jal	ra,6328 <recv_esp32_connect_control>
    6820:	bfe5                	j	6818 <recv_esp32_pkg+0x2a>
    6822:	be9ff0ef          	jal	ra,640a <recv_rumble_frame>
    6826:	bfcd                	j	6818 <recv_esp32_pkg+0x2a>
    6828:	c07ff0ef          	jal	ra,642e <recv_pwr_control>
    682c:	b7f5                	j	6818 <recv_esp32_pkg+0x2a>
    682e:	c59ff0ef          	jal	ra,6486 <recv_flash_operation>
    6832:	b7dd                	j	6818 <recv_esp32_pkg+0x2a>
    6834:	1bc70713          	addi	a4,a4,444
    6838:	00374703          	lbu	a4,3(a4)
    683c:	9ae18423          	sb	a4,-1624(gp) # 200014d0 <imu_mode>
    6840:	bfe1                	j	6818 <recv_esp32_pkg+0x2a>
    6842:	8082                	ret

00006844 <uart_com_task>:
    6844:	913f92ef          	jal	t0,156 <__riscv_save_4>
    6848:	200034b7          	lui	s1,0x20003
    684c:	20003937          	lui	s2,0x20003
    6850:	200049b7          	lui	s3,0x20004
    6854:	03300413          	li	s0,51
    6858:	4d448493          	addi	s1,s1,1236 # 200034d4 <uart_rx_rb>
    685c:	11890913          	addi	s2,s2,280 # 20003118 <connection_state>
    6860:	4a05                	li	s4,1
    6862:	20004ab7          	lui	s5,0x20004
    6866:	8a898993          	addi	s3,s3,-1880 # 200038a8 <uart_rx_rb_buf>
    686a:	44dc                	lw	a5,12(s1)
    686c:	c789                	beqz	a5,6876 <uart_com_task+0x32>
    686e:	147d                	addi	s0,s0,-1
    6870:	0ff47413          	zext.b	s0,s0
    6874:	e409                	bnez	s0,687e <uart_com_task+0x3a>
    6876:	d1bff0ef          	jal	ra,6590 <connection_state_handler>
    687a:	911f906f          	j	18a <__riscv_restore_4>
    687e:	0084c583          	lbu	a1,8(s1)
    6882:	47b5                	li	a5,13
    6884:	4635                	li	a2,13
    6886:	02f585b3          	mul	a1,a1,a5
    688a:	1bca8513          	addi	a0,s5,444 # 200041bc <pkt>
    688e:	01490023          	sb	s4,0(s2)
    6892:	95ce                	add	a1,a1,s3
    6894:	90df90ef          	jal	ra,1a0 <memcpy>
    6898:	8526                	mv	a0,s1
    689a:	a39fe0ef          	jal	ra,52d2 <ring_buffer_pop>
    689e:	f51ff0ef          	jal	ra,67ee <recv_esp32_pkg>
    68a2:	b7e1                	j	686a <uart_com_task+0x26>

000068a4 <ns_set_peripheral_data_getter>:
    68a4:	a4a1a623          	sw	a0,-1460(gp) # 20001574 <get_peripheral_data>
    68a8:	8082                	ret

000068aa <ns_hid_get_packet_timer>:
    68aa:	8c7f92ef          	jal	t0,170 <__riscv_save_0>
    68ae:	200027b7          	lui	a5,0x20002
    68b2:	4117c783          	lbu	a5,1041(a5) # 20002411 <user_config+0x21>
    68b6:	4705                	li	a4,1
    68b8:	00e78b63          	beq	a5,a4,68ce <ns_hid_get_packet_timer+0x24>
    68bc:	4709                	li	a4,2
    68be:	00e78d63          	beq	a5,a4,68d8 <ns_hid_get_packet_timer+0x2e>
    68c2:	a00ff0ef          	jal	ra,5ac2 <Get_Systick_MS>
    68c6:	4795                	li	a5,5
    68c8:	02f55533          	divu	a0,a0,a5
    68cc:	a019                	j	68d2 <ns_hid_get_packet_timer+0x28>
    68ce:	9f4ff0ef          	jal	ra,5ac2 <Get_Systick_MS>
    68d2:	0ff57513          	zext.b	a0,a0
    68d6:	a039                	j	68e4 <ns_hid_get_packet_timer+0x3a>
    68d8:	a481c503          	lbu	a0,-1464(gp) # 20001570 <ns_hid_pkt_cnt>
    68dc:	00150713          	addi	a4,a0,1
    68e0:	a4e18423          	sb	a4,-1464(gp) # 20001570 <ns_hid_pkt_cnt>
    68e4:	8b1f906f          	j	194 <__riscv_restore_0>

000068e8 <rpt_wrapper>:
    68e8:	889f92ef          	jal	t0,170 <__riscv_save_0>
    68ec:	842a                	mv	s0,a0
    68ee:	84ae                	mv	s1,a1
    68f0:	8932                	mv	s2,a2
    68f2:	4581                	li	a1,0
    68f4:	03000613          	li	a2,48
    68f8:	0505                	addi	a0,a0,1
    68fa:	8bdf90ef          	jal	ra,1b6 <memset>
    68fe:	03000793          	li	a5,48
    6902:	00f40023          	sb	a5,0(s0)
    6906:	cc89                	beqz	s1,6920 <rpt_wrapper+0x38>
    6908:	00090c63          	beqz	s2,6920 <rpt_wrapper+0x38>
    690c:	864a                	mv	a2,s2
    690e:	85a6                	mv	a1,s1
    6910:	00d40513          	addi	a0,s0,13
    6914:	88df90ef          	jal	ra,1a0 <memcpy>
    6918:	02100793          	li	a5,33
    691c:	00f40023          	sb	a5,0(s0)
    6920:	200045b7          	lui	a1,0x20004
    6924:	4625                	li	a2,9
    6926:	21058593          	addi	a1,a1,528 # 20004210 <global_input_data>
    692a:	00340513          	addi	a0,s0,3
    692e:	873f90ef          	jal	ra,1a0 <memcpy>
    6932:	00444703          	lbu	a4,4(s0)
    6936:	00344783          	lbu	a5,3(s0)
    693a:	0722                	slli	a4,a4,0x8
    693c:	8f5d                	or	a4,a4,a5
    693e:	00544783          	lbu	a5,5(s0)
    6942:	07c2                	slli	a5,a5,0x10
    6944:	8fd9                	or	a5,a5,a4
    6946:	8c41a703          	lw	a4,-1852(gp) # 200013ec <button_active_mask>
    694a:	8ff9                	and	a5,a5,a4
    694c:	0087d713          	srli	a4,a5,0x8
    6950:	00f401a3          	sb	a5,3(s0)
    6954:	83c1                	srli	a5,a5,0x10
    6956:	00f402a3          	sb	a5,5(s0)
    695a:	00e40223          	sb	a4,4(s0)
    695e:	f4dff0ef          	jal	ra,68aa <ns_hid_get_packet_timer>
    6962:	f9100793          	li	a5,-111
    6966:	00a400a3          	sb	a0,1(s0)
    696a:	00f40123          	sb	a5,2(s0)
    696e:	00040623          	sb	zero,12(s0)
    6972:	823f906f          	j	194 <__riscv_restore_0>

00006976 <set_imu_available>:
    6976:	a2a1ac23          	sw	a0,-1480(gp) # 20001560 <imu_report_buffer_ptr>
    697a:	849ff06f          	j	61c2 <imu_buffer_reset_notifier>

0000697e <hid_init>:
    697e:	a581a783          	lw	a5,-1448(gp) # 20001580 <pEP1_RAM_Addr>
    6982:	04078793          	addi	a5,a5,64
    6986:	a2f1ae23          	sw	a5,-1476(gp) # 20001564 <rpt>
    698a:	8082                	ret

0000698c <hid_tx_service>:
    698c:	fcaf92ef          	jal	t0,156 <__riscv_save_4>
    6990:	8a818793          	addi	a5,gp,-1880 # 200013d0 <USBFS_Endp_Busy>
    6994:	0017c783          	lbu	a5,1(a5)
    6998:	ebbd                	bnez	a5,6a0e <hid_tx_service+0x82>
    699a:	6e818693          	addi	a3,gp,1768 # 20002210 <ns_usb_send_rb>
    699e:	46dc                	lw	a5,12(a3)
    69a0:	8a818413          	addi	s0,gp,-1880 # 200013d0 <USBFS_Endp_Busy>
    69a4:	cbc9                	beqz	a5,6a36 <hid_tx_service+0xaa>
    69a6:	0086c583          	lbu	a1,8(a3)
    69aa:	04100713          	li	a4,65
    69ae:	429c                	lw	a5,0(a3)
    69b0:	02e58733          	mul	a4,a1,a4
    69b4:	42d4                	lw	a3,4(a3)
    69b6:	6e818513          	addi	a0,gp,1768 # 20002210 <ns_usb_send_rb>
    69ba:	96ae                	add	a3,a3,a1
    69bc:	00170613          	addi	a2,a4,1
    69c0:	963e                	add	a2,a2,a5
    69c2:	a4c1a223          	sw	a2,-1468(gp) # 2000156c <pkg_ptr>
    69c6:	0006c683          	lbu	a3,0(a3)
    69ca:	97ba                	add	a5,a5,a4
    69cc:	a4d180a3          	sb	a3,-1471(gp) # 20001569 <pkg_len>
    69d0:	0007c783          	lbu	a5,0(a5)
    69d4:	a4f18023          	sb	a5,-1472(gp) # 20001568 <pkg_typ>
    69d8:	8fbfe0ef          	jal	ra,52d2 <ring_buffer_pop>
    69dc:	a401c783          	lbu	a5,-1472(gp) # 20001568 <pkg_typ>
    69e0:	cb8d                	beqz	a5,6a12 <hid_tx_service+0x86>
    69e2:	4705                	li	a4,1
    69e4:	04e78063          	beq	a5,a4,6a24 <hid_tx_service+0x98>
    69e8:	04000693          	li	a3,64
    69ec:	400237b7          	lui	a5,0x40023
    69f0:	a4d180a3          	sb	a3,-1471(gp) # 20001569 <pkg_len>
    69f4:	42d79a23          	sh	a3,1076(a5) # 40023434 <_eusrstack+0x2001e434>
    69f8:	43478713          	addi	a4,a5,1076
    69fc:	4785                	li	a5,1
    69fe:	00f400a3          	sb	a5,1(s0)
    6a02:	fffd07b7          	lui	a5,0xfffd0
    6a06:	17fd                	addi	a5,a5,-1 # fffcffff <_eusrstack+0xdffcafff>
    6a08:	60f727af          	amoand.w	a5,a5,(a4)
    6a0c:	431c                	lw	a5,0(a4)
    6a0e:	f7cf906f          	j	18a <__riscv_restore_4>
    6a12:	a411c603          	lbu	a2,-1471(gp) # 20001569 <pkg_len>
    6a16:	a441a583          	lw	a1,-1468(gp) # 2000156c <pkg_ptr>
    6a1a:	a3c1a503          	lw	a0,-1476(gp) # 20001564 <rpt>
    6a1e:	ecbff0ef          	jal	ra,68e8 <rpt_wrapper>
    6a22:	b7d9                	j	69e8 <hid_tx_service+0x5c>
    6a24:	a411c603          	lbu	a2,-1471(gp) # 20001569 <pkg_len>
    6a28:	a441a583          	lw	a1,-1468(gp) # 2000156c <pkg_ptr>
    6a2c:	a3c1a503          	lw	a0,-1476(gp) # 20001564 <rpt>
    6a30:	f70f90ef          	jal	ra,1a0 <memcpy>
    6a34:	bf55                	j	69e8 <hid_tx_service+0x5c>
    6a36:	a3c1a503          	lw	a0,-1476(gp) # 20001564 <rpt>
    6a3a:	4601                	li	a2,0
    6a3c:	4581                	li	a1,0
    6a3e:	eabff0ef          	jal	ra,68e8 <rpt_wrapper>
    6a42:	200027b7          	lui	a5,0x20002
    6a46:	3f078783          	lb	a5,1008(a5) # 200023f0 <user_config>
    6a4a:	0207c263          	bltz	a5,6a6e <hid_tx_service+0xe2>
    6a4e:	9a81c783          	lbu	a5,-1624(gp) # 200014d0 <imu_mode>
    6a52:	cf91                	beqz	a5,6a6e <hid_tx_service+0xe2>
    6a54:	97b1c783          	lbu	a5,-1669(gp) # 200014a3 <i2c_status>
    6a58:	cb99                	beqz	a5,6a6e <hid_tx_service+0xe2>
    6a5a:	a381a583          	lw	a1,-1480(gp) # 20001560 <imu_report_buffer_ptr>
    6a5e:	c981                	beqz	a1,6a6e <hid_tx_service+0xe2>
    6a60:	a3c1a503          	lw	a0,-1476(gp) # 20001564 <rpt>
    6a64:	02400613          	li	a2,36
    6a68:	0535                	addi	a0,a0,13
    6a6a:	f36f90ef          	jal	ra,1a0 <memcpy>
    6a6e:	a3c1a783          	lw	a5,-1476(gp) # 20001564 <rpt>
    6a72:	a4f1a223          	sw	a5,-1468(gp) # 2000156c <pkg_ptr>
    6a76:	bf8d                	j	69e8 <hid_tx_service+0x5c>

00006a78 <hid_rx_service>:
    6a78:	ef8f92ef          	jal	t0,170 <__riscv_save_0>
    6a7c:	6d418793          	addi	a5,gp,1748 # 200021fc <ns_usb_recv_rb>
    6a80:	47d8                	lw	a4,12(a5)
    6a82:	c739                	beqz	a4,6ad0 <hid_rx_service+0x58>
    6a84:	0087c583          	lbu	a1,8(a5)
    6a88:	43dc                	lw	a5,4(a5)
    6a8a:	20004537          	lui	a0,0x20004
    6a8e:	1cc50913          	addi	s2,a0,460 # 200041cc <usb_rx_buf>
    6a92:	97ae                	add	a5,a5,a1
    6a94:	0007c403          	lbu	s0,0(a5)
    6a98:	04100793          	li	a5,65
    6a9c:	02f585b3          	mul	a1,a1,a5
    6aa0:	200017b7          	lui	a5,0x20001
    6aa4:	5cc78793          	addi	a5,a5,1484 # 200015cc <ns_usb_recv_buf>
    6aa8:	8622                	mv	a2,s0
    6aaa:	1cc50513          	addi	a0,a0,460
    6aae:	95be                	add	a1,a1,a5
    6ab0:	ef0f90ef          	jal	ra,1a0 <memcpy>
    6ab4:	6d418513          	addi	a0,gp,1748 # 200021fc <ns_usb_recv_rb>
    6ab8:	81bfe0ef          	jal	ra,52d2 <ring_buffer_pop>
    6abc:	a3018793          	addi	a5,gp,-1488 # 20001558 <pkt.0>
    6ac0:	a3018513          	addi	a0,gp,-1488 # 20001558 <pkt.0>
    6ac4:	0127a023          	sw	s2,0(a5)
    6ac8:	00878223          	sb	s0,4(a5)
    6acc:	cc6fe0ef          	jal	ra,4f92 <hid_dispatch>
    6ad0:	ec4f906f          	j	194 <__riscv_restore_0>

00006ad4 <ADC1_2_IRQHandler>:
    6ad4:	a001                	j	6ad4 <ADC1_2_IRQHandler>

00006ad6 <handle_reset>:
    6ad6:	1fffb197          	auipc	gp,0x1fffb
    6ada:	05218193          	addi	gp,gp,82 # 20001b28 <__global_pointer$>
    6ade:	1fffe117          	auipc	sp,0x1fffe
    6ae2:	52210113          	addi	sp,sp,1314 # 20005000 <_eusrstack>
    6ae6:	00006517          	auipc	a0,0x6
    6aea:	52e50513          	addi	a0,a0,1326 # d014 <_data_lma>
    6aee:	1fff9597          	auipc	a1,0x1fff9
    6af2:	51258593          	addi	a1,a1,1298 # 20000000 <kb_scan>
    6af6:	8a418613          	addi	a2,gp,-1884 # 200013cc <_edata>
    6afa:	00c5fa63          	bgeu	a1,a2,6b0e <handle_reset+0x38>
    6afe:	00052283          	lw	t0,0(a0)
    6b02:	0055a023          	sw	t0,0(a1)
    6b06:	0511                	addi	a0,a0,4
    6b08:	0591                	addi	a1,a1,4
    6b0a:	fec5eae3          	bltu	a1,a2,6afe <handle_reset+0x28>
    6b0e:	8a818513          	addi	a0,gp,-1880 # 200013d0 <USBFS_Endp_Busy>
    6b12:	1fffd597          	auipc	a1,0x1fffd
    6b16:	74a58593          	addi	a1,a1,1866 # 2000425c <_ebss>
    6b1a:	00b57763          	bgeu	a0,a1,6b28 <handle_reset+0x52>
    6b1e:	00052023          	sw	zero,0(a0)
    6b22:	0511                	addi	a0,a0,4
    6b24:	feb56de3          	bltu	a0,a1,6b1e <handle_reset+0x48>
    6b28:	08800293          	li	t0,136
    6b2c:	30029073          	csrw	mstatus,t0
    6b30:	ffff9297          	auipc	t0,0xffff9
    6b34:	50828293          	addi	t0,t0,1288 # 38 <_einit>
    6b38:	0012e293          	ori	t0,t0,1
    6b3c:	30529073          	csrw	mtvec,t0
    6b40:	e0bfe0ef          	jal	ra,594a <SystemInit>
    6b44:	ffffd297          	auipc	t0,0xffffd
    6b48:	4d628293          	addi	t0,t0,1238 # 401a <main>
    6b4c:	34129073          	csrw	mepc,t0
    6b50:	30200073          	mret

00006b54 <ADC_DeInit>:
    6b54:	400127b7          	lui	a5,0x40012
    6b58:	40078793          	addi	a5,a5,1024 # 40012400 <_eusrstack+0x2000d400>
    6b5c:	02f51063          	bne	a0,a5,6b7c <ADC_DeInit+0x28>
    6b60:	e10f92ef          	jal	t0,170 <__riscv_save_0>
    6b64:	4585                	li	a1,1
    6b66:	20000513          	li	a0,512
    6b6a:	54d000ef          	jal	ra,78b6 <RCC_APB2PeriphResetCmd>
    6b6e:	4581                	li	a1,0
    6b70:	20000513          	li	a0,512
    6b74:	543000ef          	jal	ra,78b6 <RCC_APB2PeriphResetCmd>
    6b78:	e1cf906f          	j	194 <__riscv_restore_0>
    6b7c:	8082                	ret

00006b7e <ADC_Init>:
    6b7e:	4158                	lw	a4,4(a0)
    6b80:	fff107b7          	lui	a5,0xfff10
    6b84:	eff78793          	addi	a5,a5,-257 # fff0feff <_eusrstack+0xdff0aeff>
    6b88:	8f7d                	and	a4,a4,a5
    6b8a:	41dc                	lw	a5,4(a1)
    6b8c:	4194                	lw	a3,0(a1)
    6b8e:	07a2                	slli	a5,a5,0x8
    6b90:	8fd5                	or	a5,a5,a3
    6b92:	8fd9                	or	a5,a5,a4
    6b94:	c15c                	sw	a5,4(a0)
    6b96:	4518                	lw	a4,8(a0)
    6b98:	fff1f7b7          	lui	a5,0xfff1f
    6b9c:	7fd78793          	addi	a5,a5,2045 # fff1f7fd <_eusrstack+0xdff1a7fd>
    6ba0:	45d4                	lw	a3,12(a1)
    6ba2:	8f7d                	and	a4,a4,a5
    6ba4:	499c                	lw	a5,16(a1)
    6ba6:	8fd5                	or	a5,a5,a3
    6ba8:	4594                	lw	a3,8(a1)
    6baa:	0686                	slli	a3,a3,0x1
    6bac:	8fd5                	or	a5,a5,a3
    6bae:	8fd9                	or	a5,a5,a4
    6bb0:	c51c                	sw	a5,8(a0)
    6bb2:	5558                	lw	a4,44(a0)
    6bb4:	ff1007b7          	lui	a5,0xff100
    6bb8:	17fd                	addi	a5,a5,-1 # ff0fffff <_eusrstack+0xdf0fafff>
    6bba:	8f7d                	and	a4,a4,a5
    6bbc:	0145c783          	lbu	a5,20(a1)
    6bc0:	17fd                	addi	a5,a5,-1
    6bc2:	0ff7f793          	zext.b	a5,a5
    6bc6:	07d2                	slli	a5,a5,0x14
    6bc8:	8fd9                	or	a5,a5,a4
    6bca:	d55c                	sw	a5,44(a0)
    6bcc:	8082                	ret

00006bce <ADC_Cmd>:
    6bce:	451c                	lw	a5,8(a0)
    6bd0:	c589                	beqz	a1,6bda <ADC_Cmd+0xc>
    6bd2:	0017e793          	ori	a5,a5,1
    6bd6:	c51c                	sw	a5,8(a0)
    6bd8:	8082                	ret
    6bda:	9bf9                	andi	a5,a5,-2
    6bdc:	bfed                	j	6bd6 <ADC_Cmd+0x8>

00006bde <ADC_DMACmd>:
    6bde:	451c                	lw	a5,8(a0)
    6be0:	c589                	beqz	a1,6bea <ADC_DMACmd+0xc>
    6be2:	1007e793          	ori	a5,a5,256
    6be6:	c51c                	sw	a5,8(a0)
    6be8:	8082                	ret
    6bea:	eff7f793          	andi	a5,a5,-257
    6bee:	bfe5                	j	6be6 <ADC_DMACmd+0x8>

00006bf0 <ADC_ResetCalibration>:
    6bf0:	451c                	lw	a5,8(a0)
    6bf2:	0087e793          	ori	a5,a5,8
    6bf6:	c51c                	sw	a5,8(a0)
    6bf8:	8082                	ret

00006bfa <ADC_GetResetCalibrationStatus>:
    6bfa:	4508                	lw	a0,8(a0)
    6bfc:	810d                	srli	a0,a0,0x3
    6bfe:	8905                	andi	a0,a0,1
    6c00:	8082                	ret

00006c02 <ADC_StartCalibration>:
    6c02:	451c                	lw	a5,8(a0)
    6c04:	0047e793          	ori	a5,a5,4
    6c08:	c51c                	sw	a5,8(a0)
    6c0a:	8082                	ret

00006c0c <ADC_GetCalibrationStatus>:
    6c0c:	4508                	lw	a0,8(a0)
    6c0e:	8109                	srli	a0,a0,0x2
    6c10:	8905                	andi	a0,a0,1
    6c12:	8082                	ret

00006c14 <ADC_SoftwareStartConvCmd>:
    6c14:	451c                	lw	a5,8(a0)
    6c16:	c591                	beqz	a1,6c22 <ADC_SoftwareStartConvCmd+0xe>
    6c18:	00500737          	lui	a4,0x500
    6c1c:	8fd9                	or	a5,a5,a4
    6c1e:	c51c                	sw	a5,8(a0)
    6c20:	8082                	ret
    6c22:	ffb00737          	lui	a4,0xffb00
    6c26:	177d                	addi	a4,a4,-1 # ffafffff <_eusrstack+0xdfafafff>
    6c28:	8ff9                	and	a5,a5,a4
    6c2a:	bfd5                	j	6c1e <ADC_SoftwareStartConvCmd+0xa>

00006c2c <ADC_RegularChannelConfig>:
    6c2c:	47a5                	li	a5,9
    6c2e:	04b7f763          	bgeu	a5,a1,6c7c <ADC_RegularChannelConfig+0x50>
    6c32:	478d                	li	a5,3
    6c34:	ff658713          	addi	a4,a1,-10
    6c38:	02f70733          	mul	a4,a4,a5
    6c3c:	00c52803          	lw	a6,12(a0)
    6c40:	479d                	li	a5,7
    6c42:	00e797b3          	sll	a5,a5,a4
    6c46:	fff7c793          	not	a5,a5
    6c4a:	0107f7b3          	and	a5,a5,a6
    6c4e:	00e696b3          	sll	a3,a3,a4
    6c52:	8edd                	or	a3,a3,a5
    6c54:	c554                	sw	a3,12(a0)
    6c56:	4799                	li	a5,6
    6c58:	04c7e363          	bltu	a5,a2,6c9e <ADC_RegularChannelConfig+0x72>
    6c5c:	4795                	li	a5,5
    6c5e:	167d                	addi	a2,a2,-1
    6c60:	02f60633          	mul	a2,a2,a5
    6c64:	5958                	lw	a4,52(a0)
    6c66:	47fd                	li	a5,31
    6c68:	00c797b3          	sll	a5,a5,a2
    6c6c:	fff7c793          	not	a5,a5
    6c70:	8ff9                	and	a5,a5,a4
    6c72:	00c59633          	sll	a2,a1,a2
    6c76:	8e5d                	or	a2,a2,a5
    6c78:	d950                	sw	a2,52(a0)
    6c7a:	8082                	ret
    6c7c:	470d                	li	a4,3
    6c7e:	02e58733          	mul	a4,a1,a4
    6c82:	01052803          	lw	a6,16(a0)
    6c86:	479d                	li	a5,7
    6c88:	00e797b3          	sll	a5,a5,a4
    6c8c:	fff7c793          	not	a5,a5
    6c90:	0107f7b3          	and	a5,a5,a6
    6c94:	00e696b3          	sll	a3,a3,a4
    6c98:	8edd                	or	a3,a3,a5
    6c9a:	c914                	sw	a3,16(a0)
    6c9c:	bf6d                	j	6c56 <ADC_RegularChannelConfig+0x2a>
    6c9e:	47b1                	li	a5,12
    6ca0:	02c7e263          	bltu	a5,a2,6cc4 <ADC_RegularChannelConfig+0x98>
    6ca4:	4795                	li	a5,5
    6ca6:	1665                	addi	a2,a2,-7
    6ca8:	02f60633          	mul	a2,a2,a5
    6cac:	5918                	lw	a4,48(a0)
    6cae:	47fd                	li	a5,31
    6cb0:	00c797b3          	sll	a5,a5,a2
    6cb4:	fff7c793          	not	a5,a5
    6cb8:	8ff9                	and	a5,a5,a4
    6cba:	00c59633          	sll	a2,a1,a2
    6cbe:	8e5d                	or	a2,a2,a5
    6cc0:	d910                	sw	a2,48(a0)
    6cc2:	8082                	ret
    6cc4:	4795                	li	a5,5
    6cc6:	164d                	addi	a2,a2,-13
    6cc8:	02f60633          	mul	a2,a2,a5
    6ccc:	5558                	lw	a4,44(a0)
    6cce:	47fd                	li	a5,31
    6cd0:	00c797b3          	sll	a5,a5,a2
    6cd4:	fff7c793          	not	a5,a5
    6cd8:	8ff9                	and	a5,a5,a4
    6cda:	00c595b3          	sll	a1,a1,a2
    6cde:	8ddd                	or	a1,a1,a5
    6ce0:	d54c                	sw	a1,44(a0)
    6ce2:	8082                	ret

00006ce4 <Get_CalibrationValue>:
    6ce4:	c8cf92ef          	jal	t0,170 <__riscv_save_0>
    6ce8:	1101                	addi	sp,sp,-32
    6cea:	842a                	mv	s0,a0
    6cec:	00010423          	sb	zero,8(sp)
    6cf0:	44a5                	li	s1,9
    6cf2:	00814783          	lbu	a5,8(sp)
    6cf6:	04f4ff63          	bgeu	s1,a5,6d54 <Get_CalibrationValue+0x70>
    6cfa:	00010423          	sb	zero,8(sp)
    6cfe:	46a5                	li	a3,9
    6d00:	4621                	li	a2,8
    6d02:	00814783          	lbu	a5,8(sp)
    6d06:	08f6f863          	bgeu	a3,a5,6d96 <Get_CalibrationValue+0xb2>
    6d0a:	00011523          	sh	zero,10(sp)
    6d0e:	00010423          	sb	zero,8(sp)
    6d12:	4695                	li	a3,5
    6d14:	00814783          	lbu	a5,8(sp)
    6d18:	10f6ff63          	bgeu	a3,a5,6e36 <Get_CalibrationValue+0x152>
    6d1c:	00a15703          	lhu	a4,10(sp)
    6d20:	00a15783          	lhu	a5,10(sp)
    6d24:	4699                	li	a3,6
    6d26:	460d                	li	a2,3
    6d28:	02d7f7b3          	remu	a5,a5,a3
    6d2c:	6505                	lui	a0,0x1
    6d2e:	80050513          	addi	a0,a0,-2048 # 800 <__stack_size>
    6d32:	02c7d7b3          	divu	a5,a5,a2
    6d36:	02d75733          	divu	a4,a4,a3
    6d3a:	97ba                	add	a5,a5,a4
    6d3c:	07c2                	slli	a5,a5,0x10
    6d3e:	83c1                	srli	a5,a5,0x10
    6d40:	00f11523          	sh	a5,10(sp)
    6d44:	00a15783          	lhu	a5,10(sp)
    6d48:	6105                	addi	sp,sp,32
    6d4a:	8d1d                	sub	a0,a0,a5
    6d4c:	0542                	slli	a0,a0,0x10
    6d4e:	8541                	srai	a0,a0,0x10
    6d50:	c44f906f          	j	194 <__riscv_restore_0>
    6d54:	441c                	lw	a5,8(s0)
    6d56:	0087e793          	ori	a5,a5,8
    6d5a:	c41c                	sw	a5,8(s0)
    6d5c:	8522                	mv	a0,s0
    6d5e:	e9dff0ef          	jal	ra,6bfa <ADC_GetResetCalibrationStatus>
    6d62:	fd6d                	bnez	a0,6d5c <Get_CalibrationValue+0x78>
    6d64:	441c                	lw	a5,8(s0)
    6d66:	0047e793          	ori	a5,a5,4
    6d6a:	c41c                	sw	a5,8(s0)
    6d6c:	8522                	mv	a0,s0
    6d6e:	e9fff0ef          	jal	ra,6c0c <ADC_GetCalibrationStatus>
    6d72:	fd6d                	bnez	a0,6d6c <Get_CalibrationValue+0x88>
    6d74:	4478                	lw	a4,76(s0)
    6d76:	00814783          	lbu	a5,8(sp)
    6d7a:	0786                	slli	a5,a5,0x1
    6d7c:	02078793          	addi	a5,a5,32
    6d80:	978a                	add	a5,a5,sp
    6d82:	fee79623          	sh	a4,-20(a5)
    6d86:	00814783          	lbu	a5,8(sp)
    6d8a:	0785                	addi	a5,a5,1
    6d8c:	0ff7f793          	zext.b	a5,a5
    6d90:	00f10423          	sb	a5,8(sp)
    6d94:	bfb9                	j	6cf2 <Get_CalibrationValue+0xe>
    6d96:	000104a3          	sb	zero,9(sp)
    6d9a:	00914783          	lbu	a5,9(sp)
    6d9e:	00f67a63          	bgeu	a2,a5,6db2 <Get_CalibrationValue+0xce>
    6da2:	00814783          	lbu	a5,8(sp)
    6da6:	0785                	addi	a5,a5,1
    6da8:	0ff7f793          	zext.b	a5,a5
    6dac:	00f10423          	sb	a5,8(sp)
    6db0:	bf89                	j	6d02 <Get_CalibrationValue+0x1e>
    6db2:	00914703          	lbu	a4,9(sp)
    6db6:	00914783          	lbu	a5,9(sp)
    6dba:	0706                	slli	a4,a4,0x1
    6dbc:	0785                	addi	a5,a5,1
    6dbe:	0786                	slli	a5,a5,0x1
    6dc0:	02070713          	addi	a4,a4,32
    6dc4:	02078793          	addi	a5,a5,32
    6dc8:	970a                	add	a4,a4,sp
    6dca:	978a                	add	a5,a5,sp
    6dcc:	fec75703          	lhu	a4,-20(a4)
    6dd0:	fec7d783          	lhu	a5,-20(a5)
    6dd4:	04e7f963          	bgeu	a5,a4,6e26 <Get_CalibrationValue+0x142>
    6dd8:	00914783          	lbu	a5,9(sp)
    6ddc:	0786                	slli	a5,a5,0x1
    6dde:	02078793          	addi	a5,a5,32
    6de2:	978a                	add	a5,a5,sp
    6de4:	fec7d783          	lhu	a5,-20(a5)
    6de8:	00f11523          	sh	a5,10(sp)
    6dec:	00914783          	lbu	a5,9(sp)
    6df0:	00914703          	lbu	a4,9(sp)
    6df4:	0785                	addi	a5,a5,1
    6df6:	0786                	slli	a5,a5,0x1
    6df8:	02078793          	addi	a5,a5,32
    6dfc:	978a                	add	a5,a5,sp
    6dfe:	fec7d583          	lhu	a1,-20(a5)
    6e02:	00171793          	slli	a5,a4,0x1
    6e06:	02078793          	addi	a5,a5,32
    6e0a:	978a                	add	a5,a5,sp
    6e0c:	feb79623          	sh	a1,-20(a5)
    6e10:	00914783          	lbu	a5,9(sp)
    6e14:	00a15703          	lhu	a4,10(sp)
    6e18:	0785                	addi	a5,a5,1
    6e1a:	0786                	slli	a5,a5,0x1
    6e1c:	02078793          	addi	a5,a5,32
    6e20:	978a                	add	a5,a5,sp
    6e22:	fee79623          	sh	a4,-20(a5)
    6e26:	00914783          	lbu	a5,9(sp)
    6e2a:	0785                	addi	a5,a5,1
    6e2c:	0ff7f793          	zext.b	a5,a5
    6e30:	00f104a3          	sb	a5,9(sp)
    6e34:	b79d                	j	6d9a <Get_CalibrationValue+0xb6>
    6e36:	00814783          	lbu	a5,8(sp)
    6e3a:	00a15703          	lhu	a4,10(sp)
    6e3e:	0789                	addi	a5,a5,2
    6e40:	0786                	slli	a5,a5,0x1
    6e42:	02078793          	addi	a5,a5,32
    6e46:	978a                	add	a5,a5,sp
    6e48:	fec7d783          	lhu	a5,-20(a5)
    6e4c:	97ba                	add	a5,a5,a4
    6e4e:	07c2                	slli	a5,a5,0x10
    6e50:	83c1                	srli	a5,a5,0x10
    6e52:	00f11523          	sh	a5,10(sp)
    6e56:	00814783          	lbu	a5,8(sp)
    6e5a:	0785                	addi	a5,a5,1
    6e5c:	0ff7f793          	zext.b	a5,a5
    6e60:	00f10423          	sb	a5,8(sp)
    6e64:	bd45                	j	6d14 <Get_CalibrationValue+0x30>

00006e66 <DMA_DeInit>:
    6e66:	411c                	lw	a5,0(a0)
    6e68:	6741                	lui	a4,0x10
    6e6a:	1779                	addi	a4,a4,-2 # fffe <_data_lma+0x2fea>
    6e6c:	8ff9                	and	a5,a5,a4
    6e6e:	c11c                	sw	a5,0(a0)
    6e70:	00052023          	sw	zero,0(a0)
    6e74:	00052223          	sw	zero,4(a0)
    6e78:	00052423          	sw	zero,8(a0)
    6e7c:	400207b7          	lui	a5,0x40020
    6e80:	00052623          	sw	zero,12(a0)
    6e84:	00878713          	addi	a4,a5,8 # 40020008 <_eusrstack+0x2001b008>
    6e88:	00e51763          	bne	a0,a4,6e96 <DMA_DeInit+0x30>
    6e8c:	43d8                	lw	a4,4(a5)
    6e8e:	00f76713          	ori	a4,a4,15
    6e92:	c3d8                	sw	a4,4(a5)
    6e94:	8082                	ret
    6e96:	01c78713          	addi	a4,a5,28
    6e9a:	00e51663          	bne	a0,a4,6ea6 <DMA_DeInit+0x40>
    6e9e:	43d8                	lw	a4,4(a5)
    6ea0:	0f076713          	ori	a4,a4,240
    6ea4:	b7fd                	j	6e92 <DMA_DeInit+0x2c>
    6ea6:	03078713          	addi	a4,a5,48
    6eaa:	00e51763          	bne	a0,a4,6eb8 <DMA_DeInit+0x52>
    6eae:	6685                	lui	a3,0x1
    6eb0:	43d8                	lw	a4,4(a5)
    6eb2:	f0068693          	addi	a3,a3,-256 # f00 <conf_write+0x96>
    6eb6:	a03d                	j	6ee4 <DMA_DeInit+0x7e>
    6eb8:	04478713          	addi	a4,a5,68
    6ebc:	00e51563          	bne	a0,a4,6ec6 <DMA_DeInit+0x60>
    6ec0:	43d8                	lw	a4,4(a5)
    6ec2:	66bd                	lui	a3,0xf
    6ec4:	a005                	j	6ee4 <DMA_DeInit+0x7e>
    6ec6:	05878713          	addi	a4,a5,88
    6eca:	00e51663          	bne	a0,a4,6ed6 <DMA_DeInit+0x70>
    6ece:	43d8                	lw	a4,4(a5)
    6ed0:	000f06b7          	lui	a3,0xf0
    6ed4:	a801                	j	6ee4 <DMA_DeInit+0x7e>
    6ed6:	06c78713          	addi	a4,a5,108
    6eda:	00e51763          	bne	a0,a4,6ee8 <DMA_DeInit+0x82>
    6ede:	43d8                	lw	a4,4(a5)
    6ee0:	00f006b7          	lui	a3,0xf00
    6ee4:	8f55                	or	a4,a4,a3
    6ee6:	b775                	j	6e92 <DMA_DeInit+0x2c>
    6ee8:	08078713          	addi	a4,a5,128
    6eec:	00e51663          	bne	a0,a4,6ef8 <DMA_DeInit+0x92>
    6ef0:	43d8                	lw	a4,4(a5)
    6ef2:	0f0006b7          	lui	a3,0xf000
    6ef6:	b7fd                	j	6ee4 <DMA_DeInit+0x7e>
    6ef8:	40878713          	addi	a4,a5,1032
    6efc:	00e51563          	bne	a0,a4,6f06 <DMA_DeInit+0xa0>
    6f00:	40078793          	addi	a5,a5,1024
    6f04:	b761                	j	6e8c <DMA_DeInit+0x26>
    6f06:	41c78713          	addi	a4,a5,1052
    6f0a:	00e51563          	bne	a0,a4,6f14 <DMA_DeInit+0xae>
    6f0e:	40078793          	addi	a5,a5,1024
    6f12:	b771                	j	6e9e <DMA_DeInit+0x38>
    6f14:	43078793          	addi	a5,a5,1072
    6f18:	00f51763          	bne	a0,a5,6f26 <DMA_DeInit+0xc0>
    6f1c:	400207b7          	lui	a5,0x40020
    6f20:	40078793          	addi	a5,a5,1024 # 40020400 <_eusrstack+0x2001b400>
    6f24:	b769                	j	6eae <DMA_DeInit+0x48>
    6f26:	400207b7          	lui	a5,0x40020
    6f2a:	44478713          	addi	a4,a5,1092 # 40020444 <_eusrstack+0x2001b444>
    6f2e:	00e51563          	bne	a0,a4,6f38 <DMA_DeInit+0xd2>
    6f32:	40078793          	addi	a5,a5,1024
    6f36:	b769                	j	6ec0 <DMA_DeInit+0x5a>
    6f38:	45878713          	addi	a4,a5,1112
    6f3c:	f4e51ce3          	bne	a0,a4,6e94 <DMA_DeInit+0x2e>
    6f40:	40078793          	addi	a5,a5,1024
    6f44:	b769                	j	6ece <DMA_DeInit+0x68>

00006f46 <DMA_Init>:
    6f46:	4118                	lw	a4,0(a0)
    6f48:	77e1                	lui	a5,0xffff8
    6f4a:	07bd                	addi	a5,a5,15 # ffff800f <_eusrstack+0xdfff300f>
    6f4c:	5194                	lw	a3,32(a1)
    6f4e:	8f7d                	and	a4,a4,a5
    6f50:	459c                	lw	a5,8(a1)
    6f52:	8fd5                	or	a5,a5,a3
    6f54:	4994                	lw	a3,16(a1)
    6f56:	8fd5                	or	a5,a5,a3
    6f58:	49d4                	lw	a3,20(a1)
    6f5a:	8fd5                	or	a5,a5,a3
    6f5c:	4d94                	lw	a3,24(a1)
    6f5e:	8fd5                	or	a5,a5,a3
    6f60:	4dd4                	lw	a3,28(a1)
    6f62:	8fd5                	or	a5,a5,a3
    6f64:	51d4                	lw	a3,36(a1)
    6f66:	8fd5                	or	a5,a5,a3
    6f68:	5594                	lw	a3,40(a1)
    6f6a:	8fd5                	or	a5,a5,a3
    6f6c:	8fd9                	or	a5,a5,a4
    6f6e:	c11c                	sw	a5,0(a0)
    6f70:	45dc                	lw	a5,12(a1)
    6f72:	c15c                	sw	a5,4(a0)
    6f74:	419c                	lw	a5,0(a1)
    6f76:	c51c                	sw	a5,8(a0)
    6f78:	41dc                	lw	a5,4(a1)
    6f7a:	c55c                	sw	a5,12(a0)
    6f7c:	8082                	ret

00006f7e <DMA_Cmd>:
    6f7e:	411c                	lw	a5,0(a0)
    6f80:	c589                	beqz	a1,6f8a <DMA_Cmd+0xc>
    6f82:	0017e793          	ori	a5,a5,1
    6f86:	c11c                	sw	a5,0(a0)
    6f88:	8082                	ret
    6f8a:	6741                	lui	a4,0x10
    6f8c:	1779                	addi	a4,a4,-2 # fffe <_data_lma+0x2fea>
    6f8e:	8ff9                	and	a5,a5,a4
    6f90:	bfdd                	j	6f86 <DMA_Cmd+0x8>

00006f92 <DMA_GetCurrDataCounter>:
    6f92:	4148                	lw	a0,4(a0)
    6f94:	0542                	slli	a0,a0,0x10
    6f96:	8141                	srli	a0,a0,0x10
    6f98:	8082                	ret

00006f9a <DMA_GetFlagStatus>:
    6f9a:	100007b7          	lui	a5,0x10000
    6f9e:	8fe9                	and	a5,a5,a0
    6fa0:	cb89                	beqz	a5,6fb2 <DMA_GetFlagStatus+0x18>
    6fa2:	400207b7          	lui	a5,0x40020
    6fa6:	4007a783          	lw	a5,1024(a5) # 40020400 <_eusrstack+0x2001b400>
    6faa:	8d7d                	and	a0,a0,a5
    6fac:	00a03533          	snez	a0,a0
    6fb0:	8082                	ret
    6fb2:	400207b7          	lui	a5,0x40020
    6fb6:	439c                	lw	a5,0(a5)
    6fb8:	bfcd                	j	6faa <DMA_GetFlagStatus+0x10>

00006fba <DMA_ClearFlag>:
    6fba:	100007b7          	lui	a5,0x10000
    6fbe:	8fe9                	and	a5,a5,a0
    6fc0:	c799                	beqz	a5,6fce <DMA_ClearFlag+0x14>
    6fc2:	400207b7          	lui	a5,0x40020
    6fc6:	40078793          	addi	a5,a5,1024 # 40020400 <_eusrstack+0x2001b400>
    6fca:	c3c8                	sw	a0,4(a5)
    6fcc:	8082                	ret
    6fce:	400207b7          	lui	a5,0x40020
    6fd2:	bfe5                	j	6fca <DMA_ClearFlag+0x10>

00006fd4 <DMA_GetITStatus>:
    6fd4:	fc7ff06f          	j	6f9a <DMA_GetFlagStatus>

00006fd8 <DMA_ClearITPendingBit>:
    6fd8:	fe3ff06f          	j	6fba <DMA_ClearFlag>

00006fdc <EXTI_Init>:
    6fdc:	4158                	lw	a4,4(a0)
    6fde:	410c                	lw	a1,0(a0)
    6fe0:	4550                	lw	a2,12(a0)
    6fe2:	400107b7          	lui	a5,0x40010
    6fe6:	40078793          	addi	a5,a5,1024 # 40010400 <_eusrstack+0x2000b400>
    6fea:	973e                	add	a4,a4,a5
    6fec:	fff5c693          	not	a3,a1
    6ff0:	c239                	beqz	a2,7036 <EXTI_Init+0x5a>
    6ff2:	4390                	lw	a2,0(a5)
    6ff4:	8e75                	and	a2,a2,a3
    6ff6:	c390                	sw	a2,0(a5)
    6ff8:	43d0                	lw	a2,4(a5)
    6ffa:	8ef1                	and	a3,a3,a2
    6ffc:	c3d4                	sw	a3,4(a5)
    6ffe:	4314                	lw	a3,0(a4)
    7000:	8ecd                	or	a3,a3,a1
    7002:	c314                	sw	a3,0(a4)
    7004:	4118                	lw	a4,0(a0)
    7006:	4790                	lw	a2,8(a5)
    7008:	fff74693          	not	a3,a4
    700c:	8e75                	and	a2,a2,a3
    700e:	c790                	sw	a2,8(a5)
    7010:	47d0                	lw	a2,12(a5)
    7012:	8ef1                	and	a3,a3,a2
    7014:	c7d4                	sw	a3,12(a5)
    7016:	4514                	lw	a3,8(a0)
    7018:	4641                	li	a2,16
    701a:	00c69963          	bne	a3,a2,702c <EXTI_Init+0x50>
    701e:	4794                	lw	a3,8(a5)
    7020:	8ed9                	or	a3,a3,a4
    7022:	c794                	sw	a3,8(a5)
    7024:	47d4                	lw	a3,12(a5)
    7026:	8f55                	or	a4,a4,a3
    7028:	c7d8                	sw	a4,12(a5)
    702a:	8082                	ret
    702c:	97b6                	add	a5,a5,a3
    702e:	4394                	lw	a3,0(a5)
    7030:	8f55                	or	a4,a4,a3
    7032:	c398                	sw	a4,0(a5)
    7034:	8082                	ret
    7036:	431c                	lw	a5,0(a4)
    7038:	8ff5                	and	a5,a5,a3
    703a:	c31c                	sw	a5,0(a4)
    703c:	8082                	ret

0000703e <ROM_ERASE>:
    703e:	40000793          	li	a5,1024
    7042:	04f61463          	bne	a2,a5,708a <ROM_ERASE+0x4c>
    7046:	40022737          	lui	a4,0x40022
    704a:	4b1c                	lw	a5,16(a4)
    704c:	0027e793          	ori	a5,a5,2
    7050:	cb1c                	sw	a5,16(a4)
    7052:	400227b7          	lui	a5,0x40022
    7056:	cbc8                	sw	a0,20(a5)
    7058:	4b98                	lw	a4,16(a5)
    705a:	04076713          	ori	a4,a4,64
    705e:	cb98                	sw	a4,16(a5)
    7060:	47d8                	lw	a4,12(a5)
    7062:	8b05                	andi	a4,a4,1
    7064:	ff75                	bnez	a4,7060 <ROM_ERASE+0x22>
    7066:	ffc57713          	andi	a4,a0,-4
    706a:	6685                	lui	a3,0x1
    706c:	8f35                	xor	a4,a4,a3
    706e:	4318                	lw	a4,0(a4)
    7070:	15fd                	addi	a1,a1,-1
    7072:	dbd8                	sw	a4,52(a5)
    7074:	40000713          	li	a4,1024
    7078:	02e61463          	bne	a2,a4,70a0 <ROM_ERASE+0x62>
    707c:	4b98                	lw	a4,16(a5)
    707e:	40050513          	addi	a0,a0,1024
    7082:	9b75                	andi	a4,a4,-3
    7084:	cb98                	sw	a4,16(a5)
    7086:	f1e1                	bnez	a1,7046 <ROM_ERASE+0x8>
    7088:	8082                	ret
    708a:	08000793          	li	a5,128
    708e:	fcf612e3          	bne	a2,a5,7052 <ROM_ERASE+0x14>
    7092:	40022737          	lui	a4,0x40022
    7096:	4b1c                	lw	a5,16(a4)
    7098:	000206b7          	lui	a3,0x20
    709c:	8fd5                	or	a5,a5,a3
    709e:	bf4d                	j	7050 <ROM_ERASE+0x12>
    70a0:	08000713          	li	a4,128
    70a4:	00e61b63          	bne	a2,a4,70ba <ROM_ERASE+0x7c>
    70a8:	4b98                	lw	a4,16(a5)
    70aa:	7681                	lui	a3,0xfffe0
    70ac:	16fd                	addi	a3,a3,-1 # fffdffff <_eusrstack+0xdffdafff>
    70ae:	8f75                	and	a4,a4,a3
    70b0:	cb98                	sw	a4,16(a5)
    70b2:	08050513          	addi	a0,a0,128
    70b6:	f9f1                	bnez	a1,708a <ROM_ERASE+0x4c>
    70b8:	8082                	ret
    70ba:	f9e1                	bnez	a1,708a <ROM_ERASE+0x4c>
    70bc:	8082                	ret

000070be <FLASH_ROM_ERASE>:
    70be:	f80007b7          	lui	a5,0xf8000
    70c2:	97aa                	add	a5,a5,a0
    70c4:	6741                	lui	a4,0x10
    70c6:	10e7f563          	bgeu	a5,a4,71d0 <FLASH_ROM_ERASE+0x112>
    70ca:	88cf92ef          	jal	t0,156 <__riscv_save_4>
    70ce:	00b50733          	add	a4,a0,a1
    70d2:	080106b7          	lui	a3,0x8010
    70d6:	84aa                	mv	s1,a0
    70d8:	0fd00793          	li	a5,253
    70dc:	0ee6e463          	bltu	a3,a4,71c4 <FLASH_ROM_ERASE+0x106>
    70e0:	00b569b3          	or	s3,a0,a1
    70e4:	07f9f993          	andi	s3,s3,127
    70e8:	0fe00793          	li	a5,254
    70ec:	0c099c63          	bnez	s3,71c4 <FLASH_ROM_ERASE+0x106>
    70f0:	c9f1                	beqz	a1,71c4 <FLASH_ROM_ERASE+0x106>
    70f2:	456706b7          	lui	a3,0x45670
    70f6:	400227b7          	lui	a5,0x40022
    70fa:	12368693          	addi	a3,a3,291 # 45670123 <_eusrstack+0x2566b123>
    70fe:	cdef9737          	lui	a4,0xcdef9
    7102:	c3d4                	sw	a3,4(a5)
    7104:	9ab70713          	addi	a4,a4,-1621 # cdef89ab <_eusrstack+0xadef39ab>
    7108:	c3d8                	sw	a4,4(a5)
    710a:	d3d4                	sw	a3,36(a5)
    710c:	d3d8                	sw	a4,36(a5)
    710e:	3ff00913          	li	s2,1023
    7112:	04b97163          	bgeu	s2,a1,7154 <FLASH_ROM_ERASE+0x96>
    7116:	3ff57693          	andi	a3,a0,1023
    711a:	40000713          	li	a4,1024
    711e:	40d707b3          	sub	a5,a4,a3
    7122:	c0058593          	addi	a1,a1,-1024
    7126:	00f50a33          	add	s4,a0,a5
    712a:	00d58433          	add	s0,a1,a3
    712e:	02e78d63          	beq	a5,a4,7168 <FLASH_ROM_ERASE+0xaa>
    7132:	89be                	mv	s3,a5
    7134:	04896163          	bltu	s2,s0,7176 <FLASH_ROM_ERASE+0xb8>
    7138:	08000613          	li	a2,128
    713c:	0077d593          	srli	a1,a5,0x7
    7140:	effff0ef          	jal	ra,703e <ROM_ERASE>
    7144:	8ad2                	mv	s5,s4
    7146:	8922                	mv	s2,s0
    7148:	08000613          	li	a2,128
    714c:	00795593          	srli	a1,s2,0x7
    7150:	8556                	mv	a0,s5
    7152:	a801                	j	7162 <FLASH_ROM_ERASE+0xa4>
    7154:	07f00793          	li	a5,127
    7158:	04b7fb63          	bgeu	a5,a1,71ae <FLASH_ROM_ERASE+0xf0>
    715c:	08000613          	li	a2,128
    7160:	819d                	srli	a1,a1,0x7
    7162:	eddff0ef          	jal	ra,703e <ROM_ERASE>
    7166:	a0a1                	j	71ae <FLASH_ROM_ERASE+0xf0>
    7168:	40000613          	li	a2,1024
    716c:	4585                	li	a1,1
    716e:	ed1ff0ef          	jal	ra,703e <ROM_ERASE>
    7172:	04897c63          	bgeu	s2,s0,71ca <FLASH_ROM_ERASE+0x10c>
    7176:	008a07b3          	add	a5,s4,s0
    717a:	3ff7f913          	andi	s2,a5,1023
    717e:	8ad2                	mv	s5,s4
    7180:	00090463          	beqz	s2,7188 <FLASH_ROM_ERASE+0xca>
    7184:	c007fa93          	andi	s5,a5,-1024
    7188:	412405b3          	sub	a1,s0,s2
    718c:	40000613          	li	a2,1024
    7190:	81a9                	srli	a1,a1,0xa
    7192:	8552                	mv	a0,s4
    7194:	eabff0ef          	jal	ra,703e <ROM_ERASE>
    7198:	00098963          	beqz	s3,71aa <FLASH_ROM_ERASE+0xec>
    719c:	08000613          	li	a2,128
    71a0:	0079d593          	srli	a1,s3,0x7
    71a4:	8526                	mv	a0,s1
    71a6:	e99ff0ef          	jal	ra,703e <ROM_ERASE>
    71aa:	f8091fe3          	bnez	s2,7148 <FLASH_ROM_ERASE+0x8a>
    71ae:	400227b7          	lui	a5,0x40022
    71b2:	4b98                	lw	a4,16(a5)
    71b4:	66a1                	lui	a3,0x8
    71b6:	8f55                	or	a4,a4,a3
    71b8:	cb98                	sw	a4,16(a5)
    71ba:	4b98                	lw	a4,16(a5)
    71bc:	08076713          	ori	a4,a4,128
    71c0:	cb98                	sw	a4,16(a5)
    71c2:	4791                	li	a5,4
    71c4:	853e                	mv	a0,a5
    71c6:	fc5f806f          	j	18a <__riscv_restore_4>
    71ca:	8922                	mv	s2,s0
    71cc:	8ad2                	mv	s5,s4
    71ce:	bff1                	j	71aa <FLASH_ROM_ERASE+0xec>
    71d0:	0ff00793          	li	a5,255
    71d4:	853e                	mv	a0,a5
    71d6:	8082                	ret

000071d8 <FLASH_ROM_WRITE>:
    71d8:	f8000737          	lui	a4,0xf8000
    71dc:	972a                	add	a4,a4,a0
    71de:	66c1                	lui	a3,0x10
    71e0:	87aa                	mv	a5,a0
    71e2:	10d77563          	bgeu	a4,a3,72ec <FLASH_ROM_WRITE+0x114>
    71e6:	00c50733          	add	a4,a0,a2
    71ea:	080106b7          	lui	a3,0x8010
    71ee:	0fd00513          	li	a0,253
    71f2:	0ee6ef63          	bltu	a3,a4,72f0 <FLASH_ROM_WRITE+0x118>
    71f6:	00c7e733          	or	a4,a5,a2
    71fa:	07f77713          	andi	a4,a4,127
    71fe:	0fe00513          	li	a0,254
    7202:	e77d                	bnez	a4,72f0 <FLASH_ROM_WRITE+0x118>
    7204:	c675                	beqz	a2,72f0 <FLASH_ROM_WRITE+0x118>
    7206:	45670537          	lui	a0,0x45670
    720a:	40022737          	lui	a4,0x40022
    720e:	12350513          	addi	a0,a0,291 # 45670123 <_eusrstack+0x2566b123>
    7212:	cdef96b7          	lui	a3,0xcdef9
    7216:	c348                	sw	a0,4(a4)
    7218:	9ab68693          	addi	a3,a3,-1621 # cdef89ab <_eusrstack+0xadef39ab>
    721c:	c354                	sw	a3,4(a4)
    721e:	d348                	sw	a0,36(a4)
    7220:	7841                	lui	a6,0xffff0
    7222:	821d                	srli	a2,a2,0x7
    7224:	d354                	sw	a3,36(a4)
    7226:	6e41                	lui	t3,0x10
    7228:	00080eb7          	lui	t4,0x80
    722c:	00040f37          	lui	t5,0x40
    7230:	6305                	lui	t1,0x1
    7232:	187d                	addi	a6,a6,-1 # fffeffff <_eusrstack+0xdffeafff>
    7234:	400226b7          	lui	a3,0x40022
    7238:	4a88                	lw	a0,16(a3)
    723a:	01c56533          	or	a0,a0,t3
    723e:	ca88                	sw	a0,16(a3)
    7240:	4a88                	lw	a0,16(a3)
    7242:	01d56533          	or	a0,a0,t4
    7246:	ca88                	sw	a0,16(a3)
    7248:	4754                	lw	a3,12(a4)
    724a:	8a85                	andi	a3,a3,1
    724c:	fef5                	bnez	a3,7248 <FLASH_ROM_WRITE+0x70>
    724e:	852e                	mv	a0,a1
    7250:	86be                	mv	a3,a5
    7252:	08078f93          	addi	t6,a5,128 # 40022080 <_eusrstack+0x2001d080>
    7256:	00052883          	lw	a7,0(a0)
    725a:	0116a023          	sw	a7,0(a3) # 40022000 <_eusrstack+0x2001d000>
    725e:	00452883          	lw	a7,4(a0)
    7262:	0116a223          	sw	a7,4(a3)
    7266:	00852883          	lw	a7,8(a0)
    726a:	0116a423          	sw	a7,8(a3)
    726e:	00c52883          	lw	a7,12(a0)
    7272:	0116a623          	sw	a7,12(a3)
    7276:	01072883          	lw	a7,16(a4) # 40022010 <_eusrstack+0x2001d010>
    727a:	01e8e8b3          	or	a7,a7,t5
    727e:	01172823          	sw	a7,16(a4)
    7282:	00c72883          	lw	a7,12(a4)
    7286:	0018f893          	andi	a7,a7,1
    728a:	fe089ce3          	bnez	a7,7282 <FLASH_ROM_WRITE+0xaa>
    728e:	ffc6f893          	andi	a7,a3,-4
    7292:	0068c8b3          	xor	a7,a7,t1
    7296:	0008a883          	lw	a7,0(a7)
    729a:	06c1                	addi	a3,a3,16
    729c:	0541                	addi	a0,a0,16
    729e:	03172a23          	sw	a7,52(a4)
    72a2:	fadf9ae3          	bne	t6,a3,7256 <FLASH_ROM_WRITE+0x7e>
    72a6:	cb5c                	sw	a5,20(a4)
    72a8:	4b14                	lw	a3,16(a4)
    72aa:	08058593          	addi	a1,a1,128
    72ae:	0406e693          	ori	a3,a3,64
    72b2:	cb14                	sw	a3,16(a4)
    72b4:	4754                	lw	a3,12(a4)
    72b6:	8a85                	andi	a3,a3,1
    72b8:	fef5                	bnez	a3,72b4 <FLASH_ROM_WRITE+0xdc>
    72ba:	4b14                	lw	a3,16(a4)
    72bc:	9bf1                	andi	a5,a5,-4
    72be:	0067c7b3          	xor	a5,a5,t1
    72c2:	0106f6b3          	and	a3,a3,a6
    72c6:	cb14                	sw	a3,16(a4)
    72c8:	439c                	lw	a5,0(a5)
    72ca:	167d                	addi	a2,a2,-1
    72cc:	db5c                	sw	a5,52(a4)
    72ce:	ee09                	bnez	a2,72e8 <FLASH_ROM_WRITE+0x110>
    72d0:	400227b7          	lui	a5,0x40022
    72d4:	4b98                	lw	a4,16(a5)
    72d6:	66a1                	lui	a3,0x8
    72d8:	4511                	li	a0,4
    72da:	8f55                	or	a4,a4,a3
    72dc:	cb98                	sw	a4,16(a5)
    72de:	4b98                	lw	a4,16(a5)
    72e0:	08076713          	ori	a4,a4,128
    72e4:	cb98                	sw	a4,16(a5)
    72e6:	8082                	ret
    72e8:	87fe                	mv	a5,t6
    72ea:	b7a9                	j	7234 <FLASH_ROM_WRITE+0x5c>
    72ec:	0ff00513          	li	a0,255
    72f0:	8082                	ret

000072f2 <GPIO_Init>:
    72f2:	459c                	lw	a5,8(a1)
    72f4:	0107f713          	andi	a4,a5,16
    72f8:	00f7f813          	andi	a6,a5,15
    72fc:	c701                	beqz	a4,7304 <GPIO_Init+0x12>
    72fe:	41d8                	lw	a4,4(a1)
    7300:	00e86833          	or	a6,a6,a4
    7304:	0005d583          	lhu	a1,0(a1)
    7308:	0ff5f713          	zext.b	a4,a1
    730c:	c331                	beqz	a4,7350 <GPIO_Init+0x5e>
    730e:	4118                	lw	a4,0(a0)
    7310:	4681                	li	a3,0
    7312:	4e05                	li	t3,1
    7314:	02800e93          	li	t4,40
    7318:	4f3d                	li	t5,15
    731a:	04800f93          	li	t6,72
    731e:	4321                	li	t1,8
    7320:	00de1633          	sll	a2,t3,a3
    7324:	00c5f8b3          	and	a7,a1,a2
    7328:	03161063          	bne	a2,a7,7348 <GPIO_Init+0x56>
    732c:	07d79a63          	bne	a5,t4,73a0 <GPIO_Init+0xae>
    7330:	c950                	sw	a2,20(a0)
    7332:	00269613          	slli	a2,a3,0x2
    7336:	00cf18b3          	sll	a7,t5,a2
    733a:	fff8c893          	not	a7,a7
    733e:	00e8f733          	and	a4,a7,a4
    7342:	00c81633          	sll	a2,a6,a2
    7346:	8f51                	or	a4,a4,a2
    7348:	0685                	addi	a3,a3,1 # 8001 <__udivdi3+0x15d>
    734a:	fc669be3          	bne	a3,t1,7320 <GPIO_Init+0x2e>
    734e:	c118                	sw	a4,0(a0)
    7350:	0ff00713          	li	a4,255
    7354:	04b77563          	bgeu	a4,a1,739e <GPIO_Init+0xac>
    7358:	4154                	lw	a3,4(a0)
    735a:	4601                	li	a2,0
    735c:	4e05                	li	t3,1
    735e:	02800e93          	li	t4,40
    7362:	04800f13          	li	t5,72
    7366:	4321                	li	t1,8
    7368:	00860713          	addi	a4,a2,8
    736c:	00ee1733          	sll	a4,t3,a4
    7370:	00e5f8b3          	and	a7,a1,a4
    7374:	03171163          	bne	a4,a7,7396 <GPIO_Init+0xa4>
    7378:	03d79863          	bne	a5,t4,73a8 <GPIO_Init+0xb6>
    737c:	c958                	sw	a4,20(a0)
    737e:	00261893          	slli	a7,a2,0x2
    7382:	473d                	li	a4,15
    7384:	01171733          	sll	a4,a4,a7
    7388:	fff74713          	not	a4,a4
    738c:	8ef9                	and	a3,a3,a4
    738e:	011818b3          	sll	a7,a6,a7
    7392:	00d8e6b3          	or	a3,a7,a3
    7396:	0605                	addi	a2,a2,1
    7398:	fc6618e3          	bne	a2,t1,7368 <GPIO_Init+0x76>
    739c:	c154                	sw	a3,4(a0)
    739e:	8082                	ret
    73a0:	f9f799e3          	bne	a5,t6,7332 <GPIO_Init+0x40>
    73a4:	c910                	sw	a2,16(a0)
    73a6:	b771                	j	7332 <GPIO_Init+0x40>
    73a8:	fde79be3          	bne	a5,t5,737e <GPIO_Init+0x8c>
    73ac:	c918                	sw	a4,16(a0)
    73ae:	bfc1                	j	737e <GPIO_Init+0x8c>

000073b0 <GPIO_ReadInputDataBit>:
    73b0:	451c                	lw	a5,8(a0)
    73b2:	00f5f533          	and	a0,a1,a5
    73b6:	00a03533          	snez	a0,a0
    73ba:	8082                	ret

000073bc <GPIO_SetBits>:
    73bc:	c90c                	sw	a1,16(a0)
    73be:	8082                	ret

000073c0 <GPIO_ResetBits>:
    73c0:	c94c                	sw	a1,20(a0)
    73c2:	8082                	ret

000073c4 <GPIO_WriteBit>:
    73c4:	c219                	beqz	a2,73ca <GPIO_WriteBit+0x6>
    73c6:	c90c                	sw	a1,16(a0)
    73c8:	8082                	ret
    73ca:	c94c                	sw	a1,20(a0)
    73cc:	8082                	ret

000073ce <GPIO_EXTILineConfig>:
    73ce:	0035f693          	andi	a3,a1,3
    73d2:	40010737          	lui	a4,0x40010
    73d6:	0fc5f593          	andi	a1,a1,252
    73da:	972e                	add	a4,a4,a1
    73dc:	4710                	lw	a2,8(a4)
    73de:	068a                	slli	a3,a3,0x2
    73e0:	47bd                	li	a5,15
    73e2:	00d797b3          	sll	a5,a5,a3
    73e6:	fff7c793          	not	a5,a5
    73ea:	8ff1                	and	a5,a5,a2
    73ec:	c71c                	sw	a5,8(a4)
    73ee:	471c                	lw	a5,8(a4)
    73f0:	00d51533          	sll	a0,a0,a3
    73f4:	8d5d                	or	a0,a0,a5
    73f6:	c708                	sw	a0,8(a4)
    73f8:	8082                	ret

000073fa <I2C_DeInit>:
    73fa:	d77f82ef          	jal	t0,170 <__riscv_save_0>
    73fe:	400057b7          	lui	a5,0x40005
    7402:	40078793          	addi	a5,a5,1024 # 40005400 <_eusrstack+0x20000400>
    7406:	4585                	li	a1,1
    7408:	00f51b63          	bne	a0,a5,741e <I2C_DeInit+0x24>
    740c:	00200537          	lui	a0,0x200
    7410:	21d1                	jal	78d4 <RCC_APB1PeriphResetCmd>
    7412:	4581                	li	a1,0
    7414:	00200537          	lui	a0,0x200
    7418:	2975                	jal	78d4 <RCC_APB1PeriphResetCmd>
    741a:	d7bf806f          	j	194 <__riscv_restore_0>
    741e:	00400537          	lui	a0,0x400
    7422:	294d                	jal	78d4 <RCC_APB1PeriphResetCmd>
    7424:	4581                	li	a1,0
    7426:	00400537          	lui	a0,0x400
    742a:	b7fd                	j	7418 <I2C_DeInit+0x1e>

0000742c <I2C_Init>:
    742c:	d45f82ef          	jal	t0,170 <__riscv_save_0>
    7430:	1101                	addi	sp,sp,-32
    7432:	842a                	mv	s0,a0
    7434:	00455483          	lhu	s1,4(a0) # 400004 <_data_lma+0x3f2ff0>
    7438:	0068                	addi	a0,sp,12
    743a:	892e                	mv	s2,a1
    743c:	2e85                	jal	77ac <RCC_GetClocksFreq>
    743e:	47d2                	lw	a5,20(sp)
    7440:	000f46b7          	lui	a3,0xf4
    7444:	24068693          	addi	a3,a3,576 # f4240 <_data_lma+0xe722c>
    7448:	02d7d6b3          	divu	a3,a5,a3
    744c:	04c2                	slli	s1,s1,0x10
    744e:	80c1                	srli	s1,s1,0x10
    7450:	fc04f493          	andi	s1,s1,-64
    7454:	04c2                	slli	s1,s1,0x10
    7456:	80c1                	srli	s1,s1,0x10
    7458:	65e1                	lui	a1,0x18
    745a:	6a058593          	addi	a1,a1,1696 # 186a0 <_data_lma+0xb68c>
    745e:	01069613          	slli	a2,a3,0x10
    7462:	8241                	srli	a2,a2,0x10
    7464:	8cd1                	or	s1,s1,a2
    7466:	00941223          	sh	s1,4(s0)
    746a:	00045703          	lhu	a4,0(s0)
    746e:	0742                	slli	a4,a4,0x10
    7470:	8341                	srli	a4,a4,0x10
    7472:	9b79                	andi	a4,a4,-2
    7474:	0742                	slli	a4,a4,0x10
    7476:	8341                	srli	a4,a4,0x10
    7478:	00e41023          	sh	a4,0(s0)
    747c:	00092703          	lw	a4,0(s2)
    7480:	06e5e363          	bltu	a1,a4,74e6 <I2C_Init+0xba>
    7484:	0706                	slli	a4,a4,0x1
    7486:	02e7d733          	divu	a4,a5,a4
    748a:	4691                	li	a3,4
    748c:	87ba                	mv	a5,a4
    748e:	0742                	slli	a4,a4,0x10
    7490:	8341                	srli	a4,a4,0x10
    7492:	00d77363          	bgeu	a4,a3,7498 <I2C_Init+0x6c>
    7496:	4791                	li	a5,4
    7498:	0605                	addi	a2,a2,1
    749a:	0642                	slli	a2,a2,0x10
    749c:	07c2                	slli	a5,a5,0x10
    749e:	8241                	srli	a2,a2,0x10
    74a0:	83c1                	srli	a5,a5,0x10
    74a2:	02c41023          	sh	a2,32(s0)
    74a6:	00f41e23          	sh	a5,28(s0)
    74aa:	00045783          	lhu	a5,0(s0)
    74ae:	00495703          	lhu	a4,4(s2)
    74b2:	00a95683          	lhu	a3,10(s2)
    74b6:	0017e793          	ori	a5,a5,1
    74ba:	00f41023          	sh	a5,0(s0)
    74be:	00045783          	lhu	a5,0(s0)
    74c2:	8f55                	or	a4,a4,a3
    74c4:	07c2                	slli	a5,a5,0x10
    74c6:	83c1                	srli	a5,a5,0x10
    74c8:	bf57f793          	andi	a5,a5,-1035
    74cc:	8fd9                	or	a5,a5,a4
    74ce:	00f41023          	sh	a5,0(s0)
    74d2:	00895703          	lhu	a4,8(s2)
    74d6:	00c95783          	lhu	a5,12(s2)
    74da:	8fd9                	or	a5,a5,a4
    74dc:	00f41423          	sh	a5,8(s0)
    74e0:	6105                	addi	sp,sp,32
    74e2:	cb3f806f          	j	194 <__riscv_restore_0>
    74e6:	00695583          	lhu	a1,6(s2)
    74ea:	6631                	lui	a2,0xc
    74ec:	167d                	addi	a2,a2,-1 # bfff <_printf_i+0x4b>
    74ee:	02c59e63          	bne	a1,a2,752a <I2C_Init+0xfe>
    74f2:	460d                	li	a2,3
    74f4:	02c70733          	mul	a4,a4,a2
    74f8:	02e7d7b3          	divu	a5,a5,a4
    74fc:	07c2                	slli	a5,a5,0x10
    74fe:	83c1                	srli	a5,a5,0x10
    7500:	01479713          	slli	a4,a5,0x14
    7504:	e319                	bnez	a4,750a <I2C_Init+0xde>
    7506:	0017e793          	ori	a5,a5,1
    750a:	6721                	lui	a4,0x8
    750c:	8fd9                	or	a5,a5,a4
    750e:	12c00713          	li	a4,300
    7512:	02e686b3          	mul	a3,a3,a4
    7516:	3e800713          	li	a4,1000
    751a:	02e6c6b3          	div	a3,a3,a4
    751e:	0685                	addi	a3,a3,1
    7520:	06c2                	slli	a3,a3,0x10
    7522:	82c1                	srli	a3,a3,0x10
    7524:	02d41023          	sh	a3,32(s0)
    7528:	bfbd                	j	74a6 <I2C_Init+0x7a>
    752a:	4665                	li	a2,25
    752c:	02c70733          	mul	a4,a4,a2
    7530:	02e7d7b3          	divu	a5,a5,a4
    7534:	6711                	lui	a4,0x4
    7536:	07c2                	slli	a5,a5,0x10
    7538:	83c1                	srli	a5,a5,0x10
    753a:	8fd9                	or	a5,a5,a4
    753c:	b7d1                	j	7500 <I2C_Init+0xd4>

0000753e <I2C_Cmd>:
    753e:	00055783          	lhu	a5,0(a0)
    7542:	c591                	beqz	a1,754e <I2C_Cmd+0x10>
    7544:	0017e793          	ori	a5,a5,1
    7548:	00f51023          	sh	a5,0(a0)
    754c:	8082                	ret
    754e:	07c2                	slli	a5,a5,0x10
    7550:	83c1                	srli	a5,a5,0x10
    7552:	9bf9                	andi	a5,a5,-2
    7554:	07c2                	slli	a5,a5,0x10
    7556:	83c1                	srli	a5,a5,0x10
    7558:	bfc5                	j	7548 <I2C_Cmd+0xa>

0000755a <I2C_GenerateSTART>:
    755a:	00055783          	lhu	a5,0(a0)
    755e:	c591                	beqz	a1,756a <I2C_GenerateSTART+0x10>
    7560:	1007e793          	ori	a5,a5,256
    7564:	00f51023          	sh	a5,0(a0)
    7568:	8082                	ret
    756a:	07c2                	slli	a5,a5,0x10
    756c:	83c1                	srli	a5,a5,0x10
    756e:	eff7f793          	andi	a5,a5,-257
    7572:	07c2                	slli	a5,a5,0x10
    7574:	83c1                	srli	a5,a5,0x10
    7576:	b7fd                	j	7564 <I2C_GenerateSTART+0xa>

00007578 <I2C_GenerateSTOP>:
    7578:	00055783          	lhu	a5,0(a0)
    757c:	c591                	beqz	a1,7588 <I2C_GenerateSTOP+0x10>
    757e:	2007e793          	ori	a5,a5,512
    7582:	00f51023          	sh	a5,0(a0)
    7586:	8082                	ret
    7588:	07c2                	slli	a5,a5,0x10
    758a:	83c1                	srli	a5,a5,0x10
    758c:	dff7f793          	andi	a5,a5,-513
    7590:	07c2                	slli	a5,a5,0x10
    7592:	83c1                	srli	a5,a5,0x10
    7594:	b7fd                	j	7582 <I2C_GenerateSTOP+0xa>

00007596 <I2C_AcknowledgeConfig>:
    7596:	00055783          	lhu	a5,0(a0)
    759a:	c591                	beqz	a1,75a6 <I2C_AcknowledgeConfig+0x10>
    759c:	4007e793          	ori	a5,a5,1024
    75a0:	00f51023          	sh	a5,0(a0)
    75a4:	8082                	ret
    75a6:	07c2                	slli	a5,a5,0x10
    75a8:	83c1                	srli	a5,a5,0x10
    75aa:	bff7f793          	andi	a5,a5,-1025
    75ae:	07c2                	slli	a5,a5,0x10
    75b0:	83c1                	srli	a5,a5,0x10
    75b2:	b7fd                	j	75a0 <I2C_AcknowledgeConfig+0xa>

000075b4 <I2C_SendData>:
    75b4:	00b51823          	sh	a1,16(a0)
    75b8:	8082                	ret

000075ba <I2C_ReceiveData>:
    75ba:	01055503          	lhu	a0,16(a0)
    75be:	0ff57513          	zext.b	a0,a0
    75c2:	8082                	ret

000075c4 <I2C_Send7bitAddress>:
    75c4:	0fe5f793          	andi	a5,a1,254
    75c8:	c219                	beqz	a2,75ce <I2C_Send7bitAddress+0xa>
    75ca:	0015e793          	ori	a5,a1,1
    75ce:	00f51823          	sh	a5,16(a0)
    75d2:	8082                	ret

000075d4 <I2C_SoftwareResetCmd>:
    75d4:	00055783          	lhu	a5,0(a0)
    75d8:	c591                	beqz	a1,75e4 <I2C_SoftwareResetCmd+0x10>
    75da:	6721                	lui	a4,0x8
    75dc:	8fd9                	or	a5,a5,a4
    75de:	00f51023          	sh	a5,0(a0)
    75e2:	8082                	ret
    75e4:	07c6                	slli	a5,a5,0x11
    75e6:	83c5                	srli	a5,a5,0x11
    75e8:	bfdd                	j	75de <I2C_SoftwareResetCmd+0xa>

000075ea <I2C_NACKPositionConfig>:
    75ea:	00055783          	lhu	a5,0(a0)
    75ee:	80058593          	addi	a1,a1,-2048
    75f2:	e991                	bnez	a1,7606 <I2C_NACKPositionConfig+0x1c>
    75f4:	6705                	lui	a4,0x1
    75f6:	80070713          	addi	a4,a4,-2048 # 800 <__stack_size>
    75fa:	8fd9                	or	a5,a5,a4
    75fc:	07c2                	slli	a5,a5,0x10
    75fe:	83c1                	srli	a5,a5,0x10
    7600:	00f51023          	sh	a5,0(a0)
    7604:	8082                	ret
    7606:	777d                	lui	a4,0xfffff
    7608:	7ff70713          	addi	a4,a4,2047 # fffff7ff <_eusrstack+0xdfffa7ff>
    760c:	8ff9                	and	a5,a5,a4
    760e:	bfcd                	j	7600 <I2C_NACKPositionConfig+0x16>

00007610 <I2C_CheckEvent>:
    7610:	01455783          	lhu	a5,20(a0)
    7614:	01855503          	lhu	a0,24(a0)
    7618:	0542                	slli	a0,a0,0x10
    761a:	8d5d                	or	a0,a0,a5
    761c:	8d6d                	and	a0,a0,a1
    761e:	0522                	slli	a0,a0,0x8
    7620:	8121                	srli	a0,a0,0x8
    7622:	8d0d                	sub	a0,a0,a1
    7624:	00153513          	seqz	a0,a0
    7628:	8082                	ret

0000762a <I2C_GetFlagStatus>:
    762a:	1141                	addi	sp,sp,-16
    762c:	c402                	sw	zero,8(sp)
    762e:	c602                	sw	zero,12(sp)
    7630:	01c5d793          	srli	a5,a1,0x1c
    7634:	c62a                	sw	a0,12(sp)
    7636:	c43e                	sw	a5,8(sp)
    7638:	47a2                	lw	a5,8(sp)
    763a:	05a2                	slli	a1,a1,0x8
    763c:	81a1                	srli	a1,a1,0x8
    763e:	cb99                	beqz	a5,7654 <I2C_GetFlagStatus+0x2a>
    7640:	47b2                	lw	a5,12(sp)
    7642:	07d1                	addi	a5,a5,20
    7644:	c63e                	sw	a5,12(sp)
    7646:	47b2                	lw	a5,12(sp)
    7648:	4388                	lw	a0,0(a5)
    764a:	0141                	addi	sp,sp,16
    764c:	8d6d                	and	a0,a0,a1
    764e:	00a03533          	snez	a0,a0
    7652:	8082                	ret
    7654:	47b2                	lw	a5,12(sp)
    7656:	81c1                	srli	a1,a1,0x10
    7658:	07e1                	addi	a5,a5,24
    765a:	b7ed                	j	7644 <I2C_GetFlagStatus+0x1a>

0000765c <NVIC_PriorityGroupConfig>:
    765c:	e000e7b7          	lui	a5,0xe000e
    7660:	fa050737          	lui	a4,0xfa050
    7664:	c7b8                	sw	a4,72(a5)
    7666:	a4a1aa23          	sw	a0,-1452(gp) # 2000157c <NVIC_Priority_Group>
    766a:	8082                	ret

0000766c <NVIC_Init>:
    766c:	a541a683          	lw	a3,-1452(gp) # 2000157c <NVIC_Priority_Group>
    7670:	4785                	li	a5,1
    7672:	00054703          	lbu	a4,0(a0)
    7676:	02f69263          	bne	a3,a5,769a <NVIC_Init+0x2e>
    767a:	00154783          	lbu	a5,1(a0)
    767e:	02d79d63          	bne	a5,a3,76b8 <NVIC_Init+0x4c>
    7682:	00254783          	lbu	a5,2(a0)
    7686:	0792                	slli	a5,a5,0x4
    7688:	f807e793          	ori	a5,a5,-128
    768c:	e000e6b7          	lui	a3,0xe000e
    7690:	0ff7f793          	zext.b	a5,a5
    7694:	96ba                	add	a3,a3,a4
    7696:	40f68023          	sb	a5,1024(a3) # e000e400 <_eusrstack+0xc0009400>
    769a:	4685                	li	a3,1
    769c:	00575793          	srli	a5,a4,0x5
    76a0:	00e696b3          	sll	a3,a3,a4
    76a4:	4158                	lw	a4,4(a0)
    76a6:	cf11                	beqz	a4,76c2 <NVIC_Init+0x56>
    76a8:	04078793          	addi	a5,a5,64 # e000e040 <_eusrstack+0xc0009040>
    76ac:	078a                	slli	a5,a5,0x2
    76ae:	e000e737          	lui	a4,0xe000e
    76b2:	97ba                	add	a5,a5,a4
    76b4:	c394                	sw	a3,0(a5)
    76b6:	8082                	ret
    76b8:	f3ed                	bnez	a5,769a <NVIC_Init+0x2e>
    76ba:	00254783          	lbu	a5,2(a0)
    76be:	0792                	slli	a5,a5,0x4
    76c0:	b7f1                	j	768c <NVIC_Init+0x20>
    76c2:	e000e737          	lui	a4,0xe000e
    76c6:	06078793          	addi	a5,a5,96
    76ca:	4330                	lw	a2,64(a4)
    76cc:	45c1                	li	a1,16
    76ce:	078a                	slli	a5,a5,0x2
    76d0:	c32c                	sw	a1,64(a4)
    76d2:	97ba                	add	a5,a5,a4
    76d4:	c394                	sw	a3,0(a5)
    76d6:	c330                	sw	a2,64(a4)
    76d8:	8082                	ret

000076da <PWR_PVDCmd>:
    76da:	40007737          	lui	a4,0x40007
    76de:	431c                	lw	a5,0(a4)
    76e0:	c509                	beqz	a0,76ea <PWR_PVDCmd+0x10>
    76e2:	0107e793          	ori	a5,a5,16
    76e6:	c31c                	sw	a5,0(a4)
    76e8:	8082                	ret
    76ea:	9bbd                	andi	a5,a5,-17
    76ec:	bfed                	j	76e6 <PWR_PVDCmd+0xc>

000076ee <PWR_PVDLevelConfig>:
    76ee:	40007737          	lui	a4,0x40007
    76f2:	431c                	lw	a5,0(a4)
    76f4:	f1f7f793          	andi	a5,a5,-225
    76f8:	8fc9                	or	a5,a5,a0
    76fa:	c31c                	sw	a5,0(a4)
    76fc:	8082                	ret

000076fe <PWR_GetFlagStatus>:
    76fe:	400077b7          	lui	a5,0x40007
    7702:	43dc                	lw	a5,4(a5)
    7704:	8d7d                	and	a0,a0,a5
    7706:	00a03533          	snez	a0,a0
    770a:	8082                	ret

0000770c <PWR_VDD_SupplyVoltage>:
    770c:	a65f82ef          	jal	t0,170 <__riscv_save_0>
    7710:	4585                	li	a1,1
    7712:	10000537          	lui	a0,0x10000
    7716:	2249                	jal	7898 <RCC_APB1PeriphClockCmd>
    7718:	0c000513          	li	a0,192
    771c:	fd3ff0ef          	jal	ra,76ee <PWR_PVDLevelConfig>
    7720:	40007737          	lui	a4,0x40007
    7724:	431c                	lw	a5,0(a4)
    7726:	4529                	li	a0,10
    7728:	0107e793          	ori	a5,a5,16
    772c:	c31c                	sw	a5,0(a4)
    772e:	becfe0ef          	jal	ra,5b1a <Delay_Us>
    7732:	4511                	li	a0,4
    7734:	fcbff0ef          	jal	ra,76fe <PWR_GetFlagStatus>
    7738:	842a                	mv	s0,a0
    773a:	4501                	li	a0,0
    773c:	fb3ff0ef          	jal	ra,76ee <PWR_PVDLevelConfig>
    7740:	4501                	li	a0,0
    7742:	f99ff0ef          	jal	ra,76da <PWR_PVDCmd>
    7746:	00803533          	snez	a0,s0
    774a:	a4bf806f          	j	194 <__riscv_restore_0>

0000774e <RCC_HSICmd>:
    774e:	40021737          	lui	a4,0x40021
    7752:	431c                	lw	a5,0(a4)
    7754:	c509                	beqz	a0,775e <RCC_HSICmd+0x10>
    7756:	0017e793          	ori	a5,a5,1
    775a:	c31c                	sw	a5,0(a4)
    775c:	8082                	ret
    775e:	9bf9                	andi	a5,a5,-2
    7760:	bfed                	j	775a <RCC_HSICmd+0xc>

00007762 <RCC_USBCLKConfig>:
    7762:	c909                	beqz	a0,7774 <RCC_USBCLKConfig+0x12>
    7764:	40021737          	lui	a4,0x40021
    7768:	435c                	lw	a5,4(a4)
    776a:	004006b7          	lui	a3,0x400
    776e:	8fd5                	or	a5,a5,a3
    7770:	c35c                	sw	a5,4(a4)
    7772:	8082                	ret
    7774:	400216b7          	lui	a3,0x40021
    7778:	42dc                	lw	a5,4(a3)
    777a:	ffc00737          	lui	a4,0xffc00
    777e:	177d                	addi	a4,a4,-1 # ffbfffff <_eusrstack+0xdfbfafff>
    7780:	8ff9                	and	a5,a5,a4
    7782:	c2dc                	sw	a5,4(a3)
    7784:	8082                	ret

00007786 <RCC_ADCCLKConfig>:
    7786:	400216b7          	lui	a3,0x40021
    778a:	42dc                	lw	a5,4(a3)
    778c:	7751                	lui	a4,0xffff4
    778e:	177d                	addi	a4,a4,-1 # ffff3fff <_eusrstack+0xdffeefff>
    7790:	8ff9                	and	a5,a5,a4
    7792:	8fc9                	or	a5,a5,a0
    7794:	c2dc                	sw	a5,4(a3)
    7796:	8082                	ret

00007798 <RCC_LSICmd>:
    7798:	40021737          	lui	a4,0x40021
    779c:	535c                	lw	a5,36(a4)
    779e:	c509                	beqz	a0,77a8 <RCC_LSICmd+0x10>
    77a0:	0017e793          	ori	a5,a5,1
    77a4:	d35c                	sw	a5,36(a4)
    77a6:	8082                	ret
    77a8:	9bf9                	andi	a5,a5,-2
    77aa:	bfed                	j	77a4 <RCC_LSICmd+0xc>

000077ac <RCC_GetClocksFreq>:
    77ac:	40021737          	lui	a4,0x40021
    77b0:	435c                	lw	a5,4(a4)
    77b2:	46a1                	li	a3,8
    77b4:	8bb1                	andi	a5,a5,12
    77b6:	08d79e63          	bne	a5,a3,7852 <RCC_GetClocksFreq+0xa6>
    77ba:	435c                	lw	a5,4(a4)
    77bc:	4354                	lw	a3,4(a4)
    77be:	6641                	lui	a2,0x10
    77c0:	83c9                	srli	a5,a5,0x12
    77c2:	8bbd                	andi	a5,a5,15
    77c4:	8ef1                	and	a3,a3,a2
    77c6:	0789                	addi	a5,a5,2 # 40007002 <_eusrstack+0x20002002>
    77c8:	ee81                	bnez	a3,77e0 <RCC_GetClocksFreq+0x34>
    77ca:	40024737          	lui	a4,0x40024
    77ce:	80072703          	lw	a4,-2048(a4) # 40023800 <_eusrstack+0x2001e800>
    77d2:	8b41                	andi	a4,a4,16
    77d4:	cb19                	beqz	a4,77ea <RCC_GetClocksFreq+0x3e>
    77d6:	007a1737          	lui	a4,0x7a1
    77da:	20070713          	addi	a4,a4,512 # 7a1200 <_data_lma+0x7941ec>
    77de:	a811                	j	77f2 <RCC_GetClocksFreq+0x46>
    77e0:	4358                	lw	a4,4(a4)
    77e2:	000206b7          	lui	a3,0x20
    77e6:	8f75                	and	a4,a4,a3
    77e8:	d77d                	beqz	a4,77d6 <RCC_GetClocksFreq+0x2a>
    77ea:	003d1737          	lui	a4,0x3d1
    77ee:	90070713          	addi	a4,a4,-1792 # 3d0900 <_data_lma+0x3c38ec>
    77f2:	02e787b3          	mul	a5,a5,a4
    77f6:	c11c                	sw	a5,0(a0)
    77f8:	40021637          	lui	a2,0x40021
    77fc:	4254                	lw	a3,4(a2)
    77fe:	20001737          	lui	a4,0x20001
    7802:	2b470713          	addi	a4,a4,692 # 200012b4 <APBAHBPrescTable>
    7806:	8291                	srli	a3,a3,0x4
    7808:	8abd                	andi	a3,a3,15
    780a:	96ba                	add	a3,a3,a4
    780c:	0006c683          	lbu	a3,0(a3) # 20000 <_data_lma+0x12fec>
    7810:	00d7d7b3          	srl	a5,a5,a3
    7814:	c15c                	sw	a5,4(a0)
    7816:	4254                	lw	a3,4(a2)
    7818:	82a1                	srli	a3,a3,0x8
    781a:	8a9d                	andi	a3,a3,7
    781c:	96ba                	add	a3,a3,a4
    781e:	0006c683          	lbu	a3,0(a3)
    7822:	00d7d6b3          	srl	a3,a5,a3
    7826:	c514                	sw	a3,8(a0)
    7828:	4254                	lw	a3,4(a2)
    782a:	82ad                	srli	a3,a3,0xb
    782c:	8a9d                	andi	a3,a3,7
    782e:	9736                	add	a4,a4,a3
    7830:	00074703          	lbu	a4,0(a4)
    7834:	82c18693          	addi	a3,gp,-2004 # 20001354 <ADCPrescTable>
    7838:	00e7d7b3          	srl	a5,a5,a4
    783c:	c55c                	sw	a5,12(a0)
    783e:	4258                	lw	a4,4(a2)
    7840:	8339                	srli	a4,a4,0xe
    7842:	8b0d                	andi	a4,a4,3
    7844:	9736                	add	a4,a4,a3
    7846:	00074703          	lbu	a4,0(a4)
    784a:	02e7d7b3          	divu	a5,a5,a4
    784e:	c91c                	sw	a5,16(a0)
    7850:	8082                	ret
    7852:	007a17b7          	lui	a5,0x7a1
    7856:	20078793          	addi	a5,a5,512 # 7a1200 <_data_lma+0x7941ec>
    785a:	bf71                	j	77f6 <RCC_GetClocksFreq+0x4a>

0000785c <RCC_AHBPeriphClockCmd>:
    785c:	c599                	beqz	a1,786a <RCC_AHBPeriphClockCmd+0xe>
    785e:	40021737          	lui	a4,0x40021
    7862:	4b5c                	lw	a5,20(a4)
    7864:	8fc9                	or	a5,a5,a0
    7866:	cb5c                	sw	a5,20(a4)
    7868:	8082                	ret
    786a:	400217b7          	lui	a5,0x40021
    786e:	4bd8                	lw	a4,20(a5)
    7870:	fff54513          	not	a0,a0
    7874:	8d79                	and	a0,a0,a4
    7876:	cbc8                	sw	a0,20(a5)
    7878:	8082                	ret

0000787a <RCC_APB2PeriphClockCmd>:
    787a:	c599                	beqz	a1,7888 <RCC_APB2PeriphClockCmd+0xe>
    787c:	40021737          	lui	a4,0x40021
    7880:	4f1c                	lw	a5,24(a4)
    7882:	8fc9                	or	a5,a5,a0
    7884:	cf1c                	sw	a5,24(a4)
    7886:	8082                	ret
    7888:	400217b7          	lui	a5,0x40021
    788c:	4f98                	lw	a4,24(a5)
    788e:	fff54513          	not	a0,a0
    7892:	8d79                	and	a0,a0,a4
    7894:	cf88                	sw	a0,24(a5)
    7896:	8082                	ret

00007898 <RCC_APB1PeriphClockCmd>:
    7898:	c599                	beqz	a1,78a6 <RCC_APB1PeriphClockCmd+0xe>
    789a:	40021737          	lui	a4,0x40021
    789e:	4f5c                	lw	a5,28(a4)
    78a0:	8fc9                	or	a5,a5,a0
    78a2:	cf5c                	sw	a5,28(a4)
    78a4:	8082                	ret
    78a6:	400217b7          	lui	a5,0x40021
    78aa:	4fd8                	lw	a4,28(a5)
    78ac:	fff54513          	not	a0,a0
    78b0:	8d79                	and	a0,a0,a4
    78b2:	cfc8                	sw	a0,28(a5)
    78b4:	8082                	ret

000078b6 <RCC_APB2PeriphResetCmd>:
    78b6:	c599                	beqz	a1,78c4 <RCC_APB2PeriphResetCmd+0xe>
    78b8:	40021737          	lui	a4,0x40021
    78bc:	475c                	lw	a5,12(a4)
    78be:	8fc9                	or	a5,a5,a0
    78c0:	c75c                	sw	a5,12(a4)
    78c2:	8082                	ret
    78c4:	400217b7          	lui	a5,0x40021
    78c8:	47d8                	lw	a4,12(a5)
    78ca:	fff54513          	not	a0,a0
    78ce:	8d79                	and	a0,a0,a4
    78d0:	c7c8                	sw	a0,12(a5)
    78d2:	8082                	ret

000078d4 <RCC_APB1PeriphResetCmd>:
    78d4:	c599                	beqz	a1,78e2 <RCC_APB1PeriphResetCmd+0xe>
    78d6:	40021737          	lui	a4,0x40021
    78da:	4b1c                	lw	a5,16(a4)
    78dc:	8fc9                	or	a5,a5,a0
    78de:	cb1c                	sw	a5,16(a4)
    78e0:	8082                	ret
    78e2:	400217b7          	lui	a5,0x40021
    78e6:	4b98                	lw	a4,16(a5)
    78e8:	fff54513          	not	a0,a0
    78ec:	8d79                	and	a0,a0,a4
    78ee:	cb88                	sw	a0,16(a5)
    78f0:	8082                	ret

000078f2 <RCC_GetFlagStatus>:
    78f2:	00555793          	srli	a5,a0,0x5
    78f6:	4705                	li	a4,1
    78f8:	00e79963          	bne	a5,a4,790a <RCC_GetFlagStatus+0x18>
    78fc:	400217b7          	lui	a5,0x40021
    7900:	439c                	lw	a5,0(a5)
    7902:	00a7d533          	srl	a0,a5,a0
    7906:	8905                	andi	a0,a0,1
    7908:	8082                	ret
    790a:	4709                	li	a4,2
    790c:	00e79663          	bne	a5,a4,7918 <RCC_GetFlagStatus+0x26>
    7910:	400217b7          	lui	a5,0x40021
    7914:	539c                	lw	a5,32(a5)
    7916:	b7f5                	j	7902 <RCC_GetFlagStatus+0x10>
    7918:	400217b7          	lui	a5,0x40021
    791c:	53dc                	lw	a5,36(a5)
    791e:	b7d5                	j	7902 <RCC_GetFlagStatus+0x10>

00007920 <SPI_Init>:
    7920:	00055783          	lhu	a5,0(a0) # 10000000 <_data_lma+0xfff2fec>
    7924:	670d                	lui	a4,0x3
    7926:	04070713          	addi	a4,a4,64 # 3040 <imu_upd+0x1fe>
    792a:	0025d683          	lhu	a3,2(a1)
    792e:	8f7d                	and	a4,a4,a5
    7930:	0005d783          	lhu	a5,0(a1)
    7934:	8fd5                	or	a5,a5,a3
    7936:	0045d683          	lhu	a3,4(a1)
    793a:	8fd5                	or	a5,a5,a3
    793c:	0065d683          	lhu	a3,6(a1)
    7940:	8fd5                	or	a5,a5,a3
    7942:	0085d683          	lhu	a3,8(a1)
    7946:	8fd5                	or	a5,a5,a3
    7948:	00a5d683          	lhu	a3,10(a1)
    794c:	8fd5                	or	a5,a5,a3
    794e:	00c5d683          	lhu	a3,12(a1)
    7952:	8fd5                	or	a5,a5,a3
    7954:	00e5d683          	lhu	a3,14(a1)
    7958:	8fd5                	or	a5,a5,a3
    795a:	8fd9                	or	a5,a5,a4
    795c:	00f51023          	sh	a5,0(a0)
    7960:	01c55783          	lhu	a5,28(a0)
    7964:	777d                	lui	a4,0xfffff
    7966:	7ff70713          	addi	a4,a4,2047 # fffff7ff <_eusrstack+0xdfffa7ff>
    796a:	8ff9                	and	a5,a5,a4
    796c:	00f51e23          	sh	a5,28(a0)
    7970:	0105d783          	lhu	a5,16(a1)
    7974:	00f51823          	sh	a5,16(a0)
    7978:	8082                	ret

0000797a <SPI_Cmd>:
    797a:	00055783          	lhu	a5,0(a0)
    797e:	c591                	beqz	a1,798a <SPI_Cmd+0x10>
    7980:	0407e793          	ori	a5,a5,64
    7984:	00f51023          	sh	a5,0(a0)
    7988:	8082                	ret
    798a:	07c2                	slli	a5,a5,0x10
    798c:	83c1                	srli	a5,a5,0x10
    798e:	fbf7f793          	andi	a5,a5,-65
    7992:	07c2                	slli	a5,a5,0x10
    7994:	83c1                	srli	a5,a5,0x10
    7996:	b7fd                	j	7984 <SPI_Cmd+0xa>

00007998 <SPI_I2S_DMACmd>:
    7998:	00455783          	lhu	a5,4(a0)
    799c:	c609                	beqz	a2,79a6 <SPI_I2S_DMACmd+0xe>
    799e:	8fcd                	or	a5,a5,a1
    79a0:	00f51223          	sh	a5,4(a0)
    79a4:	8082                	ret
    79a6:	fff5c593          	not	a1,a1
    79aa:	8fed                	and	a5,a5,a1
    79ac:	bfd5                	j	79a0 <SPI_I2S_DMACmd+0x8>

000079ae <TIM_TimeBaseInit>:
    79ae:	00055783          	lhu	a5,0(a0)
    79b2:	40013737          	lui	a4,0x40013
    79b6:	c0070713          	addi	a4,a4,-1024 # 40012c00 <_eusrstack+0x2000dc00>
    79ba:	07c2                	slli	a5,a5,0x10
    79bc:	83c1                	srli	a5,a5,0x10
    79be:	02e50063          	beq	a0,a4,79de <TIM_TimeBaseInit+0x30>
    79c2:	40000737          	lui	a4,0x40000
    79c6:	00e50c63          	beq	a0,a4,79de <TIM_TimeBaseInit+0x30>
    79ca:	40070713          	addi	a4,a4,1024 # 40000400 <_eusrstack+0x1fffb400>
    79ce:	00e50863          	beq	a0,a4,79de <TIM_TimeBaseInit+0x30>
    79d2:	40001737          	lui	a4,0x40001
    79d6:	80070713          	addi	a4,a4,-2048 # 40000800 <_eusrstack+0x1fffb800>
    79da:	00e51763          	bne	a0,a4,79e8 <TIM_TimeBaseInit+0x3a>
    79de:	0025d703          	lhu	a4,2(a1)
    79e2:	f8f7f793          	andi	a5,a5,-113
    79e6:	8fd9                	or	a5,a5,a4
    79e8:	0065d703          	lhu	a4,6(a1)
    79ec:	cff7f793          	andi	a5,a5,-769
    79f0:	07c2                	slli	a5,a5,0x10
    79f2:	83c1                	srli	a5,a5,0x10
    79f4:	8fd9                	or	a5,a5,a4
    79f6:	00f51023          	sh	a5,0(a0)
    79fa:	0045d783          	lhu	a5,4(a1)
    79fe:	02f51623          	sh	a5,44(a0)
    7a02:	0005d783          	lhu	a5,0(a1)
    7a06:	02f51423          	sh	a5,40(a0)
    7a0a:	400137b7          	lui	a5,0x40013
    7a0e:	c0078793          	addi	a5,a5,-1024 # 40012c00 <_eusrstack+0x2000dc00>
    7a12:	00f51663          	bne	a0,a5,7a1e <TIM_TimeBaseInit+0x70>
    7a16:	0085c783          	lbu	a5,8(a1)
    7a1a:	02f51823          	sh	a5,48(a0)
    7a1e:	4785                	li	a5,1
    7a20:	00f51a23          	sh	a5,20(a0)
    7a24:	8082                	ret

00007a26 <TIM_OC3Init>:
    7a26:	02055783          	lhu	a5,32(a0)
    7a2a:	0005d683          	lhu	a3,0(a1)
    7a2e:	0085d803          	lhu	a6,8(a1)
    7a32:	07c2                	slli	a5,a5,0x10
    7a34:	83c1                	srli	a5,a5,0x10
    7a36:	eff7f793          	andi	a5,a5,-257
    7a3a:	07c2                	slli	a5,a5,0x10
    7a3c:	83c1                	srli	a5,a5,0x10
    7a3e:	02f51023          	sh	a5,32(a0)
    7a42:	02055783          	lhu	a5,32(a0)
    7a46:	00455603          	lhu	a2,4(a0)
    7a4a:	01c55703          	lhu	a4,28(a0)
    7a4e:	07c2                	slli	a5,a5,0x10
    7a50:	83c1                	srli	a5,a5,0x10
    7a52:	0742                	slli	a4,a4,0x10
    7a54:	8341                	srli	a4,a4,0x10
    7a56:	f8c77713          	andi	a4,a4,-116
    7a5a:	8f55                	or	a4,a4,a3
    7a5c:	0025d683          	lhu	a3,2(a1)
    7a60:	dff7f793          	andi	a5,a5,-513
    7a64:	0642                	slli	a2,a2,0x10
    7a66:	0106e6b3          	or	a3,a3,a6
    7a6a:	06a2                	slli	a3,a3,0x8
    7a6c:	8fd5                	or	a5,a5,a3
    7a6e:	400136b7          	lui	a3,0x40013
    7a72:	07c2                	slli	a5,a5,0x10
    7a74:	c0068693          	addi	a3,a3,-1024 # 40012c00 <_eusrstack+0x2000dc00>
    7a78:	8241                	srli	a2,a2,0x10
    7a7a:	83c1                	srli	a5,a5,0x10
    7a7c:	04d51263          	bne	a0,a3,7ac0 <TIM_OC3Init+0x9a>
    7a80:	76fd                	lui	a3,0xfffff
    7a82:	7ff68693          	addi	a3,a3,2047 # fffff7ff <_eusrstack+0xdfffa7ff>
    7a86:	8ff5                	and	a5,a5,a3
    7a88:	00a5d683          	lhu	a3,10(a1)
    7a8c:	00c5d803          	lhu	a6,12(a1)
    7a90:	06a2                	slli	a3,a3,0x8
    7a92:	8fd5                	or	a5,a5,a3
    7a94:	0045d683          	lhu	a3,4(a1)
    7a98:	07c2                	slli	a5,a5,0x10
    7a9a:	83c1                	srli	a5,a5,0x10
    7a9c:	06a2                	slli	a3,a3,0x8
    7a9e:	bff7f793          	andi	a5,a5,-1025
    7aa2:	8fd5                	or	a5,a5,a3
    7aa4:	76f5                	lui	a3,0xffffd
    7aa6:	16fd                	addi	a3,a3,-1 # ffffcfff <_eusrstack+0xdfff7fff>
    7aa8:	8ef1                	and	a3,a3,a2
    7aaa:	00e5d603          	lhu	a2,14(a1)
    7aae:	07c2                	slli	a5,a5,0x10
    7ab0:	83c1                	srli	a5,a5,0x10
    7ab2:	01066633          	or	a2,a2,a6
    7ab6:	0612                	slli	a2,a2,0x4
    7ab8:	8ed1                	or	a3,a3,a2
    7aba:	01069613          	slli	a2,a3,0x10
    7abe:	8241                	srli	a2,a2,0x10
    7ac0:	00c51223          	sh	a2,4(a0)
    7ac4:	00e51e23          	sh	a4,28(a0)
    7ac8:	0065d703          	lhu	a4,6(a1)
    7acc:	02e51e23          	sh	a4,60(a0)
    7ad0:	02f51023          	sh	a5,32(a0)
    7ad4:	8082                	ret

00007ad6 <TIM_OC4Init>:
    7ad6:	02055783          	lhu	a5,32(a0)
    7ada:	777d                	lui	a4,0xfffff
    7adc:	177d                	addi	a4,a4,-1 # ffffefff <_eusrstack+0xdfff9fff>
    7ade:	8ff9                	and	a5,a5,a4
    7ae0:	02f51023          	sh	a5,32(a0)
    7ae4:	02055703          	lhu	a4,32(a0)
    7ae8:	00455783          	lhu	a5,4(a0)
    7aec:	01c55683          	lhu	a3,28(a0)
    7af0:	7665                	lui	a2,0xffff9
    7af2:	cff60613          	addi	a2,a2,-769 # ffff8cff <_eusrstack+0xdfff3cff>
    7af6:	8ef1                	and	a3,a3,a2
    7af8:	0005d603          	lhu	a2,0(a1)
    7afc:	0085d803          	lhu	a6,8(a1)
    7b00:	07c2                	slli	a5,a5,0x10
    7b02:	0622                	slli	a2,a2,0x8
    7b04:	8ed1                	or	a3,a3,a2
    7b06:	7679                	lui	a2,0xffffe
    7b08:	167d                	addi	a2,a2,-1 # ffffdfff <_eusrstack+0xdfff8fff>
    7b0a:	8f71                	and	a4,a4,a2
    7b0c:	0025d603          	lhu	a2,2(a1)
    7b10:	06c2                	slli	a3,a3,0x10
    7b12:	83c1                	srli	a5,a5,0x10
    7b14:	01066633          	or	a2,a2,a6
    7b18:	0632                	slli	a2,a2,0xc
    7b1a:	8f51                	or	a4,a4,a2
    7b1c:	40013637          	lui	a2,0x40013
    7b20:	0742                	slli	a4,a4,0x10
    7b22:	c0060613          	addi	a2,a2,-1024 # 40012c00 <_eusrstack+0x2000dc00>
    7b26:	82c1                	srli	a3,a3,0x10
    7b28:	8341                	srli	a4,a4,0x10
    7b2a:	00c51b63          	bne	a0,a2,7b40 <TIM_OC4Init+0x6a>
    7b2e:	7671                	lui	a2,0xffffc
    7b30:	167d                	addi	a2,a2,-1 # ffffbfff <_eusrstack+0xdfff6fff>
    7b32:	8ff1                	and	a5,a5,a2
    7b34:	00c5d603          	lhu	a2,12(a1)
    7b38:	061a                	slli	a2,a2,0x6
    7b3a:	8fd1                	or	a5,a5,a2
    7b3c:	07c2                	slli	a5,a5,0x10
    7b3e:	83c1                	srli	a5,a5,0x10
    7b40:	00f51223          	sh	a5,4(a0)
    7b44:	0065d783          	lhu	a5,6(a1)
    7b48:	00d51e23          	sh	a3,28(a0)
    7b4c:	04f51023          	sh	a5,64(a0)
    7b50:	02e51023          	sh	a4,32(a0)
    7b54:	8082                	ret

00007b56 <TIM_Cmd>:
    7b56:	00055783          	lhu	a5,0(a0)
    7b5a:	c591                	beqz	a1,7b66 <TIM_Cmd+0x10>
    7b5c:	0017e793          	ori	a5,a5,1
    7b60:	00f51023          	sh	a5,0(a0)
    7b64:	8082                	ret
    7b66:	07c2                	slli	a5,a5,0x10
    7b68:	83c1                	srli	a5,a5,0x10
    7b6a:	9bf9                	andi	a5,a5,-2
    7b6c:	07c2                	slli	a5,a5,0x10
    7b6e:	83c1                	srli	a5,a5,0x10
    7b70:	bfc5                	j	7b60 <TIM_Cmd+0xa>

00007b72 <TIM_CtrlPWMOutputs>:
    7b72:	04455783          	lhu	a5,68(a0)
    7b76:	c591                	beqz	a1,7b82 <TIM_CtrlPWMOutputs+0x10>
    7b78:	6721                	lui	a4,0x8
    7b7a:	8fd9                	or	a5,a5,a4
    7b7c:	04f51223          	sh	a5,68(a0)
    7b80:	8082                	ret
    7b82:	07c6                	slli	a5,a5,0x11
    7b84:	83c5                	srli	a5,a5,0x11
    7b86:	bfdd                	j	7b7c <TIM_CtrlPWMOutputs+0xa>

00007b88 <TIM_ITConfig>:
    7b88:	00c55783          	lhu	a5,12(a0)
    7b8c:	c609                	beqz	a2,7b96 <TIM_ITConfig+0xe>
    7b8e:	8fcd                	or	a5,a5,a1
    7b90:	00f51623          	sh	a5,12(a0)
    7b94:	8082                	ret
    7b96:	fff5c593          	not	a1,a1
    7b9a:	8fed                	and	a5,a5,a1
    7b9c:	bfd5                	j	7b90 <TIM_ITConfig+0x8>

00007b9e <TIM_ARRPreloadConfig>:
    7b9e:	00055783          	lhu	a5,0(a0)
    7ba2:	c591                	beqz	a1,7bae <TIM_ARRPreloadConfig+0x10>
    7ba4:	0807e793          	ori	a5,a5,128
    7ba8:	00f51023          	sh	a5,0(a0)
    7bac:	8082                	ret
    7bae:	07c2                	slli	a5,a5,0x10
    7bb0:	83c1                	srli	a5,a5,0x10
    7bb2:	f7f7f793          	andi	a5,a5,-129
    7bb6:	07c2                	slli	a5,a5,0x10
    7bb8:	83c1                	srli	a5,a5,0x10
    7bba:	b7fd                	j	7ba8 <TIM_ARRPreloadConfig+0xa>

00007bbc <TIM_OC3PreloadConfig>:
    7bbc:	01c55783          	lhu	a5,28(a0)
    7bc0:	07c2                	slli	a5,a5,0x10
    7bc2:	83c1                	srli	a5,a5,0x10
    7bc4:	9bdd                	andi	a5,a5,-9
    7bc6:	8fcd                	or	a5,a5,a1
    7bc8:	00f51e23          	sh	a5,28(a0)
    7bcc:	8082                	ret

00007bce <TIM_OC4PreloadConfig>:
    7bce:	01c55783          	lhu	a5,28(a0)
    7bd2:	777d                	lui	a4,0xfffff
    7bd4:	7ff70713          	addi	a4,a4,2047 # fffff7ff <_eusrstack+0xdfffa7ff>
    7bd8:	8ff9                	and	a5,a5,a4
    7bda:	05a2                	slli	a1,a1,0x8
    7bdc:	8fcd                	or	a5,a5,a1
    7bde:	07c2                	slli	a5,a5,0x10
    7be0:	83c1                	srli	a5,a5,0x10
    7be2:	00f51e23          	sh	a5,28(a0)
    7be6:	8082                	ret

00007be8 <TIM_SetCompare3>:
    7be8:	02b51e23          	sh	a1,60(a0)
    7bec:	8082                	ret

00007bee <TIM_SetCompare4>:
    7bee:	04b51023          	sh	a1,64(a0)
    7bf2:	8082                	ret

00007bf4 <TIM_GetFlagStatus>:
    7bf4:	01055503          	lhu	a0,16(a0)
    7bf8:	8d6d                	and	a0,a0,a1
    7bfa:	00a03533          	snez	a0,a0
    7bfe:	8082                	ret

00007c00 <TIM_GetITStatus>:
    7c00:	01055783          	lhu	a5,16(a0)
    7c04:	00c55503          	lhu	a0,12(a0)
    7c08:	8fed                	and	a5,a5,a1
    7c0a:	0542                	slli	a0,a0,0x10
    7c0c:	8141                	srli	a0,a0,0x10
    7c0e:	c789                	beqz	a5,7c18 <TIM_GetITStatus+0x18>
    7c10:	8d6d                	and	a0,a0,a1
    7c12:	00a03533          	snez	a0,a0
    7c16:	8082                	ret
    7c18:	4501                	li	a0,0
    7c1a:	8082                	ret

00007c1c <TIM_ClearITPendingBit>:
    7c1c:	fff5c593          	not	a1,a1
    7c20:	05c2                	slli	a1,a1,0x10
    7c22:	81c1                	srli	a1,a1,0x10
    7c24:	00b51823          	sh	a1,16(a0)
    7c28:	8082                	ret

00007c2a <USART_Init>:
    7c2a:	d46f82ef          	jal	t0,170 <__riscv_save_0>
    7c2e:	01055683          	lhu	a3,16(a0)
    7c32:	77f5                	lui	a5,0xffffd
    7c34:	17fd                	addi	a5,a5,-1 # ffffcfff <_eusrstack+0xdfff7fff>
    7c36:	8efd                	and	a3,a3,a5
    7c38:	0065d783          	lhu	a5,6(a1)
    7c3c:	00c5d703          	lhu	a4,12(a1)
    7c40:	1101                	addi	sp,sp,-32
    7c42:	8fd5                	or	a5,a5,a3
    7c44:	00f51823          	sh	a5,16(a0)
    7c48:	00c55683          	lhu	a3,12(a0)
    7c4c:	77fd                	lui	a5,0xfffff
    7c4e:	9f378793          	addi	a5,a5,-1549 # ffffe9f3 <_eusrstack+0xdfff99f3>
    7c52:	8efd                	and	a3,a3,a5
    7c54:	0045d783          	lhu	a5,4(a1)
    7c58:	842a                	mv	s0,a0
    7c5a:	84ae                	mv	s1,a1
    7c5c:	8fd5                	or	a5,a5,a3
    7c5e:	0085d683          	lhu	a3,8(a1)
    7c62:	8fd5                	or	a5,a5,a3
    7c64:	00a5d683          	lhu	a3,10(a1)
    7c68:	8fd5                	or	a5,a5,a3
    7c6a:	00f51623          	sh	a5,12(a0)
    7c6e:	01455783          	lhu	a5,20(a0)
    7c72:	07c2                	slli	a5,a5,0x10
    7c74:	83c1                	srli	a5,a5,0x10
    7c76:	cff7f793          	andi	a5,a5,-769
    7c7a:	8fd9                	or	a5,a5,a4
    7c7c:	00f51a23          	sh	a5,20(a0)
    7c80:	0068                	addi	a0,sp,12
    7c82:	b2bff0ef          	jal	ra,77ac <RCC_GetClocksFreq>
    7c86:	400147b7          	lui	a5,0x40014
    7c8a:	80078793          	addi	a5,a5,-2048 # 40013800 <_eusrstack+0x2000e800>
    7c8e:	02f41f63          	bne	s0,a5,7ccc <USART_Init+0xa2>
    7c92:	47e2                	lw	a5,24(sp)
    7c94:	4765                	li	a4,25
    7c96:	02e787b3          	mul	a5,a5,a4
    7c9a:	4098                	lw	a4,0(s1)
    7c9c:	06400693          	li	a3,100
    7ca0:	070a                	slli	a4,a4,0x2
    7ca2:	02e7d7b3          	divu	a5,a5,a4
    7ca6:	02d7d733          	divu	a4,a5,a3
    7caa:	02d7f7b3          	remu	a5,a5,a3
    7cae:	0712                	slli	a4,a4,0x4
    7cb0:	0792                	slli	a5,a5,0x4
    7cb2:	03278793          	addi	a5,a5,50
    7cb6:	02d7d7b3          	divu	a5,a5,a3
    7cba:	8bbd                	andi	a5,a5,15
    7cbc:	8fd9                	or	a5,a5,a4
    7cbe:	07c2                	slli	a5,a5,0x10
    7cc0:	83c1                	srli	a5,a5,0x10
    7cc2:	00f41423          	sh	a5,8(s0)
    7cc6:	6105                	addi	sp,sp,32
    7cc8:	cccf806f          	j	194 <__riscv_restore_0>
    7ccc:	47d2                	lw	a5,20(sp)
    7cce:	b7d9                	j	7c94 <USART_Init+0x6a>

00007cd0 <USART_Cmd>:
    7cd0:	00c55783          	lhu	a5,12(a0)
    7cd4:	c591                	beqz	a1,7ce0 <USART_Cmd+0x10>
    7cd6:	6709                	lui	a4,0x2
    7cd8:	8fd9                	or	a5,a5,a4
    7cda:	00f51623          	sh	a5,12(a0)
    7cde:	8082                	ret
    7ce0:	7779                	lui	a4,0xffffe
    7ce2:	177d                	addi	a4,a4,-1 # ffffdfff <_eusrstack+0xdfff8fff>
    7ce4:	8ff9                	and	a5,a5,a4
    7ce6:	bfd5                	j	7cda <USART_Cmd+0xa>

00007ce8 <USART_DMACmd>:
    7ce8:	01455783          	lhu	a5,20(a0)
    7cec:	c609                	beqz	a2,7cf6 <USART_DMACmd+0xe>
    7cee:	8fcd                	or	a5,a5,a1
    7cf0:	00f51a23          	sh	a5,20(a0)
    7cf4:	8082                	ret
    7cf6:	fff5c593          	not	a1,a1
    7cfa:	8fed                	and	a5,a5,a1
    7cfc:	bfd5                	j	7cf0 <USART_DMACmd+0x8>

00007cfe <USART_GetFlagStatus>:
    7cfe:	00055503          	lhu	a0,0(a0)
    7d02:	8d6d                	and	a0,a0,a1
    7d04:	00a03533          	snez	a0,a0
    7d08:	8082                	ret

00007d0a <USART_ClearFlag>:
    7d0a:	fff5c593          	not	a1,a1
    7d0e:	05c2                	slli	a1,a1,0x10
    7d10:	81c1                	srli	a1,a1,0x10
    7d12:	00b51023          	sh	a1,0(a0)
    7d16:	8082                	ret

00007d18 <USART_printf_Init>:
    7d18:	8082                	ret

00007d1a <_write>:
    7d1a:	8532                	mv	a0,a2
    7d1c:	8082                	ret

00007d1e <_sbrk>:
    7d1e:	87aa                	mv	a5,a0
    7d20:	8301a503          	lw	a0,-2000(gp) # 20001358 <curbrk.0>
    7d24:	20004737          	lui	a4,0x20004
    7d28:	25c70713          	addi	a4,a4,604 # 2000425c <_ebss>
    7d2c:	97aa                	add	a5,a5,a0
    7d2e:	00e7eb63          	bltu	a5,a4,7d44 <_sbrk+0x26>
    7d32:	20005737          	lui	a4,0x20005
    7d36:	80070713          	addi	a4,a4,-2048 # 20004800 <_heap_end>
    7d3a:	00f76563          	bltu	a4,a5,7d44 <_sbrk+0x26>
    7d3e:	82f1a823          	sw	a5,-2000(gp) # 20001358 <curbrk.0>
    7d42:	8082                	ret
    7d44:	557d                	li	a0,-1
    7d46:	8082                	ret

00007d48 <sqrtf>:
    7d48:	1141                	addi	sp,sp,-16
    7d4a:	c422                	sw	s0,8(sp)
    7d4c:	c226                	sw	s1,4(sp)
    7d4e:	c606                	sw	ra,12(sp)
    7d50:	84aa                	mv	s1,a0
    7d52:	283d                	jal	7d90 <__ieee754_sqrtf>
    7d54:	842a                	mv	s0,a0
    7d56:	85a6                	mv	a1,s1
    7d58:	8526                	mv	a0,s1
    7d5a:	4d9020ef          	jal	ra,aa32 <__unordsf2>
    7d5e:	e11d                	bnez	a0,7d84 <sqrtf+0x3c>
    7d60:	00000593          	li	a1,0
    7d64:	8526                	mv	a0,s1
    7d66:	5cc020ef          	jal	ra,a332 <__lesf2>
    7d6a:	00055d63          	bgez	a0,7d84 <sqrtf+0x3c>
    7d6e:	1e2030ef          	jal	ra,af50 <__errno>
    7d72:	02100793          	li	a5,33
    7d76:	00000593          	li	a1,0
    7d7a:	c11c                	sw	a5,0(a0)
    7d7c:	852e                	mv	a0,a1
    7d7e:	234020ef          	jal	ra,9fb2 <__divsf3>
    7d82:	842a                	mv	s0,a0
    7d84:	40b2                	lw	ra,12(sp)
    7d86:	8522                	mv	a0,s0
    7d88:	4422                	lw	s0,8(sp)
    7d8a:	4492                	lw	s1,4(sp)
    7d8c:	0141                	addi	sp,sp,16
    7d8e:	8082                	ret

00007d90 <__ieee754_sqrtf>:
    7d90:	1101                	addi	sp,sp,-32
    7d92:	00151793          	slli	a5,a0,0x1
    7d96:	cc22                	sw	s0,24(sp)
    7d98:	ce06                	sw	ra,28(sp)
    7d9a:	ca26                	sw	s1,20(sp)
    7d9c:	c84a                	sw	s2,16(sp)
    7d9e:	c64e                	sw	s3,12(sp)
    7da0:	c452                	sw	s4,8(sp)
    7da2:	8385                	srli	a5,a5,0x1
    7da4:	7f8006b7          	lui	a3,0x7f800
    7da8:	842a                	mv	s0,a0
    7daa:	02d7e363          	bltu	a5,a3,7dd0 <__ieee754_sqrtf+0x40>
    7dae:	85aa                	mv	a1,a0
    7db0:	61a020ef          	jal	ra,a3ca <__mulsf3>
    7db4:	85aa                	mv	a1,a0
    7db6:	8522                	mv	a0,s0
    7db8:	693010ef          	jal	ra,9c4a <__addsf3>
    7dbc:	842a                	mv	s0,a0
    7dbe:	40f2                	lw	ra,28(sp)
    7dc0:	8522                	mv	a0,s0
    7dc2:	4462                	lw	s0,24(sp)
    7dc4:	44d2                	lw	s1,20(sp)
    7dc6:	4942                	lw	s2,16(sp)
    7dc8:	49b2                	lw	s3,12(sp)
    7dca:	4a22                	lw	s4,8(sp)
    7dcc:	6105                	addi	sp,sp,32
    7dce:	8082                	ret
    7dd0:	d7fd                	beqz	a5,7dbe <__ieee754_sqrtf+0x2e>
    7dd2:	87aa                	mv	a5,a0
    7dd4:	00055963          	bgez	a0,7de6 <__ieee754_sqrtf+0x56>
    7dd8:	85aa                	mv	a1,a0
    7dda:	0cd020ef          	jal	ra,a6a6 <__subsf3>
    7dde:	85aa                	mv	a1,a0
    7de0:	1d2020ef          	jal	ra,9fb2 <__divsf3>
    7de4:	bfe1                	j	7dbc <__ieee754_sqrtf+0x2c>
    7de6:	8ee9                	and	a3,a3,a0
    7de8:	41755713          	srai	a4,a0,0x17
    7dec:	c6cd                	beqz	a3,7e96 <__ieee754_sqrtf+0x106>
    7dee:	008006b7          	lui	a3,0x800
    7df2:	fff68613          	addi	a2,a3,-1 # 7fffff <_data_lma+0x7f2feb>
    7df6:	f8170713          	addi	a4,a4,-127
    7dfa:	8ff1                	and	a5,a5,a2
    7dfc:	8fd5                	or	a5,a5,a3
    7dfe:	00177693          	andi	a3,a4,1
    7e02:	c291                	beqz	a3,7e06 <__ieee754_sqrtf+0x76>
    7e04:	0786                	slli	a5,a5,0x1
    7e06:	40175413          	srai	s0,a4,0x1
    7e0a:	0786                	slli	a5,a5,0x1
    7e0c:	4665                	li	a2,25
    7e0e:	4481                	li	s1,0
    7e10:	4501                	li	a0,0
    7e12:	010006b7          	lui	a3,0x1000
    7e16:	00d505b3          	add	a1,a0,a3
    7e1a:	873e                	mv	a4,a5
    7e1c:	00b7c763          	blt	a5,a1,7e2a <__ieee754_sqrtf+0x9a>
    7e20:	00d58533          	add	a0,a1,a3
    7e24:	40b78733          	sub	a4,a5,a1
    7e28:	94b6                	add	s1,s1,a3
    7e2a:	167d                	addi	a2,a2,-1
    7e2c:	00171793          	slli	a5,a4,0x1
    7e30:	8285                	srli	a3,a3,0x1
    7e32:	f275                	bnez	a2,7e16 <__ieee754_sqrtf+0x86>
    7e34:	c331                	beqz	a4,7e78 <__ieee754_sqrtf+0xe8>
    7e36:	83818913          	addi	s2,gp,-1992 # 20001360 <one>
    7e3a:	83418993          	addi	s3,gp,-1996 # 2000135c <tiny>
    7e3e:	00092503          	lw	a0,0(s2)
    7e42:	0009a583          	lw	a1,0(s3)
    7e46:	00092a03          	lw	s4,0(s2)
    7e4a:	05d020ef          	jal	ra,a6a6 <__subsf3>
    7e4e:	85aa                	mv	a1,a0
    7e50:	8552                	mv	a0,s4
    7e52:	4e0020ef          	jal	ra,a332 <__lesf2>
    7e56:	02a04163          	bgtz	a0,7e78 <__ieee754_sqrtf+0xe8>
    7e5a:	00092503          	lw	a0,0(s2)
    7e5e:	0009a583          	lw	a1,0(s3)
    7e62:	00092903          	lw	s2,0(s2)
    7e66:	5e5010ef          	jal	ra,9c4a <__addsf3>
    7e6a:	85aa                	mv	a1,a0
    7e6c:	854a                	mv	a0,s2
    7e6e:	4c4020ef          	jal	ra,a332 <__lesf2>
    7e72:	02055663          	bgez	a0,7e9e <__ieee754_sqrtf+0x10e>
    7e76:	0489                	addi	s1,s1,2
    7e78:	8485                	srai	s1,s1,0x1
    7e7a:	3f0007b7          	lui	a5,0x3f000
    7e7e:	94be                	add	s1,s1,a5
    7e80:	045e                	slli	s0,s0,0x17
    7e82:	9426                	add	s0,s0,s1
    7e84:	bf2d                	j	7dbe <__ieee754_sqrtf+0x2e>
    7e86:	0786                	slli	a5,a5,0x1
    7e88:	0685                	addi	a3,a3,1 # 1000001 <_data_lma+0xff2fed>
    7e8a:	00b7f633          	and	a2,a5,a1
    7e8e:	de65                	beqz	a2,7e86 <__ieee754_sqrtf+0xf6>
    7e90:	16fd                	addi	a3,a3,-1
    7e92:	8f15                	sub	a4,a4,a3
    7e94:	bfa9                	j	7dee <__ieee754_sqrtf+0x5e>
    7e96:	4681                	li	a3,0
    7e98:	008005b7          	lui	a1,0x800
    7e9c:	b7fd                	j	7e8a <__ieee754_sqrtf+0xfa>
    7e9e:	0485                	addi	s1,s1,1
    7ea0:	98f9                	andi	s1,s1,-2
    7ea2:	bfd9                	j	7e78 <__ieee754_sqrtf+0xe8>

00007ea4 <__udivdi3>:
    7ea4:	8832                	mv	a6,a2
    7ea6:	88aa                	mv	a7,a0
    7ea8:	872e                	mv	a4,a1
    7eaa:	eec5                	bnez	a3,7f62 <__udivdi3+0xbe>
    7eac:	10c5f363          	bgeu	a1,a2,7fb2 <__udivdi3+0x10e>
    7eb0:	67c1                	lui	a5,0x10
    7eb2:	1af66063          	bltu	a2,a5,8052 <__udivdi3+0x1ae>
    7eb6:	010007b7          	lui	a5,0x1000
    7eba:	00f637b3          	sltu	a5,a2,a5
    7ebe:	40f007b3          	neg	a5,a5
    7ec2:	9be1                	andi	a5,a5,-8
    7ec4:	07e1                	addi	a5,a5,24 # 1000018 <_data_lma+0xff3004>
    7ec6:	00f65333          	srl	t1,a2,a5
    7eca:	00005697          	auipc	a3,0x5
    7ece:	f5668693          	addi	a3,a3,-170 # ce20 <__clz_tab>
    7ed2:	969a                	add	a3,a3,t1
    7ed4:	0006c683          	lbu	a3,0(a3)
    7ed8:	02000313          	li	t1,32
    7edc:	97b6                	add	a5,a5,a3
    7ede:	40f306b3          	sub	a3,t1,a5
    7ee2:	00f30b63          	beq	t1,a5,7ef8 <__udivdi3+0x54>
    7ee6:	00d59733          	sll	a4,a1,a3
    7eea:	00f557b3          	srl	a5,a0,a5
    7eee:	00d61833          	sll	a6,a2,a3
    7ef2:	8f5d                	or	a4,a4,a5
    7ef4:	00d518b3          	sll	a7,a0,a3
    7ef8:	01085613          	srli	a2,a6,0x10
    7efc:	02c75533          	divu	a0,a4,a2
    7f00:	01081693          	slli	a3,a6,0x10
    7f04:	82c1                	srli	a3,a3,0x10
    7f06:	0108d793          	srli	a5,a7,0x10
    7f0a:	02c77733          	remu	a4,a4,a2
    7f0e:	02a685b3          	mul	a1,a3,a0
    7f12:	0742                	slli	a4,a4,0x10
    7f14:	8fd9                	or	a5,a5,a4
    7f16:	00b7fa63          	bgeu	a5,a1,7f2a <__udivdi3+0x86>
    7f1a:	97c2                	add	a5,a5,a6
    7f1c:	fff50713          	addi	a4,a0,-1
    7f20:	0107e463          	bltu	a5,a6,7f28 <__udivdi3+0x84>
    7f24:	32b7e163          	bltu	a5,a1,8246 <__udivdi3+0x3a2>
    7f28:	853a                	mv	a0,a4
    7f2a:	8f8d                	sub	a5,a5,a1
    7f2c:	02c7d733          	divu	a4,a5,a2
    7f30:	08c2                	slli	a7,a7,0x10
    7f32:	0108d893          	srli	a7,a7,0x10
    7f36:	02c7f7b3          	remu	a5,a5,a2
    7f3a:	02e686b3          	mul	a3,a3,a4
    7f3e:	07c2                	slli	a5,a5,0x10
    7f40:	00f8e8b3          	or	a7,a7,a5
    7f44:	00d8fb63          	bgeu	a7,a3,7f5a <__udivdi3+0xb6>
    7f48:	98c2                	add	a7,a7,a6
    7f4a:	fff70793          	addi	a5,a4,-1
    7f4e:	0108e563          	bltu	a7,a6,7f58 <__udivdi3+0xb4>
    7f52:	1779                	addi	a4,a4,-2
    7f54:	00d8e363          	bltu	a7,a3,7f5a <__udivdi3+0xb6>
    7f58:	873e                	mv	a4,a5
    7f5a:	0542                	slli	a0,a0,0x10
    7f5c:	8d59                	or	a0,a0,a4
    7f5e:	4581                	li	a1,0
    7f60:	8082                	ret
    7f62:	00d5f563          	bgeu	a1,a3,7f6c <__udivdi3+0xc8>
    7f66:	4581                	li	a1,0
    7f68:	4501                	li	a0,0
    7f6a:	8082                	ret
    7f6c:	67c1                	lui	a5,0x10
    7f6e:	18f6ea63          	bltu	a3,a5,8102 <__udivdi3+0x25e>
    7f72:	010007b7          	lui	a5,0x1000
    7f76:	00f6b7b3          	sltu	a5,a3,a5
    7f7a:	40f007b3          	neg	a5,a5
    7f7e:	9be1                	andi	a5,a5,-8
    7f80:	07e1                	addi	a5,a5,24 # 1000018 <_data_lma+0xff3004>
    7f82:	00f6d833          	srl	a6,a3,a5
    7f86:	00005717          	auipc	a4,0x5
    7f8a:	e9a70713          	addi	a4,a4,-358 # ce20 <__clz_tab>
    7f8e:	9742                	add	a4,a4,a6
    7f90:	00074703          	lbu	a4,0(a4)
    7f94:	02000893          	li	a7,32
    7f98:	973e                	add	a4,a4,a5
    7f9a:	40e88833          	sub	a6,a7,a4
    7f9e:	18e89763          	bne	a7,a4,812c <__udivdi3+0x288>
    7fa2:	28b6e463          	bltu	a3,a1,822a <__udivdi3+0x386>
    7fa6:	00c53533          	sltu	a0,a0,a2
    7faa:	00154513          	xori	a0,a0,1
    7fae:	4581                	li	a1,0
    7fb0:	8082                	ret
    7fb2:	c655                	beqz	a2,805e <__udivdi3+0x1ba>
    7fb4:	67c1                	lui	a5,0x10
    7fb6:	26f67263          	bgeu	a2,a5,821a <__udivdi3+0x376>
    7fba:	10063713          	sltiu	a4,a2,256
    7fbe:	00174713          	xori	a4,a4,1
    7fc2:	070e                	slli	a4,a4,0x3
    7fc4:	00e656b3          	srl	a3,a2,a4
    7fc8:	00005797          	auipc	a5,0x5
    7fcc:	e5878793          	addi	a5,a5,-424 # ce20 <__clz_tab>
    7fd0:	97b6                	add	a5,a5,a3
    7fd2:	0007c783          	lbu	a5,0(a5)
    7fd6:	02000693          	li	a3,32
    7fda:	97ba                	add	a5,a5,a4
    7fdc:	40f68eb3          	sub	t4,a3,a5
    7fe0:	08f69f63          	bne	a3,a5,807e <__udivdi3+0x1da>
    7fe4:	40c587b3          	sub	a5,a1,a2
    7fe8:	01065693          	srli	a3,a2,0x10
    7fec:	0642                	slli	a2,a2,0x10
    7fee:	8241                	srli	a2,a2,0x10
    7ff0:	4585                	li	a1,1
    7ff2:	02d7d533          	divu	a0,a5,a3
    7ff6:	0108d713          	srli	a4,a7,0x10
    7ffa:	02d7f7b3          	remu	a5,a5,a3
    7ffe:	02c50333          	mul	t1,a0,a2
    8002:	07c2                	slli	a5,a5,0x10
    8004:	8fd9                	or	a5,a5,a4
    8006:	0067fa63          	bgeu	a5,t1,801a <__udivdi3+0x176>
    800a:	97c2                	add	a5,a5,a6
    800c:	fff50713          	addi	a4,a0,-1
    8010:	0107e463          	bltu	a5,a6,8018 <__udivdi3+0x174>
    8014:	2267e663          	bltu	a5,t1,8240 <__udivdi3+0x39c>
    8018:	853a                	mv	a0,a4
    801a:	406787b3          	sub	a5,a5,t1
    801e:	02d7d733          	divu	a4,a5,a3
    8022:	08c2                	slli	a7,a7,0x10
    8024:	0108d893          	srli	a7,a7,0x10
    8028:	02d7f7b3          	remu	a5,a5,a3
    802c:	02c70633          	mul	a2,a4,a2
    8030:	07c2                	slli	a5,a5,0x10
    8032:	00f8e8b3          	or	a7,a7,a5
    8036:	00c8fb63          	bgeu	a7,a2,804c <__udivdi3+0x1a8>
    803a:	98c2                	add	a7,a7,a6
    803c:	fff70793          	addi	a5,a4,-1
    8040:	0108e563          	bltu	a7,a6,804a <__udivdi3+0x1a6>
    8044:	1779                	addi	a4,a4,-2
    8046:	00c8e363          	bltu	a7,a2,804c <__udivdi3+0x1a8>
    804a:	873e                	mv	a4,a5
    804c:	0542                	slli	a0,a0,0x10
    804e:	8d59                	or	a0,a0,a4
    8050:	8082                	ret
    8052:	10063793          	sltiu	a5,a2,256
    8056:	0017c793          	xori	a5,a5,1
    805a:	078e                	slli	a5,a5,0x3
    805c:	b5ad                	j	7ec6 <__udivdi3+0x22>
    805e:	4681                	li	a3,0
    8060:	00005797          	auipc	a5,0x5
    8064:	dc078793          	addi	a5,a5,-576 # ce20 <__clz_tab>
    8068:	97b6                	add	a5,a5,a3
    806a:	0007c783          	lbu	a5,0(a5)
    806e:	4701                	li	a4,0
    8070:	02000693          	li	a3,32
    8074:	97ba                	add	a5,a5,a4
    8076:	40f68eb3          	sub	t4,a3,a5
    807a:	f6f685e3          	beq	a3,a5,7fe4 <__udivdi3+0x140>
    807e:	01d61833          	sll	a6,a2,t4
    8082:	00f5d333          	srl	t1,a1,a5
    8086:	01085693          	srli	a3,a6,0x10
    808a:	02d35e33          	divu	t3,t1,a3
    808e:	01081613          	slli	a2,a6,0x10
    8092:	01d595b3          	sll	a1,a1,t4
    8096:	8241                	srli	a2,a2,0x10
    8098:	00f557b3          	srl	a5,a0,a5
    809c:	8fcd                	or	a5,a5,a1
    809e:	0107d713          	srli	a4,a5,0x10
    80a2:	01d518b3          	sll	a7,a0,t4
    80a6:	02d37333          	remu	t1,t1,a3
    80aa:	03c605b3          	mul	a1,a2,t3
    80ae:	0342                	slli	t1,t1,0x10
    80b0:	00676733          	or	a4,a4,t1
    80b4:	00b77b63          	bgeu	a4,a1,80ca <__udivdi3+0x226>
    80b8:	9742                	add	a4,a4,a6
    80ba:	fffe0513          	addi	a0,t3,-1 # ffff <_data_lma+0x2feb>
    80be:	17076d63          	bltu	a4,a6,8238 <__udivdi3+0x394>
    80c2:	16b77b63          	bgeu	a4,a1,8238 <__udivdi3+0x394>
    80c6:	1e79                	addi	t3,t3,-2
    80c8:	9742                	add	a4,a4,a6
    80ca:	8f0d                	sub	a4,a4,a1
    80cc:	02d75533          	divu	a0,a4,a3
    80d0:	07c2                	slli	a5,a5,0x10
    80d2:	83c1                	srli	a5,a5,0x10
    80d4:	02d77733          	remu	a4,a4,a3
    80d8:	02a60333          	mul	t1,a2,a0
    80dc:	0742                	slli	a4,a4,0x10
    80de:	8fd9                	or	a5,a5,a4
    80e0:	0067fb63          	bgeu	a5,t1,80f6 <__udivdi3+0x252>
    80e4:	97c2                	add	a5,a5,a6
    80e6:	fff50713          	addi	a4,a0,-1
    80ea:	1507e363          	bltu	a5,a6,8230 <__udivdi3+0x38c>
    80ee:	1467f163          	bgeu	a5,t1,8230 <__udivdi3+0x38c>
    80f2:	1579                	addi	a0,a0,-2
    80f4:	97c2                	add	a5,a5,a6
    80f6:	010e1593          	slli	a1,t3,0x10
    80fa:	406787b3          	sub	a5,a5,t1
    80fe:	8dc9                	or	a1,a1,a0
    8100:	bdcd                	j	7ff2 <__udivdi3+0x14e>
    8102:	1006b793          	sltiu	a5,a3,256
    8106:	0017c793          	xori	a5,a5,1
    810a:	078e                	slli	a5,a5,0x3
    810c:	00f6d833          	srl	a6,a3,a5
    8110:	00005717          	auipc	a4,0x5
    8114:	d1070713          	addi	a4,a4,-752 # ce20 <__clz_tab>
    8118:	9742                	add	a4,a4,a6
    811a:	00074703          	lbu	a4,0(a4)
    811e:	02000893          	li	a7,32
    8122:	973e                	add	a4,a4,a5
    8124:	40e88833          	sub	a6,a7,a4
    8128:	e6e88de3          	beq	a7,a4,7fa2 <__udivdi3+0xfe>
    812c:	00e65e33          	srl	t3,a2,a4
    8130:	010696b3          	sll	a3,a3,a6
    8134:	00de6e33          	or	t3,t3,a3
    8138:	00e5d8b3          	srl	a7,a1,a4
    813c:	010e5e93          	srli	t4,t3,0x10
    8140:	03d8d7b3          	divu	a5,a7,t4
    8144:	010e1313          	slli	t1,t3,0x10
    8148:	010595b3          	sll	a1,a1,a6
    814c:	01035313          	srli	t1,t1,0x10
    8150:	00e55733          	srl	a4,a0,a4
    8154:	8f4d                	or	a4,a4,a1
    8156:	01075693          	srli	a3,a4,0x10
    815a:	01061633          	sll	a2,a2,a6
    815e:	03d8f8b3          	remu	a7,a7,t4
    8162:	02f305b3          	mul	a1,t1,a5
    8166:	08c2                	slli	a7,a7,0x10
    8168:	0116e6b3          	or	a3,a3,a7
    816c:	00b6fb63          	bgeu	a3,a1,8182 <__udivdi3+0x2de>
    8170:	96f2                	add	a3,a3,t3
    8172:	fff78893          	addi	a7,a5,-1
    8176:	0dc6e363          	bltu	a3,t3,823c <__udivdi3+0x398>
    817a:	0cb6f163          	bgeu	a3,a1,823c <__udivdi3+0x398>
    817e:	17f9                	addi	a5,a5,-2
    8180:	96f2                	add	a3,a3,t3
    8182:	8e8d                	sub	a3,a3,a1
    8184:	03d6d5b3          	divu	a1,a3,t4
    8188:	0742                	slli	a4,a4,0x10
    818a:	8341                	srli	a4,a4,0x10
    818c:	03d6f6b3          	remu	a3,a3,t4
    8190:	02b308b3          	mul	a7,t1,a1
    8194:	06c2                	slli	a3,a3,0x10
    8196:	8f55                	or	a4,a4,a3
    8198:	01177b63          	bgeu	a4,a7,81ae <__udivdi3+0x30a>
    819c:	9772                	add	a4,a4,t3
    819e:	fff58693          	addi	a3,a1,-1 # 7fffff <_data_lma+0x7f2feb>
    81a2:	09c76963          	bltu	a4,t3,8234 <__udivdi3+0x390>
    81a6:	09177763          	bgeu	a4,a7,8234 <__udivdi3+0x390>
    81aa:	15f9                	addi	a1,a1,-2
    81ac:	9772                	add	a4,a4,t3
    81ae:	07c2                	slli	a5,a5,0x10
    81b0:	6ec1                	lui	t4,0x10
    81b2:	8fcd                	or	a5,a5,a1
    81b4:	fffe8693          	addi	a3,t4,-1 # ffff <_data_lma+0x2feb>
    81b8:	00d7f5b3          	and	a1,a5,a3
    81bc:	0107d313          	srli	t1,a5,0x10
    81c0:	8ef1                	and	a3,a3,a2
    81c2:	8241                	srli	a2,a2,0x10
    81c4:	02d58e33          	mul	t3,a1,a3
    81c8:	41170733          	sub	a4,a4,a7
    81cc:	02d306b3          	mul	a3,t1,a3
    81d0:	010e5893          	srli	a7,t3,0x10
    81d4:	02c585b3          	mul	a1,a1,a2
    81d8:	95b6                	add	a1,a1,a3
    81da:	95c6                	add	a1,a1,a7
    81dc:	02c30333          	mul	t1,t1,a2
    81e0:	00d5f363          	bgeu	a1,a3,81e6 <__udivdi3+0x342>
    81e4:	9376                	add	t1,t1,t4
    81e6:	0105d693          	srli	a3,a1,0x10
    81ea:	969a                	add	a3,a3,t1
    81ec:	02d76363          	bltu	a4,a3,8212 <__udivdi3+0x36e>
    81f0:	00d70563          	beq	a4,a3,81fa <__udivdi3+0x356>
    81f4:	853e                	mv	a0,a5
    81f6:	4581                	li	a1,0
    81f8:	8082                	ret
    81fa:	66c1                	lui	a3,0x10
    81fc:	16fd                	addi	a3,a3,-1 # ffff <_data_lma+0x2feb>
    81fe:	00d5f733          	and	a4,a1,a3
    8202:	0742                	slli	a4,a4,0x10
    8204:	00de7e33          	and	t3,t3,a3
    8208:	01051533          	sll	a0,a0,a6
    820c:	9772                	add	a4,a4,t3
    820e:	fee573e3          	bgeu	a0,a4,81f4 <__udivdi3+0x350>
    8212:	fff78513          	addi	a0,a5,-1
    8216:	4581                	li	a1,0
    8218:	8082                	ret
    821a:	010007b7          	lui	a5,0x1000
    821e:	02f67763          	bgeu	a2,a5,824c <__udivdi3+0x3a8>
    8222:	01065693          	srli	a3,a2,0x10
    8226:	4741                	li	a4,16
    8228:	b345                	j	7fc8 <__udivdi3+0x124>
    822a:	4581                	li	a1,0
    822c:	4505                	li	a0,1
    822e:	8082                	ret
    8230:	853a                	mv	a0,a4
    8232:	b5d1                	j	80f6 <__udivdi3+0x252>
    8234:	85b6                	mv	a1,a3
    8236:	bfa5                	j	81ae <__udivdi3+0x30a>
    8238:	8e2a                	mv	t3,a0
    823a:	bd41                	j	80ca <__udivdi3+0x226>
    823c:	87c6                	mv	a5,a7
    823e:	b791                	j	8182 <__udivdi3+0x2de>
    8240:	1579                	addi	a0,a0,-2
    8242:	97c2                	add	a5,a5,a6
    8244:	bbd9                	j	801a <__udivdi3+0x176>
    8246:	1579                	addi	a0,a0,-2
    8248:	97c2                	add	a5,a5,a6
    824a:	b1c5                	j	7f2a <__udivdi3+0x86>
    824c:	01865693          	srli	a3,a2,0x18
    8250:	4761                	li	a4,24
    8252:	bb9d                	j	7fc8 <__udivdi3+0x124>

00008254 <__adddf3>:
    8254:	001007b7          	lui	a5,0x100
    8258:	1101                	addi	sp,sp,-32
    825a:	17fd                	addi	a5,a5,-1 # fffff <_data_lma+0xf2feb>
    825c:	00b7f833          	and	a6,a5,a1
    8260:	0146d893          	srli	a7,a3,0x14
    8264:	8ff5                	and	a5,a5,a3
    8266:	cc22                	sw	s0,24(sp)
    8268:	0145d413          	srli	s0,a1,0x14
    826c:	00379713          	slli	a4,a5,0x3
    8270:	080e                	slli	a6,a6,0x3
    8272:	c84a                	sw	s2,16(sp)
    8274:	c64e                	sw	s3,12(sp)
    8276:	01d65793          	srli	a5,a2,0x1d
    827a:	01d55993          	srli	s3,a0,0x1d
    827e:	01f5d913          	srli	s2,a1,0x1f
    8282:	7ff47413          	andi	s0,s0,2047
    8286:	7ff8f893          	andi	a7,a7,2047
    828a:	ce06                	sw	ra,28(sp)
    828c:	ca26                	sw	s1,20(sp)
    828e:	82fd                	srli	a3,a3,0x1f
    8290:	0109e9b3          	or	s3,s3,a6
    8294:	8fd9                	or	a5,a5,a4
    8296:	00351593          	slli	a1,a0,0x3
    829a:	00361813          	slli	a6,a2,0x3
    829e:	41140733          	sub	a4,s0,a7
    82a2:	18d90463          	beq	s2,a3,842a <__adddf3+0x1d6>
    82a6:	10e05e63          	blez	a4,83c2 <__adddf3+0x16e>
    82aa:	20088863          	beqz	a7,84ba <__adddf3+0x266>
    82ae:	7ff00693          	li	a3,2047
    82b2:	52d40663          	beq	s0,a3,87de <__adddf3+0x58a>
    82b6:	03800693          	li	a3,56
    82ba:	4485                	li	s1,1
    82bc:	02e6c963          	blt	a3,a4,82ee <__adddf3+0x9a>
    82c0:	008006b7          	lui	a3,0x800
    82c4:	8fd5                	or	a5,a5,a3
    82c6:	46fd                	li	a3,31
    82c8:	42e6c763          	blt	a3,a4,86f6 <__adddf3+0x4a2>
    82cc:	02000693          	li	a3,32
    82d0:	8e99                	sub	a3,a3,a4
    82d2:	00d794b3          	sll	s1,a5,a3
    82d6:	00e85633          	srl	a2,a6,a4
    82da:	00d816b3          	sll	a3,a6,a3
    82de:	8cd1                	or	s1,s1,a2
    82e0:	00d036b3          	snez	a3,a3
    82e4:	00e7d733          	srl	a4,a5,a4
    82e8:	8cd5                	or	s1,s1,a3
    82ea:	40e989b3          	sub	s3,s3,a4
    82ee:	409584b3          	sub	s1,a1,s1
    82f2:	0095b7b3          	sltu	a5,a1,s1
    82f6:	40f989b3          	sub	s3,s3,a5
    82fa:	008007b7          	lui	a5,0x800
    82fe:	00f9f733          	and	a4,s3,a5
    8302:	24070863          	beqz	a4,8552 <__adddf3+0x2fe>
    8306:	17fd                	addi	a5,a5,-1 # 7fffff <_data_lma+0x7f2feb>
    8308:	00f9f9b3          	and	s3,s3,a5
    830c:	2a098663          	beqz	s3,85b8 <__adddf3+0x364>
    8310:	854e                	mv	a0,s3
    8312:	3d1020ef          	jal	ra,aee2 <__clzsi2>
    8316:	ff850713          	addi	a4,a0,-8
    831a:	02000693          	li	a3,32
    831e:	40e687b3          	sub	a5,a3,a4
    8322:	00f4d7b3          	srl	a5,s1,a5
    8326:	00e999b3          	sll	s3,s3,a4
    832a:	0137e7b3          	or	a5,a5,s3
    832e:	00e494b3          	sll	s1,s1,a4
    8332:	32874563          	blt	a4,s0,865c <__adddf3+0x408>
    8336:	8f01                	sub	a4,a4,s0
    8338:	0705                	addi	a4,a4,1
    833a:	8e99                	sub	a3,a3,a4
    833c:	00d49633          	sll	a2,s1,a3
    8340:	00e4d9b3          	srl	s3,s1,a4
    8344:	00c03633          	snez	a2,a2
    8348:	01366633          	or	a2,a2,s3
    834c:	00d796b3          	sll	a3,a5,a3
    8350:	00c6e4b3          	or	s1,a3,a2
    8354:	00e7d9b3          	srl	s3,a5,a4
    8358:	4401                	li	s0,0
    835a:	0074f793          	andi	a5,s1,7
    835e:	cf81                	beqz	a5,8376 <__adddf3+0x122>
    8360:	00f4f793          	andi	a5,s1,15
    8364:	4711                	li	a4,4
    8366:	00e78863          	beq	a5,a4,8376 <__adddf3+0x122>
    836a:	00448793          	addi	a5,s1,4
    836e:	0097b4b3          	sltu	s1,a5,s1
    8372:	99a6                	add	s3,s3,s1
    8374:	84be                	mv	s1,a5
    8376:	008007b7          	lui	a5,0x800
    837a:	00f9f7b3          	and	a5,s3,a5
    837e:	28078763          	beqz	a5,860c <__adddf3+0x3b8>
    8382:	0405                	addi	s0,s0,1
    8384:	7ff00793          	li	a5,2047
    8388:	1cf40063          	beq	s0,a5,8548 <__adddf3+0x2f4>
    838c:	ff8007b7          	lui	a5,0xff800
    8390:	17fd                	addi	a5,a5,-1 # ff7fffff <_eusrstack+0xdf7fafff>
    8392:	00f9f7b3          	and	a5,s3,a5
    8396:	01d79713          	slli	a4,a5,0x1d
    839a:	808d                	srli	s1,s1,0x3
    839c:	07a6                	slli	a5,a5,0x9
    839e:	8f45                	or	a4,a4,s1
    83a0:	83b1                	srli	a5,a5,0xc
    83a2:	7ff47413          	andi	s0,s0,2047
    83a6:	0452                	slli	s0,s0,0x14
    83a8:	097e                	slli	s2,s2,0x1f
    83aa:	8c5d                	or	s0,s0,a5
    83ac:	01246433          	or	s0,s0,s2
    83b0:	40f2                	lw	ra,28(sp)
    83b2:	85a2                	mv	a1,s0
    83b4:	4462                	lw	s0,24(sp)
    83b6:	44d2                	lw	s1,20(sp)
    83b8:	4942                	lw	s2,16(sp)
    83ba:	49b2                	lw	s3,12(sp)
    83bc:	853a                	mv	a0,a4
    83be:	6105                	addi	sp,sp,32
    83c0:	8082                	ret
    83c2:	10070f63          	beqz	a4,84e0 <__adddf3+0x28c>
    83c6:	40888733          	sub	a4,a7,s0
    83ca:	30041863          	bnez	s0,86da <__adddf3+0x486>
    83ce:	00b9e533          	or	a0,s3,a1
    83d2:	26050e63          	beqz	a0,864e <__adddf3+0x3fa>
    83d6:	fff70513          	addi	a0,a4,-1
    83da:	48050e63          	beqz	a0,8876 <__adddf3+0x622>
    83de:	7ff00313          	li	t1,2047
    83e2:	42670a63          	beq	a4,t1,8816 <__adddf3+0x5c2>
    83e6:	03800713          	li	a4,56
    83ea:	4485                	li	s1,1
    83ec:	02a74663          	blt	a4,a0,8418 <__adddf3+0x1c4>
    83f0:	872a                	mv	a4,a0
    83f2:	467d                	li	a2,31
    83f4:	44e64063          	blt	a2,a4,8834 <__adddf3+0x5e0>
    83f8:	02000613          	li	a2,32
    83fc:	8e19                	sub	a2,a2,a4
    83fe:	00c994b3          	sll	s1,s3,a2
    8402:	00e5d533          	srl	a0,a1,a4
    8406:	00c59633          	sll	a2,a1,a2
    840a:	8cc9                	or	s1,s1,a0
    840c:	00c03633          	snez	a2,a2
    8410:	00e9d733          	srl	a4,s3,a4
    8414:	8cd1                	or	s1,s1,a2
    8416:	8f99                	sub	a5,a5,a4
    8418:	409804b3          	sub	s1,a6,s1
    841c:	00983833          	sltu	a6,a6,s1
    8420:	410789b3          	sub	s3,a5,a6
    8424:	8446                	mv	s0,a7
    8426:	8936                	mv	s2,a3
    8428:	bdc9                	j	82fa <__adddf3+0xa6>
    842a:	12e05963          	blez	a4,855c <__adddf3+0x308>
    842e:	10089063          	bnez	a7,852e <__adddf3+0x2da>
    8432:	0107e6b3          	or	a3,a5,a6
    8436:	20068f63          	beqz	a3,8654 <__adddf3+0x400>
    843a:	fff70613          	addi	a2,a4,-1
    843e:	36060563          	beqz	a2,87a8 <__adddf3+0x554>
    8442:	7ff00693          	li	a3,2047
    8446:	44d70e63          	beq	a4,a3,88a2 <__adddf3+0x64e>
    844a:	03800713          	li	a4,56
    844e:	4685                	li	a3,1
    8450:	02c74663          	blt	a4,a2,847c <__adddf3+0x228>
    8454:	8732                	mv	a4,a2
    8456:	46fd                	li	a3,31
    8458:	38e6cb63          	blt	a3,a4,87ee <__adddf3+0x59a>
    845c:	02000613          	li	a2,32
    8460:	8e19                	sub	a2,a2,a4
    8462:	00c796b3          	sll	a3,a5,a2
    8466:	00e85533          	srl	a0,a6,a4
    846a:	00c81633          	sll	a2,a6,a2
    846e:	8ec9                	or	a3,a3,a0
    8470:	00c03633          	snez	a2,a2
    8474:	00e7d733          	srl	a4,a5,a4
    8478:	8ed1                	or	a3,a3,a2
    847a:	99ba                	add	s3,s3,a4
    847c:	00b687b3          	add	a5,a3,a1
    8480:	00d7b6b3          	sltu	a3,a5,a3
    8484:	84be                	mv	s1,a5
    8486:	99b6                	add	s3,s3,a3
    8488:	008007b7          	lui	a5,0x800
    848c:	00f9f7b3          	and	a5,s3,a5
    8490:	c3e9                	beqz	a5,8552 <__adddf3+0x2fe>
    8492:	0405                	addi	s0,s0,1
    8494:	7ff00793          	li	a5,2047
    8498:	0af40863          	beq	s0,a5,8548 <__adddf3+0x2f4>
    849c:	ff8007b7          	lui	a5,0xff800
    84a0:	17fd                	addi	a5,a5,-1 # ff7fffff <_eusrstack+0xdf7fafff>
    84a2:	00f9f7b3          	and	a5,s3,a5
    84a6:	0014d713          	srli	a4,s1,0x1
    84aa:	8885                	andi	s1,s1,1
    84ac:	8f45                	or	a4,a4,s1
    84ae:	01f79493          	slli	s1,a5,0x1f
    84b2:	8cd9                	or	s1,s1,a4
    84b4:	0017d993          	srli	s3,a5,0x1
    84b8:	b54d                	j	835a <__adddf3+0x106>
    84ba:	0107e6b3          	or	a3,a5,a6
    84be:	18068b63          	beqz	a3,8654 <__adddf3+0x400>
    84c2:	fff70693          	addi	a3,a4,-1
    84c6:	30068163          	beqz	a3,87c8 <__adddf3+0x574>
    84ca:	7ff00613          	li	a2,2047
    84ce:	14c70f63          	beq	a4,a2,862c <__adddf3+0x3d8>
    84d2:	03800713          	li	a4,56
    84d6:	4485                	li	s1,1
    84d8:	e0d74be3          	blt	a4,a3,82ee <__adddf3+0x9a>
    84dc:	8736                	mv	a4,a3
    84de:	b3e5                	j	82c6 <__adddf3+0x72>
    84e0:	00140713          	addi	a4,s0,1
    84e4:	7fe77713          	andi	a4,a4,2046
    84e8:	1c071563          	bnez	a4,86b2 <__adddf3+0x45e>
    84ec:	00b9e8b3          	or	a7,s3,a1
    84f0:	0107e733          	or	a4,a5,a6
    84f4:	2a041063          	bnez	s0,8794 <__adddf3+0x540>
    84f8:	38088b63          	beqz	a7,888e <__adddf3+0x63a>
    84fc:	3a070c63          	beqz	a4,88b4 <__adddf3+0x660>
    8500:	410584b3          	sub	s1,a1,a6
    8504:	0095b733          	sltu	a4,a1,s1
    8508:	40f98633          	sub	a2,s3,a5
    850c:	8e19                	sub	a2,a2,a4
    850e:	00800737          	lui	a4,0x800
    8512:	8f71                	and	a4,a4,a2
    8514:	40070163          	beqz	a4,8916 <__adddf3+0x6c2>
    8518:	40b805b3          	sub	a1,a6,a1
    851c:	413787b3          	sub	a5,a5,s3
    8520:	00b83833          	sltu	a6,a6,a1
    8524:	84ae                	mv	s1,a1
    8526:	410789b3          	sub	s3,a5,a6
    852a:	8936                	mv	s2,a3
    852c:	b53d                	j	835a <__adddf3+0x106>
    852e:	7ff00693          	li	a3,2047
    8532:	0ed40d63          	beq	s0,a3,862c <__adddf3+0x3d8>
    8536:	03800613          	li	a2,56
    853a:	4685                	li	a3,1
    853c:	f4e640e3          	blt	a2,a4,847c <__adddf3+0x228>
    8540:	008006b7          	lui	a3,0x800
    8544:	8fd5                	or	a5,a5,a3
    8546:	bf01                	j	8456 <__adddf3+0x202>
    8548:	7ff00413          	li	s0,2047
    854c:	4781                	li	a5,0
    854e:	4701                	li	a4,0
    8550:	bd99                	j	83a6 <__adddf3+0x152>
    8552:	0074f713          	andi	a4,s1,7
    8556:	e00715e3          	bnez	a4,8360 <__adddf3+0x10c>
    855a:	aa89                	j	86ac <__adddf3+0x458>
    855c:	10070763          	beqz	a4,866a <__adddf3+0x416>
    8560:	40888733          	sub	a4,a7,s0
    8564:	1a040d63          	beqz	s0,871e <__adddf3+0x4ca>
    8568:	7ff00693          	li	a3,2047
    856c:	2ad88d63          	beq	a7,a3,8826 <__adddf3+0x5d2>
    8570:	03800613          	li	a2,56
    8574:	4685                	li	a3,1
    8576:	02e64963          	blt	a2,a4,85a8 <__adddf3+0x354>
    857a:	008006b7          	lui	a3,0x800
    857e:	00d9e9b3          	or	s3,s3,a3
    8582:	46fd                	li	a3,31
    8584:	36e6c663          	blt	a3,a4,88f0 <__adddf3+0x69c>
    8588:	02000613          	li	a2,32
    858c:	8e19                	sub	a2,a2,a4
    858e:	00c996b3          	sll	a3,s3,a2
    8592:	00e5d533          	srl	a0,a1,a4
    8596:	00c59633          	sll	a2,a1,a2
    859a:	8ec9                	or	a3,a3,a0
    859c:	00c03633          	snez	a2,a2
    85a0:	00e9d733          	srl	a4,s3,a4
    85a4:	8ed1                	or	a3,a3,a2
    85a6:	97ba                	add	a5,a5,a4
    85a8:	9836                	add	a6,a6,a3
    85aa:	00d836b3          	sltu	a3,a6,a3
    85ae:	84c2                	mv	s1,a6
    85b0:	00f689b3          	add	s3,a3,a5
    85b4:	8446                	mv	s0,a7
    85b6:	bdc9                	j	8488 <__adddf3+0x234>
    85b8:	8526                	mv	a0,s1
    85ba:	129020ef          	jal	ra,aee2 <__clzsi2>
    85be:	01850713          	addi	a4,a0,24
    85c2:	46fd                	li	a3,31
    85c4:	d4e6dbe3          	bge	a3,a4,831a <__adddf3+0xc6>
    85c8:	ff850793          	addi	a5,a0,-8
    85cc:	00f497b3          	sll	a5,s1,a5
    85d0:	16874963          	blt	a4,s0,8742 <__adddf3+0x4ee>
    85d4:	408704b3          	sub	s1,a4,s0
    85d8:	00148713          	addi	a4,s1,1
    85dc:	34e6db63          	bge	a3,a4,8932 <__adddf3+0x6de>
    85e0:	1485                	addi	s1,s1,-31
    85e2:	02000693          	li	a3,32
    85e6:	0097d4b3          	srl	s1,a5,s1
    85ea:	00d70b63          	beq	a4,a3,8600 <__adddf3+0x3ac>
    85ee:	04000693          	li	a3,64
    85f2:	40e68733          	sub	a4,a3,a4
    85f6:	00e797b3          	sll	a5,a5,a4
    85fa:	00f037b3          	snez	a5,a5
    85fe:	8cdd                	or	s1,s1,a5
    8600:	0074f713          	andi	a4,s1,7
    8604:	4401                	li	s0,0
    8606:	d4071de3          	bnez	a4,8360 <__adddf3+0x10c>
    860a:	a04d                	j	86ac <__adddf3+0x458>
    860c:	0034d793          	srli	a5,s1,0x3
    8610:	01d99713          	slli	a4,s3,0x1d
    8614:	7ff00693          	li	a3,2047
    8618:	8f5d                	or	a4,a4,a5
    861a:	0039d793          	srli	a5,s3,0x3
    861e:	00d40f63          	beq	s0,a3,863c <__adddf3+0x3e8>
    8622:	07b2                	slli	a5,a5,0xc
    8624:	83b1                	srli	a5,a5,0xc
    8626:	7ff47413          	andi	s0,s0,2047
    862a:	bbb5                	j	83a6 <__adddf3+0x152>
    862c:	050e                	slli	a0,a0,0x3
    862e:	01d99793          	slli	a5,s3,0x1d
    8632:	00355713          	srli	a4,a0,0x3
    8636:	8f5d                	or	a4,a4,a5
    8638:	0039d793          	srli	a5,s3,0x3
    863c:	8f5d                	or	a4,a4,a5
    863e:	d709                	beqz	a4,8548 <__adddf3+0x2f4>
    8640:	4901                	li	s2,0
    8642:	7ff00413          	li	s0,2047
    8646:	000807b7          	lui	a5,0x80
    864a:	4701                	li	a4,0
    864c:	bba9                	j	83a6 <__adddf3+0x152>
    864e:	85c2                	mv	a1,a6
    8650:	89be                	mv	s3,a5
    8652:	8936                	mv	s2,a3
    8654:	0035d793          	srli	a5,a1,0x3
    8658:	843a                	mv	s0,a4
    865a:	bf5d                	j	8610 <__adddf3+0x3bc>
    865c:	ff8009b7          	lui	s3,0xff800
    8660:	19fd                	addi	s3,s3,-1 # ff7fffff <_eusrstack+0xdf7fafff>
    8662:	8c19                	sub	s0,s0,a4
    8664:	0137f9b3          	and	s3,a5,s3
    8668:	b9cd                	j	835a <__adddf3+0x106>
    866a:	00140693          	addi	a3,s0,1
    866e:	7fe6f713          	andi	a4,a3,2046
    8672:	e36d                	bnez	a4,8754 <__adddf3+0x500>
    8674:	00b9e733          	or	a4,s3,a1
    8678:	1e041163          	bnez	s0,885a <__adddf3+0x606>
    867c:	24070a63          	beqz	a4,88d0 <__adddf3+0x67c>
    8680:	0107e733          	or	a4,a5,a6
    8684:	24070d63          	beqz	a4,88de <__adddf3+0x68a>
    8688:	982e                	add	a6,a6,a1
    868a:	97ce                	add	a5,a5,s3
    868c:	00b835b3          	sltu	a1,a6,a1
    8690:	00b789b3          	add	s3,a5,a1
    8694:	00800737          	lui	a4,0x800
    8698:	00e9f733          	and	a4,s3,a4
    869c:	84c2                	mv	s1,a6
    869e:	c719                	beqz	a4,86ac <__adddf3+0x458>
    86a0:	ff8007b7          	lui	a5,0xff800
    86a4:	17fd                	addi	a5,a5,-1 # ff7fffff <_eusrstack+0xdf7fafff>
    86a6:	00f9f9b3          	and	s3,s3,a5
    86aa:	4405                	li	s0,1
    86ac:	85a6                	mv	a1,s1
    86ae:	8722                	mv	a4,s0
    86b0:	b755                	j	8654 <__adddf3+0x400>
    86b2:	410584b3          	sub	s1,a1,a6
    86b6:	0095b733          	sltu	a4,a1,s1
    86ba:	40f98633          	sub	a2,s3,a5
    86be:	8e19                	sub	a2,a2,a4
    86c0:	00800737          	lui	a4,0x800
    86c4:	8f71                	and	a4,a4,a2
    86c6:	ef45                	bnez	a4,877e <__adddf3+0x52a>
    86c8:	00c4e733          	or	a4,s1,a2
    86cc:	89b2                	mv	s3,a2
    86ce:	c2071fe3          	bnez	a4,830c <__adddf3+0xb8>
    86d2:	4901                	li	s2,0
    86d4:	4401                	li	s0,0
    86d6:	4781                	li	a5,0
    86d8:	b1f9                	j	83a6 <__adddf3+0x152>
    86da:	7ff00513          	li	a0,2047
    86de:	12a88c63          	beq	a7,a0,8816 <__adddf3+0x5c2>
    86e2:	03800613          	li	a2,56
    86e6:	4485                	li	s1,1
    86e8:	d2e648e3          	blt	a2,a4,8418 <__adddf3+0x1c4>
    86ec:	00800637          	lui	a2,0x800
    86f0:	00c9e9b3          	or	s3,s3,a2
    86f4:	b9fd                	j	83f2 <__adddf3+0x19e>
    86f6:	fe070693          	addi	a3,a4,-32 # 7fffe0 <_data_lma+0x7f2fcc>
    86fa:	02000613          	li	a2,32
    86fe:	00d7d6b3          	srl	a3,a5,a3
    8702:	00c70a63          	beq	a4,a2,8716 <__adddf3+0x4c2>
    8706:	04000613          	li	a2,64
    870a:	40e60733          	sub	a4,a2,a4
    870e:	00e797b3          	sll	a5,a5,a4
    8712:	00f86833          	or	a6,a6,a5
    8716:	010034b3          	snez	s1,a6
    871a:	8cd5                	or	s1,s1,a3
    871c:	bec9                	j	82ee <__adddf3+0x9a>
    871e:	00b9e6b3          	or	a3,s3,a1
    8722:	1a068263          	beqz	a3,88c6 <__adddf3+0x672>
    8726:	fff70513          	addi	a0,a4,-1
    872a:	cd3d                	beqz	a0,87a8 <__adddf3+0x554>
    872c:	7ff00693          	li	a3,2047
    8730:	0ed70b63          	beq	a4,a3,8826 <__adddf3+0x5d2>
    8734:	03800713          	li	a4,56
    8738:	4685                	li	a3,1
    873a:	e6a747e3          	blt	a4,a0,85a8 <__adddf3+0x354>
    873e:	872a                	mv	a4,a0
    8740:	b589                	j	8582 <__adddf3+0x32e>
    8742:	ff8006b7          	lui	a3,0xff800
    8746:	16fd                	addi	a3,a3,-1 # ff7fffff <_eusrstack+0xdf7fafff>
    8748:	8ff5                	and	a5,a5,a3
    874a:	8c19                	sub	s0,s0,a4
    874c:	01d79713          	slli	a4,a5,0x1d
    8750:	838d                	srli	a5,a5,0x3
    8752:	bdc1                	j	8622 <__adddf3+0x3ce>
    8754:	7ff00713          	li	a4,2047
    8758:	dee688e3          	beq	a3,a4,8548 <__adddf3+0x2f4>
    875c:	01058733          	add	a4,a1,a6
    8760:	97ce                	add	a5,a5,s3
    8762:	00b735b3          	sltu	a1,a4,a1
    8766:	97ae                	add	a5,a5,a1
    8768:	8305                	srli	a4,a4,0x1
    876a:	01f79493          	slli	s1,a5,0x1f
    876e:	8cd9                	or	s1,s1,a4
    8770:	8b1d                	andi	a4,a4,7
    8772:	0017d993          	srli	s3,a5,0x1
    8776:	8436                	mv	s0,a3
    8778:	be0714e3          	bnez	a4,8360 <__adddf3+0x10c>
    877c:	bf05                	j	86ac <__adddf3+0x458>
    877e:	40b805b3          	sub	a1,a6,a1
    8782:	413787b3          	sub	a5,a5,s3
    8786:	00b83833          	sltu	a6,a6,a1
    878a:	84ae                	mv	s1,a1
    878c:	410789b3          	sub	s3,a5,a6
    8790:	8936                	mv	s2,a3
    8792:	bead                	j	830c <__adddf3+0xb8>
    8794:	12089c63          	bnez	a7,88cc <__adddf3+0x678>
    8798:	18071563          	bnez	a4,8922 <__adddf3+0x6ce>
    879c:	4901                	li	s2,0
    879e:	7ff00413          	li	s0,2047
    87a2:	000807b7          	lui	a5,0x80
    87a6:	b101                	j	83a6 <__adddf3+0x152>
    87a8:	982e                	add	a6,a6,a1
    87aa:	97ce                	add	a5,a5,s3
    87ac:	00b835b3          	sltu	a1,a6,a1
    87b0:	00b789b3          	add	s3,a5,a1
    87b4:	008007b7          	lui	a5,0x800
    87b8:	00f9f7b3          	and	a5,s3,a5
    87bc:	84c2                	mv	s1,a6
    87be:	4405                	li	s0,1
    87c0:	d80789e3          	beqz	a5,8552 <__adddf3+0x2fe>
    87c4:	4409                	li	s0,2
    87c6:	b9d9                	j	849c <__adddf3+0x248>
    87c8:	41058833          	sub	a6,a1,a6
    87cc:	40f987b3          	sub	a5,s3,a5
    87d0:	0105b5b3          	sltu	a1,a1,a6
    87d4:	84c2                	mv	s1,a6
    87d6:	40b789b3          	sub	s3,a5,a1
    87da:	4405                	li	s0,1
    87dc:	be39                	j	82fa <__adddf3+0xa6>
    87de:	050e                	slli	a0,a0,0x3
    87e0:	810d                	srli	a0,a0,0x3
    87e2:	01d99713          	slli	a4,s3,0x1d
    87e6:	8f49                	or	a4,a4,a0
    87e8:	0039d793          	srli	a5,s3,0x3
    87ec:	bd81                	j	863c <__adddf3+0x3e8>
    87ee:	fe070613          	addi	a2,a4,-32
    87f2:	02000693          	li	a3,32
    87f6:	00c7d633          	srl	a2,a5,a2
    87fa:	00d70a63          	beq	a4,a3,880e <__adddf3+0x5ba>
    87fe:	04000693          	li	a3,64
    8802:	40e68733          	sub	a4,a3,a4
    8806:	00e797b3          	sll	a5,a5,a4
    880a:	00f86833          	or	a6,a6,a5
    880e:	010036b3          	snez	a3,a6
    8812:	8ed1                	or	a3,a3,a2
    8814:	b1a5                	j	847c <__adddf3+0x228>
    8816:	060e                	slli	a2,a2,0x3
    8818:	01d79713          	slli	a4,a5,0x1d
    881c:	820d                	srli	a2,a2,0x3
    881e:	8f51                	or	a4,a4,a2
    8820:	838d                	srli	a5,a5,0x3
    8822:	8936                	mv	s2,a3
    8824:	bd21                	j	863c <__adddf3+0x3e8>
    8826:	060e                	slli	a2,a2,0x3
    8828:	01d79713          	slli	a4,a5,0x1d
    882c:	820d                	srli	a2,a2,0x3
    882e:	8f51                	or	a4,a4,a2
    8830:	838d                	srli	a5,a5,0x3
    8832:	b529                	j	863c <__adddf3+0x3e8>
    8834:	fe070613          	addi	a2,a4,-32
    8838:	02000513          	li	a0,32
    883c:	00c9d633          	srl	a2,s3,a2
    8840:	00a70963          	beq	a4,a0,8852 <__adddf3+0x5fe>
    8844:	04000513          	li	a0,64
    8848:	40e50733          	sub	a4,a0,a4
    884c:	00e99733          	sll	a4,s3,a4
    8850:	8dd9                	or	a1,a1,a4
    8852:	00b034b3          	snez	s1,a1
    8856:	8cd1                	or	s1,s1,a2
    8858:	b6c1                	j	8418 <__adddf3+0x1c4>
    885a:	d771                	beqz	a4,8826 <__adddf3+0x5d2>
    885c:	0107e833          	or	a6,a5,a6
    8860:	de0810e3          	bnez	a6,8640 <__adddf3+0x3ec>
    8864:	050e                	slli	a0,a0,0x3
    8866:	01d99793          	slli	a5,s3,0x1d
    886a:	810d                	srli	a0,a0,0x3
    886c:	00f56733          	or	a4,a0,a5
    8870:	0039d793          	srli	a5,s3,0x3
    8874:	b3e1                	j	863c <__adddf3+0x3e8>
    8876:	40b805b3          	sub	a1,a6,a1
    887a:	413787b3          	sub	a5,a5,s3
    887e:	00b83833          	sltu	a6,a6,a1
    8882:	84ae                	mv	s1,a1
    8884:	410789b3          	sub	s3,a5,a6
    8888:	8936                	mv	s2,a3
    888a:	4405                	li	s0,1
    888c:	b4bd                	j	82fa <__adddf3+0xa6>
    888e:	e40702e3          	beqz	a4,86d2 <__adddf3+0x47e>
    8892:	060e                	slli	a2,a2,0x3
    8894:	01d79713          	slli	a4,a5,0x1d
    8898:	820d                	srli	a2,a2,0x3
    889a:	8f51                	or	a4,a4,a2
    889c:	838d                	srli	a5,a5,0x3
    889e:	8936                	mv	s2,a3
    88a0:	b349                	j	8622 <__adddf3+0x3ce>
    88a2:	00351793          	slli	a5,a0,0x3
    88a6:	838d                	srli	a5,a5,0x3
    88a8:	01d99713          	slli	a4,s3,0x1d
    88ac:	8f5d                	or	a4,a4,a5
    88ae:	0039d793          	srli	a5,s3,0x3
    88b2:	b369                	j	863c <__adddf3+0x3e8>
    88b4:	00351793          	slli	a5,a0,0x3
    88b8:	838d                	srli	a5,a5,0x3
    88ba:	01d99713          	slli	a4,s3,0x1d
    88be:	8f5d                	or	a4,a4,a5
    88c0:	0039d793          	srli	a5,s3,0x3
    88c4:	bbb9                	j	8622 <__adddf3+0x3ce>
    88c6:	85c2                	mv	a1,a6
    88c8:	89be                	mv	s3,a5
    88ca:	b369                	j	8654 <__adddf3+0x400>
    88cc:	df41                	beqz	a4,8864 <__adddf3+0x610>
    88ce:	bb8d                	j	8640 <__adddf3+0x3ec>
    88d0:	060e                	slli	a2,a2,0x3
    88d2:	01d79713          	slli	a4,a5,0x1d
    88d6:	820d                	srli	a2,a2,0x3
    88d8:	8f51                	or	a4,a4,a2
    88da:	838d                	srli	a5,a5,0x3
    88dc:	b399                	j	8622 <__adddf3+0x3ce>
    88de:	050e                	slli	a0,a0,0x3
    88e0:	01d99793          	slli	a5,s3,0x1d
    88e4:	810d                	srli	a0,a0,0x3
    88e6:	00f56733          	or	a4,a0,a5
    88ea:	0039d793          	srli	a5,s3,0x3
    88ee:	bb15                	j	8622 <__adddf3+0x3ce>
    88f0:	fe070613          	addi	a2,a4,-32
    88f4:	02000693          	li	a3,32
    88f8:	00c9d633          	srl	a2,s3,a2
    88fc:	00d70963          	beq	a4,a3,890e <__adddf3+0x6ba>
    8900:	04000693          	li	a3,64
    8904:	40e68733          	sub	a4,a3,a4
    8908:	00e99733          	sll	a4,s3,a4
    890c:	8dd9                	or	a1,a1,a4
    890e:	00b036b3          	snez	a3,a1
    8912:	8ed1                	or	a3,a3,a2
    8914:	b951                	j	85a8 <__adddf3+0x354>
    8916:	00c4e733          	or	a4,s1,a2
    891a:	89b2                	mv	s3,a2
    891c:	d80718e3          	bnez	a4,86ac <__adddf3+0x458>
    8920:	bb4d                	j	86d2 <__adddf3+0x47e>
    8922:	060e                	slli	a2,a2,0x3
    8924:	01d79713          	slli	a4,a5,0x1d
    8928:	820d                	srli	a2,a2,0x3
    892a:	8f51                	or	a4,a4,a2
    892c:	838d                	srli	a5,a5,0x3
    892e:	8936                	mv	s2,a3
    8930:	b331                	j	863c <__adddf3+0x3e8>
    8932:	02000693          	li	a3,32
    8936:	8e99                	sub	a3,a3,a4
    8938:	4601                	li	a2,0
    893a:	b439                	j	8348 <__adddf3+0xf4>

0000893c <__divdf3>:
    893c:	7179                	addi	sp,sp,-48
    893e:	0145d793          	srli	a5,a1,0x14
    8942:	d422                	sw	s0,40(sp)
    8944:	d226                	sw	s1,36(sp)
    8946:	d04a                	sw	s2,32(sp)
    8948:	ca56                	sw	s5,20(sp)
    894a:	c65e                	sw	s7,12(sp)
    894c:	00c59493          	slli	s1,a1,0xc
    8950:	d606                	sw	ra,44(sp)
    8952:	ce4e                	sw	s3,28(sp)
    8954:	cc52                	sw	s4,24(sp)
    8956:	c85a                	sw	s6,16(sp)
    8958:	c462                	sw	s8,8(sp)
    895a:	7ff7f793          	andi	a5,a5,2047
    895e:	842a                	mv	s0,a0
    8960:	8bb2                	mv	s7,a2
    8962:	8936                	mv	s2,a3
    8964:	80b1                	srli	s1,s1,0xc
    8966:	01f5da93          	srli	s5,a1,0x1f
    896a:	10078c63          	beqz	a5,8a82 <__divdf3+0x146>
    896e:	7ff00713          	li	a4,2047
    8972:	14e78763          	beq	a5,a4,8ac0 <__divdf3+0x184>
    8976:	048e                	slli	s1,s1,0x3
    8978:	01d55b13          	srli	s6,a0,0x1d
    897c:	009b6b33          	or	s6,s6,s1
    8980:	00800737          	lui	a4,0x800
    8984:	00eb6b33          	or	s6,s6,a4
    8988:	00351a13          	slli	s4,a0,0x3
    898c:	c0178993          	addi	s3,a5,-1023 # 7ffc01 <_data_lma+0x7f2bed>
    8990:	4481                	li	s1,0
    8992:	4c01                	li	s8,0
    8994:	01495793          	srli	a5,s2,0x14
    8998:	00c91413          	slli	s0,s2,0xc
    899c:	7ff7f793          	andi	a5,a5,2047
    89a0:	8031                	srli	s0,s0,0xc
    89a2:	01f95913          	srli	s2,s2,0x1f
    89a6:	c3d5                	beqz	a5,8a4a <__divdf3+0x10e>
    89a8:	7ff00713          	li	a4,2047
    89ac:	08e78463          	beq	a5,a4,8a34 <__divdf3+0xf8>
    89b0:	040e                	slli	s0,s0,0x3
    89b2:	01dbd713          	srli	a4,s7,0x1d
    89b6:	8f41                	or	a4,a4,s0
    89b8:	c0178793          	addi	a5,a5,-1023
    89bc:	00800437          	lui	s0,0x800
    89c0:	8c59                	or	s0,s0,a4
    89c2:	003b9893          	slli	a7,s7,0x3
    89c6:	40f989b3          	sub	s3,s3,a5
    89ca:	4601                	li	a2,0
    89cc:	473d                	li	a4,15
    89ce:	012ac6b3          	xor	a3,s5,s2
    89d2:	18976863          	bltu	a4,s1,8b62 <__divdf3+0x226>
    89d6:	00004717          	auipc	a4,0x4
    89da:	36270713          	addi	a4,a4,866 # cd38 <MyDevDescr+0x14>
    89de:	048a                	slli	s1,s1,0x2
    89e0:	94ba                	add	s1,s1,a4
    89e2:	409c                	lw	a5,0(s1)
    89e4:	97ba                	add	a5,a5,a4
    89e6:	8782                	jr	a5
    89e8:	8f1d                	sub	a4,a4,a5
    89ea:	03800613          	li	a2,56
    89ee:	40e65c63          	bge	a2,a4,8e06 <__divdf3+0x4ca>
    89f2:	4781                	li	a5,0
    89f4:	4601                	li	a2,0
    89f6:	4701                	li	a4,0
    89f8:	50b2                	lw	ra,44(sp)
    89fa:	5422                	lw	s0,40(sp)
    89fc:	07d2                	slli	a5,a5,0x14
    89fe:	8fd1                	or	a5,a5,a2
    8a00:	06fe                	slli	a3,a3,0x1f
    8a02:	8fd5                	or	a5,a5,a3
    8a04:	5492                	lw	s1,36(sp)
    8a06:	5902                	lw	s2,32(sp)
    8a08:	49f2                	lw	s3,28(sp)
    8a0a:	4a62                	lw	s4,24(sp)
    8a0c:	4ad2                	lw	s5,20(sp)
    8a0e:	4b42                	lw	s6,16(sp)
    8a10:	4bb2                	lw	s7,12(sp)
    8a12:	4c22                	lw	s8,8(sp)
    8a14:	853a                	mv	a0,a4
    8a16:	85be                	mv	a1,a5
    8a18:	6145                	addi	sp,sp,48
    8a1a:	8082                	ret
    8a1c:	7ff00793          	li	a5,2047
    8a20:	4601                	li	a2,0
    8a22:	4701                	li	a4,0
    8a24:	bfd1                	j	89f8 <__divdf3+0xbc>
    8a26:	4681                	li	a3,0
    8a28:	7ff00793          	li	a5,2047
    8a2c:	00080637          	lui	a2,0x80
    8a30:	4701                	li	a4,0
    8a32:	b7d9                	j	89f8 <__divdf3+0xbc>
    8a34:	017468b3          	or	a7,s0,s7
    8a38:	80198993          	addi	s3,s3,-2047
    8a3c:	10089963          	bnez	a7,8b4e <__divdf3+0x212>
    8a40:	0024e493          	ori	s1,s1,2
    8a44:	4401                	li	s0,0
    8a46:	4609                	li	a2,2
    8a48:	b751                	j	89cc <__divdf3+0x90>
    8a4a:	017468b3          	or	a7,s0,s7
    8a4e:	0e088b63          	beqz	a7,8b44 <__divdf3+0x208>
    8a52:	36040663          	beqz	s0,8dbe <__divdf3+0x482>
    8a56:	8522                	mv	a0,s0
    8a58:	48a020ef          	jal	ra,aee2 <__clzsi2>
    8a5c:	87aa                	mv	a5,a0
    8a5e:	ff550693          	addi	a3,a0,-11
    8a62:	4775                	li	a4,29
    8a64:	ff878893          	addi	a7,a5,-8
    8a68:	8f15                	sub	a4,a4,a3
    8a6a:	01141433          	sll	s0,s0,a7
    8a6e:	00ebd733          	srl	a4,s7,a4
    8a72:	8c59                	or	s0,s0,a4
    8a74:	011b98b3          	sll	a7,s7,a7
    8a78:	97ce                	add	a5,a5,s3
    8a7a:	3f378993          	addi	s3,a5,1011
    8a7e:	4601                	li	a2,0
    8a80:	b7b1                	j	89cc <__divdf3+0x90>
    8a82:	00a4eb33          	or	s6,s1,a0
    8a86:	0c0b0963          	beqz	s6,8b58 <__divdf3+0x21c>
    8a8a:	30048b63          	beqz	s1,8da0 <__divdf3+0x464>
    8a8e:	8526                	mv	a0,s1
    8a90:	452020ef          	jal	ra,aee2 <__clzsi2>
    8a94:	872a                	mv	a4,a0
    8a96:	ff550693          	addi	a3,a0,-11
    8a9a:	47f5                	li	a5,29
    8a9c:	ff870a13          	addi	s4,a4,-8
    8aa0:	8f95                	sub	a5,a5,a3
    8aa2:	014494b3          	sll	s1,s1,s4
    8aa6:	00f457b3          	srl	a5,s0,a5
    8aaa:	0097eb33          	or	s6,a5,s1
    8aae:	01441a33          	sll	s4,s0,s4
    8ab2:	c0d00793          	li	a5,-1011
    8ab6:	40e789b3          	sub	s3,a5,a4
    8aba:	4481                	li	s1,0
    8abc:	4c01                	li	s8,0
    8abe:	bdd9                	j	8994 <__divdf3+0x58>
    8ac0:	00a4eb33          	or	s6,s1,a0
    8ac4:	060b1963          	bnez	s6,8b36 <__divdf3+0x1fa>
    8ac8:	4a01                	li	s4,0
    8aca:	44a1                	li	s1,8
    8acc:	7ff00993          	li	s3,2047
    8ad0:	4c09                	li	s8,2
    8ad2:	b5c9                	j	8994 <__divdf3+0x58>
    8ad4:	8c32                	mv	s8,a2
    8ad6:	4789                	li	a5,2
    8ad8:	3efc0263          	beq	s8,a5,8ebc <__divdf3+0x580>
    8adc:	478d                	li	a5,3
    8ade:	f4fc04e3          	beq	s8,a5,8a26 <__divdf3+0xea>
    8ae2:	4785                	li	a5,1
    8ae4:	86ca                	mv	a3,s2
    8ae6:	f0fc06e3          	beq	s8,a5,89f2 <__divdf3+0xb6>
    8aea:	3ff98793          	addi	a5,s3,1023
    8aee:	22f05063          	blez	a5,8d0e <__divdf3+0x3d2>
    8af2:	0078f713          	andi	a4,a7,7
    8af6:	3a071963          	bnez	a4,8ea8 <__divdf3+0x56c>
    8afa:	01000737          	lui	a4,0x1000
    8afe:	8f61                	and	a4,a4,s0
    8b00:	c719                	beqz	a4,8b0e <__divdf3+0x1d2>
    8b02:	ff0007b7          	lui	a5,0xff000
    8b06:	17fd                	addi	a5,a5,-1 # feffffff <_eusrstack+0xdeffafff>
    8b08:	8c7d                	and	s0,s0,a5
    8b0a:	40098793          	addi	a5,s3,1024
    8b0e:	7fe00713          	li	a4,2046
    8b12:	f0f745e3          	blt	a4,a5,8a1c <__divdf3+0xe0>
    8b16:	0038d893          	srli	a7,a7,0x3
    8b1a:	01d41713          	slli	a4,s0,0x1d
    8b1e:	00941613          	slli	a2,s0,0x9
    8b22:	01176733          	or	a4,a4,a7
    8b26:	8231                	srli	a2,a2,0xc
    8b28:	7ff7f793          	andi	a5,a5,2047
    8b2c:	b5f1                	j	89f8 <__divdf3+0xbc>
    8b2e:	8956                	mv	s2,s5
    8b30:	845a                	mv	s0,s6
    8b32:	88d2                	mv	a7,s4
    8b34:	b74d                	j	8ad6 <__divdf3+0x19a>
    8b36:	8b26                	mv	s6,s1
    8b38:	8a2a                	mv	s4,a0
    8b3a:	44b1                	li	s1,12
    8b3c:	7ff00993          	li	s3,2047
    8b40:	4c0d                	li	s8,3
    8b42:	bd89                	j	8994 <__divdf3+0x58>
    8b44:	0014e493          	ori	s1,s1,1
    8b48:	4401                	li	s0,0
    8b4a:	4605                	li	a2,1
    8b4c:	b541                	j	89cc <__divdf3+0x90>
    8b4e:	0034e493          	ori	s1,s1,3
    8b52:	88de                	mv	a7,s7
    8b54:	460d                	li	a2,3
    8b56:	bd9d                	j	89cc <__divdf3+0x90>
    8b58:	4a01                	li	s4,0
    8b5a:	4491                	li	s1,4
    8b5c:	4981                	li	s3,0
    8b5e:	4c05                	li	s8,1
    8b60:	bd15                	j	8994 <__divdf3+0x58>
    8b62:	23646563          	bltu	s0,s6,8d8c <__divdf3+0x450>
    8b66:	228b0163          	beq	s6,s0,8d88 <__divdf3+0x44c>
    8b6a:	8352                	mv	t1,s4
    8b6c:	19fd                	addi	s3,s3,-1
    8b6e:	87da                	mv	a5,s6
    8b70:	4a01                	li	s4,0
    8b72:	00841713          	slli	a4,s0,0x8
    8b76:	01075513          	srli	a0,a4,0x10
    8b7a:	02a7d433          	divu	s0,a5,a0
    8b7e:	0188d613          	srli	a2,a7,0x18
    8b82:	8e59                	or	a2,a2,a4
    8b84:	01061813          	slli	a6,a2,0x10
    8b88:	01085813          	srli	a6,a6,0x10
    8b8c:	00889593          	slli	a1,a7,0x8
    8b90:	01035713          	srli	a4,t1,0x10
    8b94:	02a7f7b3          	remu	a5,a5,a0
    8b98:	028808b3          	mul	a7,a6,s0
    8b9c:	07c2                	slli	a5,a5,0x10
    8b9e:	8fd9                	or	a5,a5,a4
    8ba0:	0117f863          	bgeu	a5,a7,8bb0 <__divdf3+0x274>
    8ba4:	97b2                	add	a5,a5,a2
    8ba6:	fff40713          	addi	a4,s0,-1 # 7fffff <_data_lma+0x7f2feb>
    8baa:	24c7f963          	bgeu	a5,a2,8dfc <__divdf3+0x4c0>
    8bae:	843a                	mv	s0,a4
    8bb0:	411787b3          	sub	a5,a5,a7
    8bb4:	02a7d8b3          	divu	a7,a5,a0
    8bb8:	01031713          	slli	a4,t1,0x10
    8bbc:	8341                	srli	a4,a4,0x10
    8bbe:	02a7f7b3          	remu	a5,a5,a0
    8bc2:	03180fb3          	mul	t6,a6,a7
    8bc6:	07c2                	slli	a5,a5,0x10
    8bc8:	8f5d                	or	a4,a4,a5
    8bca:	01f77863          	bgeu	a4,t6,8bda <__divdf3+0x29e>
    8bce:	9732                	add	a4,a4,a2
    8bd0:	fff88793          	addi	a5,a7,-1
    8bd4:	20c77f63          	bgeu	a4,a2,8df2 <__divdf3+0x4b6>
    8bd8:	88be                	mv	a7,a5
    8bda:	0442                	slli	s0,s0,0x10
    8bdc:	62c1                	lui	t0,0x10
    8bde:	01146433          	or	s0,s0,a7
    8be2:	fff28313          	addi	t1,t0,-1 # ffff <_data_lma+0x2feb>
    8be6:	006478b3          	and	a7,s0,t1
    8bea:	01045e93          	srli	t4,s0,0x10
    8bee:	0105de13          	srli	t3,a1,0x10
    8bf2:	0065f333          	and	t1,a1,t1
    8bf6:	03130f33          	mul	t5,t1,a7
    8bfa:	41f70733          	sub	a4,a4,t6
    8bfe:	031e08b3          	mul	a7,t3,a7
    8c02:	010f5793          	srli	a5,t5,0x10
    8c06:	026e8fb3          	mul	t6,t4,t1
    8c0a:	98fe                	add	a7,a7,t6
    8c0c:	97c6                	add	a5,a5,a7
    8c0e:	03ce8eb3          	mul	t4,t4,t3
    8c12:	01f7f363          	bgeu	a5,t6,8c18 <__divdf3+0x2dc>
    8c16:	9e96                	add	t4,t4,t0
    8c18:	6fc1                	lui	t6,0x10
    8c1a:	1ffd                	addi	t6,t6,-1 # ffff <_data_lma+0x2feb>
    8c1c:	0107d893          	srli	a7,a5,0x10
    8c20:	01f7f7b3          	and	a5,a5,t6
    8c24:	07c2                	slli	a5,a5,0x10
    8c26:	01ff7f33          	and	t5,t5,t6
    8c2a:	98f6                	add	a7,a7,t4
    8c2c:	97fa                	add	a5,a5,t5
    8c2e:	13176b63          	bltu	a4,a7,8d64 <__divdf3+0x428>
    8c32:	13170763          	beq	a4,a7,8d60 <__divdf3+0x424>
    8c36:	40fa07b3          	sub	a5,s4,a5
    8c3a:	41170733          	sub	a4,a4,a7
    8c3e:	00fa3a33          	sltu	s4,s4,a5
    8c42:	41470733          	sub	a4,a4,s4
    8c46:	24e60363          	beq	a2,a4,8e8c <__divdf3+0x550>
    8c4a:	02a758b3          	divu	a7,a4,a0
    8c4e:	0107de93          	srli	t4,a5,0x10
    8c52:	02a77733          	remu	a4,a4,a0
    8c56:	03180f33          	mul	t5,a6,a7
    8c5a:	0742                	slli	a4,a4,0x10
    8c5c:	00eee733          	or	a4,t4,a4
    8c60:	01e77b63          	bgeu	a4,t5,8c76 <__divdf3+0x33a>
    8c64:	9732                	add	a4,a4,a2
    8c66:	fff88e93          	addi	t4,a7,-1
    8c6a:	24c76763          	bltu	a4,a2,8eb8 <__divdf3+0x57c>
    8c6e:	25e77563          	bgeu	a4,t5,8eb8 <__divdf3+0x57c>
    8c72:	18f9                	addi	a7,a7,-2
    8c74:	9732                	add	a4,a4,a2
    8c76:	41e70733          	sub	a4,a4,t5
    8c7a:	02a75eb3          	divu	t4,a4,a0
    8c7e:	07c2                	slli	a5,a5,0x10
    8c80:	83c1                	srli	a5,a5,0x10
    8c82:	02a77733          	remu	a4,a4,a0
    8c86:	03d80833          	mul	a6,a6,t4
    8c8a:	0742                	slli	a4,a4,0x10
    8c8c:	8fd9                	or	a5,a5,a4
    8c8e:	0107fb63          	bgeu	a5,a6,8ca4 <__divdf3+0x368>
    8c92:	97b2                	add	a5,a5,a2
    8c94:	fffe8713          	addi	a4,t4,-1
    8c98:	20c7ee63          	bltu	a5,a2,8eb4 <__divdf3+0x578>
    8c9c:	2107fc63          	bgeu	a5,a6,8eb4 <__divdf3+0x578>
    8ca0:	1ef9                	addi	t4,t4,-2
    8ca2:	97b2                	add	a5,a5,a2
    8ca4:	08c2                	slli	a7,a7,0x10
    8ca6:	01d8e8b3          	or	a7,a7,t4
    8caa:	01089513          	slli	a0,a7,0x10
    8cae:	0108df13          	srli	t5,a7,0x10
    8cb2:	8141                	srli	a0,a0,0x10
    8cb4:	02650eb3          	mul	t4,a0,t1
    8cb8:	410787b3          	sub	a5,a5,a6
    8cbc:	02ae0533          	mul	a0,t3,a0
    8cc0:	010ed713          	srli	a4,t4,0x10
    8cc4:	026f0333          	mul	t1,t5,t1
    8cc8:	951a                	add	a0,a0,t1
    8cca:	972a                	add	a4,a4,a0
    8ccc:	03ee0e33          	mul	t3,t3,t5
    8cd0:	00677463          	bgeu	a4,t1,8cd8 <__divdf3+0x39c>
    8cd4:	6541                	lui	a0,0x10
    8cd6:	9e2a                	add	t3,t3,a0
    8cd8:	6841                	lui	a6,0x10
    8cda:	187d                	addi	a6,a6,-1 # ffff <_data_lma+0x2feb>
    8cdc:	01075513          	srli	a0,a4,0x10
    8ce0:	01077733          	and	a4,a4,a6
    8ce4:	0742                	slli	a4,a4,0x10
    8ce6:	010efeb3          	and	t4,t4,a6
    8cea:	9572                	add	a0,a0,t3
    8cec:	9776                	add	a4,a4,t4
    8cee:	0ea7f763          	bgeu	a5,a0,8ddc <__divdf3+0x4a0>
    8cf2:	97b2                	add	a5,a5,a2
    8cf4:	fff88313          	addi	t1,a7,-1
    8cf8:	883e                	mv	a6,a5
    8cfa:	16c7e763          	bltu	a5,a2,8e68 <__divdf3+0x52c>
    8cfe:	1ca7e563          	bltu	a5,a0,8ec8 <__divdf3+0x58c>
    8d02:	1ca78e63          	beq	a5,a0,8ede <__divdf3+0x5a2>
    8d06:	889a                	mv	a7,t1
    8d08:	0018e893          	ori	a7,a7,1
    8d0c:	bbf9                	j	8aea <__divdf3+0x1ae>
    8d0e:	4705                	li	a4,1
    8d10:	cc079ce3          	bnez	a5,89e8 <__divdf3+0xac>
    8d14:	41e98793          	addi	a5,s3,1054
    8d18:	00f89633          	sll	a2,a7,a5
    8d1c:	00c03633          	snez	a2,a2
    8d20:	00f417b3          	sll	a5,s0,a5
    8d24:	8fd1                	or	a5,a5,a2
    8d26:	00e8d8b3          	srl	a7,a7,a4
    8d2a:	00f8e8b3          	or	a7,a7,a5
    8d2e:	0078f793          	andi	a5,a7,7
    8d32:	00e45433          	srl	s0,s0,a4
    8d36:	cf81                	beqz	a5,8d4e <__divdf3+0x412>
    8d38:	00f8f793          	andi	a5,a7,15
    8d3c:	4711                	li	a4,4
    8d3e:	00e78863          	beq	a5,a4,8d4e <__divdf3+0x412>
    8d42:	00488793          	addi	a5,a7,4
    8d46:	0117b8b3          	sltu	a7,a5,a7
    8d4a:	9446                	add	s0,s0,a7
    8d4c:	88be                	mv	a7,a5
    8d4e:	008005b7          	lui	a1,0x800
    8d52:	8de1                	and	a1,a1,s0
    8d54:	4785                	li	a5,1
    8d56:	4601                	li	a2,0
    8d58:	4701                	li	a4,0
    8d5a:	c8059fe3          	bnez	a1,89f8 <__divdf3+0xbc>
    8d5e:	a8d5                	j	8e52 <__divdf3+0x516>
    8d60:	ecfa7be3          	bgeu	s4,a5,8c36 <__divdf3+0x2fa>
    8d64:	00ba0eb3          	add	t4,s4,a1
    8d68:	014ebf33          	sltu	t5,t4,s4
    8d6c:	00cf0fb3          	add	t6,t5,a2
    8d70:	977e                	add	a4,a4,t6
    8d72:	8a76                	mv	s4,t4
    8d74:	fff40f93          	addi	t6,s0,-1
    8d78:	06e67763          	bgeu	a2,a4,8de6 <__divdf3+0x4aa>
    8d7c:	11176063          	bltu	a4,a7,8e7c <__divdf3+0x540>
    8d80:	0ee88c63          	beq	a7,a4,8e78 <__divdf3+0x53c>
    8d84:	847e                	mv	s0,t6
    8d86:	bd45                	j	8c36 <__divdf3+0x2fa>
    8d88:	df1a61e3          	bltu	s4,a7,8b6a <__divdf3+0x22e>
    8d8c:	001a5713          	srli	a4,s4,0x1
    8d90:	01fb1313          	slli	t1,s6,0x1f
    8d94:	001b5793          	srli	a5,s6,0x1
    8d98:	00e36333          	or	t1,t1,a4
    8d9c:	0a7e                	slli	s4,s4,0x1f
    8d9e:	bbd1                	j	8b72 <__divdf3+0x236>
    8da0:	142020ef          	jal	ra,aee2 <__clzsi2>
    8da4:	01550693          	addi	a3,a0,21 # 10015 <_data_lma+0x3001>
    8da8:	47f1                	li	a5,28
    8daa:	02050713          	addi	a4,a0,32
    8dae:	ced7d6e3          	bge	a5,a3,8a9a <__divdf3+0x15e>
    8db2:	ff850793          	addi	a5,a0,-8
    8db6:	00f41b33          	sll	s6,s0,a5
    8dba:	4a01                	li	s4,0
    8dbc:	b9dd                	j	8ab2 <__divdf3+0x176>
    8dbe:	855e                	mv	a0,s7
    8dc0:	122020ef          	jal	ra,aee2 <__clzsi2>
    8dc4:	01550693          	addi	a3,a0,21
    8dc8:	4771                	li	a4,28
    8dca:	02050793          	addi	a5,a0,32
    8dce:	c8d75ae3          	bge	a4,a3,8a62 <__divdf3+0x126>
    8dd2:	1561                	addi	a0,a0,-8
    8dd4:	4881                	li	a7,0
    8dd6:	00ab9433          	sll	s0,s7,a0
    8dda:	b979                	j	8a78 <__divdf3+0x13c>
    8ddc:	f2a796e3          	bne	a5,a0,8d08 <__divdf3+0x3cc>
    8de0:	d00705e3          	beqz	a4,8aea <__divdf3+0x1ae>
    8de4:	b739                	j	8cf2 <__divdf3+0x3b6>
    8de6:	f8e61fe3          	bne	a2,a4,8d84 <__divdf3+0x448>
    8dea:	f80f09e3          	beqz	t5,8d7c <__divdf3+0x440>
    8dee:	847e                	mv	s0,t6
    8df0:	b599                	j	8c36 <__divdf3+0x2fa>
    8df2:	dff773e3          	bgeu	a4,t6,8bd8 <__divdf3+0x29c>
    8df6:	18f9                	addi	a7,a7,-2
    8df8:	9732                	add	a4,a4,a2
    8dfa:	b3c5                	j	8bda <__divdf3+0x29e>
    8dfc:	db17f9e3          	bgeu	a5,a7,8bae <__divdf3+0x272>
    8e00:	1479                	addi	s0,s0,-2
    8e02:	97b2                	add	a5,a5,a2
    8e04:	b375                	j	8bb0 <__divdf3+0x274>
    8e06:	467d                	li	a2,31
    8e08:	f0e656e3          	bge	a2,a4,8d14 <__divdf3+0x3d8>
    8e0c:	5605                	li	a2,-31
    8e0e:	8e1d                	sub	a2,a2,a5
    8e10:	02000793          	li	a5,32
    8e14:	00c45633          	srl	a2,s0,a2
    8e18:	00f70863          	beq	a4,a5,8e28 <__divdf3+0x4ec>
    8e1c:	43e98793          	addi	a5,s3,1086
    8e20:	00f417b3          	sll	a5,s0,a5
    8e24:	00f8e8b3          	or	a7,a7,a5
    8e28:	011038b3          	snez	a7,a7
    8e2c:	00c8e8b3          	or	a7,a7,a2
    8e30:	0078f713          	andi	a4,a7,7
    8e34:	4601                	li	a2,0
    8e36:	c31d                	beqz	a4,8e5c <__divdf3+0x520>
    8e38:	00f8f793          	andi	a5,a7,15
    8e3c:	4711                	li	a4,4
    8e3e:	4401                	li	s0,0
    8e40:	00e78963          	beq	a5,a4,8e52 <__divdf3+0x516>
    8e44:	00488793          	addi	a5,a7,4
    8e48:	0117b8b3          	sltu	a7,a5,a7
    8e4c:	01103433          	snez	s0,a7
    8e50:	88be                	mv	a7,a5
    8e52:	00941613          	slli	a2,s0,0x9
    8e56:	01d41713          	slli	a4,s0,0x1d
    8e5a:	8231                	srli	a2,a2,0xc
    8e5c:	0038d893          	srli	a7,a7,0x3
    8e60:	00e8e733          	or	a4,a7,a4
    8e64:	4781                	li	a5,0
    8e66:	be49                	j	89f8 <__divdf3+0xbc>
    8e68:	889a                	mv	a7,t1
    8e6a:	e8a81fe3          	bne	a6,a0,8d08 <__divdf3+0x3cc>
    8e6e:	c6b70ee3          	beq	a4,a1,8aea <__divdf3+0x1ae>
    8e72:	0018e893          	ori	a7,a7,1
    8e76:	b995                	j	8aea <__divdf3+0x1ae>
    8e78:	f0fef6e3          	bgeu	t4,a5,8d84 <__divdf3+0x448>
    8e7c:	9eae                	add	t4,t4,a1
    8e7e:	00bebf33          	sltu	t5,t4,a1
    8e82:	9f32                	add	t5,t5,a2
    8e84:	1479                	addi	s0,s0,-2
    8e86:	8a76                	mv	s4,t4
    8e88:	977a                	add	a4,a4,t5
    8e8a:	b375                	j	8c36 <__divdf3+0x2fa>
    8e8c:	c0200713          	li	a4,-1022
    8e90:	3ff98793          	addi	a5,s3,1023
    8e94:	58fd                	li	a7,-1
    8e96:	e6e9cce3          	blt	s3,a4,8d0e <__divdf3+0x3d2>
    8e9a:	00488713          	addi	a4,a7,4
    8e9e:	011738b3          	sltu	a7,a4,a7
    8ea2:	9446                	add	s0,s0,a7
    8ea4:	88ba                	mv	a7,a4
    8ea6:	b991                	j	8afa <__divdf3+0x1be>
    8ea8:	00f8f713          	andi	a4,a7,15
    8eac:	4611                	li	a2,4
    8eae:	c4c706e3          	beq	a4,a2,8afa <__divdf3+0x1be>
    8eb2:	b7e5                	j	8e9a <__divdf3+0x55e>
    8eb4:	8eba                	mv	t4,a4
    8eb6:	b3fd                	j	8ca4 <__divdf3+0x368>
    8eb8:	88f6                	mv	a7,t4
    8eba:	bb75                	j	8c76 <__divdf3+0x33a>
    8ebc:	86ca                	mv	a3,s2
    8ebe:	7ff00793          	li	a5,2047
    8ec2:	4601                	li	a2,0
    8ec4:	4701                	li	a4,0
    8ec6:	be0d                	j	89f8 <__divdf3+0xbc>
    8ec8:	00159313          	slli	t1,a1,0x1
    8ecc:	00b33833          	sltu	a6,t1,a1
    8ed0:	9832                	add	a6,a6,a2
    8ed2:	983e                	add	a6,a6,a5
    8ed4:	18f9                	addi	a7,a7,-2
    8ed6:	859a                	mv	a1,t1
    8ed8:	f8a80be3          	beq	a6,a0,8e6e <__divdf3+0x532>
    8edc:	b535                	j	8d08 <__divdf3+0x3cc>
    8ede:	fee5e5e3          	bltu	a1,a4,8ec8 <__divdf3+0x58c>
    8ee2:	889a                	mv	a7,t1
    8ee4:	f8b717e3          	bne	a4,a1,8e72 <__divdf3+0x536>
    8ee8:	b109                	j	8aea <__divdf3+0x1ae>

00008eea <__muldf3>:
    8eea:	7139                	addi	sp,sp,-64
    8eec:	0145d793          	srli	a5,a1,0x14
    8ef0:	dc22                	sw	s0,56(sp)
    8ef2:	da26                	sw	s1,52(sp)
    8ef4:	d64e                	sw	s3,44(sp)
    8ef6:	cc62                	sw	s8,24(sp)
    8ef8:	00c59493          	slli	s1,a1,0xc
    8efc:	de06                	sw	ra,60(sp)
    8efe:	d84a                	sw	s2,48(sp)
    8f00:	d452                	sw	s4,40(sp)
    8f02:	d256                	sw	s5,36(sp)
    8f04:	d05a                	sw	s6,32(sp)
    8f06:	ce5e                	sw	s7,28(sp)
    8f08:	7ff7f793          	andi	a5,a5,2047
    8f0c:	842a                	mv	s0,a0
    8f0e:	8c32                	mv	s8,a2
    8f10:	80b1                	srli	s1,s1,0xc
    8f12:	01f5d993          	srli	s3,a1,0x1f
    8f16:	16078663          	beqz	a5,9082 <__muldf3+0x198>
    8f1a:	7ff00813          	li	a6,2047
    8f1e:	1b078263          	beq	a5,a6,90c2 <__muldf3+0x1d8>
    8f22:	048e                	slli	s1,s1,0x3
    8f24:	01d55593          	srli	a1,a0,0x1d
    8f28:	8dc5                	or	a1,a1,s1
    8f2a:	008004b7          	lui	s1,0x800
    8f2e:	8ccd                	or	s1,s1,a1
    8f30:	00351a13          	slli	s4,a0,0x3
    8f34:	c0178b93          	addi	s7,a5,-1023
    8f38:	4b01                	li	s6,0
    8f3a:	4a81                	li	s5,0
    8f3c:	0146d793          	srli	a5,a3,0x14
    8f40:	00c69813          	slli	a6,a3,0xc
    8f44:	7ff7f793          	andi	a5,a5,2047
    8f48:	8ee2                	mv	t4,s8
    8f4a:	00c85413          	srli	s0,a6,0xc
    8f4e:	01f6d913          	srli	s2,a3,0x1f
    8f52:	c7f5                	beqz	a5,903e <__muldf3+0x154>
    8f54:	7ff00813          	li	a6,2047
    8f58:	07078e63          	beq	a5,a6,8fd4 <__muldf3+0xea>
    8f5c:	00341693          	slli	a3,s0,0x3
    8f60:	c0178793          	addi	a5,a5,-1023
    8f64:	01dc5593          	srli	a1,s8,0x1d
    8f68:	8dd5                	or	a1,a1,a3
    8f6a:	01778e33          	add	t3,a5,s7
    8f6e:	008006b7          	lui	a3,0x800
    8f72:	47a9                	li	a5,10
    8f74:	00d5e433          	or	s0,a1,a3
    8f78:	003c1e93          	slli	t4,s8,0x3
    8f7c:	4501                	li	a0,0
    8f7e:	001e0313          	addi	t1,t3,1
    8f82:	1967c663          	blt	a5,s6,910e <__muldf3+0x224>
    8f86:	0129c833          	xor	a6,s3,s2
    8f8a:	86c2                	mv	a3,a6
    8f8c:	4609                	li	a2,2
    8f8e:	07664763          	blt	a2,s6,8ffc <__muldf3+0x112>
    8f92:	fffb0893          	addi	a7,s6,-1
    8f96:	4585                	li	a1,1
    8f98:	1b15eb63          	bltu	a1,a7,914e <__muldf3+0x264>
    8f9c:	12c50d63          	beq	a0,a2,90d6 <__muldf3+0x1ec>
    8fa0:	4785                	li	a5,1
    8fa2:	8836                	mv	a6,a3
    8fa4:	06f51f63          	bne	a0,a5,9022 <__muldf3+0x138>
    8fa8:	4781                	li	a5,0
    8faa:	4681                	li	a3,0
    8fac:	4701                	li	a4,0
    8fae:	50f2                	lw	ra,60(sp)
    8fb0:	5462                	lw	s0,56(sp)
    8fb2:	07d2                	slli	a5,a5,0x14
    8fb4:	8fd5                	or	a5,a5,a3
    8fb6:	087e                	slli	a6,a6,0x1f
    8fb8:	0107e7b3          	or	a5,a5,a6
    8fbc:	54d2                	lw	s1,52(sp)
    8fbe:	5942                	lw	s2,48(sp)
    8fc0:	59b2                	lw	s3,44(sp)
    8fc2:	5a22                	lw	s4,40(sp)
    8fc4:	5a92                	lw	s5,36(sp)
    8fc6:	5b02                	lw	s6,32(sp)
    8fc8:	4bf2                	lw	s7,28(sp)
    8fca:	4c62                	lw	s8,24(sp)
    8fcc:	853a                	mv	a0,a4
    8fce:	85be                	mv	a1,a5
    8fd0:	6121                	addi	sp,sp,64
    8fd2:	8082                	ret
    8fd4:	01846733          	or	a4,s0,s8
    8fd8:	7ffb8e13          	addi	t3,s7,2047
    8fdc:	10070963          	beqz	a4,90ee <__muldf3+0x204>
    8fe0:	6705                	lui	a4,0x1
    8fe2:	0129c833          	xor	a6,s3,s2
    8fe6:	80070713          	addi	a4,a4,-2048 # 800 <__stack_size>
    8fea:	003b6b13          	ori	s6,s6,3
    8fee:	4629                	li	a2,10
    8ff0:	86c2                	mv	a3,a6
    8ff2:	00eb8333          	add	t1,s7,a4
    8ff6:	43664363          	blt	a2,s6,941c <__muldf3+0x532>
    8ffa:	450d                	li	a0,3
    8ffc:	4605                	li	a2,1
    8ffe:	01661633          	sll	a2,a2,s6
    9002:	53067713          	andi	a4,a2,1328
    9006:	c305                	beqz	a4,9026 <__muldf3+0x13c>
    9008:	4789                	li	a5,2
    900a:	0cfa8663          	beq	s5,a5,90d6 <__muldf3+0x1ec>
    900e:	478d                	li	a5,3
    9010:	12fa8863          	beq	s5,a5,9140 <__muldf3+0x256>
    9014:	8556                	mv	a0,s5
    9016:	4785                	li	a5,1
    9018:	8426                	mv	s0,s1
    901a:	8ed2                	mv	t4,s4
    901c:	8836                	mv	a6,a3
    901e:	f8f505e3          	beq	a0,a5,8fa8 <__muldf3+0xbe>
    9022:	8e1a                	mv	t3,t1
    9024:	a479                	j	92b2 <__muldf3+0x3c8>
    9026:	24067793          	andi	a5,a2,576
    902a:	efc5                	bnez	a5,90e2 <__muldf3+0x1f8>
    902c:	08867613          	andi	a2,a2,136
    9030:	10060f63          	beqz	a2,914e <__muldf3+0x264>
    9034:	86ca                	mv	a3,s2
    9036:	84a2                	mv	s1,s0
    9038:	8a76                	mv	s4,t4
    903a:	8aaa                	mv	s5,a0
    903c:	b7f1                	j	9008 <__muldf3+0x11e>
    903e:	018467b3          	or	a5,s0,s8
    9042:	c3fd                	beqz	a5,9128 <__muldf3+0x23e>
    9044:	32040b63          	beqz	s0,937a <__muldf3+0x490>
    9048:	8522                	mv	a0,s0
    904a:	699010ef          	jal	ra,aee2 <__clzsi2>
    904e:	8e2a                	mv	t3,a0
    9050:	ff550713          	addi	a4,a0,-11
    9054:	47f5                	li	a5,29
    9056:	ff8e0e93          	addi	t4,t3,-8
    905a:	8f99                	sub	a5,a5,a4
    905c:	01d416b3          	sll	a3,s0,t4
    9060:	00fc57b3          	srl	a5,s8,a5
    9064:	00d7e433          	or	s0,a5,a3
    9068:	01dc1eb3          	sll	t4,s8,t4
    906c:	41cb8e33          	sub	t3,s7,t3
    9070:	c0de0e13          	addi	t3,t3,-1011
    9074:	47a9                	li	a5,10
    9076:	4501                	li	a0,0
    9078:	001e0313          	addi	t1,t3,1
    907c:	f167d5e3          	bge	a5,s6,8f86 <__muldf3+0x9c>
    9080:	a079                	j	910e <__muldf3+0x224>
    9082:	00a4ea33          	or	s4,s1,a0
    9086:	080a0c63          	beqz	s4,911e <__muldf3+0x234>
    908a:	c636                	sw	a3,12(sp)
    908c:	2c048863          	beqz	s1,935c <__muldf3+0x472>
    9090:	8526                	mv	a0,s1
    9092:	651010ef          	jal	ra,aee2 <__clzsi2>
    9096:	46b2                	lw	a3,12(sp)
    9098:	872a                	mv	a4,a0
    909a:	ff550613          	addi	a2,a0,-11
    909e:	47f5                	li	a5,29
    90a0:	ff870a13          	addi	s4,a4,-8
    90a4:	8f91                	sub	a5,a5,a2
    90a6:	014494b3          	sll	s1,s1,s4
    90aa:	00f457b3          	srl	a5,s0,a5
    90ae:	8cdd                	or	s1,s1,a5
    90b0:	01441a33          	sll	s4,s0,s4
    90b4:	c0d00793          	li	a5,-1011
    90b8:	40e78bb3          	sub	s7,a5,a4
    90bc:	4b01                	li	s6,0
    90be:	4a81                	li	s5,0
    90c0:	bdb5                	j	8f3c <__muldf3+0x52>
    90c2:	00a4ea33          	or	s4,s1,a0
    90c6:	040a1663          	bnez	s4,9112 <__muldf3+0x228>
    90ca:	4481                	li	s1,0
    90cc:	4b21                	li	s6,8
    90ce:	7ff00b93          	li	s7,2047
    90d2:	4a89                	li	s5,2
    90d4:	b5a5                	j	8f3c <__muldf3+0x52>
    90d6:	8836                	mv	a6,a3
    90d8:	7ff00793          	li	a5,2047
    90dc:	4681                	li	a3,0
    90de:	4701                	li	a4,0
    90e0:	b5f9                	j	8fae <__muldf3+0xc4>
    90e2:	4801                	li	a6,0
    90e4:	7ff00793          	li	a5,2047
    90e8:	000806b7          	lui	a3,0x80
    90ec:	b5c9                	j	8fae <__muldf3+0xc4>
    90ee:	6785                	lui	a5,0x1
    90f0:	80078793          	addi	a5,a5,-2048 # 800 <__stack_size>
    90f4:	002b6b13          	ori	s6,s6,2
    90f8:	46a9                	li	a3,10
    90fa:	00fb8333          	add	t1,s7,a5
    90fe:	2b66d263          	bge	a3,s6,93a2 <__muldf3+0x4b8>
    9102:	4e81                	li	t4,0
    9104:	47b9                	li	a5,14
    9106:	4509                	li	a0,2
    9108:	46ad                	li	a3,11
    910a:	30d78763          	beq	a5,a3,9418 <__muldf3+0x52e>
    910e:	86ce                	mv	a3,s3
    9110:	bde5                	j	9008 <__muldf3+0x11e>
    9112:	8a2a                	mv	s4,a0
    9114:	4b31                	li	s6,12
    9116:	7ff00b93          	li	s7,2047
    911a:	4a8d                	li	s5,3
    911c:	b505                	j	8f3c <__muldf3+0x52>
    911e:	4481                	li	s1,0
    9120:	4b11                	li	s6,4
    9122:	4b81                	li	s7,0
    9124:	4a85                	li	s5,1
    9126:	bd19                	j	8f3c <__muldf3+0x52>
    9128:	8e5e                	mv	t3,s7
    912a:	001b6b13          	ori	s6,s6,1
    912e:	47a9                	li	a5,10
    9130:	4401                	li	s0,0
    9132:	4e81                	li	t4,0
    9134:	4505                	li	a0,1
    9136:	001e0313          	addi	t1,t3,1
    913a:	e567d6e3          	bge	a5,s6,8f86 <__muldf3+0x9c>
    913e:	bfc1                	j	910e <__muldf3+0x224>
    9140:	4801                	li	a6,0
    9142:	7ff00793          	li	a5,2047
    9146:	000806b7          	lui	a3,0x80
    914a:	4701                	li	a4,0
    914c:	b58d                	j	8fae <__muldf3+0xc4>
    914e:	65c1                	lui	a1,0x10
    9150:	fff58713          	addi	a4,a1,-1 # ffff <_data_lma+0x2feb>
    9154:	010a5793          	srli	a5,s4,0x10
    9158:	010ed893          	srli	a7,t4,0x10
    915c:	00ea7a33          	and	s4,s4,a4
    9160:	00eefeb3          	and	t4,t4,a4
    9164:	03da0733          	mul	a4,s4,t4
    9168:	03d78633          	mul	a2,a5,t4
    916c:	01075513          	srli	a0,a4,0x10
    9170:	034886b3          	mul	a3,a7,s4
    9174:	96b2                	add	a3,a3,a2
    9176:	9536                	add	a0,a0,a3
    9178:	03178f33          	mul	t5,a5,a7
    917c:	00c57363          	bgeu	a0,a2,9182 <__muldf3+0x298>
    9180:	9f2e                	add	t5,t5,a1
    9182:	63c1                	lui	t2,0x10
    9184:	fff38613          	addi	a2,t2,-1 # ffff <_data_lma+0x2feb>
    9188:	00c575b3          	and	a1,a0,a2
    918c:	00c476b3          	and	a3,s0,a2
    9190:	8f71                	and	a4,a4,a2
    9192:	01045f93          	srli	t6,s0,0x10
    9196:	05c2                	slli	a1,a1,0x10
    9198:	02da02b3          	mul	t0,s4,a3
    919c:	95ba                	add	a1,a1,a4
    919e:	8141                	srli	a0,a0,0x10
    91a0:	02d78733          	mul	a4,a5,a3
    91a4:	0102d613          	srli	a2,t0,0x10
    91a8:	034f8a33          	mul	s4,t6,s4
    91ac:	9a3a                	add	s4,s4,a4
    91ae:	9652                	add	a2,a2,s4
    91b0:	03f787b3          	mul	a5,a5,t6
    91b4:	00e67363          	bgeu	a2,a4,91ba <__muldf3+0x2d0>
    91b8:	979e                	add	a5,a5,t2
    91ba:	6941                	lui	s2,0x10
    91bc:	fff90413          	addi	s0,s2,-1 # ffff <_data_lma+0x2feb>
    91c0:	00867733          	and	a4,a2,s0
    91c4:	0104d393          	srli	t2,s1,0x10
    91c8:	0082f2b3          	and	t0,t0,s0
    91cc:	8ce1                	and	s1,s1,s0
    91ce:	0742                	slli	a4,a4,0x10
    91d0:	029e8433          	mul	s0,t4,s1
    91d4:	9716                	add	a4,a4,t0
    91d6:	8241                	srli	a2,a2,0x10
    91d8:	963e                	add	a2,a2,a5
    91da:	953a                	add	a0,a0,a4
    91dc:	029882b3          	mul	t0,a7,s1
    91e0:	01045793          	srli	a5,s0,0x10
    91e4:	03d38eb3          	mul	t4,t2,t4
    91e8:	92f6                	add	t0,t0,t4
    91ea:	9796                	add	a5,a5,t0
    91ec:	027888b3          	mul	a7,a7,t2
    91f0:	01d7f363          	bgeu	a5,t4,91f6 <__muldf3+0x30c>
    91f4:	98ca                	add	a7,a7,s2
    91f6:	6941                	lui	s2,0x10
    91f8:	fff90e93          	addi	t4,s2,-1 # ffff <_data_lma+0x2feb>
    91fc:	01d7f2b3          	and	t0,a5,t4
    9200:	01d47eb3          	and	t4,s0,t4
    9204:	02c2                	slli	t0,t0,0x10
    9206:	83c1                	srli	a5,a5,0x10
    9208:	97c6                	add	a5,a5,a7
    920a:	02968433          	mul	s0,a3,s1
    920e:	01d288b3          	add	a7,t0,t4
    9212:	02d386b3          	mul	a3,t2,a3
    9216:	01045293          	srli	t0,s0,0x10
    921a:	029f84b3          	mul	s1,t6,s1
    921e:	94b6                	add	s1,s1,a3
    9220:	92a6                	add	t0,t0,s1
    9222:	027f8eb3          	mul	t4,t6,t2
    9226:	00d2f363          	bgeu	t0,a3,922c <__muldf3+0x342>
    922a:	9eca                	add	t4,t4,s2
    922c:	6fc1                	lui	t6,0x10
    922e:	1ffd                	addi	t6,t6,-1 # ffff <_data_lma+0x2feb>
    9230:	01f2f6b3          	and	a3,t0,t6
    9234:	01f47433          	and	s0,s0,t6
    9238:	06c2                	slli	a3,a3,0x10
    923a:	957a                	add	a0,a0,t5
    923c:	96a2                	add	a3,a3,s0
    923e:	9636                	add	a2,a2,a3
    9240:	00e53733          	sltu	a4,a0,a4
    9244:	9732                	add	a4,a4,a2
    9246:	98aa                	add	a7,a7,a0
    9248:	97ba                	add	a5,a5,a4
    924a:	00a8b533          	sltu	a0,a7,a0
    924e:	953e                	add	a0,a0,a5
    9250:	00d636b3          	sltu	a3,a2,a3
    9254:	00c73633          	sltu	a2,a4,a2
    9258:	8ed1                	or	a3,a3,a2
    925a:	00e7b733          	sltu	a4,a5,a4
    925e:	0102d613          	srli	a2,t0,0x10
    9262:	00f537b3          	sltu	a5,a0,a5
    9266:	8f5d                	or	a4,a4,a5
    9268:	96b2                	add	a3,a3,a2
    926a:	9736                	add	a4,a4,a3
    926c:	9776                	add	a4,a4,t4
    926e:	00989e93          	slli	t4,a7,0x9
    9272:	01755793          	srli	a5,a0,0x17
    9276:	0726                	slli	a4,a4,0x9
    9278:	00beeeb3          	or	t4,t4,a1
    927c:	00f76433          	or	s0,a4,a5
    9280:	01d03eb3          	snez	t4,t4
    9284:	0178d793          	srli	a5,a7,0x17
    9288:	00feeeb3          	or	t4,t4,a5
    928c:	010007b7          	lui	a5,0x1000
    9290:	0526                	slli	a0,a0,0x9
    9292:	8fe1                	and	a5,a5,s0
    9294:	00aeeeb3          	or	t4,t4,a0
    9298:	cf89                	beqz	a5,92b2 <__muldf3+0x3c8>
    929a:	001ed793          	srli	a5,t4,0x1
    929e:	001efe93          	andi	t4,t4,1
    92a2:	01f41713          	slli	a4,s0,0x1f
    92a6:	01d7e7b3          	or	a5,a5,t4
    92aa:	00e7eeb3          	or	t4,a5,a4
    92ae:	8005                	srli	s0,s0,0x1
    92b0:	8e1a                	mv	t3,t1
    92b2:	3ffe0793          	addi	a5,t3,1023
    92b6:	04f05a63          	blez	a5,930a <__muldf3+0x420>
    92ba:	007ef713          	andi	a4,t4,7
    92be:	cf01                	beqz	a4,92d6 <__muldf3+0x3ec>
    92c0:	00fef713          	andi	a4,t4,15
    92c4:	4691                	li	a3,4
    92c6:	00d70863          	beq	a4,a3,92d6 <__muldf3+0x3ec>
    92ca:	004e8713          	addi	a4,t4,4
    92ce:	01d73eb3          	sltu	t4,a4,t4
    92d2:	9476                	add	s0,s0,t4
    92d4:	8eba                	mv	t4,a4
    92d6:	01000737          	lui	a4,0x1000
    92da:	8f61                	and	a4,a4,s0
    92dc:	c719                	beqz	a4,92ea <__muldf3+0x400>
    92de:	ff0007b7          	lui	a5,0xff000
    92e2:	17fd                	addi	a5,a5,-1 # feffffff <_eusrstack+0xdeffafff>
    92e4:	8c7d                	and	s0,s0,a5
    92e6:	400e0793          	addi	a5,t3,1024
    92ea:	7fe00713          	li	a4,2046
    92ee:	0af74563          	blt	a4,a5,9398 <__muldf3+0x4ae>
    92f2:	003ede93          	srli	t4,t4,0x3
    92f6:	01d41713          	slli	a4,s0,0x1d
    92fa:	00941693          	slli	a3,s0,0x9
    92fe:	01d76733          	or	a4,a4,t4
    9302:	82b1                	srli	a3,a3,0xc
    9304:	7ff7f793          	andi	a5,a5,2047
    9308:	b15d                	j	8fae <__muldf3+0xc4>
    930a:	4705                	li	a4,1
    930c:	e3d5                	bnez	a5,93b0 <__muldf3+0x4c6>
    930e:	41ee0e13          	addi	t3,t3,1054
    9312:	01ce9633          	sll	a2,t4,t3
    9316:	00c03633          	snez	a2,a2
    931a:	01c41e33          	sll	t3,s0,t3
    931e:	00eedeb3          	srl	t4,t4,a4
    9322:	01c66633          	or	a2,a2,t3
    9326:	01d66633          	or	a2,a2,t4
    932a:	00767793          	andi	a5,a2,7
    932e:	00e455b3          	srl	a1,s0,a4
    9332:	cf81                	beqz	a5,934a <__muldf3+0x460>
    9334:	00f67793          	andi	a5,a2,15
    9338:	4711                	li	a4,4
    933a:	00e78863          	beq	a5,a4,934a <__muldf3+0x460>
    933e:	00460793          	addi	a5,a2,4 # 80004 <_data_lma+0x72ff0>
    9342:	00c7b633          	sltu	a2,a5,a2
    9346:	95b2                	add	a1,a1,a2
    9348:	863e                	mv	a2,a5
    934a:	00800537          	lui	a0,0x800
    934e:	8d6d                	and	a0,a0,a1
    9350:	4785                	li	a5,1
    9352:	4681                	li	a3,0
    9354:	4701                	li	a4,0
    9356:	c4051ce3          	bnez	a0,8fae <__muldf3+0xc4>
    935a:	a075                	j	9406 <__muldf3+0x51c>
    935c:	387010ef          	jal	ra,aee2 <__clzsi2>
    9360:	01550613          	addi	a2,a0,21 # 800015 <_data_lma+0x7f3001>
    9364:	47f1                	li	a5,28
    9366:	46b2                	lw	a3,12(sp)
    9368:	02050713          	addi	a4,a0,32
    936c:	d2c7d9e3          	bge	a5,a2,909e <__muldf3+0x1b4>
    9370:	1561                	addi	a0,a0,-8
    9372:	4a01                	li	s4,0
    9374:	00a414b3          	sll	s1,s0,a0
    9378:	bb35                	j	90b4 <__muldf3+0x1ca>
    937a:	8562                	mv	a0,s8
    937c:	367010ef          	jal	ra,aee2 <__clzsi2>
    9380:	01550713          	addi	a4,a0,21
    9384:	47f1                	li	a5,28
    9386:	02050e13          	addi	t3,a0,32
    938a:	cce7d5e3          	bge	a5,a4,9054 <__muldf3+0x16a>
    938e:	1561                	addi	a0,a0,-8
    9390:	4e81                	li	t4,0
    9392:	00ac1433          	sll	s0,s8,a0
    9396:	b9d9                	j	906c <__muldf3+0x182>
    9398:	7ff00793          	li	a5,2047
    939c:	4681                	li	a3,0
    939e:	4701                	li	a4,0
    93a0:	b139                	j	8fae <__muldf3+0xc4>
    93a2:	0129c833          	xor	a6,s3,s2
    93a6:	86c2                	mv	a3,a6
    93a8:	4401                	li	s0,0
    93aa:	4e81                	li	t4,0
    93ac:	4509                	li	a0,2
    93ae:	bef9                	j	8f8c <__muldf3+0xa2>
    93b0:	8f1d                	sub	a4,a4,a5
    93b2:	03800693          	li	a3,56
    93b6:	bee6c9e3          	blt	a3,a4,8fa8 <__muldf3+0xbe>
    93ba:	46fd                	li	a3,31
    93bc:	f4e6d9e3          	bge	a3,a4,930e <__muldf3+0x424>
    93c0:	5685                	li	a3,-31
    93c2:	40f687b3          	sub	a5,a3,a5
    93c6:	02000693          	li	a3,32
    93ca:	00f457b3          	srl	a5,s0,a5
    93ce:	00d70863          	beq	a4,a3,93de <__muldf3+0x4f4>
    93d2:	43ee0e13          	addi	t3,t3,1086
    93d6:	01c41e33          	sll	t3,s0,t3
    93da:	01ceeeb3          	or	t4,t4,t3
    93de:	01d03633          	snez	a2,t4
    93e2:	8e5d                	or	a2,a2,a5
    93e4:	00767713          	andi	a4,a2,7
    93e8:	4681                	li	a3,0
    93ea:	c31d                	beqz	a4,9410 <__muldf3+0x526>
    93ec:	00f67793          	andi	a5,a2,15
    93f0:	4711                	li	a4,4
    93f2:	4581                	li	a1,0
    93f4:	00e78963          	beq	a5,a4,9406 <__muldf3+0x51c>
    93f8:	00460793          	addi	a5,a2,4
    93fc:	00c7b633          	sltu	a2,a5,a2
    9400:	00c035b3          	snez	a1,a2
    9404:	863e                	mv	a2,a5
    9406:	00959693          	slli	a3,a1,0x9
    940a:	01d59713          	slli	a4,a1,0x1d
    940e:	82b1                	srli	a3,a3,0xc
    9410:	820d                	srli	a2,a2,0x3
    9412:	8f51                	or	a4,a4,a2
    9414:	4781                	li	a5,0
    9416:	be61                	j	8fae <__muldf3+0xc4>
    9418:	843a                	mv	s0,a4
    941a:	b929                	j	9034 <__muldf3+0x14a>
    941c:	473d                	li	a4,15
    941e:	00eb1763          	bne	s6,a4,942c <__muldf3+0x542>
    9422:	4801                	li	a6,0
    9424:	000806b7          	lui	a3,0x80
    9428:	4701                	li	a4,0
    942a:	b651                	j	8fae <__muldf3+0xc4>
    942c:	8722                	mv	a4,s0
    942e:	47ad                	li	a5,11
    9430:	450d                	li	a0,3
    9432:	b9d9                	j	9108 <__muldf3+0x21e>

00009434 <__subdf3>:
    9434:	001007b7          	lui	a5,0x100
    9438:	17fd                	addi	a5,a5,-1 # fffff <_data_lma+0xf2feb>
    943a:	1101                	addi	sp,sp,-32
    943c:	00b7f8b3          	and	a7,a5,a1
    9440:	0146d813          	srli	a6,a3,0x14
    9444:	8ff5                	and	a5,a5,a3
    9446:	088e                	slli	a7,a7,0x3
    9448:	00379713          	slli	a4,a5,0x3
    944c:	cc22                	sw	s0,24(sp)
    944e:	ca26                	sw	s1,20(sp)
    9450:	0145d413          	srli	s0,a1,0x14
    9454:	c84a                	sw	s2,16(sp)
    9456:	01d65793          	srli	a5,a2,0x1d
    945a:	01d55913          	srli	s2,a0,0x1d
    945e:	ce06                	sw	ra,28(sp)
    9460:	c64e                	sw	s3,12(sp)
    9462:	7ff87813          	andi	a6,a6,2047
    9466:	7ff00313          	li	t1,2047
    946a:	01f5d493          	srli	s1,a1,0x1f
    946e:	01196933          	or	s2,s2,a7
    9472:	7ff47413          	andi	s0,s0,2047
    9476:	00351893          	slli	a7,a0,0x3
    947a:	82fd                	srli	a3,a3,0x1f
    947c:	8fd9                	or	a5,a5,a4
    947e:	00361593          	slli	a1,a2,0x3
    9482:	1c680263          	beq	a6,t1,9646 <__subdf3+0x212>
    9486:	0016c693          	xori	a3,a3,1
    948a:	41040733          	sub	a4,s0,a6
    948e:	12d48263          	beq	s1,a3,95b2 <__subdf3+0x17e>
    9492:	68e05763          	blez	a4,9b20 <__subdf3+0x6ec>
    9496:	1e080463          	beqz	a6,967e <__subdf3+0x24a>
    949a:	52640c63          	beq	s0,t1,99d2 <__subdf3+0x59e>
    949e:	03800693          	li	a3,56
    94a2:	4985                	li	s3,1
    94a4:	02e6cb63          	blt	a3,a4,94da <__subdf3+0xa6>
    94a8:	008006b7          	lui	a3,0x800
    94ac:	8fd5                	or	a5,a5,a3
    94ae:	46fd                	li	a3,31
    94b0:	3ee6c363          	blt	a3,a4,9896 <__subdf3+0x462>
    94b4:	02000693          	li	a3,32
    94b8:	8e99                	sub	a3,a3,a4
    94ba:	00d799b3          	sll	s3,a5,a3
    94be:	00e5d633          	srl	a2,a1,a4
    94c2:	00d596b3          	sll	a3,a1,a3
    94c6:	00c9e9b3          	or	s3,s3,a2
    94ca:	00d036b3          	snez	a3,a3
    94ce:	00e7d733          	srl	a4,a5,a4
    94d2:	00d9e9b3          	or	s3,s3,a3
    94d6:	40e90933          	sub	s2,s2,a4
    94da:	413889b3          	sub	s3,a7,s3
    94de:	0138b7b3          	sltu	a5,a7,s3
    94e2:	40f90933          	sub	s2,s2,a5
    94e6:	008007b7          	lui	a5,0x800
    94ea:	00f97733          	and	a4,s2,a5
    94ee:	28070763          	beqz	a4,977c <__subdf3+0x348>
    94f2:	17fd                	addi	a5,a5,-1 # 7fffff <_data_lma+0x7f2feb>
    94f4:	00f97933          	and	s2,s2,a5
    94f8:	28090763          	beqz	s2,9786 <__subdf3+0x352>
    94fc:	854a                	mv	a0,s2
    94fe:	1e5010ef          	jal	ra,aee2 <__clzsi2>
    9502:	ff850713          	addi	a4,a0,-8
    9506:	02000693          	li	a3,32
    950a:	40e687b3          	sub	a5,a3,a4
    950e:	00f9d7b3          	srl	a5,s3,a5
    9512:	00e91933          	sll	s2,s2,a4
    9516:	0127e7b3          	or	a5,a5,s2
    951a:	00e999b3          	sll	s3,s3,a4
    951e:	2e874c63          	blt	a4,s0,9816 <__subdf3+0x3e2>
    9522:	8f01                	sub	a4,a4,s0
    9524:	0705                	addi	a4,a4,1 # 1000001 <_data_lma+0xff2fed>
    9526:	8e99                	sub	a3,a3,a4
    9528:	00d99633          	sll	a2,s3,a3
    952c:	00e9d933          	srl	s2,s3,a4
    9530:	00c03633          	snez	a2,a2
    9534:	00c96633          	or	a2,s2,a2
    9538:	00d796b3          	sll	a3,a5,a3
    953c:	00c6e9b3          	or	s3,a3,a2
    9540:	00e7d933          	srl	s2,a5,a4
    9544:	4401                	li	s0,0
    9546:	0079f793          	andi	a5,s3,7
    954a:	cf81                	beqz	a5,9562 <__subdf3+0x12e>
    954c:	00f9f793          	andi	a5,s3,15
    9550:	4711                	li	a4,4
    9552:	00e78863          	beq	a5,a4,9562 <__subdf3+0x12e>
    9556:	00498793          	addi	a5,s3,4
    955a:	0137b9b3          	sltu	s3,a5,s3
    955e:	994e                	add	s2,s2,s3
    9560:	89be                	mv	s3,a5
    9562:	008007b7          	lui	a5,0x800
    9566:	00f977b3          	and	a5,s2,a5
    956a:	26078963          	beqz	a5,97dc <__subdf3+0x3a8>
    956e:	0405                	addi	s0,s0,1
    9570:	7ff00793          	li	a5,2047
    9574:	1ef40e63          	beq	s0,a5,9770 <__subdf3+0x33c>
    9578:	ff8007b7          	lui	a5,0xff800
    957c:	17fd                	addi	a5,a5,-1 # ff7fffff <_eusrstack+0xdf7fafff>
    957e:	00f977b3          	and	a5,s2,a5
    9582:	01d79713          	slli	a4,a5,0x1d
    9586:	0039d993          	srli	s3,s3,0x3
    958a:	07a6                	slli	a5,a5,0x9
    958c:	01376733          	or	a4,a4,s3
    9590:	83b1                	srli	a5,a5,0xc
    9592:	7ff47413          	andi	s0,s0,2047
    9596:	8885                	andi	s1,s1,1
    9598:	0452                	slli	s0,s0,0x14
    959a:	04fe                	slli	s1,s1,0x1f
    959c:	8c5d                	or	s0,s0,a5
    959e:	8c45                	or	s0,s0,s1
    95a0:	40f2                	lw	ra,28(sp)
    95a2:	85a2                	mv	a1,s0
    95a4:	4462                	lw	s0,24(sp)
    95a6:	44d2                	lw	s1,20(sp)
    95a8:	4942                	lw	s2,16(sp)
    95aa:	49b2                	lw	s3,12(sp)
    95ac:	853a                	mv	a0,a4
    95ae:	6105                	addi	sp,sp,32
    95b0:	8082                	ret
    95b2:	58e05b63          	blez	a4,9b48 <__subdf3+0x714>
    95b6:	1a081263          	bnez	a6,975a <__subdf3+0x326>
    95ba:	00b7e6b3          	or	a3,a5,a1
    95be:	24068863          	beqz	a3,980e <__subdf3+0x3da>
    95c2:	fff70613          	addi	a2,a4,-1
    95c6:	3c060263          	beqz	a2,998a <__subdf3+0x556>
    95ca:	44670363          	beq	a4,t1,9a10 <__subdf3+0x5dc>
    95ce:	03800713          	li	a4,56
    95d2:	4685                	li	a3,1
    95d4:	02c74663          	blt	a4,a2,9600 <__subdf3+0x1cc>
    95d8:	8732                	mv	a4,a2
    95da:	46fd                	li	a3,31
    95dc:	40e6c363          	blt	a3,a4,99e2 <__subdf3+0x5ae>
    95e0:	02000613          	li	a2,32
    95e4:	8e19                	sub	a2,a2,a4
    95e6:	00c796b3          	sll	a3,a5,a2
    95ea:	00e5d533          	srl	a0,a1,a4
    95ee:	00c59633          	sll	a2,a1,a2
    95f2:	8ec9                	or	a3,a3,a0
    95f4:	00c03633          	snez	a2,a2
    95f8:	00e7d733          	srl	a4,a5,a4
    95fc:	8ed1                	or	a3,a3,a2
    95fe:	993a                	add	s2,s2,a4
    9600:	011687b3          	add	a5,a3,a7
    9604:	00d7b6b3          	sltu	a3,a5,a3
    9608:	89be                	mv	s3,a5
    960a:	9936                	add	s2,s2,a3
    960c:	008007b7          	lui	a5,0x800
    9610:	00f977b3          	and	a5,s2,a5
    9614:	16078463          	beqz	a5,977c <__subdf3+0x348>
    9618:	0405                	addi	s0,s0,1
    961a:	7ff00793          	li	a5,2047
    961e:	14f40963          	beq	s0,a5,9770 <__subdf3+0x33c>
    9622:	ff8007b7          	lui	a5,0xff800
    9626:	17fd                	addi	a5,a5,-1 # ff7fffff <_eusrstack+0xdf7fafff>
    9628:	00f977b3          	and	a5,s2,a5
    962c:	0019d713          	srli	a4,s3,0x1
    9630:	0019f993          	andi	s3,s3,1
    9634:	01376733          	or	a4,a4,s3
    9638:	01f79993          	slli	s3,a5,0x1f
    963c:	00e9e9b3          	or	s3,s3,a4
    9640:	0017d913          	srli	s2,a5,0x1
    9644:	b709                	j	9546 <__subdf3+0x112>
    9646:	00b7e733          	or	a4,a5,a1
    964a:	80140313          	addi	t1,s0,-2047
    964e:	cb29                	beqz	a4,96a0 <__subdf3+0x26c>
    9650:	04d48c63          	beq	s1,a3,96a8 <__subdf3+0x274>
    9654:	0a030c63          	beqz	t1,970c <__subdf3+0x2d8>
    9658:	1a040363          	beqz	s0,97fe <__subdf3+0x3ca>
    965c:	060e                	slli	a2,a2,0x3
    965e:	01d79713          	slli	a4,a5,0x1d
    9662:	820d                	srli	a2,a2,0x3
    9664:	8f51                	or	a4,a4,a2
    9666:	838d                	srli	a5,a5,0x3
    9668:	84b6                	mv	s1,a3
    966a:	8f5d                	or	a4,a4,a5
    966c:	10070263          	beqz	a4,9770 <__subdf3+0x33c>
    9670:	4481                	li	s1,0
    9672:	7ff00413          	li	s0,2047
    9676:	000807b7          	lui	a5,0x80
    967a:	4701                	li	a4,0
    967c:	bf31                	j	9598 <__subdf3+0x164>
    967e:	00b7e6b3          	or	a3,a5,a1
    9682:	18068663          	beqz	a3,980e <__subdf3+0x3da>
    9686:	fff70693          	addi	a3,a4,-1
    968a:	32068963          	beqz	a3,99bc <__subdf3+0x588>
    968e:	30670e63          	beq	a4,t1,99aa <__subdf3+0x576>
    9692:	03800713          	li	a4,56
    9696:	4985                	li	s3,1
    9698:	e4d741e3          	blt	a4,a3,94da <__subdf3+0xa6>
    969c:	8736                	mv	a4,a3
    969e:	bd01                	j	94ae <__subdf3+0x7a>
    96a0:	0016c693          	xori	a3,a3,1
    96a4:	fad498e3          	bne	s1,a3,9654 <__subdf3+0x220>
    96a8:	16030e63          	beqz	t1,9824 <__subdf3+0x3f0>
    96ac:	26041463          	bnez	s0,9914 <__subdf3+0x4e0>
    96b0:	7ff00713          	li	a4,2047
    96b4:	011966b3          	or	a3,s2,a7
    96b8:	3c068863          	beqz	a3,9a88 <__subdf3+0x654>
    96bc:	fff70693          	addi	a3,a4,-1
    96c0:	2c068563          	beqz	a3,998a <__subdf3+0x556>
    96c4:	7ff00513          	li	a0,2047
    96c8:	24a70663          	beq	a4,a0,9914 <__subdf3+0x4e0>
    96cc:	03800613          	li	a2,56
    96d0:	4705                	li	a4,1
    96d2:	02d64563          	blt	a2,a3,96fc <__subdf3+0x2c8>
    96d6:	477d                	li	a4,31
    96d8:	3ed74e63          	blt	a4,a3,9ad4 <__subdf3+0x6a0>
    96dc:	02000613          	li	a2,32
    96e0:	8e15                	sub	a2,a2,a3
    96e2:	00c91733          	sll	a4,s2,a2
    96e6:	00d8d533          	srl	a0,a7,a3
    96ea:	00c89633          	sll	a2,a7,a2
    96ee:	8f49                	or	a4,a4,a0
    96f0:	00c03633          	snez	a2,a2
    96f4:	00d956b3          	srl	a3,s2,a3
    96f8:	8f51                	or	a4,a4,a2
    96fa:	97b6                	add	a5,a5,a3
    96fc:	95ba                	add	a1,a1,a4
    96fe:	00e5b733          	sltu	a4,a1,a4
    9702:	89ae                	mv	s3,a1
    9704:	00f70933          	add	s2,a4,a5
    9708:	8442                	mv	s0,a6
    970a:	b709                	j	960c <__subdf3+0x1d8>
    970c:	00140713          	addi	a4,s0,1
    9710:	7fe77713          	andi	a4,a4,2046
    9714:	14071d63          	bnez	a4,986e <__subdf3+0x43a>
    9718:	00b7e733          	or	a4,a5,a1
    971c:	01196833          	or	a6,s2,a7
    9720:	24041b63          	bnez	s0,9976 <__subdf3+0x542>
    9724:	32080363          	beqz	a6,9a4a <__subdf3+0x616>
    9728:	34070763          	beqz	a4,9a76 <__subdf3+0x642>
    972c:	40b889b3          	sub	s3,a7,a1
    9730:	0138b733          	sltu	a4,a7,s3
    9734:	40f90633          	sub	a2,s2,a5
    9738:	8e19                	sub	a2,a2,a4
    973a:	00800737          	lui	a4,0x800
    973e:	8f71                	and	a4,a4,a2
    9740:	3c070563          	beqz	a4,9b0a <__subdf3+0x6d6>
    9744:	411588b3          	sub	a7,a1,a7
    9748:	412787b3          	sub	a5,a5,s2
    974c:	0115b5b3          	sltu	a1,a1,a7
    9750:	89c6                	mv	s3,a7
    9752:	40b78933          	sub	s2,a5,a1
    9756:	84b6                	mv	s1,a3
    9758:	b3fd                	j	9546 <__subdf3+0x112>
    975a:	24640863          	beq	s0,t1,99aa <__subdf3+0x576>
    975e:	03800613          	li	a2,56
    9762:	4685                	li	a3,1
    9764:	e8e64ee3          	blt	a2,a4,9600 <__subdf3+0x1cc>
    9768:	008006b7          	lui	a3,0x800
    976c:	8fd5                	or	a5,a5,a3
    976e:	b5b5                	j	95da <__subdf3+0x1a6>
    9770:	8885                	andi	s1,s1,1
    9772:	7ff00413          	li	s0,2047
    9776:	4781                	li	a5,0
    9778:	4701                	li	a4,0
    977a:	bd39                	j	9598 <__subdf3+0x164>
    977c:	0079f713          	andi	a4,s3,7
    9780:	dc0716e3          	bnez	a4,954c <__subdf3+0x118>
    9784:	a0d5                	j	9868 <__subdf3+0x434>
    9786:	854e                	mv	a0,s3
    9788:	75a010ef          	jal	ra,aee2 <__clzsi2>
    978c:	01850713          	addi	a4,a0,24
    9790:	46fd                	li	a3,31
    9792:	d6e6dae3          	bge	a3,a4,9506 <__subdf3+0xd2>
    9796:	ff850793          	addi	a5,a0,-8
    979a:	00f997b3          	sll	a5,s3,a5
    979e:	18874263          	blt	a4,s0,9922 <__subdf3+0x4ee>
    97a2:	408709b3          	sub	s3,a4,s0
    97a6:	00198713          	addi	a4,s3,1
    97aa:	36e6d663          	bge	a3,a4,9b16 <__subdf3+0x6e2>
    97ae:	1985                	addi	s3,s3,-31
    97b0:	02000693          	li	a3,32
    97b4:	0137d9b3          	srl	s3,a5,s3
    97b8:	00d70c63          	beq	a4,a3,97d0 <__subdf3+0x39c>
    97bc:	04000693          	li	a3,64
    97c0:	40e68733          	sub	a4,a3,a4
    97c4:	00e797b3          	sll	a5,a5,a4
    97c8:	00f037b3          	snez	a5,a5
    97cc:	00f9e9b3          	or	s3,s3,a5
    97d0:	0079f713          	andi	a4,s3,7
    97d4:	4401                	li	s0,0
    97d6:	d6071be3          	bnez	a4,954c <__subdf3+0x118>
    97da:	a079                	j	9868 <__subdf3+0x434>
    97dc:	0039d793          	srli	a5,s3,0x3
    97e0:	01d91713          	slli	a4,s2,0x1d
    97e4:	7ff00693          	li	a3,2047
    97e8:	8f5d                	or	a4,a4,a5
    97ea:	00395793          	srli	a5,s2,0x3
    97ee:	e6d40ee3          	beq	s0,a3,966a <__subdf3+0x236>
    97f2:	07b2                	slli	a5,a5,0xc
    97f4:	83b1                	srli	a5,a5,0xc
    97f6:	7ff47413          	andi	s0,s0,2047
    97fa:	8885                	andi	s1,s1,1
    97fc:	bb71                	j	9598 <__subdf3+0x164>
    97fe:	7ff00713          	li	a4,2047
    9802:	01196533          	or	a0,s2,a7
    9806:	ed45                	bnez	a0,98be <__subdf3+0x48a>
    9808:	893e                	mv	s2,a5
    980a:	88ae                	mv	a7,a1
    980c:	84b6                	mv	s1,a3
    980e:	0038d793          	srli	a5,a7,0x3
    9812:	843a                	mv	s0,a4
    9814:	b7f1                	j	97e0 <__subdf3+0x3ac>
    9816:	ff800937          	lui	s2,0xff800
    981a:	197d                	addi	s2,s2,-1 # ff7fffff <_eusrstack+0xdf7fafff>
    981c:	8c19                	sub	s0,s0,a4
    981e:	0127f933          	and	s2,a5,s2
    9822:	b315                	j	9546 <__subdf3+0x112>
    9824:	00140693          	addi	a3,s0,1
    9828:	7fe6f713          	andi	a4,a3,2046
    982c:	10071463          	bnez	a4,9934 <__subdf3+0x500>
    9830:	01196733          	or	a4,s2,a7
    9834:	1c041a63          	bnez	s0,9a08 <__subdf3+0x5d4>
    9838:	26070663          	beqz	a4,9aa4 <__subdf3+0x670>
    983c:	00b7e733          	or	a4,a5,a1
    9840:	28070163          	beqz	a4,9ac2 <__subdf3+0x68e>
    9844:	95c6                	add	a1,a1,a7
    9846:	97ca                	add	a5,a5,s2
    9848:	0115b8b3          	sltu	a7,a1,a7
    984c:	01178933          	add	s2,a5,a7
    9850:	00800737          	lui	a4,0x800
    9854:	00e97733          	and	a4,s2,a4
    9858:	89ae                	mv	s3,a1
    985a:	c719                	beqz	a4,9868 <__subdf3+0x434>
    985c:	ff8007b7          	lui	a5,0xff800
    9860:	17fd                	addi	a5,a5,-1 # ff7fffff <_eusrstack+0xdf7fafff>
    9862:	00f97933          	and	s2,s2,a5
    9866:	4405                	li	s0,1
    9868:	88ce                	mv	a7,s3
    986a:	8722                	mv	a4,s0
    986c:	b74d                	j	980e <__subdf3+0x3da>
    986e:	40b889b3          	sub	s3,a7,a1
    9872:	0138b733          	sltu	a4,a7,s3
    9876:	40f90633          	sub	a2,s2,a5
    987a:	8e19                	sub	a2,a2,a4
    987c:	00800737          	lui	a4,0x800
    9880:	8f71                	and	a4,a4,a2
    9882:	ef79                	bnez	a4,9960 <__subdf3+0x52c>
    9884:	00c9e733          	or	a4,s3,a2
    9888:	8932                	mv	s2,a2
    988a:	c60717e3          	bnez	a4,94f8 <__subdf3+0xc4>
    988e:	4481                	li	s1,0
    9890:	4401                	li	s0,0
    9892:	4781                	li	a5,0
    9894:	b311                	j	9598 <__subdf3+0x164>
    9896:	fe070693          	addi	a3,a4,-32 # 7fffe0 <_data_lma+0x7f2fcc>
    989a:	02000613          	li	a2,32
    989e:	00d7d6b3          	srl	a3,a5,a3
    98a2:	00c70963          	beq	a4,a2,98b4 <__subdf3+0x480>
    98a6:	04000613          	li	a2,64
    98aa:	40e60733          	sub	a4,a2,a4
    98ae:	00e797b3          	sll	a5,a5,a4
    98b2:	8ddd                	or	a1,a1,a5
    98b4:	00b039b3          	snez	s3,a1
    98b8:	00d9e9b3          	or	s3,s3,a3
    98bc:	b939                	j	94da <__subdf3+0xa6>
    98be:	fff70513          	addi	a0,a4,-1
    98c2:	18050e63          	beqz	a0,9a5e <__subdf3+0x62a>
    98c6:	7ff00313          	li	t1,2047
    98ca:	1e670463          	beq	a4,t1,9ab2 <__subdf3+0x67e>
    98ce:	03800713          	li	a4,56
    98d2:	84b6                	mv	s1,a3
    98d4:	4985                	li	s3,1
    98d6:	02a74763          	blt	a4,a0,9904 <__subdf3+0x4d0>
    98da:	477d                	li	a4,31
    98dc:	14a74363          	blt	a4,a0,9a22 <__subdf3+0x5ee>
    98e0:	02000713          	li	a4,32
    98e4:	8f09                	sub	a4,a4,a0
    98e6:	00e919b3          	sll	s3,s2,a4
    98ea:	00a8d6b3          	srl	a3,a7,a0
    98ee:	00e89733          	sll	a4,a7,a4
    98f2:	00d9e9b3          	or	s3,s3,a3
    98f6:	00e03733          	snez	a4,a4
    98fa:	00a95533          	srl	a0,s2,a0
    98fe:	00e9e9b3          	or	s3,s3,a4
    9902:	8f89                	sub	a5,a5,a0
    9904:	413589b3          	sub	s3,a1,s3
    9908:	0135b5b3          	sltu	a1,a1,s3
    990c:	40b78933          	sub	s2,a5,a1
    9910:	8442                	mv	s0,a6
    9912:	bed1                	j	94e6 <__subdf3+0xb2>
    9914:	060e                	slli	a2,a2,0x3
    9916:	01d79713          	slli	a4,a5,0x1d
    991a:	820d                	srli	a2,a2,0x3
    991c:	8f51                	or	a4,a4,a2
    991e:	838d                	srli	a5,a5,0x3
    9920:	b3a9                	j	966a <__subdf3+0x236>
    9922:	ff8006b7          	lui	a3,0xff800
    9926:	16fd                	addi	a3,a3,-1 # ff7fffff <_eusrstack+0xdf7fafff>
    9928:	8ff5                	and	a5,a5,a3
    992a:	8c19                	sub	s0,s0,a4
    992c:	01d79713          	slli	a4,a5,0x1d
    9930:	838d                	srli	a5,a5,0x3
    9932:	b5c1                	j	97f2 <__subdf3+0x3be>
    9934:	7ff00713          	li	a4,2047
    9938:	e2e68ce3          	beq	a3,a4,9770 <__subdf3+0x33c>
    993c:	00b88733          	add	a4,a7,a1
    9940:	97ca                	add	a5,a5,s2
    9942:	011738b3          	sltu	a7,a4,a7
    9946:	97c6                	add	a5,a5,a7
    9948:	8305                	srli	a4,a4,0x1
    994a:	01f79993          	slli	s3,a5,0x1f
    994e:	00e9e9b3          	or	s3,s3,a4
    9952:	8b1d                	andi	a4,a4,7
    9954:	0017d913          	srli	s2,a5,0x1
    9958:	8436                	mv	s0,a3
    995a:	be0719e3          	bnez	a4,954c <__subdf3+0x118>
    995e:	b729                	j	9868 <__subdf3+0x434>
    9960:	411588b3          	sub	a7,a1,a7
    9964:	412787b3          	sub	a5,a5,s2
    9968:	0115b5b3          	sltu	a1,a1,a7
    996c:	89c6                	mv	s3,a7
    996e:	40b78933          	sub	s2,a5,a1
    9972:	84b6                	mv	s1,a3
    9974:	b651                	j	94f8 <__subdf3+0xc4>
    9976:	10081c63          	bnez	a6,9a8e <__subdf3+0x65a>
    997a:	ce0711e3          	bnez	a4,965c <__subdf3+0x228>
    997e:	4481                	li	s1,0
    9980:	7ff00413          	li	s0,2047
    9984:	000807b7          	lui	a5,0x80
    9988:	b901                	j	9598 <__subdf3+0x164>
    998a:	95c6                	add	a1,a1,a7
    998c:	97ca                	add	a5,a5,s2
    998e:	0115b8b3          	sltu	a7,a1,a7
    9992:	01178933          	add	s2,a5,a7
    9996:	008007b7          	lui	a5,0x800
    999a:	00f977b3          	and	a5,s2,a5
    999e:	89ae                	mv	s3,a1
    99a0:	4405                	li	s0,1
    99a2:	dc078de3          	beqz	a5,977c <__subdf3+0x348>
    99a6:	4409                	li	s0,2
    99a8:	b9ad                	j	9622 <__subdf3+0x1ee>
    99aa:	050e                	slli	a0,a0,0x3
    99ac:	01d91793          	slli	a5,s2,0x1d
    99b0:	00355713          	srli	a4,a0,0x3
    99b4:	8f5d                	or	a4,a4,a5
    99b6:	00395793          	srli	a5,s2,0x3
    99ba:	b945                	j	966a <__subdf3+0x236>
    99bc:	40b885b3          	sub	a1,a7,a1
    99c0:	40f907b3          	sub	a5,s2,a5
    99c4:	00b8b8b3          	sltu	a7,a7,a1
    99c8:	89ae                	mv	s3,a1
    99ca:	41178933          	sub	s2,a5,a7
    99ce:	4405                	li	s0,1
    99d0:	be19                	j	94e6 <__subdf3+0xb2>
    99d2:	050e                	slli	a0,a0,0x3
    99d4:	01d91713          	slli	a4,s2,0x1d
    99d8:	810d                	srli	a0,a0,0x3
    99da:	8f49                	or	a4,a4,a0
    99dc:	00395793          	srli	a5,s2,0x3
    99e0:	b169                	j	966a <__subdf3+0x236>
    99e2:	fe070613          	addi	a2,a4,-32
    99e6:	02000693          	li	a3,32
    99ea:	00c7d633          	srl	a2,a5,a2
    99ee:	00d70963          	beq	a4,a3,9a00 <__subdf3+0x5cc>
    99f2:	04000693          	li	a3,64
    99f6:	40e68733          	sub	a4,a3,a4
    99fa:	00e797b3          	sll	a5,a5,a4
    99fe:	8ddd                	or	a1,a1,a5
    9a00:	00b036b3          	snez	a3,a1
    9a04:	8ed1                	or	a3,a3,a2
    9a06:	beed                	j	9600 <__subdf3+0x1cc>
    9a08:	cb6d                	beqz	a4,9afa <__subdf3+0x6c6>
    9a0a:	8ddd                	or	a1,a1,a5
    9a0c:	c60592e3          	bnez	a1,9670 <__subdf3+0x23c>
    9a10:	050e                	slli	a0,a0,0x3
    9a12:	01d91793          	slli	a5,s2,0x1d
    9a16:	810d                	srli	a0,a0,0x3
    9a18:	00f56733          	or	a4,a0,a5
    9a1c:	00395793          	srli	a5,s2,0x3
    9a20:	b1a9                	j	966a <__subdf3+0x236>
    9a22:	fe050713          	addi	a4,a0,-32
    9a26:	02000693          	li	a3,32
    9a2a:	00e95733          	srl	a4,s2,a4
    9a2e:	00d50963          	beq	a0,a3,9a40 <__subdf3+0x60c>
    9a32:	04000693          	li	a3,64
    9a36:	8e89                	sub	a3,a3,a0
    9a38:	00d916b3          	sll	a3,s2,a3
    9a3c:	00d8e8b3          	or	a7,a7,a3
    9a40:	011039b3          	snez	s3,a7
    9a44:	00e9e9b3          	or	s3,s3,a4
    9a48:	bd75                	j	9904 <__subdf3+0x4d0>
    9a4a:	e40702e3          	beqz	a4,988e <__subdf3+0x45a>
    9a4e:	060e                	slli	a2,a2,0x3
    9a50:	01d79713          	slli	a4,a5,0x1d
    9a54:	820d                	srli	a2,a2,0x3
    9a56:	8f51                	or	a4,a4,a2
    9a58:	838d                	srli	a5,a5,0x3
    9a5a:	84b6                	mv	s1,a3
    9a5c:	bb59                	j	97f2 <__subdf3+0x3be>
    9a5e:	411588b3          	sub	a7,a1,a7
    9a62:	412787b3          	sub	a5,a5,s2
    9a66:	0115b5b3          	sltu	a1,a1,a7
    9a6a:	89c6                	mv	s3,a7
    9a6c:	40b78933          	sub	s2,a5,a1
    9a70:	84b6                	mv	s1,a3
    9a72:	4405                	li	s0,1
    9a74:	bc8d                	j	94e6 <__subdf3+0xb2>
    9a76:	00351793          	slli	a5,a0,0x3
    9a7a:	838d                	srli	a5,a5,0x3
    9a7c:	01d91713          	slli	a4,s2,0x1d
    9a80:	8f5d                	or	a4,a4,a5
    9a82:	00395793          	srli	a5,s2,0x3
    9a86:	b3b5                	j	97f2 <__subdf3+0x3be>
    9a88:	893e                	mv	s2,a5
    9a8a:	88ae                	mv	a7,a1
    9a8c:	b349                	j	980e <__subdf3+0x3da>
    9a8e:	be0711e3          	bnez	a4,9670 <__subdf3+0x23c>
    9a92:	00351793          	slli	a5,a0,0x3
    9a96:	838d                	srli	a5,a5,0x3
    9a98:	01d91713          	slli	a4,s2,0x1d
    9a9c:	8f5d                	or	a4,a4,a5
    9a9e:	00395793          	srli	a5,s2,0x3
    9aa2:	b6e1                	j	966a <__subdf3+0x236>
    9aa4:	060e                	slli	a2,a2,0x3
    9aa6:	01d79713          	slli	a4,a5,0x1d
    9aaa:	820d                	srli	a2,a2,0x3
    9aac:	8f51                	or	a4,a4,a2
    9aae:	838d                	srli	a5,a5,0x3
    9ab0:	b389                	j	97f2 <__subdf3+0x3be>
    9ab2:	060e                	slli	a2,a2,0x3
    9ab4:	01d79713          	slli	a4,a5,0x1d
    9ab8:	820d                	srli	a2,a2,0x3
    9aba:	8f51                	or	a4,a4,a2
    9abc:	838d                	srli	a5,a5,0x3
    9abe:	84b6                	mv	s1,a3
    9ac0:	b66d                	j	966a <__subdf3+0x236>
    9ac2:	050e                	slli	a0,a0,0x3
    9ac4:	01d91793          	slli	a5,s2,0x1d
    9ac8:	810d                	srli	a0,a0,0x3
    9aca:	00f56733          	or	a4,a0,a5
    9ace:	00395793          	srli	a5,s2,0x3
    9ad2:	b305                	j	97f2 <__subdf3+0x3be>
    9ad4:	fe068613          	addi	a2,a3,-32
    9ad8:	02000713          	li	a4,32
    9adc:	00c95633          	srl	a2,s2,a2
    9ae0:	00e68963          	beq	a3,a4,9af2 <__subdf3+0x6be>
    9ae4:	04000713          	li	a4,64
    9ae8:	8f15                	sub	a4,a4,a3
    9aea:	00e91733          	sll	a4,s2,a4
    9aee:	00e8e8b3          	or	a7,a7,a4
    9af2:	01103733          	snez	a4,a7
    9af6:	8f51                	or	a4,a4,a2
    9af8:	b111                	j	96fc <__subdf3+0x2c8>
    9afa:	060e                	slli	a2,a2,0x3
    9afc:	01d79713          	slli	a4,a5,0x1d
    9b00:	00365693          	srli	a3,a2,0x3
    9b04:	8f55                	or	a4,a4,a3
    9b06:	838d                	srli	a5,a5,0x3
    9b08:	b68d                	j	966a <__subdf3+0x236>
    9b0a:	00c9e733          	or	a4,s3,a2
    9b0e:	8932                	mv	s2,a2
    9b10:	d4071ce3          	bnez	a4,9868 <__subdf3+0x434>
    9b14:	bbad                	j	988e <__subdf3+0x45a>
    9b16:	02000693          	li	a3,32
    9b1a:	8e99                	sub	a3,a3,a4
    9b1c:	4601                	li	a2,0
    9b1e:	bc19                	j	9534 <__subdf3+0x100>
    9b20:	be0706e3          	beqz	a4,970c <__subdf3+0x2d8>
    9b24:	40880533          	sub	a0,a6,s0
    9b28:	872a                	mv	a4,a0
    9b2a:	cc040ce3          	beqz	s0,9802 <__subdf3+0x3ce>
    9b2e:	03800713          	li	a4,56
    9b32:	00a74863          	blt	a4,a0,9b42 <__subdf3+0x70e>
    9b36:	00800737          	lui	a4,0x800
    9b3a:	00e96933          	or	s2,s2,a4
    9b3e:	84b6                	mv	s1,a3
    9b40:	bb69                	j	98da <__subdf3+0x4a6>
    9b42:	84b6                	mv	s1,a3
    9b44:	4985                	li	s3,1
    9b46:	bb7d                	j	9904 <__subdf3+0x4d0>
    9b48:	cc070ee3          	beqz	a4,9824 <__subdf3+0x3f0>
    9b4c:	408806b3          	sub	a3,a6,s0
    9b50:	e019                	bnez	s0,9b56 <__subdf3+0x722>
    9b52:	8736                	mv	a4,a3
    9b54:	b685                	j	96b4 <__subdf3+0x280>
    9b56:	03800613          	li	a2,56
    9b5a:	4705                	li	a4,1
    9b5c:	bad640e3          	blt	a2,a3,96fc <__subdf3+0x2c8>
    9b60:	00800737          	lui	a4,0x800
    9b64:	00e96933          	or	s2,s2,a4
    9b68:	b6bd                	j	96d6 <__subdf3+0x2a2>

00009b6a <__floatsidf>:
    9b6a:	1141                	addi	sp,sp,-16
    9b6c:	c606                	sw	ra,12(sp)
    9b6e:	c422                	sw	s0,8(sp)
    9b70:	c226                	sw	s1,4(sp)
    9b72:	cd15                	beqz	a0,9bae <__floatsidf+0x44>
    9b74:	41f55713          	srai	a4,a0,0x1f
    9b78:	00a744b3          	xor	s1,a4,a0
    9b7c:	8c99                	sub	s1,s1,a4
    9b7e:	87aa                	mv	a5,a0
    9b80:	8526                	mv	a0,s1
    9b82:	01f7d413          	srli	s0,a5,0x1f
    9b86:	35c010ef          	jal	ra,aee2 <__clzsi2>
    9b8a:	41e00793          	li	a5,1054
    9b8e:	8f89                	sub	a5,a5,a0
    9b90:	4729                	li	a4,10
    9b92:	7ff7f793          	andi	a5,a5,2047
    9b96:	02a74b63          	blt	a4,a0,9bcc <__floatsidf+0x62>
    9b9a:	472d                	li	a4,11
    9b9c:	8f09                	sub	a4,a4,a0
    9b9e:	00e4d733          	srl	a4,s1,a4
    9ba2:	0555                	addi	a0,a0,21
    9ba4:	0732                	slli	a4,a4,0xc
    9ba6:	00a494b3          	sll	s1,s1,a0
    9baa:	8331                	srli	a4,a4,0xc
    9bac:	a029                	j	9bb6 <__floatsidf+0x4c>
    9bae:	4401                	li	s0,0
    9bb0:	4781                	li	a5,0
    9bb2:	4701                	li	a4,0
    9bb4:	4481                	li	s1,0
    9bb6:	07d2                	slli	a5,a5,0x14
    9bb8:	047e                	slli	s0,s0,0x1f
    9bba:	8fd9                	or	a5,a5,a4
    9bbc:	40b2                	lw	ra,12(sp)
    9bbe:	8fc1                	or	a5,a5,s0
    9bc0:	4422                	lw	s0,8(sp)
    9bc2:	8526                	mv	a0,s1
    9bc4:	85be                	mv	a1,a5
    9bc6:	4492                	lw	s1,4(sp)
    9bc8:	0141                	addi	sp,sp,16
    9bca:	8082                	ret
    9bcc:	1555                	addi	a0,a0,-11
    9bce:	00a49733          	sll	a4,s1,a0
    9bd2:	0732                	slli	a4,a4,0xc
    9bd4:	8331                	srli	a4,a4,0xc
    9bd6:	4481                	li	s1,0
    9bd8:	bff9                	j	9bb6 <__floatsidf+0x4c>

00009bda <__floatunsidf>:
    9bda:	1141                	addi	sp,sp,-16
    9bdc:	c422                	sw	s0,8(sp)
    9bde:	c606                	sw	ra,12(sp)
    9be0:	842a                	mv	s0,a0
    9be2:	cd05                	beqz	a0,9c1a <__floatunsidf+0x40>
    9be4:	2fe010ef          	jal	ra,aee2 <__clzsi2>
    9be8:	41e00793          	li	a5,1054
    9bec:	8f89                	sub	a5,a5,a0
    9bee:	4729                	li	a4,10
    9bf0:	7ff7f793          	andi	a5,a5,2047
    9bf4:	02a74d63          	blt	a4,a0,9c2e <__floatunsidf+0x54>
    9bf8:	472d                	li	a4,11
    9bfa:	8f09                	sub	a4,a4,a0
    9bfc:	0555                	addi	a0,a0,21
    9bfe:	00e45733          	srl	a4,s0,a4
    9c02:	00a41433          	sll	s0,s0,a0
    9c06:	40b2                	lw	ra,12(sp)
    9c08:	8522                	mv	a0,s0
    9c0a:	0732                	slli	a4,a4,0xc
    9c0c:	4422                	lw	s0,8(sp)
    9c0e:	8331                	srli	a4,a4,0xc
    9c10:	07d2                	slli	a5,a5,0x14
    9c12:	8fd9                	or	a5,a5,a4
    9c14:	85be                	mv	a1,a5
    9c16:	0141                	addi	sp,sp,16
    9c18:	8082                	ret
    9c1a:	40b2                	lw	ra,12(sp)
    9c1c:	8522                	mv	a0,s0
    9c1e:	4781                	li	a5,0
    9c20:	4422                	lw	s0,8(sp)
    9c22:	4701                	li	a4,0
    9c24:	07d2                	slli	a5,a5,0x14
    9c26:	8fd9                	or	a5,a5,a4
    9c28:	85be                	mv	a1,a5
    9c2a:	0141                	addi	sp,sp,16
    9c2c:	8082                	ret
    9c2e:	1555                	addi	a0,a0,-11
    9c30:	00a41733          	sll	a4,s0,a0
    9c34:	4401                	li	s0,0
    9c36:	40b2                	lw	ra,12(sp)
    9c38:	8522                	mv	a0,s0
    9c3a:	0732                	slli	a4,a4,0xc
    9c3c:	4422                	lw	s0,8(sp)
    9c3e:	8331                	srli	a4,a4,0xc
    9c40:	07d2                	slli	a5,a5,0x14
    9c42:	8fd9                	or	a5,a5,a4
    9c44:	85be                	mv	a1,a5
    9c46:	0141                	addi	sp,sp,16
    9c48:	8082                	ret

00009c4a <__addsf3>:
    9c4a:	00800737          	lui	a4,0x800
    9c4e:	1141                	addi	sp,sp,-16
    9c50:	177d                	addi	a4,a4,-1 # 7fffff <_data_lma+0x7f2feb>
    9c52:	01755693          	srli	a3,a0,0x17
    9c56:	0175d613          	srli	a2,a1,0x17
    9c5a:	00a777b3          	and	a5,a4,a0
    9c5e:	c226                	sw	s1,4(sp)
    9c60:	8f6d                	and	a4,a4,a1
    9c62:	c04a                	sw	s2,0(sp)
    9c64:	0ff67613          	zext.b	a2,a2
    9c68:	0ff6f913          	zext.b	s2,a3
    9c6c:	c606                	sw	ra,12(sp)
    9c6e:	c422                	sw	s0,8(sp)
    9c70:	01f55493          	srli	s1,a0,0x1f
    9c74:	81fd                	srli	a1,a1,0x1f
    9c76:	078e                	slli	a5,a5,0x3
    9c78:	070e                	slli	a4,a4,0x3
    9c7a:	40c906b3          	sub	a3,s2,a2
    9c7e:	04b48163          	beq	s1,a1,9cc0 <__addsf3+0x76>
    9c82:	00d05f63          	blez	a3,9ca0 <__addsf3+0x56>
    9c86:	ee31                	bnez	a2,9ce2 <__addsf3+0x98>
    9c88:	12070163          	beqz	a4,9daa <__addsf3+0x160>
    9c8c:	fff68613          	addi	a2,a3,-1
    9c90:	2a060e63          	beqz	a2,9f4c <__addsf3+0x302>
    9c94:	0ff00593          	li	a1,255
    9c98:	16b68b63          	beq	a3,a1,9e0e <__addsf3+0x1c4>
    9c9c:	86b2                	mv	a3,a2
    9c9e:	a889                	j	9cf0 <__addsf3+0xa6>
    9ca0:	c2f1                	beqz	a3,9d64 <__addsf3+0x11a>
    9ca2:	412606b3          	sub	a3,a2,s2
    9ca6:	1c091c63          	bnez	s2,9e7e <__addsf3+0x234>
    9caa:	cff5                	beqz	a5,9da6 <__addsf3+0x15c>
    9cac:	fff68513          	addi	a0,a3,-1
    9cb0:	2c050963          	beqz	a0,9f82 <__addsf3+0x338>
    9cb4:	0ff00813          	li	a6,255
    9cb8:	15068963          	beq	a3,a6,9e0a <__addsf3+0x1c0>
    9cbc:	86aa                	mv	a3,a0
    9cbe:	a2f9                	j	9e8c <__addsf3+0x242>
    9cc0:	8826                	mv	a6,s1
    9cc2:	14d05863          	blez	a3,9e12 <__addsf3+0x1c8>
    9cc6:	c669                	beqz	a2,9d90 <__addsf3+0x146>
    9cc8:	0ff00613          	li	a2,255
    9ccc:	14c90163          	beq	s2,a2,9e0e <__addsf3+0x1c4>
    9cd0:	04000637          	lui	a2,0x4000
    9cd4:	8f51                	or	a4,a4,a2
    9cd6:	466d                	li	a2,27
    9cd8:	1ed65963          	bge	a2,a3,9eca <__addsf3+0x280>
    9cdc:	0785                	addi	a5,a5,1 # 800001 <_data_lma+0x7f2fed>
    9cde:	86ca                	mv	a3,s2
    9ce0:	a089                	j	9d22 <__addsf3+0xd8>
    9ce2:	0ff00613          	li	a2,255
    9ce6:	12c90463          	beq	s2,a2,9e0e <__addsf3+0x1c4>
    9cea:	04000637          	lui	a2,0x4000
    9cee:	8f51                	or	a4,a4,a2
    9cf0:	45ed                	li	a1,27
    9cf2:	4605                	li	a2,1
    9cf4:	00d5cd63          	blt	a1,a3,9d0e <__addsf3+0xc4>
    9cf8:	02000613          	li	a2,32
    9cfc:	8e15                	sub	a2,a2,a3
    9cfe:	00c71633          	sll	a2,a4,a2
    9d02:	00d756b3          	srl	a3,a4,a3
    9d06:	00c03733          	snez	a4,a2
    9d0a:	00e6e633          	or	a2,a3,a4
    9d0e:	8f91                	sub	a5,a5,a2
    9d10:	04000737          	lui	a4,0x4000
    9d14:	00e7f6b3          	and	a3,a5,a4
    9d18:	eacd                	bnez	a3,9dca <__addsf3+0x180>
    9d1a:	0077f713          	andi	a4,a5,7
    9d1e:	86ca                	mv	a3,s2
    9d20:	c749                	beqz	a4,9daa <__addsf3+0x160>
    9d22:	00f7f713          	andi	a4,a5,15
    9d26:	4611                	li	a2,4
    9d28:	00c70363          	beq	a4,a2,9d2e <__addsf3+0xe4>
    9d2c:	0791                	addi	a5,a5,4
    9d2e:	04000737          	lui	a4,0x4000
    9d32:	8f7d                	and	a4,a4,a5
    9d34:	cb3d                	beqz	a4,9daa <__addsf3+0x160>
    9d36:	00168513          	addi	a0,a3,1
    9d3a:	0ff00713          	li	a4,255
    9d3e:	8826                	mv	a6,s1
    9d40:	08e50163          	beq	a0,a4,9dc2 <__addsf3+0x178>
    9d44:	00679713          	slli	a4,a5,0x6
    9d48:	0ff57513          	zext.b	a0,a0
    9d4c:	8325                	srli	a4,a4,0x9
    9d4e:	40b2                	lw	ra,12(sp)
    9d50:	4422                	lw	s0,8(sp)
    9d52:	055e                	slli	a0,a0,0x17
    9d54:	8d59                	or	a0,a0,a4
    9d56:	01f81793          	slli	a5,a6,0x1f
    9d5a:	4492                	lw	s1,4(sp)
    9d5c:	4902                	lw	s2,0(sp)
    9d5e:	8d5d                	or	a0,a0,a5
    9d60:	0141                	addi	sp,sp,16
    9d62:	8082                	ret
    9d64:	00190613          	addi	a2,s2,1
    9d68:	0fe67613          	andi	a2,a2,254
    9d6c:	14061463          	bnez	a2,9eb4 <__addsf3+0x26a>
    9d70:	08091a63          	bnez	s2,9e04 <__addsf3+0x1ba>
    9d74:	20078363          	beqz	a5,9f7a <__addsf3+0x330>
    9d78:	cb75                	beqz	a4,9e6c <__addsf3+0x222>
    9d7a:	40e78533          	sub	a0,a5,a4
    9d7e:	04000637          	lui	a2,0x4000
    9d82:	8e69                	and	a2,a2,a0
    9d84:	22060363          	beqz	a2,9faa <__addsf3+0x360>
    9d88:	40f707b3          	sub	a5,a4,a5
    9d8c:	84ae                	mv	s1,a1
    9d8e:	a0bd                	j	9dfc <__addsf3+0x1b2>
    9d90:	cf09                	beqz	a4,9daa <__addsf3+0x160>
    9d92:	fff68613          	addi	a2,a3,-1
    9d96:	1a060363          	beqz	a2,9f3c <__addsf3+0x2f2>
    9d9a:	0ff00593          	li	a1,255
    9d9e:	06b68863          	beq	a3,a1,9e0e <__addsf3+0x1c4>
    9da2:	86b2                	mv	a3,a2
    9da4:	bf0d                	j	9cd6 <__addsf3+0x8c>
    9da6:	84ae                	mv	s1,a1
    9da8:	87ba                	mv	a5,a4
    9daa:	0ff00713          	li	a4,255
    9dae:	838d                	srli	a5,a5,0x3
    9db0:	0ce69063          	bne	a3,a4,9e70 <__addsf3+0x226>
    9db4:	cfc1                	beqz	a5,9e4c <__addsf3+0x202>
    9db6:	4801                	li	a6,0
    9db8:	0ff00513          	li	a0,255
    9dbc:	00400737          	lui	a4,0x400
    9dc0:	b779                	j	9d4e <__addsf3+0x104>
    9dc2:	0ff00513          	li	a0,255
    9dc6:	4701                	li	a4,0
    9dc8:	b759                	j	9d4e <__addsf3+0x104>
    9dca:	177d                	addi	a4,a4,-1 # 3fffff <_data_lma+0x3f2feb>
    9dcc:	00e7f433          	and	s0,a5,a4
    9dd0:	8522                	mv	a0,s0
    9dd2:	110010ef          	jal	ra,aee2 <__clzsi2>
    9dd6:	156d                	addi	a0,a0,-5
    9dd8:	00a41433          	sll	s0,s0,a0
    9ddc:	07254163          	blt	a0,s2,9e3e <__addsf3+0x1f4>
    9de0:	412506b3          	sub	a3,a0,s2
    9de4:	0685                	addi	a3,a3,1
    9de6:	02000793          	li	a5,32
    9dea:	8f95                	sub	a5,a5,a3
    9dec:	00f417b3          	sll	a5,s0,a5
    9df0:	00f037b3          	snez	a5,a5
    9df4:	00d45433          	srl	s0,s0,a3
    9df8:	8fc1                	or	a5,a5,s0
    9dfa:	4681                	li	a3,0
    9dfc:	0077f713          	andi	a4,a5,7
    9e00:	f30d                	bnez	a4,9d22 <__addsf3+0xd8>
    9e02:	b735                	j	9d2e <__addsf3+0xe4>
    9e04:	14079963          	bnez	a5,9f56 <__addsf3+0x30c>
    9e08:	d75d                	beqz	a4,9db6 <__addsf3+0x16c>
    9e0a:	84ae                	mv	s1,a1
    9e0c:	87ba                	mv	a5,a4
    9e0e:	838d                	srli	a5,a5,0x3
    9e10:	b755                	j	9db4 <__addsf3+0x16a>
    9e12:	c2b1                	beqz	a3,9e56 <__addsf3+0x20c>
    9e14:	412606b3          	sub	a3,a2,s2
    9e18:	0e091963          	bnez	s2,9f0a <__addsf3+0x2c0>
    9e1c:	d7d1                	beqz	a5,9da8 <__addsf3+0x15e>
    9e1e:	fff68593          	addi	a1,a3,-1
    9e22:	10058d63          	beqz	a1,9f3c <__addsf3+0x2f2>
    9e26:	0ff00513          	li	a0,255
    9e2a:	fea681e3          	beq	a3,a0,9e0c <__addsf3+0x1c2>
    9e2e:	86ae                	mv	a3,a1
    9e30:	45ed                	li	a1,27
    9e32:	12d5d663          	bge	a1,a3,9f5e <__addsf3+0x314>
    9e36:	00170793          	addi	a5,a4,1
    9e3a:	86b2                	mv	a3,a2
    9e3c:	b5dd                	j	9d22 <__addsf3+0xd8>
    9e3e:	fc0007b7          	lui	a5,0xfc000
    9e42:	17fd                	addi	a5,a5,-1 # fbffffff <_eusrstack+0xdbffafff>
    9e44:	40a906b3          	sub	a3,s2,a0
    9e48:	8fe1                	and	a5,a5,s0
    9e4a:	bf4d                	j	9dfc <__addsf3+0x1b2>
    9e4c:	8826                	mv	a6,s1
    9e4e:	0ff00513          	li	a0,255
    9e52:	4701                	li	a4,0
    9e54:	bded                	j	9d4e <__addsf3+0x104>
    9e56:	00190693          	addi	a3,s2,1
    9e5a:	0fe6f613          	andi	a2,a3,254
    9e5e:	ee55                	bnez	a2,9f1a <__addsf3+0x2d0>
    9e60:	0e091963          	bnez	s2,9f52 <__addsf3+0x308>
    9e64:	12078463          	beqz	a5,9f8c <__addsf3+0x342>
    9e68:	12071463          	bnez	a4,9f90 <__addsf3+0x346>
    9e6c:	838d                	srli	a5,a5,0x3
    9e6e:	4681                	li	a3,0
    9e70:	07a6                	slli	a5,a5,0x9
    9e72:	0097d713          	srli	a4,a5,0x9
    9e76:	0ff6f513          	zext.b	a0,a3
    9e7a:	8826                	mv	a6,s1
    9e7c:	bdc9                	j	9d4e <__addsf3+0x104>
    9e7e:	0ff00513          	li	a0,255
    9e82:	f8a604e3          	beq	a2,a0,9e0a <__addsf3+0x1c0>
    9e86:	04000537          	lui	a0,0x4000
    9e8a:	8fc9                	or	a5,a5,a0
    9e8c:	486d                	li	a6,27
    9e8e:	4505                	li	a0,1
    9e90:	00d84d63          	blt	a6,a3,9eaa <__addsf3+0x260>
    9e94:	02000513          	li	a0,32
    9e98:	8d15                	sub	a0,a0,a3
    9e9a:	00a79533          	sll	a0,a5,a0
    9e9e:	00d7d6b3          	srl	a3,a5,a3
    9ea2:	00a037b3          	snez	a5,a0
    9ea6:	00f6e533          	or	a0,a3,a5
    9eaa:	40a707b3          	sub	a5,a4,a0
    9eae:	8932                	mv	s2,a2
    9eb0:	84ae                	mv	s1,a1
    9eb2:	bdb9                	j	9d10 <__addsf3+0xc6>
    9eb4:	40e78433          	sub	s0,a5,a4
    9eb8:	040006b7          	lui	a3,0x4000
    9ebc:	8ee1                	and	a3,a3,s0
    9ebe:	eabd                	bnez	a3,9f34 <__addsf3+0x2ea>
    9ec0:	f801                	bnez	s0,9dd0 <__addsf3+0x186>
    9ec2:	4801                	li	a6,0
    9ec4:	4501                	li	a0,0
    9ec6:	4701                	li	a4,0
    9ec8:	b559                	j	9d4e <__addsf3+0x104>
    9eca:	02000613          	li	a2,32
    9ece:	8e15                	sub	a2,a2,a3
    9ed0:	00c71633          	sll	a2,a4,a2
    9ed4:	00d75733          	srl	a4,a4,a3
    9ed8:	00c036b3          	snez	a3,a2
    9edc:	8f55                	or	a4,a4,a3
    9ede:	97ba                	add	a5,a5,a4
    9ee0:	04000737          	lui	a4,0x4000
    9ee4:	8f7d                	and	a4,a4,a5
    9ee6:	e2070ae3          	beqz	a4,9d1a <__addsf3+0xd0>
    9eea:	00190693          	addi	a3,s2,1
    9eee:	0ff00513          	li	a0,255
    9ef2:	4701                	li	a4,0
    9ef4:	e4a68de3          	beq	a3,a0,9d4e <__addsf3+0x104>
    9ef8:	7e000637          	lui	a2,0x7e000
    9efc:	0017d713          	srli	a4,a5,0x1
    9f00:	167d                	addi	a2,a2,-1 # 7dffffff <_eusrstack+0x5dffafff>
    9f02:	8b85                	andi	a5,a5,1
    9f04:	8f71                	and	a4,a4,a2
    9f06:	8fd9                	or	a5,a5,a4
    9f08:	bdd5                	j	9dfc <__addsf3+0x1b2>
    9f0a:	0ff00593          	li	a1,255
    9f0e:	eeb60fe3          	beq	a2,a1,9e0c <__addsf3+0x1c2>
    9f12:	040005b7          	lui	a1,0x4000
    9f16:	8fcd                	or	a5,a5,a1
    9f18:	bf21                	j	9e30 <__addsf3+0x1e6>
    9f1a:	0ff00613          	li	a2,255
    9f1e:	eac682e3          	beq	a3,a2,9dc2 <__addsf3+0x178>
    9f22:	973e                	add	a4,a4,a5
    9f24:	00175793          	srli	a5,a4,0x1
    9f28:	0077f613          	andi	a2,a5,7
    9f2c:	de061be3          	bnez	a2,9d22 <__addsf3+0xd8>
    9f30:	838d                	srli	a5,a5,0x3
    9f32:	bf3d                	j	9e70 <__addsf3+0x226>
    9f34:	40f70433          	sub	s0,a4,a5
    9f38:	84ae                	mv	s1,a1
    9f3a:	bd59                	j	9dd0 <__addsf3+0x186>
    9f3c:	97ba                	add	a5,a5,a4
    9f3e:	04000737          	lui	a4,0x4000
    9f42:	8f7d                	and	a4,a4,a5
    9f44:	4689                	li	a3,2
    9f46:	4905                	li	s2,1
    9f48:	fb45                	bnez	a4,9ef8 <__addsf3+0x2ae>
    9f4a:	bbc1                	j	9d1a <__addsf3+0xd0>
    9f4c:	8f99                	sub	a5,a5,a4
    9f4e:	4905                	li	s2,1
    9f50:	b3c1                	j	9d10 <__addsf3+0xc6>
    9f52:	ea078de3          	beqz	a5,9e0c <__addsf3+0x1c2>
    9f56:	e60710e3          	bnez	a4,9db6 <__addsf3+0x16c>
    9f5a:	838d                	srli	a5,a5,0x3
    9f5c:	bda1                	j	9db4 <__addsf3+0x16a>
    9f5e:	02000593          	li	a1,32
    9f62:	8d95                	sub	a1,a1,a3
    9f64:	00b795b3          	sll	a1,a5,a1
    9f68:	00d7d6b3          	srl	a3,a5,a3
    9f6c:	00b037b3          	snez	a5,a1
    9f70:	8edd                	or	a3,a3,a5
    9f72:	00e687b3          	add	a5,a3,a4
    9f76:	8932                	mv	s2,a2
    9f78:	b7a5                	j	9ee0 <__addsf3+0x296>
    9f7a:	d721                	beqz	a4,9ec2 <__addsf3+0x278>
    9f7c:	84ae                	mv	s1,a1
    9f7e:	87ba                	mv	a5,a4
    9f80:	b5f5                	j	9e6c <__addsf3+0x222>
    9f82:	40f707b3          	sub	a5,a4,a5
    9f86:	84ae                	mv	s1,a1
    9f88:	4905                	li	s2,1
    9f8a:	b359                	j	9d10 <__addsf3+0xc6>
    9f8c:	87ba                	mv	a5,a4
    9f8e:	bdf9                	j	9e6c <__addsf3+0x222>
    9f90:	97ba                	add	a5,a5,a4
    9f92:	04000637          	lui	a2,0x4000
    9f96:	8e7d                	and	a2,a2,a5
    9f98:	4681                	li	a3,0
    9f9a:	da59                	beqz	a2,9f30 <__addsf3+0x2e6>
    9f9c:	fc000737          	lui	a4,0xfc000
    9fa0:	177d                	addi	a4,a4,-1 # fbffffff <_eusrstack+0xdbffafff>
    9fa2:	8ff9                	and	a5,a5,a4
    9fa4:	4685                	li	a3,1
    9fa6:	838d                	srli	a5,a5,0x3
    9fa8:	b5e1                	j	9e70 <__addsf3+0x226>
    9faa:	87aa                	mv	a5,a0
    9fac:	d919                	beqz	a0,9ec2 <__addsf3+0x278>
    9fae:	838d                	srli	a5,a5,0x3
    9fb0:	b5c1                	j	9e70 <__addsf3+0x226>

00009fb2 <__divsf3>:
    9fb2:	7179                	addi	sp,sp,-48
    9fb4:	01755793          	srli	a5,a0,0x17
    9fb8:	d04a                	sw	s2,32(sp)
    9fba:	ce4e                	sw	s3,28(sp)
    9fbc:	d606                	sw	ra,44(sp)
    9fbe:	00951993          	slli	s3,a0,0x9
    9fc2:	d422                	sw	s0,40(sp)
    9fc4:	d226                	sw	s1,36(sp)
    9fc6:	cc52                	sw	s4,24(sp)
    9fc8:	ca56                	sw	s5,20(sp)
    9fca:	c85a                	sw	s6,16(sp)
    9fcc:	0ff7f793          	zext.b	a5,a5
    9fd0:	0099d993          	srli	s3,s3,0x9
    9fd4:	01f55913          	srli	s2,a0,0x1f
    9fd8:	cff1                	beqz	a5,a0b4 <__divsf3+0x102>
    9fda:	0ff00713          	li	a4,255
    9fde:	0ee78163          	beq	a5,a4,a0c0 <__divsf3+0x10e>
    9fe2:	098e                	slli	s3,s3,0x3
    9fe4:	04000737          	lui	a4,0x4000
    9fe8:	00e9e9b3          	or	s3,s3,a4
    9fec:	f8178a93          	addi	s5,a5,-127
    9ff0:	4401                	li	s0,0
    9ff2:	4b01                	li	s6,0
    9ff4:	0175d793          	srli	a5,a1,0x17
    9ff8:	00959a13          	slli	s4,a1,0x9
    9ffc:	0ff7f793          	zext.b	a5,a5
    a000:	009a5a13          	srli	s4,s4,0x9
    a004:	01f5d493          	srli	s1,a1,0x1f
    a008:	c7c1                	beqz	a5,a090 <__divsf3+0xde>
    a00a:	0ff00713          	li	a4,255
    a00e:	0ce78063          	beq	a5,a4,a0ce <__divsf3+0x11c>
    a012:	0a0e                	slli	s4,s4,0x3
    a014:	04000737          	lui	a4,0x4000
    a018:	00ea6a33          	or	s4,s4,a4
    a01c:	f8178793          	addi	a5,a5,-127
    a020:	4601                	li	a2,0
    a022:	46bd                	li	a3,15
    a024:	00994733          	xor	a4,s2,s1
    a028:	40fa8ab3          	sub	s5,s5,a5
    a02c:	1a86eb63          	bltu	a3,s0,a1e2 <__divsf3+0x230>
    a030:	00003697          	auipc	a3,0x3
    a034:	d4868693          	addi	a3,a3,-696 # cd78 <MyDevDescr+0x54>
    a038:	040a                	slli	s0,s0,0x2
    a03a:	9436                	add	s0,s0,a3
    a03c:	401c                	lw	a5,0(s0)
    a03e:	97b6                	add	a5,a5,a3
    a040:	8782                	jr	a5
    a042:	0ff00793          	li	a5,255
    a046:	4681                	li	a3,0
    a048:	50b2                	lw	ra,44(sp)
    a04a:	5422                	lw	s0,40(sp)
    a04c:	01779513          	slli	a0,a5,0x17
    a050:	8d55                	or	a0,a0,a3
    a052:	077e                	slli	a4,a4,0x1f
    a054:	5492                	lw	s1,36(sp)
    a056:	5902                	lw	s2,32(sp)
    a058:	49f2                	lw	s3,28(sp)
    a05a:	4a62                	lw	s4,24(sp)
    a05c:	4ad2                	lw	s5,20(sp)
    a05e:	4b42                	lw	s6,16(sp)
    a060:	8d59                	or	a0,a0,a4
    a062:	6145                	addi	sp,sp,48
    a064:	8082                	ret
    a066:	478d                	li	a5,3
    a068:	00fb0e63          	beq	s6,a5,a084 <__divsf3+0xd2>
    a06c:	4785                	li	a5,1
    a06e:	0efb1563          	bne	s6,a5,a158 <__divsf3+0x1a6>
    a072:	872a                	mv	a4,a0
    a074:	4781                	li	a5,0
    a076:	4681                	li	a3,0
    a078:	bfc1                	j	a048 <__divsf3+0x96>
    a07a:	478d                	li	a5,3
    a07c:	8526                	mv	a0,s1
    a07e:	89d2                	mv	s3,s4
    a080:	0cf61c63          	bne	a2,a5,a158 <__divsf3+0x1a6>
    a084:	4701                	li	a4,0
    a086:	0ff00793          	li	a5,255
    a08a:	004006b7          	lui	a3,0x400
    a08e:	bf6d                	j	a048 <__divsf3+0x96>
    a090:	080a1d63          	bnez	s4,a12a <__divsf3+0x178>
    a094:	00146413          	ori	s0,s0,1
    a098:	47b5                	li	a5,13
    a09a:	00994733          	xor	a4,s2,s1
    a09e:	fa87e2e3          	bltu	a5,s0,a042 <__divsf3+0x90>
    a0a2:	00003697          	auipc	a3,0x3
    a0a6:	d1668693          	addi	a3,a3,-746 # cdb8 <MyDevDescr+0x94>
    a0aa:	040a                	slli	s0,s0,0x2
    a0ac:	9436                	add	s0,s0,a3
    a0ae:	401c                	lw	a5,0(s0)
    a0b0:	97b6                	add	a5,a5,a3
    a0b2:	8782                	jr	a5
    a0b4:	04099b63          	bnez	s3,a10a <__divsf3+0x158>
    a0b8:	4411                	li	s0,4
    a0ba:	4a81                	li	s5,0
    a0bc:	4b05                	li	s6,1
    a0be:	bf1d                	j	9ff4 <__divsf3+0x42>
    a0c0:	04099063          	bnez	s3,a100 <__divsf3+0x14e>
    a0c4:	4421                	li	s0,8
    a0c6:	0ff00a93          	li	s5,255
    a0ca:	4b09                	li	s6,2
    a0cc:	b725                	j	9ff4 <__divsf3+0x42>
    a0ce:	020a1363          	bnez	s4,a0f4 <__divsf3+0x142>
    a0d2:	00246413          	ori	s0,s0,2
    a0d6:	1475                	addi	s0,s0,-3
    a0d8:	46ad                	li	a3,11
    a0da:	00994733          	xor	a4,s2,s1
    a0de:	f886ebe3          	bltu	a3,s0,a074 <__divsf3+0xc2>
    a0e2:	00003617          	auipc	a2,0x3
    a0e6:	d0e60613          	addi	a2,a2,-754 # cdf0 <MyDevDescr+0xcc>
    a0ea:	040a                	slli	s0,s0,0x2
    a0ec:	9432                	add	s0,s0,a2
    a0ee:	4014                	lw	a3,0(s0)
    a0f0:	96b2                	add	a3,a3,a2
    a0f2:	8682                	jr	a3
    a0f4:	00346413          	ori	s0,s0,3
    a0f8:	0ff00793          	li	a5,255
    a0fc:	460d                	li	a2,3
    a0fe:	b715                	j	a022 <__divsf3+0x70>
    a100:	4431                	li	s0,12
    a102:	0ff00a93          	li	s5,255
    a106:	4b0d                	li	s6,3
    a108:	b5f5                	j	9ff4 <__divsf3+0x42>
    a10a:	854e                	mv	a0,s3
    a10c:	c62e                	sw	a1,12(sp)
    a10e:	5d5000ef          	jal	ra,aee2 <__clzsi2>
    a112:	ffb50793          	addi	a5,a0,-5 # 3fffffb <_data_lma+0x3ff2fe7>
    a116:	00f999b3          	sll	s3,s3,a5
    a11a:	f8a00793          	li	a5,-118
    a11e:	45b2                	lw	a1,12(sp)
    a120:	40a78ab3          	sub	s5,a5,a0
    a124:	4401                	li	s0,0
    a126:	4b01                	li	s6,0
    a128:	b5f1                	j	9ff4 <__divsf3+0x42>
    a12a:	8552                	mv	a0,s4
    a12c:	5b7000ef          	jal	ra,aee2 <__clzsi2>
    a130:	ffb50793          	addi	a5,a0,-5
    a134:	00fa1a33          	sll	s4,s4,a5
    a138:	f8a00793          	li	a5,-118
    a13c:	8f89                	sub	a5,a5,a0
    a13e:	4601                	li	a2,0
    a140:	b5cd                	j	a022 <__divsf3+0x70>
    a142:	f01a8a93          	addi	s5,s5,-255
    a146:	4789                	li	a5,2
    a148:	854a                	mv	a0,s2
    a14a:	f0fb1ee3          	bne	s6,a5,a066 <__divsf3+0xb4>
    a14e:	872a                	mv	a4,a0
    a150:	0ff00793          	li	a5,255
    a154:	4681                	li	a3,0
    a156:	bdcd                	j	a048 <__divsf3+0x96>
    a158:	872a                	mv	a4,a0
    a15a:	07fa8793          	addi	a5,s5,127
    a15e:	04f05163          	blez	a5,a1a0 <__divsf3+0x1ee>
    a162:	0079f693          	andi	a3,s3,7
    a166:	c699                	beqz	a3,a174 <__divsf3+0x1c2>
    a168:	00f9f693          	andi	a3,s3,15
    a16c:	4611                	li	a2,4
    a16e:	00c68363          	beq	a3,a2,a174 <__divsf3+0x1c2>
    a172:	0991                	addi	s3,s3,4
    a174:	080006b7          	lui	a3,0x8000
    a178:	00d9f6b3          	and	a3,s3,a3
    a17c:	ca81                	beqz	a3,a18c <__divsf3+0x1da>
    a17e:	f80007b7          	lui	a5,0xf8000
    a182:	17fd                	addi	a5,a5,-1 # f7ffffff <_eusrstack+0xd7ffafff>
    a184:	00f9f9b3          	and	s3,s3,a5
    a188:	080a8793          	addi	a5,s5,128
    a18c:	0fe00693          	li	a3,254
    a190:	eaf6c9e3          	blt	a3,a5,a042 <__divsf3+0x90>
    a194:	00699693          	slli	a3,s3,0x6
    a198:	82a5                	srli	a3,a3,0x9
    a19a:	0ff7f793          	zext.b	a5,a5
    a19e:	b56d                	j	a048 <__divsf3+0x96>
    a1a0:	4605                	li	a2,1
    a1a2:	c799                	beqz	a5,a1b0 <__divsf3+0x1fe>
    a1a4:	8e1d                	sub	a2,a2,a5
    a1a6:	45ed                	li	a1,27
    a1a8:	4781                	li	a5,0
    a1aa:	4681                	li	a3,0
    a1ac:	e8c5cee3          	blt	a1,a2,a048 <__divsf3+0x96>
    a1b0:	09ea8693          	addi	a3,s5,158
    a1b4:	00d996b3          	sll	a3,s3,a3
    a1b8:	00d036b3          	snez	a3,a3
    a1bc:	00c9d7b3          	srl	a5,s3,a2
    a1c0:	8fd5                	or	a5,a5,a3
    a1c2:	0077f693          	andi	a3,a5,7
    a1c6:	c699                	beqz	a3,a1d4 <__divsf3+0x222>
    a1c8:	00f7f693          	andi	a3,a5,15
    a1cc:	4611                	li	a2,4
    a1ce:	00c68363          	beq	a3,a2,a1d4 <__divsf3+0x222>
    a1d2:	0791                	addi	a5,a5,4
    a1d4:	040006b7          	lui	a3,0x4000
    a1d8:	8efd                	and	a3,a3,a5
    a1da:	cad5                	beqz	a3,a28e <__divsf3+0x2dc>
    a1dc:	4785                	li	a5,1
    a1de:	4681                	li	a3,0
    a1e0:	b5a5                	j	a048 <__divsf3+0x96>
    a1e2:	66c1                	lui	a3,0x10
    a1e4:	005a1813          	slli	a6,s4,0x5
    a1e8:	16fd                	addi	a3,a3,-1 # ffff <_data_lma+0x2feb>
    a1ea:	01085593          	srli	a1,a6,0x10
    a1ee:	00d876b3          	and	a3,a6,a3
    a1f2:	0749f863          	bgeu	s3,s4,a262 <__divsf3+0x2b0>
    a1f6:	02b9d633          	divu	a2,s3,a1
    a1fa:	87ce                	mv	a5,s3
    a1fc:	1afd                	addi	s5,s5,-1
    a1fe:	4981                	li	s3,0
    a200:	02d60533          	mul	a0,a2,a3
    a204:	02b7f7b3          	remu	a5,a5,a1
    a208:	07c2                	slli	a5,a5,0x10
    a20a:	0137e7b3          	or	a5,a5,s3
    a20e:	00a7f863          	bgeu	a5,a0,a21e <__divsf3+0x26c>
    a212:	97c2                	add	a5,a5,a6
    a214:	fff60893          	addi	a7,a2,-1
    a218:	0707f663          	bgeu	a5,a6,a284 <__divsf3+0x2d2>
    a21c:	8646                	mv	a2,a7
    a21e:	8f89                	sub	a5,a5,a0
    a220:	02b7d533          	divu	a0,a5,a1
    a224:	02b7f7b3          	remu	a5,a5,a1
    a228:	02d506b3          	mul	a3,a0,a3
    a22c:	07c2                	slli	a5,a5,0x10
    a22e:	02d7f263          	bgeu	a5,a3,a252 <__divsf3+0x2a0>
    a232:	010785b3          	add	a1,a5,a6
    a236:	00f5b8b3          	sltu	a7,a1,a5
    a23a:	fff50313          	addi	t1,a0,-1
    a23e:	87ae                	mv	a5,a1
    a240:	00089863          	bnez	a7,a250 <__divsf3+0x29e>
    a244:	00d5f663          	bgeu	a1,a3,a250 <__divsf3+0x29e>
    a248:	1579                	addi	a0,a0,-2
    a24a:	010587b3          	add	a5,a1,a6
    a24e:	a011                	j	a252 <__divsf3+0x2a0>
    a250:	851a                	mv	a0,t1
    a252:	0642                	slli	a2,a2,0x10
    a254:	8f95                	sub	a5,a5,a3
    a256:	8e49                	or	a2,a2,a0
    a258:	00f037b3          	snez	a5,a5
    a25c:	00f669b3          	or	s3,a2,a5
    a260:	bded                	j	a15a <__divsf3+0x1a8>
    a262:	0019d793          	srli	a5,s3,0x1
    a266:	02b7d633          	divu	a2,a5,a1
    a26a:	09fe                	slli	s3,s3,0x1f
    a26c:	0109d993          	srli	s3,s3,0x10
    a270:	02d60533          	mul	a0,a2,a3
    a274:	bf41                	j	a204 <__divsf3+0x252>
    a276:	8526                	mv	a0,s1
    a278:	872a                	mv	a4,a0
    a27a:	bbed                	j	a074 <__divsf3+0xc2>
    a27c:	4701                	li	a4,0
    a27e:	004006b7          	lui	a3,0x400
    a282:	b3d9                	j	a048 <__divsf3+0x96>
    a284:	f8a7fce3          	bgeu	a5,a0,a21c <__divsf3+0x26a>
    a288:	1679                	addi	a2,a2,-2
    a28a:	97c2                	add	a5,a5,a6
    a28c:	bf49                	j	a21e <__divsf3+0x26c>
    a28e:	079a                	slli	a5,a5,0x6
    a290:	0097d693          	srli	a3,a5,0x9
    a294:	4781                	li	a5,0
    a296:	bb4d                	j	a048 <__divsf3+0x96>
    a298:	8526                	mv	a0,s1
    a29a:	bd55                	j	a14e <__divsf3+0x19c>

0000a29c <__gesf2>:
    a29c:	01755613          	srli	a2,a0,0x17
    a2a0:	00800737          	lui	a4,0x800
    a2a4:	177d                	addi	a4,a4,-1 # 7fffff <_data_lma+0x7f2feb>
    a2a6:	0175d693          	srli	a3,a1,0x17
    a2aa:	0ff67613          	zext.b	a2,a2
    a2ae:	0ff00813          	li	a6,255
    a2b2:	00a778b3          	and	a7,a4,a0
    a2b6:	01f55793          	srli	a5,a0,0x1f
    a2ba:	8f6d                	and	a4,a4,a1
    a2bc:	0ff6f513          	zext.b	a0,a3
    a2c0:	81fd                	srli	a1,a1,0x1f
    a2c2:	03060563          	beq	a2,a6,a2ec <__gesf2+0x50>
    a2c6:	01050a63          	beq	a0,a6,a2da <__gesf2+0x3e>
    a2ca:	ea05                	bnez	a2,a2fa <__gesf2+0x5e>
    a2cc:	e909                	bnez	a0,a2de <__gesf2+0x42>
    a2ce:	c339                	beqz	a4,a314 <__gesf2+0x78>
    a2d0:	04089e63          	bnez	a7,a32c <__gesf2+0x90>
    a2d4:	c9a1                	beqz	a1,a324 <__gesf2+0x88>
    a2d6:	852e                	mv	a0,a1
    a2d8:	8082                	ret
    a2da:	e739                	bnez	a4,a328 <__gesf2+0x8c>
    a2dc:	e219                	bnez	a2,a2e2 <__gesf2+0x46>
    a2de:	fe088be3          	beqz	a7,a2d4 <__gesf2+0x38>
    a2e2:	00b79963          	bne	a5,a1,a2f4 <__gesf2+0x58>
    a2e6:	cf9d                	beqz	a5,a324 <__gesf2+0x88>
    a2e8:	853e                	mv	a0,a5
    a2ea:	8082                	ret
    a2ec:	02089e63          	bnez	a7,a328 <__gesf2+0x8c>
    a2f0:	02c50563          	beq	a0,a2,a31a <__gesf2+0x7e>
    a2f4:	4505                	li	a0,1
    a2f6:	e79d                	bnez	a5,a324 <__gesf2+0x88>
    a2f8:	8082                	ret
    a2fa:	dd6d                	beqz	a0,a2f4 <__gesf2+0x58>
    a2fc:	feb79ce3          	bne	a5,a1,a2f4 <__gesf2+0x58>
    a300:	fec54ae3          	blt	a0,a2,a2f4 <__gesf2+0x58>
    a304:	fea641e3          	blt	a2,a0,a2e6 <__gesf2+0x4a>
    a308:	ff1766e3          	bltu	a4,a7,a2f4 <__gesf2+0x58>
    a30c:	4501                	li	a0,0
    a30e:	fce8ece3          	bltu	a7,a4,a2e6 <__gesf2+0x4a>
    a312:	8082                	ret
    a314:	fe0890e3          	bnez	a7,a2f4 <__gesf2+0x58>
    a318:	8082                	ret
    a31a:	e719                	bnez	a4,a328 <__gesf2+0x8c>
    a31c:	fcb79ce3          	bne	a5,a1,a2f4 <__gesf2+0x58>
    a320:	4501                	li	a0,0
    a322:	8082                	ret
    a324:	557d                	li	a0,-1
    a326:	8082                	ret
    a328:	5579                	li	a0,-2
    a32a:	8082                	ret
    a32c:	fcb78ee3          	beq	a5,a1,a308 <__gesf2+0x6c>
    a330:	b7d1                	j	a2f4 <__gesf2+0x58>

0000a332 <__lesf2>:
    a332:	01755613          	srli	a2,a0,0x17
    a336:	00800737          	lui	a4,0x800
    a33a:	177d                	addi	a4,a4,-1 # 7fffff <_data_lma+0x7f2feb>
    a33c:	0175d693          	srli	a3,a1,0x17
    a340:	0ff67613          	zext.b	a2,a2
    a344:	0ff00813          	li	a6,255
    a348:	00a778b3          	and	a7,a4,a0
    a34c:	01f55793          	srli	a5,a0,0x1f
    a350:	8f6d                	and	a4,a4,a1
    a352:	0ff6f513          	zext.b	a0,a3
    a356:	81fd                	srli	a1,a1,0x1f
    a358:	03060663          	beq	a2,a6,a384 <__lesf2+0x52>
    a35c:	01050a63          	beq	a0,a6,a370 <__lesf2+0x3e>
    a360:	ee05                	bnez	a2,a398 <__lesf2+0x66>
    a362:	e911                	bnez	a0,a376 <__lesf2+0x44>
    a364:	cb29                	beqz	a4,a3b6 <__lesf2+0x84>
    a366:	04089f63          	bnez	a7,a3c4 <__lesf2+0x92>
    a36a:	c9b9                	beqz	a1,a3c0 <__lesf2+0x8e>
    a36c:	852e                	mv	a0,a1
    a36e:	8082                	ret
    a370:	4509                	li	a0,2
    a372:	eb01                	bnez	a4,a382 <__lesf2+0x50>
    a374:	e219                	bnez	a2,a37a <__lesf2+0x48>
    a376:	fe088ae3          	beqz	a7,a36a <__lesf2+0x38>
    a37a:	02b78b63          	beq	a5,a1,a3b0 <__lesf2+0x7e>
    a37e:	4505                	li	a0,1
    a380:	e3a1                	bnez	a5,a3c0 <__lesf2+0x8e>
    a382:	8082                	ret
    a384:	02089c63          	bnez	a7,a3bc <__lesf2+0x8a>
    a388:	fec51be3          	bne	a0,a2,a37e <__lesf2+0x4c>
    a38c:	4509                	li	a0,2
    a38e:	fb75                	bnez	a4,a382 <__lesf2+0x50>
    a390:	feb797e3          	bne	a5,a1,a37e <__lesf2+0x4c>
    a394:	4501                	li	a0,0
    a396:	8082                	ret
    a398:	d17d                	beqz	a0,a37e <__lesf2+0x4c>
    a39a:	feb792e3          	bne	a5,a1,a37e <__lesf2+0x4c>
    a39e:	fec540e3          	blt	a0,a2,a37e <__lesf2+0x4c>
    a3a2:	00a64763          	blt	a2,a0,a3b0 <__lesf2+0x7e>
    a3a6:	fd176ce3          	bltu	a4,a7,a37e <__lesf2+0x4c>
    a3aa:	4501                	li	a0,0
    a3ac:	fce8fbe3          	bgeu	a7,a4,a382 <__lesf2+0x50>
    a3b0:	cb81                	beqz	a5,a3c0 <__lesf2+0x8e>
    a3b2:	853e                	mv	a0,a5
    a3b4:	8082                	ret
    a3b6:	fc0894e3          	bnez	a7,a37e <__lesf2+0x4c>
    a3ba:	8082                	ret
    a3bc:	4509                	li	a0,2
    a3be:	8082                	ret
    a3c0:	557d                	li	a0,-1
    a3c2:	8082                	ret
    a3c4:	feb781e3          	beq	a5,a1,a3a6 <__lesf2+0x74>
    a3c8:	bf5d                	j	a37e <__lesf2+0x4c>

0000a3ca <__mulsf3>:
    a3ca:	7179                	addi	sp,sp,-48
    a3cc:	01755793          	srli	a5,a0,0x17
    a3d0:	cc52                	sw	s4,24(sp)
    a3d2:	ca56                	sw	s5,20(sp)
    a3d4:	00951713          	slli	a4,a0,0x9
    a3d8:	d606                	sw	ra,44(sp)
    a3da:	d422                	sw	s0,40(sp)
    a3dc:	d226                	sw	s1,36(sp)
    a3de:	d04a                	sw	s2,32(sp)
    a3e0:	ce4e                	sw	s3,28(sp)
    a3e2:	c85a                	sw	s6,16(sp)
    a3e4:	0ff7f793          	zext.b	a5,a5
    a3e8:	00975a93          	srli	s5,a4,0x9
    a3ec:	01f55a13          	srli	s4,a0,0x1f
    a3f0:	10078b63          	beqz	a5,a506 <__mulsf3+0x13c>
    a3f4:	0ff00713          	li	a4,255
    a3f8:	10e78d63          	beq	a5,a4,a512 <__mulsf3+0x148>
    a3fc:	003a9713          	slli	a4,s5,0x3
    a400:	040006b7          	lui	a3,0x4000
    a404:	00d76ab3          	or	s5,a4,a3
    a408:	f8178493          	addi	s1,a5,-127
    a40c:	4901                	li	s2,0
    a40e:	4b01                	li	s6,0
    a410:	0175d793          	srli	a5,a1,0x17
    a414:	00959413          	slli	s0,a1,0x9
    a418:	0ff7f793          	zext.b	a5,a5
    a41c:	8025                	srli	s0,s0,0x9
    a41e:	01f5d993          	srli	s3,a1,0x1f
    a422:	c7f9                	beqz	a5,a4f0 <__mulsf3+0x126>
    a424:	0ff00713          	li	a4,255
    a428:	06e78263          	beq	a5,a4,a48c <__mulsf3+0xc2>
    a42c:	f8178793          	addi	a5,a5,-127
    a430:	00978533          	add	a0,a5,s1
    a434:	040e                	slli	s0,s0,0x3
    a436:	04000737          	lui	a4,0x4000
    a43a:	47a9                	li	a5,10
    a43c:	8c59                	or	s0,s0,a4
    a43e:	4681                	li	a3,0
    a440:	00150493          	addi	s1,a0,1
    a444:	0f27cf63          	blt	a5,s2,a542 <__mulsf3+0x178>
    a448:	013a45b3          	xor	a1,s4,s3
    a44c:	4709                	li	a4,2
    a44e:	882e                	mv	a6,a1
    a450:	05274c63          	blt	a4,s2,a4a8 <__mulsf3+0xde>
    a454:	197d                	addi	s2,s2,-1
    a456:	4605                	li	a2,1
    a458:	13266e63          	bltu	a2,s2,a594 <__mulsf3+0x1ca>
    a45c:	0ce68263          	beq	a3,a4,a520 <__mulsf3+0x156>
    a460:	4785                	li	a5,1
    a462:	85c2                	mv	a1,a6
    a464:	06f69463          	bne	a3,a5,a4cc <__mulsf3+0x102>
    a468:	4781                	li	a5,0
    a46a:	4701                	li	a4,0
    a46c:	50b2                	lw	ra,44(sp)
    a46e:	5422                	lw	s0,40(sp)
    a470:	01779513          	slli	a0,a5,0x17
    a474:	8d59                	or	a0,a0,a4
    a476:	01f59793          	slli	a5,a1,0x1f
    a47a:	5492                	lw	s1,36(sp)
    a47c:	5902                	lw	s2,32(sp)
    a47e:	49f2                	lw	s3,28(sp)
    a480:	4a62                	lw	s4,24(sp)
    a482:	4ad2                	lw	s5,20(sp)
    a484:	4b42                	lw	s6,16(sp)
    a486:	8d5d                	or	a0,a0,a5
    a488:	6145                	addi	sp,sp,48
    a48a:	8082                	ret
    a48c:	0ff48513          	addi	a0,s1,255 # 8000ff <_data_lma+0x7f30eb>
    a490:	cc49                	beqz	s0,a52a <__mulsf3+0x160>
    a492:	013a45b3          	xor	a1,s4,s3
    a496:	00396913          	ori	s2,s2,3
    a49a:	4729                	li	a4,10
    a49c:	882e                	mv	a6,a1
    a49e:	10048493          	addi	s1,s1,256
    a4a2:	1f274963          	blt	a4,s2,a694 <__mulsf3+0x2ca>
    a4a6:	468d                	li	a3,3
    a4a8:	4705                	li	a4,1
    a4aa:	01271733          	sll	a4,a4,s2
    a4ae:	53077613          	andi	a2,a4,1328
    a4b2:	ce19                	beqz	a2,a4d0 <__mulsf3+0x106>
    a4b4:	4789                	li	a5,2
    a4b6:	06fb0563          	beq	s6,a5,a520 <__mulsf3+0x156>
    a4ba:	478d                	li	a5,3
    a4bc:	02fb0463          	beq	s6,a5,a4e4 <__mulsf3+0x11a>
    a4c0:	86da                	mv	a3,s6
    a4c2:	4785                	li	a5,1
    a4c4:	8456                	mv	s0,s5
    a4c6:	85c2                	mv	a1,a6
    a4c8:	faf680e3          	beq	a3,a5,a468 <__mulsf3+0x9e>
    a4cc:	8526                	mv	a0,s1
    a4ce:	aa05                	j	a5fe <__mulsf3+0x234>
    a4d0:	24077793          	andi	a5,a4,576
    a4d4:	eb81                	bnez	a5,a4e4 <__mulsf3+0x11a>
    a4d6:	08877713          	andi	a4,a4,136
    a4da:	cf4d                	beqz	a4,a594 <__mulsf3+0x1ca>
    a4dc:	884e                	mv	a6,s3
    a4de:	8aa2                	mv	s5,s0
    a4e0:	8b36                	mv	s6,a3
    a4e2:	bfc9                	j	a4b4 <__mulsf3+0xea>
    a4e4:	4581                	li	a1,0
    a4e6:	0ff00793          	li	a5,255
    a4ea:	00400737          	lui	a4,0x400
    a4ee:	bfbd                	j	a46c <__mulsf3+0xa2>
    a4f0:	e041                	bnez	s0,a570 <__mulsf3+0x1a6>
    a4f2:	8526                	mv	a0,s1
    a4f4:	00196913          	ori	s2,s2,1
    a4f8:	47a9                	li	a5,10
    a4fa:	4685                	li	a3,1
    a4fc:	00150493          	addi	s1,a0,1
    a500:	f527d4e3          	bge	a5,s2,a448 <__mulsf3+0x7e>
    a504:	a83d                	j	a542 <__mulsf3+0x178>
    a506:	040a9563          	bnez	s5,a550 <__mulsf3+0x186>
    a50a:	4911                	li	s2,4
    a50c:	4481                	li	s1,0
    a50e:	4b05                	li	s6,1
    a510:	b701                	j	a410 <__mulsf3+0x46>
    a512:	020a9a63          	bnez	s5,a546 <__mulsf3+0x17c>
    a516:	4921                	li	s2,8
    a518:	0ff00493          	li	s1,255
    a51c:	4b09                	li	s6,2
    a51e:	bdcd                	j	a410 <__mulsf3+0x46>
    a520:	85c2                	mv	a1,a6
    a522:	0ff00793          	li	a5,255
    a526:	4701                	li	a4,0
    a528:	b791                	j	a46c <__mulsf3+0xa2>
    a52a:	00296913          	ori	s2,s2,2
    a52e:	47a9                	li	a5,10
    a530:	10048493          	addi	s1,s1,256
    a534:	4739                	li	a4,14
    a536:	4689                	li	a3,2
    a538:	f127d8e3          	bge	a5,s2,a448 <__mulsf3+0x7e>
    a53c:	47ad                	li	a5,11
    a53e:	f8f70fe3          	beq	a4,a5,a4dc <__mulsf3+0x112>
    a542:	8852                	mv	a6,s4
    a544:	bf85                	j	a4b4 <__mulsf3+0xea>
    a546:	4931                	li	s2,12
    a548:	0ff00493          	li	s1,255
    a54c:	4b0d                	li	s6,3
    a54e:	b5c9                	j	a410 <__mulsf3+0x46>
    a550:	8556                	mv	a0,s5
    a552:	c62e                	sw	a1,12(sp)
    a554:	18f000ef          	jal	ra,aee2 <__clzsi2>
    a558:	ffb50793          	addi	a5,a0,-5
    a55c:	00fa9ab3          	sll	s5,s5,a5
    a560:	f8a00793          	li	a5,-118
    a564:	45b2                	lw	a1,12(sp)
    a566:	40a784b3          	sub	s1,a5,a0
    a56a:	4901                	li	s2,0
    a56c:	4b01                	li	s6,0
    a56e:	b54d                	j	a410 <__mulsf3+0x46>
    a570:	8522                	mv	a0,s0
    a572:	171000ef          	jal	ra,aee2 <__clzsi2>
    a576:	40a487b3          	sub	a5,s1,a0
    a57a:	ffb50713          	addi	a4,a0,-5
    a57e:	f8a78513          	addi	a0,a5,-118
    a582:	47a9                	li	a5,10
    a584:	00e41433          	sll	s0,s0,a4
    a588:	4681                	li	a3,0
    a58a:	00150493          	addi	s1,a0,1
    a58e:	eb27dde3          	bge	a5,s2,a448 <__mulsf3+0x7e>
    a592:	bf45                	j	a542 <__mulsf3+0x178>
    a594:	68c1                	lui	a7,0x10
    a596:	fff88793          	addi	a5,a7,-1 # ffff <_data_lma+0x2feb>
    a59a:	010ad613          	srli	a2,s5,0x10
    a59e:	01045813          	srli	a6,s0,0x10
    a5a2:	00fafab3          	and	s5,s5,a5
    a5a6:	8fe1                	and	a5,a5,s0
    a5a8:	035786b3          	mul	a3,a5,s5
    a5ac:	02f607b3          	mul	a5,a2,a5
    a5b0:	0106d713          	srli	a4,a3,0x10
    a5b4:	03580ab3          	mul	s5,a6,s5
    a5b8:	9abe                	add	s5,s5,a5
    a5ba:	9756                	add	a4,a4,s5
    a5bc:	03060633          	mul	a2,a2,a6
    a5c0:	00f77363          	bgeu	a4,a5,a5c6 <__mulsf3+0x1fc>
    a5c4:	9646                	add	a2,a2,a7
    a5c6:	6841                	lui	a6,0x10
    a5c8:	187d                	addi	a6,a6,-1 # ffff <_data_lma+0x2feb>
    a5ca:	010777b3          	and	a5,a4,a6
    a5ce:	0106f6b3          	and	a3,a3,a6
    a5d2:	07c2                	slli	a5,a5,0x10
    a5d4:	97b6                	add	a5,a5,a3
    a5d6:	00679693          	slli	a3,a5,0x6
    a5da:	01075413          	srli	s0,a4,0x10
    a5de:	83e9                	srli	a5,a5,0x1a
    a5e0:	00d03733          	snez	a4,a3
    a5e4:	9432                	add	s0,s0,a2
    a5e6:	8fd9                	or	a5,a5,a4
    a5e8:	041a                	slli	s0,s0,0x6
    a5ea:	8c5d                	or	s0,s0,a5
    a5ec:	080007b7          	lui	a5,0x8000
    a5f0:	8fe1                	and	a5,a5,s0
    a5f2:	c791                	beqz	a5,a5fe <__mulsf3+0x234>
    a5f4:	00145793          	srli	a5,s0,0x1
    a5f8:	8805                	andi	s0,s0,1
    a5fa:	8c5d                	or	s0,s0,a5
    a5fc:	8526                	mv	a0,s1
    a5fe:	07f50793          	addi	a5,a0,127
    a602:	02f05f63          	blez	a5,a640 <__mulsf3+0x276>
    a606:	00747713          	andi	a4,s0,7
    a60a:	c719                	beqz	a4,a618 <__mulsf3+0x24e>
    a60c:	00f47713          	andi	a4,s0,15
    a610:	4691                	li	a3,4
    a612:	00d70363          	beq	a4,a3,a618 <__mulsf3+0x24e>
    a616:	0411                	addi	s0,s0,4
    a618:	08000737          	lui	a4,0x8000
    a61c:	8f61                	and	a4,a4,s0
    a61e:	c719                	beqz	a4,a62c <__mulsf3+0x262>
    a620:	f80007b7          	lui	a5,0xf8000
    a624:	17fd                	addi	a5,a5,-1 # f7ffffff <_eusrstack+0xd7ffafff>
    a626:	8c7d                	and	s0,s0,a5
    a628:	08050793          	addi	a5,a0,128
    a62c:	0fe00713          	li	a4,254
    a630:	04f74963          	blt	a4,a5,a682 <__mulsf3+0x2b8>
    a634:	00641713          	slli	a4,s0,0x6
    a638:	8325                	srli	a4,a4,0x9
    a63a:	0ff7f793          	zext.b	a5,a5
    a63e:	b53d                	j	a46c <__mulsf3+0xa2>
    a640:	4685                	li	a3,1
    a642:	c799                	beqz	a5,a650 <__mulsf3+0x286>
    a644:	8e9d                	sub	a3,a3,a5
    a646:	466d                	li	a2,27
    a648:	4781                	li	a5,0
    a64a:	4701                	li	a4,0
    a64c:	e2d640e3          	blt	a2,a3,a46c <__mulsf3+0xa2>
    a650:	09e50713          	addi	a4,a0,158
    a654:	00e41733          	sll	a4,s0,a4
    a658:	00e03733          	snez	a4,a4
    a65c:	00d457b3          	srl	a5,s0,a3
    a660:	8fd9                	or	a5,a5,a4
    a662:	0077f713          	andi	a4,a5,7
    a666:	c719                	beqz	a4,a674 <__mulsf3+0x2aa>
    a668:	00f7f713          	andi	a4,a5,15
    a66c:	4691                	li	a3,4
    a66e:	00d70363          	beq	a4,a3,a674 <__mulsf3+0x2aa>
    a672:	0791                	addi	a5,a5,4
    a674:	04000737          	lui	a4,0x4000
    a678:	8f7d                	and	a4,a4,a5
    a67a:	cb01                	beqz	a4,a68a <__mulsf3+0x2c0>
    a67c:	4785                	li	a5,1
    a67e:	4701                	li	a4,0
    a680:	b3f5                	j	a46c <__mulsf3+0xa2>
    a682:	0ff00793          	li	a5,255
    a686:	4701                	li	a4,0
    a688:	b3d5                	j	a46c <__mulsf3+0xa2>
    a68a:	079a                	slli	a5,a5,0x6
    a68c:	0097d713          	srli	a4,a5,0x9
    a690:	4781                	li	a5,0
    a692:	bbe9                	j	a46c <__mulsf3+0xa2>
    a694:	46bd                	li	a3,15
    a696:	4581                	li	a1,0
    a698:	00400737          	lui	a4,0x400
    a69c:	dcd908e3          	beq	s2,a3,a46c <__mulsf3+0xa2>
    a6a0:	472d                	li	a4,11
    a6a2:	468d                	li	a3,3
    a6a4:	bd61                	j	a53c <__mulsf3+0x172>

0000a6a6 <__subsf3>:
    a6a6:	008007b7          	lui	a5,0x800
    a6aa:	1141                	addi	sp,sp,-16
    a6ac:	17fd                	addi	a5,a5,-1 # 7fffff <_data_lma+0x7f2feb>
    a6ae:	0175d613          	srli	a2,a1,0x17
    a6b2:	00a7f733          	and	a4,a5,a0
    a6b6:	01755693          	srli	a3,a0,0x17
    a6ba:	8fed                	and	a5,a5,a1
    a6bc:	c226                	sw	s1,4(sp)
    a6be:	c04a                	sw	s2,0(sp)
    a6c0:	01f55493          	srli	s1,a0,0x1f
    a6c4:	c606                	sw	ra,12(sp)
    a6c6:	c422                	sw	s0,8(sp)
    a6c8:	0ff67613          	zext.b	a2,a2
    a6cc:	0ff00513          	li	a0,255
    a6d0:	0ff6f913          	zext.b	s2,a3
    a6d4:	8826                	mv	a6,s1
    a6d6:	070e                	slli	a4,a4,0x3
    a6d8:	81fd                	srli	a1,a1,0x1f
    a6da:	00379693          	slli	a3,a5,0x3
    a6de:	04a60363          	beq	a2,a0,a724 <__subsf3+0x7e>
    a6e2:	0015c593          	xori	a1,a1,1
    a6e6:	40c907b3          	sub	a5,s2,a2
    a6ea:	00b48f63          	beq	s1,a1,a708 <__subsf3+0x62>
    a6ee:	30f05a63          	blez	a5,aa02 <__subsf3+0x35c>
    a6f2:	e235                	bnez	a2,a756 <__subsf3+0xb0>
    a6f4:	14068f63          	beqz	a3,a852 <__subsf3+0x1ac>
    a6f8:	fff78613          	addi	a2,a5,-1
    a6fc:	2a060263          	beqz	a2,a9a0 <__subsf3+0x2fa>
    a700:	02a78f63          	beq	a5,a0,a73e <__subsf3+0x98>
    a704:	87b2                	mv	a5,a2
    a706:	a8a9                	j	a760 <__subsf3+0xba>
    a708:	30f05963          	blez	a5,aa1a <__subsf3+0x374>
    a70c:	ca7d                	beqz	a2,a802 <__subsf3+0x15c>
    a70e:	02a90863          	beq	s2,a0,a73e <__subsf3+0x98>
    a712:	04000637          	lui	a2,0x4000
    a716:	8ed1                	or	a3,a3,a2
    a718:	466d                	li	a2,27
    a71a:	14f65263          	bge	a2,a5,a85e <__subsf3+0x1b8>
    a71e:	0705                	addi	a4,a4,1 # 400001 <_data_lma+0x3f2fed>
    a720:	87ca                	mv	a5,s2
    a722:	a88d                	j	a794 <__subsf3+0xee>
    a724:	f0190793          	addi	a5,s2,-255
    a728:	e6d5                	bnez	a3,a7d4 <__subsf3+0x12e>
    a72a:	0015c593          	xori	a1,a1,1
    a72e:	0eb48363          	beq	s1,a1,a814 <__subsf3+0x16e>
    a732:	18078d63          	beqz	a5,a8cc <__subsf3+0x226>
    a736:	10090963          	beqz	s2,a848 <__subsf3+0x1a2>
    a73a:	84ae                	mv	s1,a1
    a73c:	8736                	mv	a4,a3
    a73e:	830d                	srli	a4,a4,0x3
    a740:	0014f813          	andi	a6,s1,1
    a744:	0ff00513          	li	a0,255
    a748:	cb3d                	beqz	a4,a7be <__subsf3+0x118>
    a74a:	4801                	li	a6,0
    a74c:	0ff00513          	li	a0,255
    a750:	00400737          	lui	a4,0x400
    a754:	a0ad                	j	a7be <__subsf3+0x118>
    a756:	fea904e3          	beq	s2,a0,a73e <__subsf3+0x98>
    a75a:	04000637          	lui	a2,0x4000
    a75e:	8ed1                	or	a3,a3,a2
    a760:	45ed                	li	a1,27
    a762:	4605                	li	a2,1
    a764:	00f5cd63          	blt	a1,a5,a77e <__subsf3+0xd8>
    a768:	02000613          	li	a2,32
    a76c:	8e1d                	sub	a2,a2,a5
    a76e:	00c69633          	sll	a2,a3,a2
    a772:	00f6d6b3          	srl	a3,a3,a5
    a776:	00c037b3          	snez	a5,a2
    a77a:	00f6e633          	or	a2,a3,a5
    a77e:	8f11                	sub	a4,a4,a2
    a780:	040007b7          	lui	a5,0x4000
    a784:	00f776b3          	and	a3,a4,a5
    a788:	10069463          	bnez	a3,a890 <__subsf3+0x1ea>
    a78c:	00777693          	andi	a3,a4,7
    a790:	87ca                	mv	a5,s2
    a792:	c2e1                	beqz	a3,a852 <__subsf3+0x1ac>
    a794:	00f77693          	andi	a3,a4,15
    a798:	4611                	li	a2,4
    a79a:	00c68363          	beq	a3,a2,a7a0 <__subsf3+0xfa>
    a79e:	0711                	addi	a4,a4,4 # 400004 <_data_lma+0x3f2ff0>
    a7a0:	040006b7          	lui	a3,0x4000
    a7a4:	8ef9                	and	a3,a3,a4
    a7a6:	c6d5                	beqz	a3,a852 <__subsf3+0x1ac>
    a7a8:	0785                	addi	a5,a5,1 # 4000001 <_data_lma+0x3ff2fed>
    a7aa:	0ff00693          	li	a3,255
    a7ae:	0014f813          	andi	a6,s1,1
    a7b2:	0cd78b63          	beq	a5,a3,a888 <__subsf3+0x1e2>
    a7b6:	071a                	slli	a4,a4,0x6
    a7b8:	0ff7f513          	zext.b	a0,a5
    a7bc:	8325                	srli	a4,a4,0x9
    a7be:	40b2                	lw	ra,12(sp)
    a7c0:	4422                	lw	s0,8(sp)
    a7c2:	055e                	slli	a0,a0,0x17
    a7c4:	8d59                	or	a0,a0,a4
    a7c6:	01f81793          	slli	a5,a6,0x1f
    a7ca:	4492                	lw	s1,4(sp)
    a7cc:	4902                	lw	s2,0(sp)
    a7ce:	8d5d                	or	a0,a0,a5
    a7d0:	0141                	addi	sp,sp,16
    a7d2:	8082                	ret
    a7d4:	f4b49fe3          	bne	s1,a1,a732 <__subsf3+0x8c>
    a7d8:	c3b9                	beqz	a5,a81e <__subsf3+0x178>
    a7da:	1c091163          	bnez	s2,a99c <__subsf3+0x2f6>
    a7de:	0ff00793          	li	a5,255
    a7e2:	c73d                	beqz	a4,a850 <__subsf3+0x1aa>
    a7e4:	fff78593          	addi	a1,a5,-1
    a7e8:	12058963          	beqz	a1,a91a <__subsf3+0x274>
    a7ec:	0ff00513          	li	a0,255
    a7f0:	1aa78663          	beq	a5,a0,a99c <__subsf3+0x2f6>
    a7f4:	47ed                	li	a5,27
    a7f6:	1ab7db63          	bge	a5,a1,a9ac <__subsf3+0x306>
    a7fa:	00168713          	addi	a4,a3,1 # 4000001 <_data_lma+0x3ff2fed>
    a7fe:	87b2                	mv	a5,a2
    a800:	bf51                	j	a794 <__subsf3+0xee>
    a802:	caa1                	beqz	a3,a852 <__subsf3+0x1ac>
    a804:	fff78613          	addi	a2,a5,-1
    a808:	10060963          	beqz	a2,a91a <__subsf3+0x274>
    a80c:	f2a789e3          	beq	a5,a0,a73e <__subsf3+0x98>
    a810:	87b2                	mv	a5,a2
    a812:	b719                	j	a718 <__subsf3+0x72>
    a814:	c789                	beqz	a5,a81e <__subsf3+0x178>
    a816:	fc0904e3          	beqz	s2,a7de <__subsf3+0x138>
    a81a:	4701                	li	a4,0
    a81c:	b70d                	j	a73e <__subsf3+0x98>
    a81e:	00190793          	addi	a5,s2,1
    a822:	0fe7f613          	andi	a2,a5,254
    a826:	14061563          	bnez	a2,a970 <__subsf3+0x2ca>
    a82a:	16091863          	bnez	s2,a99a <__subsf3+0x2f4>
    a82e:	1a070663          	beqz	a4,a9da <__subsf3+0x334>
    a832:	1a069663          	bnez	a3,a9de <__subsf3+0x338>
    a836:	830d                	srli	a4,a4,0x3
    a838:	4781                	li	a5,0
    a83a:	0726                	slli	a4,a4,0x9
    a83c:	8325                	srli	a4,a4,0x9
    a83e:	0ff7f513          	zext.b	a0,a5
    a842:	0014f813          	andi	a6,s1,1
    a846:	bfa5                	j	a7be <__subsf3+0x118>
    a848:	0ff00793          	li	a5,255
    a84c:	eb65                	bnez	a4,a93c <__subsf3+0x296>
    a84e:	84ae                	mv	s1,a1
    a850:	8736                	mv	a4,a3
    a852:	0ff00693          	li	a3,255
    a856:	830d                	srli	a4,a4,0x3
    a858:	eed784e3          	beq	a5,a3,a740 <__subsf3+0x9a>
    a85c:	bff9                	j	a83a <__subsf3+0x194>
    a85e:	02000613          	li	a2,32
    a862:	8e1d                	sub	a2,a2,a5
    a864:	00c69633          	sll	a2,a3,a2
    a868:	00c03633          	snez	a2,a2
    a86c:	00f6d6b3          	srl	a3,a3,a5
    a870:	8ed1                	or	a3,a3,a2
    a872:	9736                	add	a4,a4,a3
    a874:	040007b7          	lui	a5,0x4000
    a878:	8ff9                	and	a5,a5,a4
    a87a:	db89                	beqz	a5,a78c <__subsf3+0xe6>
    a87c:	00190793          	addi	a5,s2,1
    a880:	0ff00693          	li	a3,255
    a884:	0ad79363          	bne	a5,a3,a92a <__subsf3+0x284>
    a888:	0ff00513          	li	a0,255
    a88c:	4701                	li	a4,0
    a88e:	bf05                	j	a7be <__subsf3+0x118>
    a890:	17fd                	addi	a5,a5,-1 # 3ffffff <_data_lma+0x3ff2feb>
    a892:	00f77433          	and	s0,a4,a5
    a896:	8522                	mv	a0,s0
    a898:	25a9                	jal	aee2 <__clzsi2>
    a89a:	ffb50793          	addi	a5,a0,-5
    a89e:	00f41433          	sll	s0,s0,a5
    a8a2:	0527ca63          	blt	a5,s2,a8f6 <__subsf3+0x250>
    a8a6:	412787b3          	sub	a5,a5,s2
    a8aa:	0785                	addi	a5,a5,1
    a8ac:	02000713          	li	a4,32
    a8b0:	8f1d                	sub	a4,a4,a5
    a8b2:	00e41733          	sll	a4,s0,a4
    a8b6:	00e03733          	snez	a4,a4
    a8ba:	00f45433          	srl	s0,s0,a5
    a8be:	8f41                	or	a4,a4,s0
    a8c0:	4781                	li	a5,0
    a8c2:	00777693          	andi	a3,a4,7
    a8c6:	ec0697e3          	bnez	a3,a794 <__subsf3+0xee>
    a8ca:	bdd9                	j	a7a0 <__subsf3+0xfa>
    a8cc:	00190793          	addi	a5,s2,1
    a8d0:	0fe7f793          	andi	a5,a5,254
    a8d4:	eb85                	bnez	a5,a904 <__subsf3+0x25e>
    a8d6:	0a091a63          	bnez	s2,a98a <__subsf3+0x2e4>
    a8da:	cf65                	beqz	a4,a9d2 <__subsf3+0x32c>
    a8dc:	dea9                	beqz	a3,a836 <__subsf3+0x190>
    a8de:	40d707b3          	sub	a5,a4,a3
    a8e2:	04000637          	lui	a2,0x4000
    a8e6:	8e7d                	and	a2,a2,a5
    a8e8:	10060863          	beqz	a2,a9f8 <__subsf3+0x352>
    a8ec:	40e68733          	sub	a4,a3,a4
    a8f0:	4781                	li	a5,0
    a8f2:	84ae                	mv	s1,a1
    a8f4:	b7f9                	j	a8c2 <__subsf3+0x21c>
    a8f6:	fc000737          	lui	a4,0xfc000
    a8fa:	177d                	addi	a4,a4,-1 # fbffffff <_eusrstack+0xdbffafff>
    a8fc:	40f907b3          	sub	a5,s2,a5
    a900:	8f61                	and	a4,a4,s0
    a902:	b7c1                	j	a8c2 <__subsf3+0x21c>
    a904:	40d70433          	sub	s0,a4,a3
    a908:	040007b7          	lui	a5,0x4000
    a90c:	8fe1                	and	a5,a5,s0
    a90e:	e3d1                	bnez	a5,a992 <__subsf3+0x2ec>
    a910:	f059                	bnez	s0,a896 <__subsf3+0x1f0>
    a912:	4801                	li	a6,0
    a914:	4501                	li	a0,0
    a916:	4701                	li	a4,0
    a918:	b55d                	j	a7be <__subsf3+0x118>
    a91a:	9736                	add	a4,a4,a3
    a91c:	040006b7          	lui	a3,0x4000
    a920:	8ef9                	and	a3,a3,a4
    a922:	4789                	li	a5,2
    a924:	4905                	li	s2,1
    a926:	e60683e3          	beqz	a3,a78c <__subsf3+0xe6>
    a92a:	7e000637          	lui	a2,0x7e000
    a92e:	00175693          	srli	a3,a4,0x1
    a932:	167d                	addi	a2,a2,-1 # 7dffffff <_eusrstack+0x5dffafff>
    a934:	8b05                	andi	a4,a4,1
    a936:	8ef1                	and	a3,a3,a2
    a938:	8f55                	or	a4,a4,a3
    a93a:	b761                	j	a8c2 <__subsf3+0x21c>
    a93c:	fff78513          	addi	a0,a5,-1 # 3ffffff <_data_lma+0x3ff2feb>
    a940:	c541                	beqz	a0,a9c8 <__subsf3+0x322>
    a942:	0ff00813          	li	a6,255
    a946:	84ae                	mv	s1,a1
    a948:	05078a63          	beq	a5,a6,a99c <__subsf3+0x2f6>
    a94c:	45ed                	li	a1,27
    a94e:	4785                	li	a5,1
    a950:	00a5cc63          	blt	a1,a0,a968 <__subsf3+0x2c2>
    a954:	02000793          	li	a5,32
    a958:	8f89                	sub	a5,a5,a0
    a95a:	00f717b3          	sll	a5,a4,a5
    a95e:	00a75533          	srl	a0,a4,a0
    a962:	00f037b3          	snez	a5,a5
    a966:	8fc9                	or	a5,a5,a0
    a968:	40f68733          	sub	a4,a3,a5
    a96c:	8932                	mv	s2,a2
    a96e:	bd09                	j	a780 <__subsf3+0xda>
    a970:	0ff00613          	li	a2,255
    a974:	f0c78ae3          	beq	a5,a2,a888 <__subsf3+0x1e2>
    a978:	96ba                	add	a3,a3,a4
    a97a:	0016d713          	srli	a4,a3,0x1
    a97e:	00777613          	andi	a2,a4,7
    a982:	e00619e3          	bnez	a2,a794 <__subsf3+0xee>
    a986:	830d                	srli	a4,a4,0x3
    a988:	bd4d                	j	a83a <__subsf3+0x194>
    a98a:	ef11                	bnez	a4,a9a6 <__subsf3+0x300>
    a98c:	da068fe3          	beqz	a3,a74a <__subsf3+0xa4>
    a990:	b36d                	j	a73a <__subsf3+0x94>
    a992:	40e68433          	sub	s0,a3,a4
    a996:	84ae                	mv	s1,a1
    a998:	bdfd                	j	a896 <__subsf3+0x1f0>
    a99a:	e711                	bnez	a4,a9a6 <__subsf3+0x300>
    a99c:	8736                	mv	a4,a3
    a99e:	b345                	j	a73e <__subsf3+0x98>
    a9a0:	8f15                	sub	a4,a4,a3
    a9a2:	4905                	li	s2,1
    a9a4:	bbf1                	j	a780 <__subsf3+0xda>
    a9a6:	d8068ce3          	beqz	a3,a73e <__subsf3+0x98>
    a9aa:	b345                	j	a74a <__subsf3+0xa4>
    a9ac:	02000793          	li	a5,32
    a9b0:	8f8d                	sub	a5,a5,a1
    a9b2:	00f717b3          	sll	a5,a4,a5
    a9b6:	00b755b3          	srl	a1,a4,a1
    a9ba:	00f037b3          	snez	a5,a5
    a9be:	8ddd                	or	a1,a1,a5
    a9c0:	00d58733          	add	a4,a1,a3
    a9c4:	8932                	mv	s2,a2
    a9c6:	b57d                	j	a874 <__subsf3+0x1ce>
    a9c8:	40e68733          	sub	a4,a3,a4
    a9cc:	84ae                	mv	s1,a1
    a9ce:	4905                	li	s2,1
    a9d0:	bb45                	j	a780 <__subsf3+0xda>
    a9d2:	d2a1                	beqz	a3,a912 <__subsf3+0x26c>
    a9d4:	84ae                	mv	s1,a1
    a9d6:	8736                	mv	a4,a3
    a9d8:	bdb9                	j	a836 <__subsf3+0x190>
    a9da:	8736                	mv	a4,a3
    a9dc:	bda9                	j	a836 <__subsf3+0x190>
    a9de:	9736                	add	a4,a4,a3
    a9e0:	04000637          	lui	a2,0x4000
    a9e4:	8e79                	and	a2,a2,a4
    a9e6:	4781                	li	a5,0
    a9e8:	de59                	beqz	a2,a986 <__subsf3+0x2e0>
    a9ea:	fc0007b7          	lui	a5,0xfc000
    a9ee:	17fd                	addi	a5,a5,-1 # fbffffff <_eusrstack+0xdbffafff>
    a9f0:	8f7d                	and	a4,a4,a5
    a9f2:	830d                	srli	a4,a4,0x3
    a9f4:	4785                	li	a5,1
    a9f6:	b591                	j	a83a <__subsf3+0x194>
    a9f8:	df89                	beqz	a5,a912 <__subsf3+0x26c>
    a9fa:	873e                	mv	a4,a5
    a9fc:	830d                	srli	a4,a4,0x3
    a9fe:	4781                	li	a5,0
    aa00:	bd2d                	j	a83a <__subsf3+0x194>
    aa02:	ec0785e3          	beqz	a5,a8cc <__subsf3+0x226>
    aa06:	41260533          	sub	a0,a2,s2
    aa0a:	87aa                	mv	a5,a0
    aa0c:	e40900e3          	beqz	s2,a84c <__subsf3+0x1a6>
    aa10:	040007b7          	lui	a5,0x4000
    aa14:	8f5d                	or	a4,a4,a5
    aa16:	84ae                	mv	s1,a1
    aa18:	bf15                	j	a94c <__subsf3+0x2a6>
    aa1a:	e00782e3          	beqz	a5,a81e <__subsf3+0x178>
    aa1e:	412605b3          	sub	a1,a2,s2
    aa22:	00091463          	bnez	s2,aa2a <__subsf3+0x384>
    aa26:	87ae                	mv	a5,a1
    aa28:	bb6d                	j	a7e2 <__subsf3+0x13c>
    aa2a:	040007b7          	lui	a5,0x4000
    aa2e:	8f5d                	or	a4,a4,a5
    aa30:	b3d1                	j	a7f4 <__subsf3+0x14e>

0000aa32 <__unordsf2>:
    aa32:	01755693          	srli	a3,a0,0x17
    aa36:	00800737          	lui	a4,0x800
    aa3a:	177d                	addi	a4,a4,-1 # 7fffff <_data_lma+0x7f2feb>
    aa3c:	0175d613          	srli	a2,a1,0x17
    aa40:	0ff6f693          	zext.b	a3,a3
    aa44:	0ff00813          	li	a6,255
    aa48:	00a777b3          	and	a5,a4,a0
    aa4c:	0ff67613          	zext.b	a2,a2
    aa50:	8f6d                	and	a4,a4,a1
    aa52:	01068b63          	beq	a3,a6,aa68 <__unordsf2+0x36>
    aa56:	0ff00793          	li	a5,255
    aa5a:	4501                	li	a0,0
    aa5c:	00f60363          	beq	a2,a5,aa62 <__unordsf2+0x30>
    aa60:	8082                	ret
    aa62:	00e03533          	snez	a0,a4
    aa66:	8082                	ret
    aa68:	4505                	li	a0,1
    aa6a:	d7f5                	beqz	a5,aa56 <__unordsf2+0x24>
    aa6c:	8082                	ret

0000aa6e <__fixsfsi>:
    aa6e:	00800637          	lui	a2,0x800
    aa72:	01755713          	srli	a4,a0,0x17
    aa76:	fff60793          	addi	a5,a2,-1 # 7fffff <_data_lma+0x7f2feb>
    aa7a:	0ff77713          	zext.b	a4,a4
    aa7e:	07e00593          	li	a1,126
    aa82:	00a7f6b3          	and	a3,a5,a0
    aa86:	01f55793          	srli	a5,a0,0x1f
    aa8a:	00e5db63          	bge	a1,a4,aaa0 <__fixsfsi+0x32>
    aa8e:	09d00593          	li	a1,157
    aa92:	00e5d963          	bge	a1,a4,aaa4 <__fixsfsi+0x36>
    aa96:	80000537          	lui	a0,0x80000
    aa9a:	157d                	addi	a0,a0,-1 # 7fffffff <_eusrstack+0x5fffafff>
    aa9c:	953e                	add	a0,a0,a5
    aa9e:	8082                	ret
    aaa0:	4501                	li	a0,0
    aaa2:	8082                	ret
    aaa4:	09500593          	li	a1,149
    aaa8:	8ed1                	or	a3,a3,a2
    aaaa:	00e5cd63          	blt	a1,a4,aac4 <__fixsfsi+0x56>
    aaae:	09600613          	li	a2,150
    aab2:	40e60733          	sub	a4,a2,a4
    aab6:	00e6d6b3          	srl	a3,a3,a4
    aaba:	40d00533          	neg	a0,a3
    aabe:	f3f5                	bnez	a5,aaa2 <__fixsfsi+0x34>
    aac0:	8536                	mv	a0,a3
    aac2:	8082                	ret
    aac4:	f6a70713          	addi	a4,a4,-150
    aac8:	00e696b3          	sll	a3,a3,a4
    aacc:	b7fd                	j	aaba <__fixsfsi+0x4c>

0000aace <__floatsisf>:
    aace:	1141                	addi	sp,sp,-16
    aad0:	c606                	sw	ra,12(sp)
    aad2:	c422                	sw	s0,8(sp)
    aad4:	c226                	sw	s1,4(sp)
    aad6:	cd15                	beqz	a0,ab12 <__floatsisf+0x44>
    aad8:	41f55713          	srai	a4,a0,0x1f
    aadc:	00a74433          	xor	s0,a4,a0
    aae0:	8c19                	sub	s0,s0,a4
    aae2:	87aa                	mv	a5,a0
    aae4:	8522                	mv	a0,s0
    aae6:	01f7d493          	srli	s1,a5,0x1f
    aaea:	2ee5                	jal	aee2 <__clzsi2>
    aaec:	09e00713          	li	a4,158
    aaf0:	40a707b3          	sub	a5,a4,a0
    aaf4:	09600713          	li	a4,150
    aaf8:	02f74a63          	blt	a4,a5,ab2c <__floatsisf+0x5e>
    aafc:	4721                	li	a4,8
    aafe:	08e50863          	beq	a0,a4,ab8e <__floatsisf+0xc0>
    ab02:	1561                	addi	a0,a0,-8
    ab04:	00a41733          	sll	a4,s0,a0
    ab08:	0726                	slli	a4,a4,0x9
    ab0a:	8325                	srli	a4,a4,0x9
    ab0c:	0ff7f513          	zext.b	a0,a5
    ab10:	a021                	j	ab18 <__floatsisf+0x4a>
    ab12:	4481                	li	s1,0
    ab14:	4501                	li	a0,0
    ab16:	4701                	li	a4,0
    ab18:	40b2                	lw	ra,12(sp)
    ab1a:	4422                	lw	s0,8(sp)
    ab1c:	055e                	slli	a0,a0,0x17
    ab1e:	01f49793          	slli	a5,s1,0x1f
    ab22:	8d59                	or	a0,a0,a4
    ab24:	4492                	lw	s1,4(sp)
    ab26:	8d5d                	or	a0,a0,a5
    ab28:	0141                	addi	sp,sp,16
    ab2a:	8082                	ret
    ab2c:	09900713          	li	a4,153
    ab30:	04f74363          	blt	a4,a5,ab76 <__floatsisf+0xa8>
    ab34:	4715                	li	a4,5
    ab36:	ffb50693          	addi	a3,a0,-5
    ab3a:	00e50463          	beq	a0,a4,ab42 <__floatsisf+0x74>
    ab3e:	00d41433          	sll	s0,s0,a3
    ab42:	fc0006b7          	lui	a3,0xfc000
    ab46:	16fd                	addi	a3,a3,-1 # fbffffff <_eusrstack+0xdbffafff>
    ab48:	00747613          	andi	a2,s0,7
    ab4c:	00d47733          	and	a4,s0,a3
    ab50:	ce11                	beqz	a2,ab6c <__floatsisf+0x9e>
    ab52:	883d                	andi	s0,s0,15
    ab54:	4611                	li	a2,4
    ab56:	00c40b63          	beq	s0,a2,ab6c <__floatsisf+0x9e>
    ab5a:	0711                	addi	a4,a4,4
    ab5c:	04000637          	lui	a2,0x4000
    ab60:	8e79                	and	a2,a2,a4
    ab62:	c609                	beqz	a2,ab6c <__floatsisf+0x9e>
    ab64:	09f00793          	li	a5,159
    ab68:	8f75                	and	a4,a4,a3
    ab6a:	8f89                	sub	a5,a5,a0
    ab6c:	071a                	slli	a4,a4,0x6
    ab6e:	8325                	srli	a4,a4,0x9
    ab70:	0ff7f513          	zext.b	a0,a5
    ab74:	b755                	j	ab18 <__floatsisf+0x4a>
    ab76:	01b50713          	addi	a4,a0,27
    ab7a:	4695                	li	a3,5
    ab7c:	00e41733          	sll	a4,s0,a4
    ab80:	8e89                	sub	a3,a3,a0
    ab82:	00d45433          	srl	s0,s0,a3
    ab86:	00e03733          	snez	a4,a4
    ab8a:	8c59                	or	s0,s0,a4
    ab8c:	bf5d                	j	ab42 <__floatsisf+0x74>
    ab8e:	0426                	slli	s0,s0,0x9
    ab90:	00945713          	srli	a4,s0,0x9
    ab94:	09600513          	li	a0,150
    ab98:	b741                	j	ab18 <__floatsisf+0x4a>

0000ab9a <__fixsfdi>:
    ab9a:	00800637          	lui	a2,0x800
    ab9e:	01755693          	srli	a3,a0,0x17
    aba2:	fff60793          	addi	a5,a2,-1 # 7fffff <_data_lma+0x7f2feb>
    aba6:	0ff6f693          	zext.b	a3,a3
    abaa:	07e00593          	li	a1,126
    abae:	8fe9                	and	a5,a5,a0
    abb0:	01f55713          	srli	a4,a0,0x1f
    abb4:	02d5d363          	bge	a1,a3,abda <__fixsfdi+0x40>
    abb8:	0bd00593          	li	a1,189
    abbc:	02d5d263          	bge	a1,a3,abe0 <__fixsfdi+0x46>
    abc0:	4505                	li	a0,1
    abc2:	8d19                	sub	a0,a0,a4
    abc4:	41f55713          	srai	a4,a0,0x1f
    abc8:	800005b7          	lui	a1,0x80000
    abcc:	00a037b3          	snez	a5,a0
    abd0:	8d99                	sub	a1,a1,a4
    abd2:	40a00533          	neg	a0,a0
    abd6:	8d9d                	sub	a1,a1,a5
    abd8:	8082                	ret
    abda:	4501                	li	a0,0
    abdc:	4581                	li	a1,0
    abde:	8082                	ret
    abe0:	09500593          	li	a1,149
    abe4:	8fd1                	or	a5,a5,a2
    abe6:	02d5d463          	bge	a1,a3,ac0e <__fixsfdi+0x74>
    abea:	f4a68593          	addi	a1,a3,-182
    abee:	f6a68693          	addi	a3,a3,-150
    abf2:	0205c663          	bltz	a1,ac1e <__fixsfdi+0x84>
    abf6:	00b795b3          	sll	a1,a5,a1
    abfa:	4501                	li	a0,0
    abfc:	d36d                	beqz	a4,abde <__fixsfdi+0x44>
    abfe:	00a037b3          	snez	a5,a0
    ac02:	40b005b3          	neg	a1,a1
    ac06:	40a00533          	neg	a0,a0
    ac0a:	8d9d                	sub	a1,a1,a5
    ac0c:	8082                	ret
    ac0e:	09600613          	li	a2,150
    ac12:	40d606b3          	sub	a3,a2,a3
    ac16:	00d7d533          	srl	a0,a5,a3
    ac1a:	4581                	li	a1,0
    ac1c:	b7c5                	j	abfc <__fixsfdi+0x62>
    ac1e:	467d                	li	a2,31
    ac20:	0017d593          	srli	a1,a5,0x1
    ac24:	8e15                	sub	a2,a2,a3
    ac26:	00c5d5b3          	srl	a1,a1,a2
    ac2a:	00d79533          	sll	a0,a5,a3
    ac2e:	b7f9                	j	abfc <__fixsfdi+0x62>

0000ac30 <__floatdisf>:
    ac30:	1141                	addi	sp,sp,-16
    ac32:	c606                	sw	ra,12(sp)
    ac34:	c422                	sw	s0,8(sp)
    ac36:	c226                	sw	s1,4(sp)
    ac38:	c04a                	sw	s2,0(sp)
    ac3a:	00b56733          	or	a4,a0,a1
    ac3e:	c341                	beqz	a4,acbe <__floatdisf+0x8e>
    ac40:	842e                	mv	s0,a1
    ac42:	84aa                	mv	s1,a0
    ac44:	01f5d913          	srli	s2,a1,0x1f
    ac48:	0c05c263          	bltz	a1,ad0c <__floatdisf+0xdc>
    ac4c:	c459                	beqz	s0,acda <__floatdisf+0xaa>
    ac4e:	8522                	mv	a0,s0
    ac50:	2c49                	jal	aee2 <__clzsi2>
    ac52:	0be00713          	li	a4,190
    ac56:	882a                	mv	a6,a0
    ac58:	8f09                	sub	a4,a4,a0
    ac5a:	02500793          	li	a5,37
    ac5e:	410787b3          	sub	a5,a5,a6
    ac62:	fe078693          	addi	a3,a5,-32 # 3ffffe0 <_data_lma+0x3ff2fcc>
    ac66:	0c06c263          	bltz	a3,ad2a <__floatdisf+0xfa>
    ac6a:	00d456b3          	srl	a3,s0,a3
    ac6e:	ffb80613          	addi	a2,a6,-5
    ac72:	01b80793          	addi	a5,a6,27
    ac76:	0c064463          	bltz	a2,ad3e <__floatdisf+0x10e>
    ac7a:	00c49633          	sll	a2,s1,a2
    ac7e:	4781                	li	a5,0
    ac80:	8fd1                	or	a5,a5,a2
    ac82:	00f037b3          	snez	a5,a5
    ac86:	8edd                	or	a3,a3,a5
    ac88:	fc000637          	lui	a2,0xfc000
    ac8c:	167d                	addi	a2,a2,-1 # fbffffff <_eusrstack+0xdbffafff>
    ac8e:	0076f593          	andi	a1,a3,7
    ac92:	00c6f7b3          	and	a5,a3,a2
    ac96:	cd99                	beqz	a1,acb4 <__floatdisf+0x84>
    ac98:	8abd                	andi	a3,a3,15
    ac9a:	4591                	li	a1,4
    ac9c:	00b68c63          	beq	a3,a1,acb4 <__floatdisf+0x84>
    aca0:	0791                	addi	a5,a5,4
    aca2:	040006b7          	lui	a3,0x4000
    aca6:	8efd                	and	a3,a3,a5
    aca8:	c691                	beqz	a3,acb4 <__floatdisf+0x84>
    acaa:	0bf00513          	li	a0,191
    acae:	8ff1                	and	a5,a5,a2
    acb0:	41050733          	sub	a4,a0,a6
    acb4:	079a                	slli	a5,a5,0x6
    acb6:	83a5                	srli	a5,a5,0x9
    acb8:	0ff77513          	zext.b	a0,a4
    acbc:	a021                	j	acc4 <__floatdisf+0x94>
    acbe:	4901                	li	s2,0
    acc0:	4501                	li	a0,0
    acc2:	4781                	li	a5,0
    acc4:	40b2                	lw	ra,12(sp)
    acc6:	4422                	lw	s0,8(sp)
    acc8:	055e                	slli	a0,a0,0x17
    acca:	097e                	slli	s2,s2,0x1f
    accc:	8d5d                	or	a0,a0,a5
    acce:	4492                	lw	s1,4(sp)
    acd0:	01256533          	or	a0,a0,s2
    acd4:	4902                	lw	s2,0(sp)
    acd6:	0141                	addi	sp,sp,16
    acd8:	8082                	ret
    acda:	8526                	mv	a0,s1
    acdc:	2419                	jal	aee2 <__clzsi2>
    acde:	02050813          	addi	a6,a0,32
    ace2:	0be00713          	li	a4,190
    ace6:	41070733          	sub	a4,a4,a6
    acea:	09600793          	li	a5,150
    acee:	86a6                	mv	a3,s1
    acf0:	06e7c363          	blt	a5,a4,ad56 <__floatdisf+0x126>
    acf4:	02800793          	li	a5,40
    acf8:	02f80363          	beq	a6,a5,ad1e <__floatdisf+0xee>
    acfc:	1561                	addi	a0,a0,-8
    acfe:	00a497b3          	sll	a5,s1,a0
    ad02:	07a6                	slli	a5,a5,0x9
    ad04:	83a5                	srli	a5,a5,0x9
    ad06:	0ff77513          	zext.b	a0,a4
    ad0a:	bf6d                	j	acc4 <__floatdisf+0x94>
    ad0c:	00a037b3          	snez	a5,a0
    ad10:	40b00433          	neg	s0,a1
    ad14:	8c1d                	sub	s0,s0,a5
    ad16:	40a004b3          	neg	s1,a0
    ad1a:	d061                	beqz	s0,acda <__floatdisf+0xaa>
    ad1c:	bf0d                	j	ac4e <__floatdisf+0x1e>
    ad1e:	00949793          	slli	a5,s1,0x9
    ad22:	83a5                	srli	a5,a5,0x9
    ad24:	09600513          	li	a0,150
    ad28:	bf71                	j	acc4 <__floatdisf+0x94>
    ad2a:	46fd                	li	a3,31
    ad2c:	8e9d                	sub	a3,a3,a5
    ad2e:	00141613          	slli	a2,s0,0x1
    ad32:	00d61633          	sll	a2,a2,a3
    ad36:	00f4d6b3          	srl	a3,s1,a5
    ad3a:	8ed1                	or	a3,a3,a2
    ad3c:	bf0d                	j	ac6e <__floatdisf+0x3e>
    ad3e:	467d                	li	a2,31
    ad40:	8e1d                	sub	a2,a2,a5
    ad42:	0014d593          	srli	a1,s1,0x1
    ad46:	00c5d5b3          	srl	a1,a1,a2
    ad4a:	00f41633          	sll	a2,s0,a5
    ad4e:	8e4d                	or	a2,a2,a1
    ad50:	00f497b3          	sll	a5,s1,a5
    ad54:	b735                	j	ac80 <__floatdisf+0x50>
    ad56:	09900793          	li	a5,153
    ad5a:	f0e7c0e3          	blt	a5,a4,ac5a <__floatdisf+0x2a>
    ad5e:	02500613          	li	a2,37
    ad62:	ffb50793          	addi	a5,a0,-5
    ad66:	00c80563          	beq	a6,a2,ad70 <__floatdisf+0x140>
    ad6a:	00f496b3          	sll	a3,s1,a5
    ad6e:	bf29                	j	ac88 <__floatdisf+0x58>
    ad70:	09900713          	li	a4,153
    ad74:	bf11                	j	ac88 <__floatdisf+0x58>

0000ad76 <__truncdfsf2>:
    ad76:	0145d793          	srli	a5,a1,0x14
    ad7a:	7ff7f793          	andi	a5,a5,2047
    ad7e:	00c59693          	slli	a3,a1,0xc
    ad82:	00178613          	addi	a2,a5,1
    ad86:	82a5                	srli	a3,a3,0x9
    ad88:	01d55713          	srli	a4,a0,0x1d
    ad8c:	7fe67613          	andi	a2,a2,2046
    ad90:	81fd                	srli	a1,a1,0x1f
    ad92:	8ed9                	or	a3,a3,a4
    ad94:	00351813          	slli	a6,a0,0x3
    ad98:	c205                	beqz	a2,adb8 <__truncdfsf2+0x42>
    ad9a:	c8078613          	addi	a2,a5,-896
    ad9e:	0fe00713          	li	a4,254
    ada2:	04c75463          	bge	a4,a2,adea <__truncdfsf2+0x74>
    ada6:	0ff00793          	li	a5,255
    adaa:	4701                	li	a4,0
    adac:	07de                	slli	a5,a5,0x17
    adae:	00e7e533          	or	a0,a5,a4
    adb2:	05fe                	slli	a1,a1,0x1f
    adb4:	8d4d                	or	a0,a0,a1
    adb6:	8082                	ret
    adb8:	0106e733          	or	a4,a3,a6
    adbc:	eb89                	bnez	a5,adce <__truncdfsf2+0x58>
    adbe:	4801                	li	a6,0
    adc0:	cb2d                	beqz	a4,ae32 <__truncdfsf2+0xbc>
    adc2:	0826                	slli	a6,a6,0x9
    adc4:	00985713          	srli	a4,a6,0x9
    adc8:	0ff7f793          	zext.b	a5,a5
    adcc:	b7c5                	j	adac <__truncdfsf2+0x36>
    adce:	0ff00793          	li	a5,255
    add2:	df69                	beqz	a4,adac <__truncdfsf2+0x36>
    add4:	0ff00793          	li	a5,255
    add8:	00400737          	lui	a4,0x400
    addc:	07de                	slli	a5,a5,0x17
    adde:	4581                	li	a1,0
    ade0:	00e7e533          	or	a0,a5,a4
    ade4:	05fe                	slli	a1,a1,0x1f
    ade6:	8d4d                	or	a0,a0,a1
    ade8:	8082                	ret
    adea:	04c05c63          	blez	a2,ae42 <__truncdfsf2+0xcc>
    adee:	00651713          	slli	a4,a0,0x6
    adf2:	00e03733          	snez	a4,a4
    adf6:	068e                	slli	a3,a3,0x3
    adf8:	01d85813          	srli	a6,a6,0x1d
    adfc:	8f55                	or	a4,a4,a3
    adfe:	01076733          	or	a4,a4,a6
    ae02:	00777793          	andi	a5,a4,7
    ae06:	cbe9                	beqz	a5,aed8 <__truncdfsf2+0x162>
    ae08:	00f77793          	andi	a5,a4,15
    ae0c:	4691                	li	a3,4
    ae0e:	0cd78563          	beq	a5,a3,aed8 <__truncdfsf2+0x162>
    ae12:	0711                	addi	a4,a4,4 # 400004 <_data_lma+0x3f2ff0>
    ae14:	040007b7          	lui	a5,0x4000
    ae18:	8ff9                	and	a5,a5,a4
    ae1a:	c7dd                	beqz	a5,aec8 <__truncdfsf2+0x152>
    ae1c:	00160793          	addi	a5,a2,1
    ae20:	0ff7f793          	zext.b	a5,a5
    ae24:	4701                	li	a4,0
    ae26:	07de                	slli	a5,a5,0x17
    ae28:	00e7e533          	or	a0,a5,a4
    ae2c:	05fe                	slli	a1,a1,0x1f
    ae2e:	8d4d                	or	a0,a0,a1
    ae30:	8082                	ret
    ae32:	4781                	li	a5,0
    ae34:	4701                	li	a4,0
    ae36:	07de                	slli	a5,a5,0x17
    ae38:	00e7e533          	or	a0,a5,a4
    ae3c:	05fe                	slli	a1,a1,0x1f
    ae3e:	8d4d                	or	a0,a0,a1
    ae40:	8082                	ret
    ae42:	5725                	li	a4,-23
    ae44:	fee647e3          	blt	a2,a4,ae32 <__truncdfsf2+0xbc>
    ae48:	4579                	li	a0,30
    ae4a:	008008b7          	lui	a7,0x800
    ae4e:	8d11                	sub	a0,a0,a2
    ae50:	477d                	li	a4,31
    ae52:	0116e6b3          	or	a3,a3,a7
    ae56:	04a75063          	bge	a4,a0,ae96 <__truncdfsf2+0x120>
    ae5a:	5779                	li	a4,-2
    ae5c:	8f11                	sub	a4,a4,a2
    ae5e:	02000613          	li	a2,32
    ae62:	00e6d733          	srl	a4,a3,a4
    ae66:	00c50863          	beq	a0,a2,ae76 <__truncdfsf2+0x100>
    ae6a:	ca278793          	addi	a5,a5,-862 # 3fffca2 <_data_lma+0x3ff2c8e>
    ae6e:	00f696b3          	sll	a3,a3,a5
    ae72:	00d86833          	or	a6,a6,a3
    ae76:	01003833          	snez	a6,a6
    ae7a:	00e86833          	or	a6,a6,a4
    ae7e:	00787793          	andi	a5,a6,7
    ae82:	c7b9                	beqz	a5,aed0 <__truncdfsf2+0x15a>
    ae84:	00f87793          	andi	a5,a6,15
    ae88:	4711                	li	a4,4
    ae8a:	02e79c63          	bne	a5,a4,aec2 <__truncdfsf2+0x14c>
    ae8e:	00385813          	srli	a6,a6,0x3
    ae92:	4781                	li	a5,0
    ae94:	b73d                	j	adc2 <__truncdfsf2+0x4c>
    ae96:	c8278793          	addi	a5,a5,-894
    ae9a:	00f81733          	sll	a4,a6,a5
    ae9e:	00f696b3          	sll	a3,a3,a5
    aea2:	00e03733          	snez	a4,a4
    aea6:	00a85833          	srl	a6,a6,a0
    aeaa:	8f55                	or	a4,a4,a3
    aeac:	00e86733          	or	a4,a6,a4
    aeb0:	00777793          	andi	a5,a4,7
    aeb4:	4601                	li	a2,0
    aeb6:	fba9                	bnez	a5,ae08 <__truncdfsf2+0x92>
    aeb8:	830d                	srli	a4,a4,0x3
    aeba:	18fd                	addi	a7,a7,-1 # 7fffff <_data_lma+0x7f2feb>
    aebc:	01177733          	and	a4,a4,a7
    aec0:	b5f5                	j	adac <__truncdfsf2+0x36>
    aec2:	00480713          	addi	a4,a6,4
    aec6:	4601                	li	a2,0
    aec8:	00375813          	srli	a6,a4,0x3
    aecc:	87b2                	mv	a5,a2
    aece:	bdd5                	j	adc2 <__truncdfsf2+0x4c>
    aed0:	081a                	slli	a6,a6,0x6
    aed2:	00985713          	srli	a4,a6,0x9
    aed6:	bdd9                	j	adac <__truncdfsf2+0x36>
    aed8:	071a                	slli	a4,a4,0x6
    aeda:	8325                	srli	a4,a4,0x9
    aedc:	0ff67793          	zext.b	a5,a2
    aee0:	b5f1                	j	adac <__truncdfsf2+0x36>

0000aee2 <__clzsi2>:
    aee2:	67c1                	lui	a5,0x10
    aee4:	02f57663          	bgeu	a0,a5,af10 <__clzsi2+0x2e>
    aee8:	10053793          	sltiu	a5,a0,256
    aeec:	0017c793          	xori	a5,a5,1
    aef0:	078e                	slli	a5,a5,0x3
    aef2:	02000713          	li	a4,32
    aef6:	8f1d                	sub	a4,a4,a5
    aef8:	00f55533          	srl	a0,a0,a5
    aefc:	00002797          	auipc	a5,0x2
    af00:	f2478793          	addi	a5,a5,-220 # ce20 <__clz_tab>
    af04:	97aa                	add	a5,a5,a0
    af06:	0007c503          	lbu	a0,0(a5)
    af0a:	40a70533          	sub	a0,a4,a0
    af0e:	8082                	ret
    af10:	010007b7          	lui	a5,0x1000
    af14:	02f57063          	bgeu	a0,a5,af34 <__clzsi2+0x52>
    af18:	47c1                	li	a5,16
    af1a:	00f55533          	srl	a0,a0,a5
    af1e:	00002797          	auipc	a5,0x2
    af22:	f0278793          	addi	a5,a5,-254 # ce20 <__clz_tab>
    af26:	97aa                	add	a5,a5,a0
    af28:	0007c503          	lbu	a0,0(a5)
    af2c:	4741                	li	a4,16
    af2e:	40a70533          	sub	a0,a4,a0
    af32:	8082                	ret
    af34:	47e1                	li	a5,24
    af36:	00f55533          	srl	a0,a0,a5
    af3a:	00002797          	auipc	a5,0x2
    af3e:	ee678793          	addi	a5,a5,-282 # ce20 <__clz_tab>
    af42:	97aa                	add	a5,a5,a0
    af44:	0007c503          	lbu	a0,0(a5)
    af48:	4721                	li	a4,8
    af4a:	40a70533          	sub	a0,a4,a0
    af4e:	8082                	ret

0000af50 <__errno>:
    af50:	83c1a503          	lw	a0,-1988(gp) # 20001364 <_impure_ptr>
    af54:	8082                	ret

0000af56 <iprintf>:
    af56:	715d                	addi	sp,sp,-80
    af58:	d422                	sw	s0,40(sp)
    af5a:	d606                	sw	ra,44(sp)
    af5c:	842a                	mv	s0,a0
    af5e:	da2e                	sw	a1,52(sp)
    af60:	dc32                	sw	a2,56(sp)
    af62:	de36                	sw	a3,60(sp)
    af64:	c0ba                	sw	a4,64(sp)
    af66:	c2be                	sw	a5,68(sp)
    af68:	c4c2                	sw	a6,72(sp)
    af6a:	c6c6                	sw	a7,76(sp)
    af6c:	83c1a503          	lw	a0,-1988(gp) # 20001364 <_impure_ptr>
    af70:	c511                	beqz	a0,af7c <iprintf+0x26>
    af72:	4d1c                	lw	a5,24(a0)
    af74:	e781                	bnez	a5,af7c <iprintf+0x26>
    af76:	c62a                	sw	a0,12(sp)
    af78:	2bbd                	jal	b4f6 <__sinit>
    af7a:	4532                	lw	a0,12(sp)
    af7c:	450c                	lw	a1,8(a0)
    af7e:	1854                	addi	a3,sp,52
    af80:	8622                	mv	a2,s0
    af82:	ce36                	sw	a3,28(sp)
    af84:	271000ef          	jal	ra,b9f4 <_vfiprintf_r>
    af88:	50b2                	lw	ra,44(sp)
    af8a:	5422                	lw	s0,40(sp)
    af8c:	6161                	addi	sp,sp,80
    af8e:	8082                	ret

0000af90 <_puts_r>:
    af90:	1101                	addi	sp,sp,-32
    af92:	ca26                	sw	s1,20(sp)
    af94:	ce06                	sw	ra,28(sp)
    af96:	cc22                	sw	s0,24(sp)
    af98:	c84a                	sw	s2,16(sp)
    af9a:	c64e                	sw	s3,12(sp)
    af9c:	c452                	sw	s4,8(sp)
    af9e:	84aa                	mv	s1,a0
    afa0:	e119                	bnez	a0,afa6 <_puts_r+0x16>
    afa2:	451c                	lw	a5,8(a0)
    afa4:	9002                	ebreak
    afa6:	4d1c                	lw	a5,24(a0)
    afa8:	892e                	mv	s2,a1
    afaa:	e7a5                	bnez	a5,b012 <_puts_r+0x82>
    afac:	23a9                	jal	b4f6 <__sinit>
    afae:	4c9c                	lw	a5,24(s1)
    afb0:	4480                	lw	s0,8(s1)
    afb2:	c3b5                	beqz	a5,b016 <_puts_r+0x86>
    afb4:	00002797          	auipc	a5,0x2
    afb8:	fac78793          	addi	a5,a5,-84 # cf60 <__sf_fake_stdin>
    afbc:	06f41063          	bne	s0,a5,b01c <_puts_r+0x8c>
    afc0:	40c0                	lw	s0,4(s1)
    afc2:	507c                	lw	a5,100(s0)
    afc4:	8b85                	andi	a5,a5,1
    afc6:	eb81                	bnez	a5,afd6 <_puts_r+0x46>
    afc8:	00c45783          	lhu	a5,12(s0)
    afcc:	2007f793          	andi	a5,a5,512
    afd0:	e399                	bnez	a5,afd6 <_puts_r+0x46>
    afd2:	4c28                	lw	a0,88(s0)
    afd4:	2d45                	jal	b684 <__retarget_lock_acquire_recursive>
    afd6:	00c45783          	lhu	a5,12(s0)
    afda:	8ba1                	andi	a5,a5,8
    afdc:	c399                	beqz	a5,afe2 <_puts_r+0x52>
    afde:	481c                	lw	a5,16(s0)
    afe0:	e7c5                	bnez	a5,b088 <_puts_r+0xf8>
    afe2:	85a2                	mv	a1,s0
    afe4:	8526                	mv	a0,s1
    afe6:	2249                	jal	b168 <__swsetup_r>
    afe8:	c145                	beqz	a0,b088 <_puts_r+0xf8>
    afea:	54fd                	li	s1,-1
    afec:	507c                	lw	a5,100(s0)
    afee:	8b85                	andi	a5,a5,1
    aff0:	eb81                	bnez	a5,b000 <_puts_r+0x70>
    aff2:	00c45783          	lhu	a5,12(s0)
    aff6:	2007f793          	andi	a5,a5,512
    affa:	e399                	bnez	a5,b000 <_puts_r+0x70>
    affc:	4c28                	lw	a0,88(s0)
    affe:	2561                	jal	b686 <__retarget_lock_release_recursive>
    b000:	40f2                	lw	ra,28(sp)
    b002:	4462                	lw	s0,24(sp)
    b004:	4942                	lw	s2,16(sp)
    b006:	49b2                	lw	s3,12(sp)
    b008:	4a22                	lw	s4,8(sp)
    b00a:	8526                	mv	a0,s1
    b00c:	44d2                	lw	s1,20(sp)
    b00e:	6105                	addi	sp,sp,32
    b010:	8082                	ret
    b012:	4500                	lw	s0,8(a0)
    b014:	b745                	j	afb4 <_puts_r+0x24>
    b016:	8526                	mv	a0,s1
    b018:	29f9                	jal	b4f6 <__sinit>
    b01a:	bf69                	j	afb4 <_puts_r+0x24>
    b01c:	00002797          	auipc	a5,0x2
    b020:	f2478793          	addi	a5,a5,-220 # cf40 <__sf_fake_stdout>
    b024:	00f41463          	bne	s0,a5,b02c <_puts_r+0x9c>
    b028:	4480                	lw	s0,8(s1)
    b02a:	bf61                	j	afc2 <_puts_r+0x32>
    b02c:	00002797          	auipc	a5,0x2
    b030:	ef478793          	addi	a5,a5,-268 # cf20 <__sf_fake_stderr>
    b034:	f8f417e3          	bne	s0,a5,afc2 <_puts_r+0x32>
    b038:	44c0                	lw	s0,12(s1)
    b03a:	b761                	j	afc2 <_puts_r+0x32>
    b03c:	c41c                	sw	a5,8(s0)
    b03e:	0905                	addi	s2,s2,1
    b040:	0207c963          	bltz	a5,b072 <_puts_r+0xe2>
    b044:	401c                	lw	a5,0(s0)
    b046:	00178713          	addi	a4,a5,1
    b04a:	c018                	sw	a4,0(s0)
    b04c:	00b78023          	sb	a1,0(a5)
    b050:	441c                	lw	a5,8(s0)
    b052:	00094583          	lbu	a1,0(s2)
    b056:	17fd                	addi	a5,a5,-1
    b058:	f1f5                	bnez	a1,b03c <_puts_r+0xac>
    b05a:	c41c                	sw	a5,8(s0)
    b05c:	0207d963          	bgez	a5,b08e <_puts_r+0xfe>
    b060:	8622                	mv	a2,s0
    b062:	45a9                	li	a1,10
    b064:	8526                	mv	a0,s1
    b066:	2089                	jal	b0a8 <__swbuf_r>
    b068:	57fd                	li	a5,-1
    b06a:	f8f500e3          	beq	a0,a5,afea <_puts_r+0x5a>
    b06e:	44a9                	li	s1,10
    b070:	bfb5                	j	afec <_puts_r+0x5c>
    b072:	4c18                	lw	a4,24(s0)
    b074:	00e7c463          	blt	a5,a4,b07c <_puts_r+0xec>
    b078:	fd4596e3          	bne	a1,s4,b044 <_puts_r+0xb4>
    b07c:	8622                	mv	a2,s0
    b07e:	8526                	mv	a0,s1
    b080:	2025                	jal	b0a8 <__swbuf_r>
    b082:	fd3517e3          	bne	a0,s3,b050 <_puts_r+0xc0>
    b086:	b795                	j	afea <_puts_r+0x5a>
    b088:	59fd                	li	s3,-1
    b08a:	4a29                	li	s4,10
    b08c:	b7d1                	j	b050 <_puts_r+0xc0>
    b08e:	401c                	lw	a5,0(s0)
    b090:	00178713          	addi	a4,a5,1
    b094:	c018                	sw	a4,0(s0)
    b096:	4729                	li	a4,10
    b098:	00e78023          	sb	a4,0(a5)
    b09c:	bfc9                	j	b06e <_puts_r+0xde>

0000b09e <puts>:
    b09e:	85aa                	mv	a1,a0
    b0a0:	83c1a503          	lw	a0,-1988(gp) # 20001364 <_impure_ptr>
    b0a4:	eedff06f          	j	af90 <_puts_r>

0000b0a8 <__swbuf_r>:
    b0a8:	1101                	addi	sp,sp,-32
    b0aa:	cc22                	sw	s0,24(sp)
    b0ac:	ca26                	sw	s1,20(sp)
    b0ae:	c84a                	sw	s2,16(sp)
    b0b0:	ce06                	sw	ra,28(sp)
    b0b2:	c64e                	sw	s3,12(sp)
    b0b4:	84aa                	mv	s1,a0
    b0b6:	892e                	mv	s2,a1
    b0b8:	8432                	mv	s0,a2
    b0ba:	c501                	beqz	a0,b0c2 <__swbuf_r+0x1a>
    b0bc:	4d1c                	lw	a5,24(a0)
    b0be:	e391                	bnez	a5,b0c2 <__swbuf_r+0x1a>
    b0c0:	291d                	jal	b4f6 <__sinit>
    b0c2:	00002797          	auipc	a5,0x2
    b0c6:	e9e78793          	addi	a5,a5,-354 # cf60 <__sf_fake_stdin>
    b0ca:	02f41863          	bne	s0,a5,b0fa <__swbuf_r+0x52>
    b0ce:	40c0                	lw	s0,4(s1)
    b0d0:	4c1c                	lw	a5,24(s0)
    b0d2:	c41c                	sw	a5,8(s0)
    b0d4:	00c45783          	lhu	a5,12(s0)
    b0d8:	8ba1                	andi	a5,a5,8
    b0da:	c399                	beqz	a5,b0e0 <__swbuf_r+0x38>
    b0dc:	481c                	lw	a5,16(s0)
    b0de:	ef95                	bnez	a5,b11a <__swbuf_r+0x72>
    b0e0:	85a2                	mv	a1,s0
    b0e2:	8526                	mv	a0,s1
    b0e4:	2051                	jal	b168 <__swsetup_r>
    b0e6:	c915                	beqz	a0,b11a <__swbuf_r+0x72>
    b0e8:	597d                	li	s2,-1
    b0ea:	40f2                	lw	ra,28(sp)
    b0ec:	4462                	lw	s0,24(sp)
    b0ee:	44d2                	lw	s1,20(sp)
    b0f0:	49b2                	lw	s3,12(sp)
    b0f2:	854a                	mv	a0,s2
    b0f4:	4942                	lw	s2,16(sp)
    b0f6:	6105                	addi	sp,sp,32
    b0f8:	8082                	ret
    b0fa:	00002797          	auipc	a5,0x2
    b0fe:	e4678793          	addi	a5,a5,-442 # cf40 <__sf_fake_stdout>
    b102:	00f41463          	bne	s0,a5,b10a <__swbuf_r+0x62>
    b106:	4480                	lw	s0,8(s1)
    b108:	b7e1                	j	b0d0 <__swbuf_r+0x28>
    b10a:	00002797          	auipc	a5,0x2
    b10e:	e1678793          	addi	a5,a5,-490 # cf20 <__sf_fake_stderr>
    b112:	faf41fe3          	bne	s0,a5,b0d0 <__swbuf_r+0x28>
    b116:	44c0                	lw	s0,12(s1)
    b118:	bf65                	j	b0d0 <__swbuf_r+0x28>
    b11a:	481c                	lw	a5,16(s0)
    b11c:	4008                	lw	a0,0(s0)
    b11e:	0ff97993          	zext.b	s3,s2
    b122:	0ff97913          	zext.b	s2,s2
    b126:	8d1d                	sub	a0,a0,a5
    b128:	485c                	lw	a5,20(s0)
    b12a:	00f54663          	blt	a0,a5,b136 <__swbuf_r+0x8e>
    b12e:	85a2                	mv	a1,s0
    b130:	8526                	mv	a0,s1
    b132:	24a5                	jal	b39a <_fflush_r>
    b134:	f955                	bnez	a0,b0e8 <__swbuf_r+0x40>
    b136:	441c                	lw	a5,8(s0)
    b138:	0505                	addi	a0,a0,1
    b13a:	17fd                	addi	a5,a5,-1
    b13c:	c41c                	sw	a5,8(s0)
    b13e:	401c                	lw	a5,0(s0)
    b140:	00178713          	addi	a4,a5,1
    b144:	c018                	sw	a4,0(s0)
    b146:	01378023          	sb	s3,0(a5)
    b14a:	485c                	lw	a5,20(s0)
    b14c:	00a78963          	beq	a5,a0,b15e <__swbuf_r+0xb6>
    b150:	00c45783          	lhu	a5,12(s0)
    b154:	8b85                	andi	a5,a5,1
    b156:	dbd1                	beqz	a5,b0ea <__swbuf_r+0x42>
    b158:	47a9                	li	a5,10
    b15a:	f8f918e3          	bne	s2,a5,b0ea <__swbuf_r+0x42>
    b15e:	85a2                	mv	a1,s0
    b160:	8526                	mv	a0,s1
    b162:	2c25                	jal	b39a <_fflush_r>
    b164:	d159                	beqz	a0,b0ea <__swbuf_r+0x42>
    b166:	b749                	j	b0e8 <__swbuf_r+0x40>

0000b168 <__swsetup_r>:
    b168:	1141                	addi	sp,sp,-16
    b16a:	c422                	sw	s0,8(sp)
    b16c:	c226                	sw	s1,4(sp)
    b16e:	c04a                	sw	s2,0(sp)
    b170:	c606                	sw	ra,12(sp)
    b172:	83c1a483          	lw	s1,-1988(gp) # 20001364 <_impure_ptr>
    b176:	892a                	mv	s2,a0
    b178:	842e                	mv	s0,a1
    b17a:	c489                	beqz	s1,b184 <__swsetup_r+0x1c>
    b17c:	4c9c                	lw	a5,24(s1)
    b17e:	e399                	bnez	a5,b184 <__swsetup_r+0x1c>
    b180:	8526                	mv	a0,s1
    b182:	2e95                	jal	b4f6 <__sinit>
    b184:	00002797          	auipc	a5,0x2
    b188:	ddc78793          	addi	a5,a5,-548 # cf60 <__sf_fake_stdin>
    b18c:	02f41463          	bne	s0,a5,b1b4 <__swsetup_r+0x4c>
    b190:	40c0                	lw	s0,4(s1)
    b192:	00c41783          	lh	a5,12(s0)
    b196:	0087f713          	andi	a4,a5,8
    b19a:	eb2d                	bnez	a4,b20c <__swsetup_r+0xa4>
    b19c:	0107f713          	andi	a4,a5,16
    b1a0:	eb15                	bnez	a4,b1d4 <__swsetup_r+0x6c>
    b1a2:	4725                	li	a4,9
    b1a4:	00e92023          	sw	a4,0(s2)
    b1a8:	0407e793          	ori	a5,a5,64
    b1ac:	00f41623          	sh	a5,12(s0)
    b1b0:	557d                	li	a0,-1
    b1b2:	a859                	j	b248 <__swsetup_r+0xe0>
    b1b4:	00002797          	auipc	a5,0x2
    b1b8:	d8c78793          	addi	a5,a5,-628 # cf40 <__sf_fake_stdout>
    b1bc:	00f41463          	bne	s0,a5,b1c4 <__swsetup_r+0x5c>
    b1c0:	4480                	lw	s0,8(s1)
    b1c2:	bfc1                	j	b192 <__swsetup_r+0x2a>
    b1c4:	00002797          	auipc	a5,0x2
    b1c8:	d5c78793          	addi	a5,a5,-676 # cf20 <__sf_fake_stderr>
    b1cc:	fcf413e3          	bne	s0,a5,b192 <__swsetup_r+0x2a>
    b1d0:	44c0                	lw	s0,12(s1)
    b1d2:	b7c1                	j	b192 <__swsetup_r+0x2a>
    b1d4:	8b91                	andi	a5,a5,4
    b1d6:	c78d                	beqz	a5,b200 <__swsetup_r+0x98>
    b1d8:	584c                	lw	a1,52(s0)
    b1da:	c989                	beqz	a1,b1ec <__swsetup_r+0x84>
    b1dc:	04440793          	addi	a5,s0,68
    b1e0:	00f58463          	beq	a1,a5,b1e8 <__swsetup_r+0x80>
    b1e4:	854a                	mv	a0,s2
    b1e6:	234d                	jal	b788 <_free_r>
    b1e8:	02042a23          	sw	zero,52(s0)
    b1ec:	00c45783          	lhu	a5,12(s0)
    b1f0:	00042223          	sw	zero,4(s0)
    b1f4:	fdb7f793          	andi	a5,a5,-37
    b1f8:	00f41623          	sh	a5,12(s0)
    b1fc:	481c                	lw	a5,16(s0)
    b1fe:	c01c                	sw	a5,0(s0)
    b200:	00c45783          	lhu	a5,12(s0)
    b204:	0087e793          	ori	a5,a5,8
    b208:	00f41623          	sh	a5,12(s0)
    b20c:	481c                	lw	a5,16(s0)
    b20e:	ef81                	bnez	a5,b226 <__swsetup_r+0xbe>
    b210:	00c45783          	lhu	a5,12(s0)
    b214:	20000713          	li	a4,512
    b218:	2807f793          	andi	a5,a5,640
    b21c:	00e78563          	beq	a5,a4,b226 <__swsetup_r+0xbe>
    b220:	85a2                	mv	a1,s0
    b222:	854a                	mv	a0,s2
    b224:	21c1                	jal	b6e4 <__smakebuf_r>
    b226:	00c41783          	lh	a5,12(s0)
    b22a:	0017f713          	andi	a4,a5,1
    b22e:	c31d                	beqz	a4,b254 <__swsetup_r+0xec>
    b230:	4858                	lw	a4,20(s0)
    b232:	00042423          	sw	zero,8(s0)
    b236:	40e00733          	neg	a4,a4
    b23a:	cc18                	sw	a4,24(s0)
    b23c:	4818                	lw	a4,16(s0)
    b23e:	4501                	li	a0,0
    b240:	e701                	bnez	a4,b248 <__swsetup_r+0xe0>
    b242:	0807f713          	andi	a4,a5,128
    b246:	f32d                	bnez	a4,b1a8 <__swsetup_r+0x40>
    b248:	40b2                	lw	ra,12(sp)
    b24a:	4422                	lw	s0,8(sp)
    b24c:	4492                	lw	s1,4(sp)
    b24e:	4902                	lw	s2,0(sp)
    b250:	0141                	addi	sp,sp,16
    b252:	8082                	ret
    b254:	0027f713          	andi	a4,a5,2
    b258:	4681                	li	a3,0
    b25a:	e311                	bnez	a4,b25e <__swsetup_r+0xf6>
    b25c:	4854                	lw	a3,20(s0)
    b25e:	c414                	sw	a3,8(s0)
    b260:	bff1                	j	b23c <__swsetup_r+0xd4>

0000b262 <__sflush_r>:
    b262:	00c59783          	lh	a5,12(a1) # 8000000c <_eusrstack+0x5fffb00c>
    b266:	1101                	addi	sp,sp,-32
    b268:	cc22                	sw	s0,24(sp)
    b26a:	ca26                	sw	s1,20(sp)
    b26c:	ce06                	sw	ra,28(sp)
    b26e:	c84a                	sw	s2,16(sp)
    b270:	c64e                	sw	s3,12(sp)
    b272:	0087f713          	andi	a4,a5,8
    b276:	84aa                	mv	s1,a0
    b278:	842e                	mv	s0,a1
    b27a:	e769                	bnez	a4,b344 <__sflush_r+0xe2>
    b27c:	41d8                	lw	a4,4(a1)
    b27e:	00e04563          	bgtz	a4,b288 <__sflush_r+0x26>
    b282:	41b8                	lw	a4,64(a1)
    b284:	08e05863          	blez	a4,b314 <__sflush_r+0xb2>
    b288:	5458                	lw	a4,44(s0)
    b28a:	c749                	beqz	a4,b314 <__sflush_r+0xb2>
    b28c:	83b1                	srli	a5,a5,0xc
    b28e:	0004a903          	lw	s2,0(s1)
    b292:	8b85                	andi	a5,a5,1
    b294:	0004a023          	sw	zero,0(s1)
    b298:	500c                	lw	a1,32(s0)
    b29a:	cbb9                	beqz	a5,b2f0 <__sflush_r+0x8e>
    b29c:	4870                	lw	a2,84(s0)
    b29e:	00c45783          	lhu	a5,12(s0)
    b2a2:	8b91                	andi	a5,a5,4
    b2a4:	c799                	beqz	a5,b2b2 <__sflush_r+0x50>
    b2a6:	405c                	lw	a5,4(s0)
    b2a8:	8e1d                	sub	a2,a2,a5
    b2aa:	585c                	lw	a5,52(s0)
    b2ac:	c399                	beqz	a5,b2b2 <__sflush_r+0x50>
    b2ae:	403c                	lw	a5,64(s0)
    b2b0:	8e1d                	sub	a2,a2,a5
    b2b2:	545c                	lw	a5,44(s0)
    b2b4:	500c                	lw	a1,32(s0)
    b2b6:	4681                	li	a3,0
    b2b8:	8526                	mv	a0,s1
    b2ba:	9782                	jalr	a5
    b2bc:	57fd                	li	a5,-1
    b2be:	04f50d63          	beq	a0,a5,b318 <__sflush_r+0xb6>
    b2c2:	481c                	lw	a5,16(s0)
    b2c4:	6705                	lui	a4,0x1
    b2c6:	00042223          	sw	zero,4(s0)
    b2ca:	c01c                	sw	a5,0(s0)
    b2cc:	00c45783          	lhu	a5,12(s0)
    b2d0:	8ff9                	and	a5,a5,a4
    b2d2:	c391                	beqz	a5,b2d6 <__sflush_r+0x74>
    b2d4:	c868                	sw	a0,84(s0)
    b2d6:	584c                	lw	a1,52(s0)
    b2d8:	0124a023          	sw	s2,0(s1)
    b2dc:	cd85                	beqz	a1,b314 <__sflush_r+0xb2>
    b2de:	04440793          	addi	a5,s0,68
    b2e2:	00f58463          	beq	a1,a5,b2ea <__sflush_r+0x88>
    b2e6:	8526                	mv	a0,s1
    b2e8:	2145                	jal	b788 <_free_r>
    b2ea:	02042a23          	sw	zero,52(s0)
    b2ee:	a01d                	j	b314 <__sflush_r+0xb2>
    b2f0:	4601                	li	a2,0
    b2f2:	4685                	li	a3,1
    b2f4:	8526                	mv	a0,s1
    b2f6:	9702                	jalr	a4
    b2f8:	57fd                	li	a5,-1
    b2fa:	862a                	mv	a2,a0
    b2fc:	faf511e3          	bne	a0,a5,b29e <__sflush_r+0x3c>
    b300:	409c                	lw	a5,0(s1)
    b302:	dfd1                	beqz	a5,b29e <__sflush_r+0x3c>
    b304:	4775                	li	a4,29
    b306:	00e78563          	beq	a5,a4,b310 <__sflush_r+0xae>
    b30a:	4759                	li	a4,22
    b30c:	06e79563          	bne	a5,a4,b376 <__sflush_r+0x114>
    b310:	0124a023          	sw	s2,0(s1)
    b314:	4501                	li	a0,0
    b316:	a0bd                	j	b384 <__sflush_r+0x122>
    b318:	4098                	lw	a4,0(s1)
    b31a:	00c41783          	lh	a5,12(s0)
    b31e:	cf01                	beqz	a4,b336 <__sflush_r+0xd4>
    b320:	46f5                	li	a3,29
    b322:	00d70563          	beq	a4,a3,b32c <__sflush_r+0xca>
    b326:	46d9                	li	a3,22
    b328:	04d71963          	bne	a4,a3,b37a <__sflush_r+0x118>
    b32c:	481c                	lw	a5,16(s0)
    b32e:	00042223          	sw	zero,4(s0)
    b332:	c01c                	sw	a5,0(s0)
    b334:	b74d                	j	b2d6 <__sflush_r+0x74>
    b336:	4818                	lw	a4,16(s0)
    b338:	83b1                	srli	a5,a5,0xc
    b33a:	00042223          	sw	zero,4(s0)
    b33e:	c018                	sw	a4,0(s0)
    b340:	8b85                	andi	a5,a5,1
    b342:	bf41                	j	b2d2 <__sflush_r+0x70>
    b344:	0105a983          	lw	s3,16(a1)
    b348:	fc0986e3          	beqz	s3,b314 <__sflush_r+0xb2>
    b34c:	0005a903          	lw	s2,0(a1)
    b350:	8b8d                	andi	a5,a5,3
    b352:	0135a023          	sw	s3,0(a1)
    b356:	41390933          	sub	s2,s2,s3
    b35a:	4701                	li	a4,0
    b35c:	e391                	bnez	a5,b360 <__sflush_r+0xfe>
    b35e:	49d8                	lw	a4,20(a1)
    b360:	c418                	sw	a4,8(s0)
    b362:	fb2059e3          	blez	s2,b314 <__sflush_r+0xb2>
    b366:	541c                	lw	a5,40(s0)
    b368:	500c                	lw	a1,32(s0)
    b36a:	86ca                	mv	a3,s2
    b36c:	864e                	mv	a2,s3
    b36e:	8526                	mv	a0,s1
    b370:	9782                	jalr	a5
    b372:	02a04063          	bgtz	a0,b392 <__sflush_r+0x130>
    b376:	00c41783          	lh	a5,12(s0)
    b37a:	0407e793          	ori	a5,a5,64
    b37e:	00f41623          	sh	a5,12(s0)
    b382:	557d                	li	a0,-1
    b384:	40f2                	lw	ra,28(sp)
    b386:	4462                	lw	s0,24(sp)
    b388:	44d2                	lw	s1,20(sp)
    b38a:	4942                	lw	s2,16(sp)
    b38c:	49b2                	lw	s3,12(sp)
    b38e:	6105                	addi	sp,sp,32
    b390:	8082                	ret
    b392:	99aa                	add	s3,s3,a0
    b394:	40a90933          	sub	s2,s2,a0
    b398:	b7e9                	j	b362 <__sflush_r+0x100>

0000b39a <_fflush_r>:
    b39a:	499c                	lw	a5,16(a1)
    b39c:	1141                	addi	sp,sp,-16
    b39e:	c606                	sw	ra,12(sp)
    b3a0:	c422                	sw	s0,8(sp)
    b3a2:	c226                	sw	s1,4(sp)
    b3a4:	eb81                	bnez	a5,b3b4 <_fflush_r+0x1a>
    b3a6:	4481                	li	s1,0
    b3a8:	40b2                	lw	ra,12(sp)
    b3aa:	4422                	lw	s0,8(sp)
    b3ac:	8526                	mv	a0,s1
    b3ae:	4492                	lw	s1,4(sp)
    b3b0:	0141                	addi	sp,sp,16
    b3b2:	8082                	ret
    b3b4:	84aa                	mv	s1,a0
    b3b6:	842e                	mv	s0,a1
    b3b8:	c501                	beqz	a0,b3c0 <_fflush_r+0x26>
    b3ba:	4d1c                	lw	a5,24(a0)
    b3bc:	e391                	bnez	a5,b3c0 <_fflush_r+0x26>
    b3be:	2a25                	jal	b4f6 <__sinit>
    b3c0:	00002797          	auipc	a5,0x2
    b3c4:	ba078793          	addi	a5,a5,-1120 # cf60 <__sf_fake_stdin>
    b3c8:	02f41e63          	bne	s0,a5,b404 <_fflush_r+0x6a>
    b3cc:	40c0                	lw	s0,4(s1)
    b3ce:	00c41783          	lh	a5,12(s0)
    b3d2:	dbf1                	beqz	a5,b3a6 <_fflush_r+0xc>
    b3d4:	5078                	lw	a4,100(s0)
    b3d6:	8b05                	andi	a4,a4,1
    b3d8:	e711                	bnez	a4,b3e4 <_fflush_r+0x4a>
    b3da:	2007f793          	andi	a5,a5,512
    b3de:	e399                	bnez	a5,b3e4 <_fflush_r+0x4a>
    b3e0:	4c28                	lw	a0,88(s0)
    b3e2:	244d                	jal	b684 <__retarget_lock_acquire_recursive>
    b3e4:	8526                	mv	a0,s1
    b3e6:	85a2                	mv	a1,s0
    b3e8:	e7bff0ef          	jal	ra,b262 <__sflush_r>
    b3ec:	507c                	lw	a5,100(s0)
    b3ee:	84aa                	mv	s1,a0
    b3f0:	8b85                	andi	a5,a5,1
    b3f2:	fbdd                	bnez	a5,b3a8 <_fflush_r+0xe>
    b3f4:	00c45783          	lhu	a5,12(s0)
    b3f8:	2007f793          	andi	a5,a5,512
    b3fc:	f7d5                	bnez	a5,b3a8 <_fflush_r+0xe>
    b3fe:	4c28                	lw	a0,88(s0)
    b400:	2459                	jal	b686 <__retarget_lock_release_recursive>
    b402:	b75d                	j	b3a8 <_fflush_r+0xe>
    b404:	00002797          	auipc	a5,0x2
    b408:	b3c78793          	addi	a5,a5,-1220 # cf40 <__sf_fake_stdout>
    b40c:	00f41463          	bne	s0,a5,b414 <_fflush_r+0x7a>
    b410:	4480                	lw	s0,8(s1)
    b412:	bf75                	j	b3ce <_fflush_r+0x34>
    b414:	00002797          	auipc	a5,0x2
    b418:	b0c78793          	addi	a5,a5,-1268 # cf20 <__sf_fake_stderr>
    b41c:	faf419e3          	bne	s0,a5,b3ce <_fflush_r+0x34>
    b420:	44c0                	lw	s0,12(s1)
    b422:	b775                	j	b3ce <_fflush_r+0x34>

0000b424 <std>:
    b424:	1141                	addi	sp,sp,-16
    b426:	c422                	sw	s0,8(sp)
    b428:	c606                	sw	ra,12(sp)
    b42a:	842a                	mv	s0,a0
    b42c:	00b51623          	sh	a1,12(a0)
    b430:	00c51723          	sh	a2,14(a0)
    b434:	00052023          	sw	zero,0(a0)
    b438:	00052223          	sw	zero,4(a0)
    b43c:	00052423          	sw	zero,8(a0)
    b440:	06052223          	sw	zero,100(a0)
    b444:	00052823          	sw	zero,16(a0)
    b448:	00052a23          	sw	zero,20(a0)
    b44c:	00052c23          	sw	zero,24(a0)
    b450:	4621                	li	a2,8
    b452:	4581                	li	a1,0
    b454:	05c50513          	addi	a0,a0,92
    b458:	d5ff40ef          	jal	ra,1b6 <memset>
    b45c:	00001797          	auipc	a5,0x1
    b460:	89a78793          	addi	a5,a5,-1894 # bcf6 <__sread>
    b464:	d05c                	sw	a5,36(s0)
    b466:	00001797          	auipc	a5,0x1
    b46a:	8c078793          	addi	a5,a5,-1856 # bd26 <__swrite>
    b46e:	d41c                	sw	a5,40(s0)
    b470:	00001797          	auipc	a5,0x1
    b474:	90478793          	addi	a5,a5,-1788 # bd74 <__sseek>
    b478:	d45c                	sw	a5,44(s0)
    b47a:	00001797          	auipc	a5,0x1
    b47e:	93078793          	addi	a5,a5,-1744 # bdaa <__sclose>
    b482:	40b2                	lw	ra,12(sp)
    b484:	d000                	sw	s0,32(s0)
    b486:	d81c                	sw	a5,48(s0)
    b488:	4422                	lw	s0,8(sp)
    b48a:	0141                	addi	sp,sp,16
    b48c:	8082                	ret

0000b48e <_cleanup_r>:
    b48e:	00000597          	auipc	a1,0x0
    b492:	f0c58593          	addi	a1,a1,-244 # b39a <_fflush_r>
    b496:	a249                	j	b618 <_fwalk_reent>

0000b498 <__sfmoreglue>:
    b498:	1141                	addi	sp,sp,-16
    b49a:	c226                	sw	s1,4(sp)
    b49c:	06800793          	li	a5,104
    b4a0:	fff58493          	addi	s1,a1,-1
    b4a4:	02f484b3          	mul	s1,s1,a5
    b4a8:	c04a                	sw	s2,0(sp)
    b4aa:	892e                	mv	s2,a1
    b4ac:	c422                	sw	s0,8(sp)
    b4ae:	c606                	sw	ra,12(sp)
    b4b0:	07448593          	addi	a1,s1,116
    b4b4:	26d9                	jal	b87a <_malloc_r>
    b4b6:	842a                	mv	s0,a0
    b4b8:	cd01                	beqz	a0,b4d0 <__sfmoreglue+0x38>
    b4ba:	00052023          	sw	zero,0(a0)
    b4be:	01252223          	sw	s2,4(a0)
    b4c2:	0531                	addi	a0,a0,12
    b4c4:	c408                	sw	a0,8(s0)
    b4c6:	06848613          	addi	a2,s1,104
    b4ca:	4581                	li	a1,0
    b4cc:	cebf40ef          	jal	ra,1b6 <memset>
    b4d0:	40b2                	lw	ra,12(sp)
    b4d2:	8522                	mv	a0,s0
    b4d4:	4422                	lw	s0,8(sp)
    b4d6:	4492                	lw	s1,4(sp)
    b4d8:	4902                	lw	s2,0(sp)
    b4da:	0141                	addi	sp,sp,16
    b4dc:	8082                	ret

0000b4de <__sfp_lock_acquire>:
    b4de:	a6018513          	addi	a0,gp,-1440 # 20001588 <__lock___sfp_recursive_mutex>
    b4e2:	a24d                	j	b684 <__retarget_lock_acquire_recursive>

0000b4e4 <__sfp_lock_release>:
    b4e4:	a6018513          	addi	a0,gp,-1440 # 20001588 <__lock___sfp_recursive_mutex>
    b4e8:	aa79                	j	b686 <__retarget_lock_release_recursive>

0000b4ea <__sinit_lock_acquire>:
    b4ea:	a6418513          	addi	a0,gp,-1436 # 2000158c <__lock___sinit_recursive_mutex>
    b4ee:	aa59                	j	b684 <__retarget_lock_acquire_recursive>

0000b4f0 <__sinit_lock_release>:
    b4f0:	a6418513          	addi	a0,gp,-1436 # 2000158c <__lock___sinit_recursive_mutex>
    b4f4:	aa49                	j	b686 <__retarget_lock_release_recursive>

0000b4f6 <__sinit>:
    b4f6:	1141                	addi	sp,sp,-16
    b4f8:	c422                	sw	s0,8(sp)
    b4fa:	c606                	sw	ra,12(sp)
    b4fc:	842a                	mv	s0,a0
    b4fe:	fedff0ef          	jal	ra,b4ea <__sinit_lock_acquire>
    b502:	4c1c                	lw	a5,24(s0)
    b504:	c791                	beqz	a5,b510 <__sinit+0x1a>
    b506:	4422                	lw	s0,8(sp)
    b508:	40b2                	lw	ra,12(sp)
    b50a:	0141                	addi	sp,sp,16
    b50c:	fe5ff06f          	j	b4f0 <__sinit_lock_release>
    b510:	00000797          	auipc	a5,0x0
    b514:	f7e78793          	addi	a5,a5,-130 # b48e <_cleanup_r>
    b518:	d41c                	sw	a5,40(s0)
    b51a:	04042423          	sw	zero,72(s0)
    b51e:	04042623          	sw	zero,76(s0)
    b522:	04042823          	sw	zero,80(s0)
    b526:	8a01a783          	lw	a5,-1888(gp) # 200013c8 <_global_impure_ptr>
    b52a:	00879463          	bne	a5,s0,b532 <__sinit+0x3c>
    b52e:	4785                	li	a5,1
    b530:	cc1c                	sw	a5,24(s0)
    b532:	8522                	mv	a0,s0
    b534:	2815                	jal	b568 <__sfp>
    b536:	c048                	sw	a0,4(s0)
    b538:	8522                	mv	a0,s0
    b53a:	203d                	jal	b568 <__sfp>
    b53c:	c408                	sw	a0,8(s0)
    b53e:	8522                	mv	a0,s0
    b540:	2025                	jal	b568 <__sfp>
    b542:	c448                	sw	a0,12(s0)
    b544:	4048                	lw	a0,4(s0)
    b546:	4601                	li	a2,0
    b548:	4591                	li	a1,4
    b54a:	edbff0ef          	jal	ra,b424 <std>
    b54e:	4408                	lw	a0,8(s0)
    b550:	4605                	li	a2,1
    b552:	45a5                	li	a1,9
    b554:	ed1ff0ef          	jal	ra,b424 <std>
    b558:	4448                	lw	a0,12(s0)
    b55a:	4609                	li	a2,2
    b55c:	45c9                	li	a1,18
    b55e:	ec7ff0ef          	jal	ra,b424 <std>
    b562:	4785                	li	a5,1
    b564:	cc1c                	sw	a5,24(s0)
    b566:	b745                	j	b506 <__sinit+0x10>

0000b568 <__sfp>:
    b568:	1141                	addi	sp,sp,-16
    b56a:	c226                	sw	s1,4(sp)
    b56c:	c04a                	sw	s2,0(sp)
    b56e:	c606                	sw	ra,12(sp)
    b570:	c422                	sw	s0,8(sp)
    b572:	892a                	mv	s2,a0
    b574:	f6bff0ef          	jal	ra,b4de <__sfp_lock_acquire>
    b578:	8a01a483          	lw	s1,-1888(gp) # 200013c8 <_global_impure_ptr>
    b57c:	4c9c                	lw	a5,24(s1)
    b57e:	e781                	bnez	a5,b586 <__sfp+0x1e>
    b580:	8526                	mv	a0,s1
    b582:	f75ff0ef          	jal	ra,b4f6 <__sinit>
    b586:	04848493          	addi	s1,s1,72
    b58a:	4480                	lw	s0,8(s1)
    b58c:	40dc                	lw	a5,4(s1)
    b58e:	17fd                	addi	a5,a5,-1
    b590:	0007d663          	bgez	a5,b59c <__sfp+0x34>
    b594:	409c                	lw	a5,0(s1)
    b596:	c7a5                	beqz	a5,b5fe <__sfp+0x96>
    b598:	4084                	lw	s1,0(s1)
    b59a:	bfc5                	j	b58a <__sfp+0x22>
    b59c:	00c41703          	lh	a4,12(s0)
    b5a0:	ef21                	bnez	a4,b5f8 <__sfp+0x90>
    b5a2:	77c1                	lui	a5,0xffff0
    b5a4:	0785                	addi	a5,a5,1 # ffff0001 <_eusrstack+0xdffeb001>
    b5a6:	c45c                	sw	a5,12(s0)
    b5a8:	05840513          	addi	a0,s0,88
    b5ac:	06042223          	sw	zero,100(s0)
    b5b0:	28c9                	jal	b682 <__retarget_lock_init_recursive>
    b5b2:	f33ff0ef          	jal	ra,b4e4 <__sfp_lock_release>
    b5b6:	4621                	li	a2,8
    b5b8:	00042023          	sw	zero,0(s0)
    b5bc:	00042423          	sw	zero,8(s0)
    b5c0:	00042223          	sw	zero,4(s0)
    b5c4:	00042823          	sw	zero,16(s0)
    b5c8:	00042a23          	sw	zero,20(s0)
    b5cc:	00042c23          	sw	zero,24(s0)
    b5d0:	4581                	li	a1,0
    b5d2:	05c40513          	addi	a0,s0,92
    b5d6:	be1f40ef          	jal	ra,1b6 <memset>
    b5da:	02042a23          	sw	zero,52(s0)
    b5de:	02042c23          	sw	zero,56(s0)
    b5e2:	04042423          	sw	zero,72(s0)
    b5e6:	04042623          	sw	zero,76(s0)
    b5ea:	40b2                	lw	ra,12(sp)
    b5ec:	8522                	mv	a0,s0
    b5ee:	4422                	lw	s0,8(sp)
    b5f0:	4492                	lw	s1,4(sp)
    b5f2:	4902                	lw	s2,0(sp)
    b5f4:	0141                	addi	sp,sp,16
    b5f6:	8082                	ret
    b5f8:	06840413          	addi	s0,s0,104
    b5fc:	bf49                	j	b58e <__sfp+0x26>
    b5fe:	4591                	li	a1,4
    b600:	854a                	mv	a0,s2
    b602:	e97ff0ef          	jal	ra,b498 <__sfmoreglue>
    b606:	c088                	sw	a0,0(s1)
    b608:	842a                	mv	s0,a0
    b60a:	f559                	bnez	a0,b598 <__sfp+0x30>
    b60c:	ed9ff0ef          	jal	ra,b4e4 <__sfp_lock_release>
    b610:	47b1                	li	a5,12
    b612:	00f92023          	sw	a5,0(s2)
    b616:	bfd1                	j	b5ea <__sfp+0x82>

0000b618 <_fwalk_reent>:
    b618:	7179                	addi	sp,sp,-48
    b61a:	d422                	sw	s0,40(sp)
    b61c:	d04a                	sw	s2,32(sp)
    b61e:	ce4e                	sw	s3,28(sp)
    b620:	cc52                	sw	s4,24(sp)
    b622:	c85a                	sw	s6,16(sp)
    b624:	c65e                	sw	s7,12(sp)
    b626:	d606                	sw	ra,44(sp)
    b628:	d226                	sw	s1,36(sp)
    b62a:	ca56                	sw	s5,20(sp)
    b62c:	892a                	mv	s2,a0
    b62e:	8a2e                	mv	s4,a1
    b630:	04850413          	addi	s0,a0,72
    b634:	4981                	li	s3,0
    b636:	4b05                	li	s6,1
    b638:	5bfd                	li	s7,-1
    b63a:	4404                	lw	s1,8(s0)
    b63c:	00442a83          	lw	s5,4(s0)
    b640:	1afd                	addi	s5,s5,-1
    b642:	020ad063          	bgez	s5,b662 <_fwalk_reent+0x4a>
    b646:	4000                	lw	s0,0(s0)
    b648:	f86d                	bnez	s0,b63a <_fwalk_reent+0x22>
    b64a:	50b2                	lw	ra,44(sp)
    b64c:	5422                	lw	s0,40(sp)
    b64e:	5492                	lw	s1,36(sp)
    b650:	5902                	lw	s2,32(sp)
    b652:	4a62                	lw	s4,24(sp)
    b654:	4ad2                	lw	s5,20(sp)
    b656:	4b42                	lw	s6,16(sp)
    b658:	4bb2                	lw	s7,12(sp)
    b65a:	854e                	mv	a0,s3
    b65c:	49f2                	lw	s3,28(sp)
    b65e:	6145                	addi	sp,sp,48
    b660:	8082                	ret
    b662:	00c4d783          	lhu	a5,12(s1)
    b666:	00fb7b63          	bgeu	s6,a5,b67c <_fwalk_reent+0x64>
    b66a:	00e49783          	lh	a5,14(s1)
    b66e:	01778763          	beq	a5,s7,b67c <_fwalk_reent+0x64>
    b672:	85a6                	mv	a1,s1
    b674:	854a                	mv	a0,s2
    b676:	9a02                	jalr	s4
    b678:	00a9e9b3          	or	s3,s3,a0
    b67c:	06848493          	addi	s1,s1,104
    b680:	b7c1                	j	b640 <_fwalk_reent+0x28>

0000b682 <__retarget_lock_init_recursive>:
    b682:	8082                	ret

0000b684 <__retarget_lock_acquire_recursive>:
    b684:	8082                	ret

0000b686 <__retarget_lock_release_recursive>:
    b686:	8082                	ret

0000b688 <__swhatbuf_r>:
    b688:	7159                	addi	sp,sp,-112
    b68a:	d4a2                	sw	s0,104(sp)
    b68c:	842e                	mv	s0,a1
    b68e:	00e59583          	lh	a1,14(a1)
    b692:	d2a6                	sw	s1,100(sp)
    b694:	d0ca                	sw	s2,96(sp)
    b696:	d686                	sw	ra,108(sp)
    b698:	84b2                	mv	s1,a2
    b69a:	8936                	mv	s2,a3
    b69c:	0205d363          	bgez	a1,b6c2 <__swhatbuf_r+0x3a>
    b6a0:	00c45783          	lhu	a5,12(s0)
    b6a4:	0807f793          	andi	a5,a5,128
    b6a8:	eb95                	bnez	a5,b6dc <__swhatbuf_r+0x54>
    b6aa:	40000713          	li	a4,1024
    b6ae:	50b6                	lw	ra,108(sp)
    b6b0:	5426                	lw	s0,104(sp)
    b6b2:	00f92023          	sw	a5,0(s2)
    b6b6:	c098                	sw	a4,0(s1)
    b6b8:	5906                	lw	s2,96(sp)
    b6ba:	5496                	lw	s1,100(sp)
    b6bc:	4501                	li	a0,0
    b6be:	6165                	addi	sp,sp,112
    b6c0:	8082                	ret
    b6c2:	0030                	addi	a2,sp,8
    b6c4:	73e000ef          	jal	ra,be02 <_fstat_r>
    b6c8:	fc054ce3          	bltz	a0,b6a0 <__swhatbuf_r+0x18>
    b6cc:	4732                	lw	a4,12(sp)
    b6ce:	67bd                	lui	a5,0xf
    b6d0:	8ff9                	and	a5,a5,a4
    b6d2:	7779                	lui	a4,0xffffe
    b6d4:	97ba                	add	a5,a5,a4
    b6d6:	0017b793          	seqz	a5,a5
    b6da:	bfc1                	j	b6aa <__swhatbuf_r+0x22>
    b6dc:	4781                	li	a5,0
    b6de:	04000713          	li	a4,64
    b6e2:	b7f1                	j	b6ae <__swhatbuf_r+0x26>

0000b6e4 <__smakebuf_r>:
    b6e4:	00c5d783          	lhu	a5,12(a1)
    b6e8:	7179                	addi	sp,sp,-48
    b6ea:	d422                	sw	s0,40(sp)
    b6ec:	d606                	sw	ra,44(sp)
    b6ee:	d226                	sw	s1,36(sp)
    b6f0:	d04a                	sw	s2,32(sp)
    b6f2:	ce4e                	sw	s3,28(sp)
    b6f4:	8b89                	andi	a5,a5,2
    b6f6:	842e                	mv	s0,a1
    b6f8:	cf91                	beqz	a5,b714 <__smakebuf_r+0x30>
    b6fa:	04740793          	addi	a5,s0,71
    b6fe:	c01c                	sw	a5,0(s0)
    b700:	c81c                	sw	a5,16(s0)
    b702:	4785                	li	a5,1
    b704:	c85c                	sw	a5,20(s0)
    b706:	50b2                	lw	ra,44(sp)
    b708:	5422                	lw	s0,40(sp)
    b70a:	5492                	lw	s1,36(sp)
    b70c:	5902                	lw	s2,32(sp)
    b70e:	49f2                	lw	s3,28(sp)
    b710:	6145                	addi	sp,sp,48
    b712:	8082                	ret
    b714:	0074                	addi	a3,sp,12
    b716:	0030                	addi	a2,sp,8
    b718:	84aa                	mv	s1,a0
    b71a:	f6fff0ef          	jal	ra,b688 <__swhatbuf_r>
    b71e:	49a2                	lw	s3,8(sp)
    b720:	892a                	mv	s2,a0
    b722:	8526                	mv	a0,s1
    b724:	85ce                	mv	a1,s3
    b726:	2a91                	jal	b87a <_malloc_r>
    b728:	ed01                	bnez	a0,b740 <__smakebuf_r+0x5c>
    b72a:	00c41783          	lh	a5,12(s0)
    b72e:	2007f713          	andi	a4,a5,512
    b732:	fb71                	bnez	a4,b706 <__smakebuf_r+0x22>
    b734:	9bf1                	andi	a5,a5,-4
    b736:	0027e793          	ori	a5,a5,2
    b73a:	00f41623          	sh	a5,12(s0)
    b73e:	bf75                	j	b6fa <__smakebuf_r+0x16>
    b740:	00000797          	auipc	a5,0x0
    b744:	d4e78793          	addi	a5,a5,-690 # b48e <_cleanup_r>
    b748:	d49c                	sw	a5,40(s1)
    b74a:	00c45783          	lhu	a5,12(s0)
    b74e:	c008                	sw	a0,0(s0)
    b750:	c808                	sw	a0,16(s0)
    b752:	0807e793          	ori	a5,a5,128
    b756:	00f41623          	sh	a5,12(s0)
    b75a:	47b2                	lw	a5,12(sp)
    b75c:	01342a23          	sw	s3,20(s0)
    b760:	cf89                	beqz	a5,b77a <__smakebuf_r+0x96>
    b762:	00e41583          	lh	a1,14(s0)
    b766:	8526                	mv	a0,s1
    b768:	25c9                	jal	be2a <_isatty_r>
    b76a:	c901                	beqz	a0,b77a <__smakebuf_r+0x96>
    b76c:	00c45783          	lhu	a5,12(s0)
    b770:	9bf1                	andi	a5,a5,-4
    b772:	0017e793          	ori	a5,a5,1
    b776:	00f41623          	sh	a5,12(s0)
    b77a:	00c45783          	lhu	a5,12(s0)
    b77e:	0127e533          	or	a0,a5,s2
    b782:	00a41623          	sh	a0,12(s0)
    b786:	b741                	j	b706 <__smakebuf_r+0x22>

0000b788 <_free_r>:
    b788:	cdd1                	beqz	a1,b824 <_free_r+0x9c>
    b78a:	ffc5a783          	lw	a5,-4(a1)
    b78e:	1101                	addi	sp,sp,-32
    b790:	cc22                	sw	s0,24(sp)
    b792:	ce06                	sw	ra,28(sp)
    b794:	ffc58413          	addi	s0,a1,-4
    b798:	0007d363          	bgez	a5,b79e <_free_r+0x16>
    b79c:	943e                	add	s0,s0,a5
    b79e:	c62a                	sw	a0,12(sp)
    b7a0:	2dd5                	jal	be94 <__malloc_lock>
    b7a2:	a6c18713          	addi	a4,gp,-1428 # 20001594 <__malloc_free_list>
    b7a6:	431c                	lw	a5,0(a4)
    b7a8:	4532                	lw	a0,12(sp)
    b7aa:	eb81                	bnez	a5,b7ba <_free_r+0x32>
    b7ac:	00042223          	sw	zero,4(s0)
    b7b0:	c300                	sw	s0,0(a4)
    b7b2:	4462                	lw	s0,24(sp)
    b7b4:	40f2                	lw	ra,28(sp)
    b7b6:	6105                	addi	sp,sp,32
    b7b8:	a5d5                	j	be9c <__malloc_unlock>
    b7ba:	00f47d63          	bgeu	s0,a5,b7d4 <_free_r+0x4c>
    b7be:	4010                	lw	a2,0(s0)
    b7c0:	00c406b3          	add	a3,s0,a2
    b7c4:	00d79663          	bne	a5,a3,b7d0 <_free_r+0x48>
    b7c8:	4394                	lw	a3,0(a5)
    b7ca:	43dc                	lw	a5,4(a5)
    b7cc:	96b2                	add	a3,a3,a2
    b7ce:	c014                	sw	a3,0(s0)
    b7d0:	c05c                	sw	a5,4(s0)
    b7d2:	bff9                	j	b7b0 <_free_r+0x28>
    b7d4:	873e                	mv	a4,a5
    b7d6:	43dc                	lw	a5,4(a5)
    b7d8:	c399                	beqz	a5,b7de <_free_r+0x56>
    b7da:	fef47de3          	bgeu	s0,a5,b7d4 <_free_r+0x4c>
    b7de:	4314                	lw	a3,0(a4)
    b7e0:	00d70633          	add	a2,a4,a3
    b7e4:	00861f63          	bne	a2,s0,b802 <_free_r+0x7a>
    b7e8:	4010                	lw	a2,0(s0)
    b7ea:	96b2                	add	a3,a3,a2
    b7ec:	c314                	sw	a3,0(a4)
    b7ee:	00d70633          	add	a2,a4,a3
    b7f2:	fcc790e3          	bne	a5,a2,b7b2 <_free_r+0x2a>
    b7f6:	4390                	lw	a2,0(a5)
    b7f8:	43dc                	lw	a5,4(a5)
    b7fa:	96b2                	add	a3,a3,a2
    b7fc:	c314                	sw	a3,0(a4)
    b7fe:	c35c                	sw	a5,4(a4)
    b800:	bf4d                	j	b7b2 <_free_r+0x2a>
    b802:	00c47563          	bgeu	s0,a2,b80c <_free_r+0x84>
    b806:	47b1                	li	a5,12
    b808:	c11c                	sw	a5,0(a0)
    b80a:	b765                	j	b7b2 <_free_r+0x2a>
    b80c:	4010                	lw	a2,0(s0)
    b80e:	00c406b3          	add	a3,s0,a2
    b812:	00d79663          	bne	a5,a3,b81e <_free_r+0x96>
    b816:	4394                	lw	a3,0(a5)
    b818:	43dc                	lw	a5,4(a5)
    b81a:	96b2                	add	a3,a3,a2
    b81c:	c014                	sw	a3,0(s0)
    b81e:	c05c                	sw	a5,4(s0)
    b820:	c340                	sw	s0,4(a4)
    b822:	bf41                	j	b7b2 <_free_r+0x2a>
    b824:	8082                	ret

0000b826 <sbrk_aligned>:
    b826:	1141                	addi	sp,sp,-16
    b828:	c04a                	sw	s2,0(sp)
    b82a:	a6818913          	addi	s2,gp,-1432 # 20001590 <__malloc_sbrk_start>
    b82e:	00092783          	lw	a5,0(s2)
    b832:	c422                	sw	s0,8(sp)
    b834:	c226                	sw	s1,4(sp)
    b836:	c606                	sw	ra,12(sp)
    b838:	84aa                	mv	s1,a0
    b83a:	842e                	mv	s0,a1
    b83c:	e789                	bnez	a5,b846 <sbrk_aligned+0x20>
    b83e:	4581                	li	a1,0
    b840:	2179                	jal	bcce <_sbrk_r>
    b842:	00a92023          	sw	a0,0(s2)
    b846:	85a2                	mv	a1,s0
    b848:	8526                	mv	a0,s1
    b84a:	2151                	jal	bcce <_sbrk_r>
    b84c:	597d                	li	s2,-1
    b84e:	01251a63          	bne	a0,s2,b862 <sbrk_aligned+0x3c>
    b852:	547d                	li	s0,-1
    b854:	40b2                	lw	ra,12(sp)
    b856:	8522                	mv	a0,s0
    b858:	4422                	lw	s0,8(sp)
    b85a:	4492                	lw	s1,4(sp)
    b85c:	4902                	lw	s2,0(sp)
    b85e:	0141                	addi	sp,sp,16
    b860:	8082                	ret
    b862:	00350413          	addi	s0,a0,3
    b866:	9871                	andi	s0,s0,-4
    b868:	fe8506e3          	beq	a0,s0,b854 <sbrk_aligned+0x2e>
    b86c:	40a405b3          	sub	a1,s0,a0
    b870:	8526                	mv	a0,s1
    b872:	29b1                	jal	bcce <_sbrk_r>
    b874:	ff2510e3          	bne	a0,s2,b854 <sbrk_aligned+0x2e>
    b878:	bfe9                	j	b852 <sbrk_aligned+0x2c>

0000b87a <_malloc_r>:
    b87a:	1101                	addi	sp,sp,-32
    b87c:	ca26                	sw	s1,20(sp)
    b87e:	00358493          	addi	s1,a1,3
    b882:	98f1                	andi	s1,s1,-4
    b884:	c84a                	sw	s2,16(sp)
    b886:	ce06                	sw	ra,28(sp)
    b888:	cc22                	sw	s0,24(sp)
    b88a:	c64e                	sw	s3,12(sp)
    b88c:	04a1                	addi	s1,s1,8
    b88e:	47b1                	li	a5,12
    b890:	892a                	mv	s2,a0
    b892:	06f4f563          	bgeu	s1,a5,b8fc <_malloc_r+0x82>
    b896:	44b1                	li	s1,12
    b898:	06b4e463          	bltu	s1,a1,b900 <_malloc_r+0x86>
    b89c:	854a                	mv	a0,s2
    b89e:	2bdd                	jal	be94 <__malloc_lock>
    b8a0:	a6c18993          	addi	s3,gp,-1428 # 20001594 <__malloc_free_list>
    b8a4:	0009a783          	lw	a5,0(s3)
    b8a8:	843e                	mv	s0,a5
    b8aa:	e435                	bnez	s0,b916 <_malloc_r+0x9c>
    b8ac:	85a6                	mv	a1,s1
    b8ae:	854a                	mv	a0,s2
    b8b0:	f77ff0ef          	jal	ra,b826 <sbrk_aligned>
    b8b4:	57fd                	li	a5,-1
    b8b6:	842a                	mv	s0,a0
    b8b8:	0cf51563          	bne	a0,a5,b982 <_malloc_r+0x108>
    b8bc:	0009a403          	lw	s0,0(s3)
    b8c0:	87a2                	mv	a5,s0
    b8c2:	e7dd                	bnez	a5,b970 <_malloc_r+0xf6>
    b8c4:	00042983          	lw	s3,0(s0)
    b8c8:	4581                	li	a1,0
    b8ca:	854a                	mv	a0,s2
    b8cc:	99a2                	add	s3,s3,s0
    b8ce:	2101                	jal	bcce <_sbrk_r>
    b8d0:	0aa99363          	bne	s3,a0,b976 <_malloc_r+0xfc>
    b8d4:	401c                	lw	a5,0(s0)
    b8d6:	048d                	addi	s1,s1,3
    b8d8:	8c9d                	sub	s1,s1,a5
    b8da:	98f1                	andi	s1,s1,-4
    b8dc:	04a1                	addi	s1,s1,8
    b8de:	47b1                	li	a5,12
    b8e0:	00f4f363          	bgeu	s1,a5,b8e6 <_malloc_r+0x6c>
    b8e4:	44b1                	li	s1,12
    b8e6:	85a6                	mv	a1,s1
    b8e8:	854a                	mv	a0,s2
    b8ea:	f3dff0ef          	jal	ra,b826 <sbrk_aligned>
    b8ee:	57fd                	li	a5,-1
    b8f0:	08f50363          	beq	a0,a5,b976 <_malloc_r+0xfc>
    b8f4:	401c                	lw	a5,0(s0)
    b8f6:	97a6                	add	a5,a5,s1
    b8f8:	c01c                	sw	a5,0(s0)
    b8fa:	a83d                	j	b938 <_malloc_r+0xbe>
    b8fc:	f804dee3          	bgez	s1,b898 <_malloc_r+0x1e>
    b900:	47b1                	li	a5,12
    b902:	00f92023          	sw	a5,0(s2)
    b906:	4501                	li	a0,0
    b908:	40f2                	lw	ra,28(sp)
    b90a:	4462                	lw	s0,24(sp)
    b90c:	44d2                	lw	s1,20(sp)
    b90e:	4942                	lw	s2,16(sp)
    b910:	49b2                	lw	s3,12(sp)
    b912:	6105                	addi	sp,sp,32
    b914:	8082                	ret
    b916:	4014                	lw	a3,0(s0)
    b918:	8e85                	sub	a3,a3,s1
    b91a:	0406c863          	bltz	a3,b96a <_malloc_r+0xf0>
    b91e:	472d                	li	a4,11
    b920:	02d77d63          	bgeu	a4,a3,b95a <_malloc_r+0xe0>
    b924:	c004                	sw	s1,0(s0)
    b926:	00940733          	add	a4,s0,s1
    b92a:	02879663          	bne	a5,s0,b956 <_malloc_r+0xdc>
    b92e:	00e9a023          	sw	a4,0(s3)
    b932:	405c                	lw	a5,4(s0)
    b934:	c314                	sw	a3,0(a4)
    b936:	c35c                	sw	a5,4(a4)
    b938:	854a                	mv	a0,s2
    b93a:	238d                	jal	be9c <__malloc_unlock>
    b93c:	00b40513          	addi	a0,s0,11
    b940:	00440793          	addi	a5,s0,4
    b944:	9961                	andi	a0,a0,-8
    b946:	40f50733          	sub	a4,a0,a5
    b94a:	faf50fe3          	beq	a0,a5,b908 <_malloc_r+0x8e>
    b94e:	943a                	add	s0,s0,a4
    b950:	8f89                	sub	a5,a5,a0
    b952:	c01c                	sw	a5,0(s0)
    b954:	bf55                	j	b908 <_malloc_r+0x8e>
    b956:	c3d8                	sw	a4,4(a5)
    b958:	bfe9                	j	b932 <_malloc_r+0xb8>
    b95a:	4058                	lw	a4,4(s0)
    b95c:	00879563          	bne	a5,s0,b966 <_malloc_r+0xec>
    b960:	00e9a023          	sw	a4,0(s3)
    b964:	bfd1                	j	b938 <_malloc_r+0xbe>
    b966:	c3d8                	sw	a4,4(a5)
    b968:	bfc1                	j	b938 <_malloc_r+0xbe>
    b96a:	87a2                	mv	a5,s0
    b96c:	4040                	lw	s0,4(s0)
    b96e:	bf35                	j	b8aa <_malloc_r+0x30>
    b970:	843e                	mv	s0,a5
    b972:	43dc                	lw	a5,4(a5)
    b974:	b7b9                	j	b8c2 <_malloc_r+0x48>
    b976:	47b1                	li	a5,12
    b978:	00f92023          	sw	a5,0(s2)
    b97c:	854a                	mv	a0,s2
    b97e:	2b39                	jal	be9c <__malloc_unlock>
    b980:	b759                	j	b906 <_malloc_r+0x8c>
    b982:	c104                	sw	s1,0(a0)
    b984:	bf55                	j	b938 <_malloc_r+0xbe>

0000b986 <__sfputc_r>:
    b986:	461c                	lw	a5,8(a2)
    b988:	17fd                	addi	a5,a5,-1
    b98a:	c61c                	sw	a5,8(a2)
    b98c:	0007da63          	bgez	a5,b9a0 <__sfputc_r+0x1a>
    b990:	4e18                	lw	a4,24(a2)
    b992:	00e7c563          	blt	a5,a4,b99c <__sfputc_r+0x16>
    b996:	47a9                	li	a5,10
    b998:	00f59463          	bne	a1,a5,b9a0 <__sfputc_r+0x1a>
    b99c:	f0cff06f          	j	b0a8 <__swbuf_r>
    b9a0:	421c                	lw	a5,0(a2)
    b9a2:	852e                	mv	a0,a1
    b9a4:	00178713          	addi	a4,a5,1
    b9a8:	c218                	sw	a4,0(a2)
    b9aa:	00b78023          	sb	a1,0(a5)
    b9ae:	8082                	ret

0000b9b0 <__sfputs_r>:
    b9b0:	1101                	addi	sp,sp,-32
    b9b2:	cc22                	sw	s0,24(sp)
    b9b4:	ca26                	sw	s1,20(sp)
    b9b6:	c84a                	sw	s2,16(sp)
    b9b8:	c64e                	sw	s3,12(sp)
    b9ba:	c452                	sw	s4,8(sp)
    b9bc:	ce06                	sw	ra,28(sp)
    b9be:	892a                	mv	s2,a0
    b9c0:	89ae                	mv	s3,a1
    b9c2:	8432                	mv	s0,a2
    b9c4:	00d604b3          	add	s1,a2,a3
    b9c8:	5a7d                	li	s4,-1
    b9ca:	00941463          	bne	s0,s1,b9d2 <__sfputs_r+0x22>
    b9ce:	4501                	li	a0,0
    b9d0:	a811                	j	b9e4 <__sfputs_r+0x34>
    b9d2:	00044583          	lbu	a1,0(s0)
    b9d6:	864e                	mv	a2,s3
    b9d8:	854a                	mv	a0,s2
    b9da:	fadff0ef          	jal	ra,b986 <__sfputc_r>
    b9de:	0405                	addi	s0,s0,1
    b9e0:	ff4515e3          	bne	a0,s4,b9ca <__sfputs_r+0x1a>
    b9e4:	40f2                	lw	ra,28(sp)
    b9e6:	4462                	lw	s0,24(sp)
    b9e8:	44d2                	lw	s1,20(sp)
    b9ea:	4942                	lw	s2,16(sp)
    b9ec:	49b2                	lw	s3,12(sp)
    b9ee:	4a22                	lw	s4,8(sp)
    b9f0:	6105                	addi	sp,sp,32
    b9f2:	8082                	ret

0000b9f4 <_vfiprintf_r>:
    b9f4:	7135                	addi	sp,sp,-160
    b9f6:	cd22                	sw	s0,152(sp)
    b9f8:	cb26                	sw	s1,148(sp)
    b9fa:	c94a                	sw	s2,144(sp)
    b9fc:	c74e                	sw	s3,140(sp)
    b9fe:	cf06                	sw	ra,156(sp)
    ba00:	c552                	sw	s4,136(sp)
    ba02:	c356                	sw	s5,132(sp)
    ba04:	c15a                	sw	s6,128(sp)
    ba06:	dede                	sw	s7,124(sp)
    ba08:	dce2                	sw	s8,120(sp)
    ba0a:	dae6                	sw	s9,116(sp)
    ba0c:	89aa                	mv	s3,a0
    ba0e:	842e                	mv	s0,a1
    ba10:	8932                	mv	s2,a2
    ba12:	84b6                	mv	s1,a3
    ba14:	c509                	beqz	a0,ba1e <_vfiprintf_r+0x2a>
    ba16:	4d1c                	lw	a5,24(a0)
    ba18:	e399                	bnez	a5,ba1e <_vfiprintf_r+0x2a>
    ba1a:	addff0ef          	jal	ra,b4f6 <__sinit>
    ba1e:	00001797          	auipc	a5,0x1
    ba22:	54278793          	addi	a5,a5,1346 # cf60 <__sf_fake_stdin>
    ba26:	04f41b63          	bne	s0,a5,ba7c <_vfiprintf_r+0x88>
    ba2a:	0049a403          	lw	s0,4(s3)
    ba2e:	507c                	lw	a5,100(s0)
    ba30:	8b85                	andi	a5,a5,1
    ba32:	eb89                	bnez	a5,ba44 <_vfiprintf_r+0x50>
    ba34:	00c45783          	lhu	a5,12(s0)
    ba38:	2007f793          	andi	a5,a5,512
    ba3c:	e781                	bnez	a5,ba44 <_vfiprintf_r+0x50>
    ba3e:	4c28                	lw	a0,88(s0)
    ba40:	c45ff0ef          	jal	ra,b684 <__retarget_lock_acquire_recursive>
    ba44:	00c45783          	lhu	a5,12(s0)
    ba48:	8ba1                	andi	a5,a5,8
    ba4a:	c399                	beqz	a5,ba50 <_vfiprintf_r+0x5c>
    ba4c:	481c                	lw	a5,16(s0)
    ba4e:	e3b5                	bnez	a5,bab2 <_vfiprintf_r+0xbe>
    ba50:	85a2                	mv	a1,s0
    ba52:	854e                	mv	a0,s3
    ba54:	f14ff0ef          	jal	ra,b168 <__swsetup_r>
    ba58:	cd29                	beqz	a0,bab2 <_vfiprintf_r+0xbe>
    ba5a:	507c                	lw	a5,100(s0)
    ba5c:	8b85                	andi	a5,a5,1
    ba5e:	c3a9                	beqz	a5,baa0 <_vfiprintf_r+0xac>
    ba60:	557d                	li	a0,-1
    ba62:	40fa                	lw	ra,156(sp)
    ba64:	446a                	lw	s0,152(sp)
    ba66:	44da                	lw	s1,148(sp)
    ba68:	494a                	lw	s2,144(sp)
    ba6a:	49ba                	lw	s3,140(sp)
    ba6c:	4a2a                	lw	s4,136(sp)
    ba6e:	4a9a                	lw	s5,132(sp)
    ba70:	4b0a                	lw	s6,128(sp)
    ba72:	5bf6                	lw	s7,124(sp)
    ba74:	5c66                	lw	s8,120(sp)
    ba76:	5cd6                	lw	s9,116(sp)
    ba78:	610d                	addi	sp,sp,160
    ba7a:	8082                	ret
    ba7c:	00001797          	auipc	a5,0x1
    ba80:	4c478793          	addi	a5,a5,1220 # cf40 <__sf_fake_stdout>
    ba84:	00f41563          	bne	s0,a5,ba8e <_vfiprintf_r+0x9a>
    ba88:	0089a403          	lw	s0,8(s3)
    ba8c:	b74d                	j	ba2e <_vfiprintf_r+0x3a>
    ba8e:	00001797          	auipc	a5,0x1
    ba92:	49278793          	addi	a5,a5,1170 # cf20 <__sf_fake_stderr>
    ba96:	f8f41ce3          	bne	s0,a5,ba2e <_vfiprintf_r+0x3a>
    ba9a:	00c9a403          	lw	s0,12(s3)
    ba9e:	bf41                	j	ba2e <_vfiprintf_r+0x3a>
    baa0:	00c45783          	lhu	a5,12(s0)
    baa4:	2007f793          	andi	a5,a5,512
    baa8:	ffc5                	bnez	a5,ba60 <_vfiprintf_r+0x6c>
    baaa:	4c28                	lw	a0,88(s0)
    baac:	bdbff0ef          	jal	ra,b686 <__retarget_lock_release_recursive>
    bab0:	bf45                	j	ba60 <_vfiprintf_r+0x6c>
    bab2:	02000793          	li	a5,32
    bab6:	02f104a3          	sb	a5,41(sp)
    baba:	03000793          	li	a5,48
    babe:	d202                	sw	zero,36(sp)
    bac0:	02f10523          	sb	a5,42(sp)
    bac4:	c626                	sw	s1,12(sp)
    bac6:	02500b93          	li	s7,37
    baca:	00001a97          	auipc	s5,0x1
    bace:	4b6a8a93          	addi	s5,s5,1206 # cf80 <__sf_fake_stdin+0x20>
    bad2:	4c05                	li	s8,1
    bad4:	4b29                	li	s6,10
    bad6:	84ca                	mv	s1,s2
    bad8:	0004c783          	lbu	a5,0(s1)
    badc:	c399                	beqz	a5,bae2 <_vfiprintf_r+0xee>
    bade:	09779c63          	bne	a5,s7,bb76 <_vfiprintf_r+0x182>
    bae2:	41248cb3          	sub	s9,s1,s2
    bae6:	01248e63          	beq	s1,s2,bb02 <_vfiprintf_r+0x10e>
    baea:	86e6                	mv	a3,s9
    baec:	864a                	mv	a2,s2
    baee:	85a2                	mv	a1,s0
    baf0:	854e                	mv	a0,s3
    baf2:	ebfff0ef          	jal	ra,b9b0 <__sfputs_r>
    baf6:	57fd                	li	a5,-1
    baf8:	18f50e63          	beq	a0,a5,bc94 <_vfiprintf_r+0x2a0>
    bafc:	5792                	lw	a5,36(sp)
    bafe:	97e6                	add	a5,a5,s9
    bb00:	d23e                	sw	a5,36(sp)
    bb02:	0004c783          	lbu	a5,0(s1)
    bb06:	18078763          	beqz	a5,bc94 <_vfiprintf_r+0x2a0>
    bb0a:	57fd                	li	a5,-1
    bb0c:	00148913          	addi	s2,s1,1
    bb10:	c802                	sw	zero,16(sp)
    bb12:	ce02                	sw	zero,28(sp)
    bb14:	ca3e                	sw	a5,20(sp)
    bb16:	cc02                	sw	zero,24(sp)
    bb18:	040109a3          	sb	zero,83(sp)
    bb1c:	d482                	sw	zero,104(sp)
    bb1e:	00094583          	lbu	a1,0(s2)
    bb22:	4615                	li	a2,5
    bb24:	8556                	mv	a0,s5
    bb26:	2e91                	jal	be7a <memchr>
    bb28:	47c2                	lw	a5,16(sp)
    bb2a:	00190493          	addi	s1,s2,1
    bb2e:	e531                	bnez	a0,bb7a <_vfiprintf_r+0x186>
    bb30:	0107f713          	andi	a4,a5,16
    bb34:	c709                	beqz	a4,bb3e <_vfiprintf_r+0x14a>
    bb36:	02000713          	li	a4,32
    bb3a:	04e109a3          	sb	a4,83(sp)
    bb3e:	0087f713          	andi	a4,a5,8
    bb42:	c709                	beqz	a4,bb4c <_vfiprintf_r+0x158>
    bb44:	02b00713          	li	a4,43
    bb48:	04e109a3          	sb	a4,83(sp)
    bb4c:	00094683          	lbu	a3,0(s2)
    bb50:	02a00713          	li	a4,42
    bb54:	02e68b63          	beq	a3,a4,bb8a <_vfiprintf_r+0x196>
    bb58:	47f2                	lw	a5,28(sp)
    bb5a:	84ca                	mv	s1,s2
    bb5c:	4681                	li	a3,0
    bb5e:	4625                	li	a2,9
    bb60:	0004c703          	lbu	a4,0(s1)
    bb64:	00148593          	addi	a1,s1,1
    bb68:	fd070713          	addi	a4,a4,-48 # ffffdfd0 <_eusrstack+0xdfff8fd0>
    bb6c:	06e67563          	bgeu	a2,a4,bbd6 <_vfiprintf_r+0x1e2>
    bb70:	c68d                	beqz	a3,bb9a <_vfiprintf_r+0x1a6>
    bb72:	ce3e                	sw	a5,28(sp)
    bb74:	a01d                	j	bb9a <_vfiprintf_r+0x1a6>
    bb76:	0485                	addi	s1,s1,1
    bb78:	b785                	j	bad8 <_vfiprintf_r+0xe4>
    bb7a:	41550533          	sub	a0,a0,s5
    bb7e:	00ac1533          	sll	a0,s8,a0
    bb82:	8fc9                	or	a5,a5,a0
    bb84:	c83e                	sw	a5,16(sp)
    bb86:	8926                	mv	s2,s1
    bb88:	bf59                	j	bb1e <_vfiprintf_r+0x12a>
    bb8a:	4732                	lw	a4,12(sp)
    bb8c:	00470693          	addi	a3,a4,4
    bb90:	4318                	lw	a4,0(a4)
    bb92:	c636                	sw	a3,12(sp)
    bb94:	02074a63          	bltz	a4,bbc8 <_vfiprintf_r+0x1d4>
    bb98:	ce3a                	sw	a4,28(sp)
    bb9a:	0004c703          	lbu	a4,0(s1)
    bb9e:	02e00793          	li	a5,46
    bba2:	04f71e63          	bne	a4,a5,bbfe <_vfiprintf_r+0x20a>
    bba6:	0014c703          	lbu	a4,1(s1)
    bbaa:	02a00793          	li	a5,42
    bbae:	02f71a63          	bne	a4,a5,bbe2 <_vfiprintf_r+0x1ee>
    bbb2:	47b2                	lw	a5,12(sp)
    bbb4:	0489                	addi	s1,s1,2
    bbb6:	00478713          	addi	a4,a5,4
    bbba:	439c                	lw	a5,0(a5)
    bbbc:	c63a                	sw	a4,12(sp)
    bbbe:	0007d363          	bgez	a5,bbc4 <_vfiprintf_r+0x1d0>
    bbc2:	57fd                	li	a5,-1
    bbc4:	ca3e                	sw	a5,20(sp)
    bbc6:	a825                	j	bbfe <_vfiprintf_r+0x20a>
    bbc8:	40e00733          	neg	a4,a4
    bbcc:	0027e793          	ori	a5,a5,2
    bbd0:	ce3a                	sw	a4,28(sp)
    bbd2:	c83e                	sw	a5,16(sp)
    bbd4:	b7d9                	j	bb9a <_vfiprintf_r+0x1a6>
    bbd6:	036787b3          	mul	a5,a5,s6
    bbda:	84ae                	mv	s1,a1
    bbdc:	4685                	li	a3,1
    bbde:	97ba                	add	a5,a5,a4
    bbe0:	b741                	j	bb60 <_vfiprintf_r+0x16c>
    bbe2:	0485                	addi	s1,s1,1
    bbe4:	ca02                	sw	zero,20(sp)
    bbe6:	4681                	li	a3,0
    bbe8:	4781                	li	a5,0
    bbea:	4625                	li	a2,9
    bbec:	0004c703          	lbu	a4,0(s1)
    bbf0:	00148593          	addi	a1,s1,1
    bbf4:	fd070713          	addi	a4,a4,-48
    bbf8:	06e67463          	bgeu	a2,a4,bc60 <_vfiprintf_r+0x26c>
    bbfc:	f6e1                	bnez	a3,bbc4 <_vfiprintf_r+0x1d0>
    bbfe:	0004c583          	lbu	a1,0(s1)
    bc02:	460d                	li	a2,3
    bc04:	00001517          	auipc	a0,0x1
    bc08:	38450513          	addi	a0,a0,900 # cf88 <__sf_fake_stdin+0x28>
    bc0c:	24bd                	jal	be7a <memchr>
    bc0e:	cd11                	beqz	a0,bc2a <_vfiprintf_r+0x236>
    bc10:	00001797          	auipc	a5,0x1
    bc14:	37878793          	addi	a5,a5,888 # cf88 <__sf_fake_stdin+0x28>
    bc18:	8d1d                	sub	a0,a0,a5
    bc1a:	47c2                	lw	a5,16(sp)
    bc1c:	04000713          	li	a4,64
    bc20:	00a71733          	sll	a4,a4,a0
    bc24:	8fd9                	or	a5,a5,a4
    bc26:	0485                	addi	s1,s1,1
    bc28:	c83e                	sw	a5,16(sp)
    bc2a:	0004c583          	lbu	a1,0(s1)
    bc2e:	4619                	li	a2,6
    bc30:	00001517          	auipc	a0,0x1
    bc34:	35c50513          	addi	a0,a0,860 # cf8c <__sf_fake_stdin+0x2c>
    bc38:	00148913          	addi	s2,s1,1
    bc3c:	02b10423          	sb	a1,40(sp)
    bc40:	2c2d                	jal	be7a <memchr>
    bc42:	cd25                	beqz	a0,bcba <_vfiprintf_r+0x2c6>
    bc44:	00000793          	li	a5,0
    bc48:	e795                	bnez	a5,bc74 <_vfiprintf_r+0x280>
    bc4a:	4742                	lw	a4,16(sp)
    bc4c:	47b2                	lw	a5,12(sp)
    bc4e:	10077713          	andi	a4,a4,256
    bc52:	cf09                	beqz	a4,bc6c <_vfiprintf_r+0x278>
    bc54:	0791                	addi	a5,a5,4
    bc56:	c63e                	sw	a5,12(sp)
    bc58:	5792                	lw	a5,36(sp)
    bc5a:	97d2                	add	a5,a5,s4
    bc5c:	d23e                	sw	a5,36(sp)
    bc5e:	bda5                	j	bad6 <_vfiprintf_r+0xe2>
    bc60:	036787b3          	mul	a5,a5,s6
    bc64:	84ae                	mv	s1,a1
    bc66:	4685                	li	a3,1
    bc68:	97ba                	add	a5,a5,a4
    bc6a:	b749                	j	bbec <_vfiprintf_r+0x1f8>
    bc6c:	079d                	addi	a5,a5,7
    bc6e:	9be1                	andi	a5,a5,-8
    bc70:	07a1                	addi	a5,a5,8
    bc72:	b7d5                	j	bc56 <_vfiprintf_r+0x262>
    bc74:	0078                	addi	a4,sp,12
    bc76:	00000697          	auipc	a3,0x0
    bc7a:	d3a68693          	addi	a3,a3,-710 # b9b0 <__sfputs_r>
    bc7e:	8622                	mv	a2,s0
    bc80:	080c                	addi	a1,sp,16
    bc82:	854e                	mv	a0,s3
    bc84:	00000097          	auipc	ra,0x0
    bc88:	000000e7          	jalr	zero # 0 <_sinit>
    bc8c:	57fd                	li	a5,-1
    bc8e:	8a2a                	mv	s4,a0
    bc90:	fcf514e3          	bne	a0,a5,bc58 <_vfiprintf_r+0x264>
    bc94:	507c                	lw	a5,100(s0)
    bc96:	8b85                	andi	a5,a5,1
    bc98:	eb89                	bnez	a5,bcaa <_vfiprintf_r+0x2b6>
    bc9a:	00c45783          	lhu	a5,12(s0)
    bc9e:	2007f793          	andi	a5,a5,512
    bca2:	e781                	bnez	a5,bcaa <_vfiprintf_r+0x2b6>
    bca4:	4c28                	lw	a0,88(s0)
    bca6:	9e1ff0ef          	jal	ra,b686 <__retarget_lock_release_recursive>
    bcaa:	00c45783          	lhu	a5,12(s0)
    bcae:	0407f793          	andi	a5,a5,64
    bcb2:	da0797e3          	bnez	a5,ba60 <_vfiprintf_r+0x6c>
    bcb6:	5512                	lw	a0,36(sp)
    bcb8:	b36d                	j	ba62 <_vfiprintf_r+0x6e>
    bcba:	0078                	addi	a4,sp,12
    bcbc:	00000697          	auipc	a3,0x0
    bcc0:	cf468693          	addi	a3,a3,-780 # b9b0 <__sfputs_r>
    bcc4:	8622                	mv	a2,s0
    bcc6:	080c                	addi	a1,sp,16
    bcc8:	854e                	mv	a0,s3
    bcca:	24ed                	jal	bfb4 <_printf_i>
    bccc:	b7c1                	j	bc8c <_vfiprintf_r+0x298>

0000bcce <_sbrk_r>:
    bcce:	1141                	addi	sp,sp,-16
    bcd0:	c422                	sw	s0,8(sp)
    bcd2:	842a                	mv	s0,a0
    bcd4:	852e                	mv	a0,a1
    bcd6:	a601a823          	sw	zero,-1424(gp) # 20001598 <errno>
    bcda:	c606                	sw	ra,12(sp)
    bcdc:	842fc0ef          	jal	ra,7d1e <_sbrk>
    bce0:	57fd                	li	a5,-1
    bce2:	00f51663          	bne	a0,a5,bcee <_sbrk_r+0x20>
    bce6:	a701a783          	lw	a5,-1424(gp) # 20001598 <errno>
    bcea:	c391                	beqz	a5,bcee <_sbrk_r+0x20>
    bcec:	c01c                	sw	a5,0(s0)
    bcee:	40b2                	lw	ra,12(sp)
    bcf0:	4422                	lw	s0,8(sp)
    bcf2:	0141                	addi	sp,sp,16
    bcf4:	8082                	ret

0000bcf6 <__sread>:
    bcf6:	1141                	addi	sp,sp,-16
    bcf8:	c422                	sw	s0,8(sp)
    bcfa:	842e                	mv	s0,a1
    bcfc:	00e59583          	lh	a1,14(a1)
    bd00:	c606                	sw	ra,12(sp)
    bd02:	2b25                	jal	c23a <_read_r>
    bd04:	00054963          	bltz	a0,bd16 <__sread+0x20>
    bd08:	487c                	lw	a5,84(s0)
    bd0a:	97aa                	add	a5,a5,a0
    bd0c:	c87c                	sw	a5,84(s0)
    bd0e:	40b2                	lw	ra,12(sp)
    bd10:	4422                	lw	s0,8(sp)
    bd12:	0141                	addi	sp,sp,16
    bd14:	8082                	ret
    bd16:	00c45783          	lhu	a5,12(s0)
    bd1a:	777d                	lui	a4,0xfffff
    bd1c:	177d                	addi	a4,a4,-1 # ffffefff <_eusrstack+0xdfff9fff>
    bd1e:	8ff9                	and	a5,a5,a4
    bd20:	00f41623          	sh	a5,12(s0)
    bd24:	b7ed                	j	bd0e <__sread+0x18>

0000bd26 <__swrite>:
    bd26:	00c5d783          	lhu	a5,12(a1)
    bd2a:	1101                	addi	sp,sp,-32
    bd2c:	cc22                	sw	s0,24(sp)
    bd2e:	ca26                	sw	s1,20(sp)
    bd30:	c84a                	sw	s2,16(sp)
    bd32:	c64e                	sw	s3,12(sp)
    bd34:	ce06                	sw	ra,28(sp)
    bd36:	1007f793          	andi	a5,a5,256
    bd3a:	84aa                	mv	s1,a0
    bd3c:	842e                	mv	s0,a1
    bd3e:	8932                	mv	s2,a2
    bd40:	89b6                	mv	s3,a3
    bd42:	c791                	beqz	a5,bd4e <__swrite+0x28>
    bd44:	00e59583          	lh	a1,14(a1)
    bd48:	4689                	li	a3,2
    bd4a:	4601                	li	a2,0
    bd4c:	2211                	jal	be50 <_lseek_r>
    bd4e:	00c45783          	lhu	a5,12(s0)
    bd52:	777d                	lui	a4,0xfffff
    bd54:	177d                	addi	a4,a4,-1 # ffffefff <_eusrstack+0xdfff9fff>
    bd56:	8ff9                	and	a5,a5,a4
    bd58:	00e41583          	lh	a1,14(s0)
    bd5c:	00f41623          	sh	a5,12(s0)
    bd60:	4462                	lw	s0,24(sp)
    bd62:	40f2                	lw	ra,28(sp)
    bd64:	86ce                	mv	a3,s3
    bd66:	864a                	mv	a2,s2
    bd68:	49b2                	lw	s3,12(sp)
    bd6a:	4942                	lw	s2,16(sp)
    bd6c:	8526                	mv	a0,s1
    bd6e:	44d2                	lw	s1,20(sp)
    bd70:	6105                	addi	sp,sp,32
    bd72:	a83d                	j	bdb0 <_write_r>

0000bd74 <__sseek>:
    bd74:	1141                	addi	sp,sp,-16
    bd76:	c422                	sw	s0,8(sp)
    bd78:	842e                	mv	s0,a1
    bd7a:	00e59583          	lh	a1,14(a1)
    bd7e:	c606                	sw	ra,12(sp)
    bd80:	28c1                	jal	be50 <_lseek_r>
    bd82:	577d                	li	a4,-1
    bd84:	00c45783          	lhu	a5,12(s0)
    bd88:	00e51b63          	bne	a0,a4,bd9e <__sseek+0x2a>
    bd8c:	777d                	lui	a4,0xfffff
    bd8e:	177d                	addi	a4,a4,-1 # ffffefff <_eusrstack+0xdfff9fff>
    bd90:	8ff9                	and	a5,a5,a4
    bd92:	00f41623          	sh	a5,12(s0)
    bd96:	40b2                	lw	ra,12(sp)
    bd98:	4422                	lw	s0,8(sp)
    bd9a:	0141                	addi	sp,sp,16
    bd9c:	8082                	ret
    bd9e:	6705                	lui	a4,0x1
    bda0:	8fd9                	or	a5,a5,a4
    bda2:	00f41623          	sh	a5,12(s0)
    bda6:	c868                	sw	a0,84(s0)
    bda8:	b7fd                	j	bd96 <__sseek+0x22>

0000bdaa <__sclose>:
    bdaa:	00e59583          	lh	a1,14(a1)
    bdae:	a03d                	j	bddc <_close_r>

0000bdb0 <_write_r>:
    bdb0:	1141                	addi	sp,sp,-16
    bdb2:	c422                	sw	s0,8(sp)
    bdb4:	842a                	mv	s0,a0
    bdb6:	852e                	mv	a0,a1
    bdb8:	85b2                	mv	a1,a2
    bdba:	8636                	mv	a2,a3
    bdbc:	a601a823          	sw	zero,-1424(gp) # 20001598 <errno>
    bdc0:	c606                	sw	ra,12(sp)
    bdc2:	f59fb0ef          	jal	ra,7d1a <_write>
    bdc6:	57fd                	li	a5,-1
    bdc8:	00f51663          	bne	a0,a5,bdd4 <_write_r+0x24>
    bdcc:	a701a783          	lw	a5,-1424(gp) # 20001598 <errno>
    bdd0:	c391                	beqz	a5,bdd4 <_write_r+0x24>
    bdd2:	c01c                	sw	a5,0(s0)
    bdd4:	40b2                	lw	ra,12(sp)
    bdd6:	4422                	lw	s0,8(sp)
    bdd8:	0141                	addi	sp,sp,16
    bdda:	8082                	ret

0000bddc <_close_r>:
    bddc:	1141                	addi	sp,sp,-16
    bdde:	c422                	sw	s0,8(sp)
    bde0:	842a                	mv	s0,a0
    bde2:	852e                	mv	a0,a1
    bde4:	a601a823          	sw	zero,-1424(gp) # 20001598 <errno>
    bde8:	c606                	sw	ra,12(sp)
    bdea:	29ad                	jal	c264 <_close>
    bdec:	57fd                	li	a5,-1
    bdee:	00f51663          	bne	a0,a5,bdfa <_close_r+0x1e>
    bdf2:	a701a783          	lw	a5,-1424(gp) # 20001598 <errno>
    bdf6:	c391                	beqz	a5,bdfa <_close_r+0x1e>
    bdf8:	c01c                	sw	a5,0(s0)
    bdfa:	40b2                	lw	ra,12(sp)
    bdfc:	4422                	lw	s0,8(sp)
    bdfe:	0141                	addi	sp,sp,16
    be00:	8082                	ret

0000be02 <_fstat_r>:
    be02:	1141                	addi	sp,sp,-16
    be04:	c422                	sw	s0,8(sp)
    be06:	842a                	mv	s0,a0
    be08:	852e                	mv	a0,a1
    be0a:	85b2                	mv	a1,a2
    be0c:	a601a823          	sw	zero,-1424(gp) # 20001598 <errno>
    be10:	c606                	sw	ra,12(sp)
    be12:	29b9                	jal	c270 <_fstat>
    be14:	57fd                	li	a5,-1
    be16:	00f51663          	bne	a0,a5,be22 <_fstat_r+0x20>
    be1a:	a701a783          	lw	a5,-1424(gp) # 20001598 <errno>
    be1e:	c391                	beqz	a5,be22 <_fstat_r+0x20>
    be20:	c01c                	sw	a5,0(s0)
    be22:	40b2                	lw	ra,12(sp)
    be24:	4422                	lw	s0,8(sp)
    be26:	0141                	addi	sp,sp,16
    be28:	8082                	ret

0000be2a <_isatty_r>:
    be2a:	1141                	addi	sp,sp,-16
    be2c:	c422                	sw	s0,8(sp)
    be2e:	842a                	mv	s0,a0
    be30:	852e                	mv	a0,a1
    be32:	a601a823          	sw	zero,-1424(gp) # 20001598 <errno>
    be36:	c606                	sw	ra,12(sp)
    be38:	2191                	jal	c27c <_isatty>
    be3a:	57fd                	li	a5,-1
    be3c:	00f51663          	bne	a0,a5,be48 <_isatty_r+0x1e>
    be40:	a701a783          	lw	a5,-1424(gp) # 20001598 <errno>
    be44:	c391                	beqz	a5,be48 <_isatty_r+0x1e>
    be46:	c01c                	sw	a5,0(s0)
    be48:	40b2                	lw	ra,12(sp)
    be4a:	4422                	lw	s0,8(sp)
    be4c:	0141                	addi	sp,sp,16
    be4e:	8082                	ret

0000be50 <_lseek_r>:
    be50:	1141                	addi	sp,sp,-16
    be52:	c422                	sw	s0,8(sp)
    be54:	842a                	mv	s0,a0
    be56:	852e                	mv	a0,a1
    be58:	85b2                	mv	a1,a2
    be5a:	8636                	mv	a2,a3
    be5c:	a601a823          	sw	zero,-1424(gp) # 20001598 <errno>
    be60:	c606                	sw	ra,12(sp)
    be62:	211d                	jal	c288 <_lseek>
    be64:	57fd                	li	a5,-1
    be66:	00f51663          	bne	a0,a5,be72 <_lseek_r+0x22>
    be6a:	a701a783          	lw	a5,-1424(gp) # 20001598 <errno>
    be6e:	c391                	beqz	a5,be72 <_lseek_r+0x22>
    be70:	c01c                	sw	a5,0(s0)
    be72:	40b2                	lw	ra,12(sp)
    be74:	4422                	lw	s0,8(sp)
    be76:	0141                	addi	sp,sp,16
    be78:	8082                	ret

0000be7a <memchr>:
    be7a:	0ff5f593          	zext.b	a1,a1
    be7e:	962a                	add	a2,a2,a0
    be80:	00c51463          	bne	a0,a2,be88 <memchr+0xe>
    be84:	4501                	li	a0,0
    be86:	8082                	ret
    be88:	00054783          	lbu	a5,0(a0)
    be8c:	feb78de3          	beq	a5,a1,be86 <memchr+0xc>
    be90:	0505                	addi	a0,a0,1
    be92:	b7fd                	j	be80 <memchr+0x6>

0000be94 <__malloc_lock>:
    be94:	a5c18513          	addi	a0,gp,-1444 # 20001584 <__lock___malloc_recursive_mutex>
    be98:	fecff06f          	j	b684 <__retarget_lock_acquire_recursive>

0000be9c <__malloc_unlock>:
    be9c:	a5c18513          	addi	a0,gp,-1444 # 20001584 <__lock___malloc_recursive_mutex>
    bea0:	fe6ff06f          	j	b686 <__retarget_lock_release_recursive>

0000bea4 <_printf_common>:
    bea4:	7179                	addi	sp,sp,-48
    bea6:	ca56                	sw	s5,20(sp)
    bea8:	499c                	lw	a5,16(a1)
    beaa:	8aba                	mv	s5,a4
    beac:	4598                	lw	a4,8(a1)
    beae:	d422                	sw	s0,40(sp)
    beb0:	d04a                	sw	s2,32(sp)
    beb2:	ce4e                	sw	s3,28(sp)
    beb4:	cc52                	sw	s4,24(sp)
    beb6:	d606                	sw	ra,44(sp)
    beb8:	d226                	sw	s1,36(sp)
    beba:	c85a                	sw	s6,16(sp)
    bebc:	c65e                	sw	s7,12(sp)
    bebe:	89aa                	mv	s3,a0
    bec0:	842e                	mv	s0,a1
    bec2:	8932                	mv	s2,a2
    bec4:	8a36                	mv	s4,a3
    bec6:	00e7d363          	bge	a5,a4,becc <_printf_common+0x28>
    beca:	87ba                	mv	a5,a4
    becc:	00f92023          	sw	a5,0(s2)
    bed0:	04344703          	lbu	a4,67(s0)
    bed4:	c701                	beqz	a4,bedc <_printf_common+0x38>
    bed6:	0785                	addi	a5,a5,1
    bed8:	00f92023          	sw	a5,0(s2)
    bedc:	401c                	lw	a5,0(s0)
    bede:	0207f793          	andi	a5,a5,32
    bee2:	c791                	beqz	a5,beee <_printf_common+0x4a>
    bee4:	00092783          	lw	a5,0(s2)
    bee8:	0789                	addi	a5,a5,2
    beea:	00f92023          	sw	a5,0(s2)
    beee:	4004                	lw	s1,0(s0)
    bef0:	8899                	andi	s1,s1,6
    bef2:	e891                	bnez	s1,bf06 <_printf_common+0x62>
    bef4:	01940b13          	addi	s6,s0,25
    bef8:	5bfd                	li	s7,-1
    befa:	445c                	lw	a5,12(s0)
    befc:	00092703          	lw	a4,0(s2)
    bf00:	8f99                	sub	a5,a5,a4
    bf02:	04f4cc63          	blt	s1,a5,bf5a <_printf_common+0xb6>
    bf06:	04344783          	lbu	a5,67(s0)
    bf0a:	00f036b3          	snez	a3,a5
    bf0e:	401c                	lw	a5,0(s0)
    bf10:	0207f793          	andi	a5,a5,32
    bf14:	eba5                	bnez	a5,bf84 <_printf_common+0xe0>
    bf16:	04340613          	addi	a2,s0,67
    bf1a:	85d2                	mv	a1,s4
    bf1c:	854e                	mv	a0,s3
    bf1e:	9a82                	jalr	s5
    bf20:	57fd                	li	a5,-1
    bf22:	04f50363          	beq	a0,a5,bf68 <_printf_common+0xc4>
    bf26:	401c                	lw	a5,0(s0)
    bf28:	4711                	li	a4,4
    bf2a:	4481                	li	s1,0
    bf2c:	8b99                	andi	a5,a5,6
    bf2e:	00e79963          	bne	a5,a4,bf40 <_printf_common+0x9c>
    bf32:	4444                	lw	s1,12(s0)
    bf34:	00092783          	lw	a5,0(s2)
    bf38:	8c9d                	sub	s1,s1,a5
    bf3a:	0004d363          	bgez	s1,bf40 <_printf_common+0x9c>
    bf3e:	4481                	li	s1,0
    bf40:	441c                	lw	a5,8(s0)
    bf42:	4818                	lw	a4,16(s0)
    bf44:	00f75463          	bge	a4,a5,bf4c <_printf_common+0xa8>
    bf48:	8f99                	sub	a5,a5,a4
    bf4a:	94be                	add	s1,s1,a5
    bf4c:	4901                	li	s2,0
    bf4e:	0469                	addi	s0,s0,26
    bf50:	5b7d                	li	s6,-1
    bf52:	05249863          	bne	s1,s2,bfa2 <_printf_common+0xfe>
    bf56:	4501                	li	a0,0
    bf58:	a809                	j	bf6a <_printf_common+0xc6>
    bf5a:	4685                	li	a3,1
    bf5c:	865a                	mv	a2,s6
    bf5e:	85d2                	mv	a1,s4
    bf60:	854e                	mv	a0,s3
    bf62:	9a82                	jalr	s5
    bf64:	01751e63          	bne	a0,s7,bf80 <_printf_common+0xdc>
    bf68:	557d                	li	a0,-1
    bf6a:	50b2                	lw	ra,44(sp)
    bf6c:	5422                	lw	s0,40(sp)
    bf6e:	5492                	lw	s1,36(sp)
    bf70:	5902                	lw	s2,32(sp)
    bf72:	49f2                	lw	s3,28(sp)
    bf74:	4a62                	lw	s4,24(sp)
    bf76:	4ad2                	lw	s5,20(sp)
    bf78:	4b42                	lw	s6,16(sp)
    bf7a:	4bb2                	lw	s7,12(sp)
    bf7c:	6145                	addi	sp,sp,48
    bf7e:	8082                	ret
    bf80:	0485                	addi	s1,s1,1
    bf82:	bfa5                	j	befa <_printf_common+0x56>
    bf84:	00d40733          	add	a4,s0,a3
    bf88:	03000613          	li	a2,48
    bf8c:	04c701a3          	sb	a2,67(a4) # 1043 <i32_clamp+0xb>
    bf90:	04544703          	lbu	a4,69(s0)
    bf94:	00168793          	addi	a5,a3,1
    bf98:	97a2                	add	a5,a5,s0
    bf9a:	0689                	addi	a3,a3,2
    bf9c:	04e781a3          	sb	a4,67(a5)
    bfa0:	bf9d                	j	bf16 <_printf_common+0x72>
    bfa2:	4685                	li	a3,1
    bfa4:	8622                	mv	a2,s0
    bfa6:	85d2                	mv	a1,s4
    bfa8:	854e                	mv	a0,s3
    bfaa:	9a82                	jalr	s5
    bfac:	fb650ee3          	beq	a0,s6,bf68 <_printf_common+0xc4>
    bfb0:	0905                	addi	s2,s2,1
    bfb2:	b745                	j	bf52 <_printf_common+0xae>

0000bfb4 <_printf_i>:
    bfb4:	7179                	addi	sp,sp,-48
    bfb6:	d422                	sw	s0,40(sp)
    bfb8:	d04a                	sw	s2,32(sp)
    bfba:	ce4e                	sw	s3,28(sp)
    bfbc:	cc52                	sw	s4,24(sp)
    bfbe:	d606                	sw	ra,44(sp)
    bfc0:	d226                	sw	s1,36(sp)
    bfc2:	ca56                	sw	s5,20(sp)
    bfc4:	c85a                	sw	s6,16(sp)
    bfc6:	0185c803          	lbu	a6,24(a1)
    bfca:	07800793          	li	a5,120
    bfce:	892a                	mv	s2,a0
    bfd0:	842e                	mv	s0,a1
    bfd2:	89b2                	mv	s3,a2
    bfd4:	8a36                	mv	s4,a3
    bfd6:	0307e263          	bltu	a5,a6,bffa <_printf_i+0x46>
    bfda:	06200793          	li	a5,98
    bfde:	04358693          	addi	a3,a1,67
    bfe2:	0307e163          	bltu	a5,a6,c004 <_printf_i+0x50>
    bfe6:	1e080163          	beqz	a6,c1c8 <_printf_i+0x214>
    bfea:	05800793          	li	a5,88
    bfee:	00001617          	auipc	a2,0x1
    bff2:	fa660613          	addi	a2,a2,-90 # cf94 <__sf_fake_stdin+0x34>
    bff6:	14f80b63          	beq	a6,a5,c14c <_printf_i+0x198>
    bffa:	04240493          	addi	s1,s0,66
    bffe:	05040123          	sb	a6,66(s0)
    c002:	a815                	j	c036 <_printf_i+0x82>
    c004:	f9d80793          	addi	a5,a6,-99
    c008:	0ff7f793          	zext.b	a5,a5
    c00c:	4655                	li	a2,21
    c00e:	fef666e3          	bltu	a2,a5,bffa <_printf_i+0x46>
    c012:	00001617          	auipc	a2,0x1
    c016:	faa60613          	addi	a2,a2,-86 # cfbc <__sf_fake_stdin+0x5c>
    c01a:	078a                	slli	a5,a5,0x2
    c01c:	97b2                	add	a5,a5,a2
    c01e:	439c                	lw	a5,0(a5)
    c020:	97b2                	add	a5,a5,a2
    c022:	8782                	jr	a5
    c024:	431c                	lw	a5,0(a4)
    c026:	04258493          	addi	s1,a1,66
    c02a:	00478693          	addi	a3,a5,4
    c02e:	439c                	lw	a5,0(a5)
    c030:	c314                	sw	a3,0(a4)
    c032:	04f58123          	sb	a5,66(a1)
    c036:	4785                	li	a5,1
    c038:	aa55                	j	c1ec <_printf_i+0x238>
    c03a:	4190                	lw	a2,0(a1)
    c03c:	431c                	lw	a5,0(a4)
    c03e:	08067513          	andi	a0,a2,128
    c042:	00478593          	addi	a1,a5,4
    c046:	c139                	beqz	a0,c08c <_printf_i+0xd8>
    c048:	439c                	lw	a5,0(a5)
    c04a:	c30c                	sw	a1,0(a4)
    c04c:	4058                	lw	a4,4(s0)
    c04e:	1407d363          	bgez	a5,c194 <_printf_i+0x1e0>
    c052:	02d00593          	li	a1,45
    c056:	04b401a3          	sb	a1,67(s0)
    c05a:	c418                	sw	a4,8(s0)
    c05c:	04075063          	bgez	a4,c09c <_printf_i+0xe8>
    c060:	40f007b3          	neg	a5,a5
    c064:	00001617          	auipc	a2,0x1
    c068:	f3060613          	addi	a2,a2,-208 # cf94 <__sf_fake_stdin+0x34>
    c06c:	4829                	li	a6,10
    c06e:	84b6                	mv	s1,a3
    c070:	0307f733          	remu	a4,a5,a6
    c074:	14fd                	addi	s1,s1,-1
    c076:	9732                	add	a4,a4,a2
    c078:	00074703          	lbu	a4,0(a4)
    c07c:	00e48023          	sb	a4,0(s1)
    c080:	873e                	mv	a4,a5
    c082:	0307d7b3          	divu	a5,a5,a6
    c086:	ff0775e3          	bgeu	a4,a6,c070 <_printf_i+0xbc>
    c08a:	a08d                	j	c0ec <_printf_i+0x138>
    c08c:	439c                	lw	a5,0(a5)
    c08e:	04067513          	andi	a0,a2,64
    c092:	c30c                	sw	a1,0(a4)
    c094:	dd45                	beqz	a0,c04c <_printf_i+0x98>
    c096:	07c2                	slli	a5,a5,0x10
    c098:	87c1                	srai	a5,a5,0x10
    c09a:	bf4d                	j	c04c <_printf_i+0x98>
    c09c:	9a6d                	andi	a2,a2,-5
    c09e:	c010                	sw	a2,0(s0)
    c0a0:	b7c1                	j	c060 <_printf_i+0xac>
    c0a2:	4190                	lw	a2,0(a1)
    c0a4:	431c                	lw	a5,0(a4)
    c0a6:	08067513          	andi	a0,a2,128
    c0aa:	00478593          	addi	a1,a5,4
    c0ae:	c501                	beqz	a0,c0b6 <_printf_i+0x102>
    c0b0:	c30c                	sw	a1,0(a4)
    c0b2:	439c                	lw	a5,0(a5)
    c0b4:	a039                	j	c0c2 <_printf_i+0x10e>
    c0b6:	04067613          	andi	a2,a2,64
    c0ba:	c30c                	sw	a1,0(a4)
    c0bc:	da7d                	beqz	a2,c0b2 <_printf_i+0xfe>
    c0be:	0007d783          	lhu	a5,0(a5)
    c0c2:	06f00713          	li	a4,111
    c0c6:	00001617          	auipc	a2,0x1
    c0ca:	ece60613          	addi	a2,a2,-306 # cf94 <__sf_fake_stdin+0x34>
    c0ce:	0ce81163          	bne	a6,a4,c190 <_printf_i+0x1dc>
    c0d2:	4821                	li	a6,8
    c0d4:	040401a3          	sb	zero,67(s0)
    c0d8:	4058                	lw	a4,4(s0)
    c0da:	c418                	sw	a4,8(s0)
    c0dc:	f80749e3          	bltz	a4,c06e <_printf_i+0xba>
    c0e0:	400c                	lw	a1,0(s0)
    c0e2:	99ed                	andi	a1,a1,-5
    c0e4:	c00c                	sw	a1,0(s0)
    c0e6:	f7c1                	bnez	a5,c06e <_printf_i+0xba>
    c0e8:	84b6                	mv	s1,a3
    c0ea:	f351                	bnez	a4,c06e <_printf_i+0xba>
    c0ec:	47a1                	li	a5,8
    c0ee:	00f81e63          	bne	a6,a5,c10a <_printf_i+0x156>
    c0f2:	401c                	lw	a5,0(s0)
    c0f4:	8b85                	andi	a5,a5,1
    c0f6:	cb91                	beqz	a5,c10a <_printf_i+0x156>
    c0f8:	4058                	lw	a4,4(s0)
    c0fa:	481c                	lw	a5,16(s0)
    c0fc:	00e7c763          	blt	a5,a4,c10a <_printf_i+0x156>
    c100:	03000793          	li	a5,48
    c104:	fef48fa3          	sb	a5,-1(s1)
    c108:	14fd                	addi	s1,s1,-1
    c10a:	8e85                	sub	a3,a3,s1
    c10c:	c814                	sw	a3,16(s0)
    c10e:	8752                	mv	a4,s4
    c110:	86ce                	mv	a3,s3
    c112:	0070                	addi	a2,sp,12
    c114:	85a2                	mv	a1,s0
    c116:	854a                	mv	a0,s2
    c118:	d8dff0ef          	jal	ra,bea4 <_printf_common>
    c11c:	5afd                	li	s5,-1
    c11e:	0d551b63          	bne	a0,s5,c1f4 <_printf_i+0x240>
    c122:	557d                	li	a0,-1
    c124:	50b2                	lw	ra,44(sp)
    c126:	5422                	lw	s0,40(sp)
    c128:	5492                	lw	s1,36(sp)
    c12a:	5902                	lw	s2,32(sp)
    c12c:	49f2                	lw	s3,28(sp)
    c12e:	4a62                	lw	s4,24(sp)
    c130:	4ad2                	lw	s5,20(sp)
    c132:	4b42                	lw	s6,16(sp)
    c134:	6145                	addi	sp,sp,48
    c136:	8082                	ret
    c138:	419c                	lw	a5,0(a1)
    c13a:	0207e793          	ori	a5,a5,32
    c13e:	c19c                	sw	a5,0(a1)
    c140:	07800813          	li	a6,120
    c144:	00001617          	auipc	a2,0x1
    c148:	e6460613          	addi	a2,a2,-412 # cfa8 <__sf_fake_stdin+0x48>
    c14c:	050402a3          	sb	a6,69(s0)
    c150:	400c                	lw	a1,0(s0)
    c152:	431c                	lw	a5,0(a4)
    c154:	0805f813          	andi	a6,a1,128
    c158:	00478513          	addi	a0,a5,4
    c15c:	00080563          	beqz	a6,c166 <_printf_i+0x1b2>
    c160:	c308                	sw	a0,0(a4)
    c162:	439c                	lw	a5,0(a5)
    c164:	a801                	j	c174 <_printf_i+0x1c0>
    c166:	0405f813          	andi	a6,a1,64
    c16a:	c308                	sw	a0,0(a4)
    c16c:	fe080be3          	beqz	a6,c162 <_printf_i+0x1ae>
    c170:	0007d783          	lhu	a5,0(a5)
    c174:	0015f713          	andi	a4,a1,1
    c178:	c701                	beqz	a4,c180 <_printf_i+0x1cc>
    c17a:	0205e593          	ori	a1,a1,32
    c17e:	c00c                	sw	a1,0(s0)
    c180:	c399                	beqz	a5,c186 <_printf_i+0x1d2>
    c182:	4841                	li	a6,16
    c184:	bf81                	j	c0d4 <_printf_i+0x120>
    c186:	4018                	lw	a4,0(s0)
    c188:	fdf77713          	andi	a4,a4,-33
    c18c:	c018                	sw	a4,0(s0)
    c18e:	bfd5                	j	c182 <_printf_i+0x1ce>
    c190:	4829                	li	a6,10
    c192:	b789                	j	c0d4 <_printf_i+0x120>
    c194:	00001617          	auipc	a2,0x1
    c198:	e0060613          	addi	a2,a2,-512 # cf94 <__sf_fake_stdin+0x34>
    c19c:	4829                	li	a6,10
    c19e:	bf2d                	j	c0d8 <_printf_i+0x124>
    c1a0:	4190                	lw	a2,0(a1)
    c1a2:	431c                	lw	a5,0(a4)
    c1a4:	49cc                	lw	a1,20(a1)
    c1a6:	08067813          	andi	a6,a2,128
    c1aa:	00478513          	addi	a0,a5,4
    c1ae:	00080663          	beqz	a6,c1ba <_printf_i+0x206>
    c1b2:	c308                	sw	a0,0(a4)
    c1b4:	439c                	lw	a5,0(a5)
    c1b6:	c38c                	sw	a1,0(a5)
    c1b8:	a801                	j	c1c8 <_printf_i+0x214>
    c1ba:	c308                	sw	a0,0(a4)
    c1bc:	04067613          	andi	a2,a2,64
    c1c0:	439c                	lw	a5,0(a5)
    c1c2:	da75                	beqz	a2,c1b6 <_printf_i+0x202>
    c1c4:	00b79023          	sh	a1,0(a5)
    c1c8:	00042823          	sw	zero,16(s0)
    c1cc:	84b6                	mv	s1,a3
    c1ce:	b781                	j	c10e <_printf_i+0x15a>
    c1d0:	431c                	lw	a5,0(a4)
    c1d2:	41d0                	lw	a2,4(a1)
    c1d4:	4581                	li	a1,0
    c1d6:	00478693          	addi	a3,a5,4
    c1da:	c314                	sw	a3,0(a4)
    c1dc:	4384                	lw	s1,0(a5)
    c1de:	8526                	mv	a0,s1
    c1e0:	c9bff0ef          	jal	ra,be7a <memchr>
    c1e4:	c119                	beqz	a0,c1ea <_printf_i+0x236>
    c1e6:	8d05                	sub	a0,a0,s1
    c1e8:	c048                	sw	a0,4(s0)
    c1ea:	405c                	lw	a5,4(s0)
    c1ec:	c81c                	sw	a5,16(s0)
    c1ee:	040401a3          	sb	zero,67(s0)
    c1f2:	bf31                	j	c10e <_printf_i+0x15a>
    c1f4:	4814                	lw	a3,16(s0)
    c1f6:	8626                	mv	a2,s1
    c1f8:	85ce                	mv	a1,s3
    c1fa:	854a                	mv	a0,s2
    c1fc:	9a02                	jalr	s4
    c1fe:	f35502e3          	beq	a0,s5,c122 <_printf_i+0x16e>
    c202:	401c                	lw	a5,0(s0)
    c204:	8b89                	andi	a5,a5,2
    c206:	e78d                	bnez	a5,c230 <_printf_i+0x27c>
    c208:	47b2                	lw	a5,12(sp)
    c20a:	4448                	lw	a0,12(s0)
    c20c:	f0f55ce3          	bge	a0,a5,c124 <_printf_i+0x170>
    c210:	853e                	mv	a0,a5
    c212:	bf09                	j	c124 <_printf_i+0x170>
    c214:	4685                	li	a3,1
    c216:	8656                	mv	a2,s5
    c218:	85ce                	mv	a1,s3
    c21a:	854a                	mv	a0,s2
    c21c:	9a02                	jalr	s4
    c21e:	f16502e3          	beq	a0,s6,c122 <_printf_i+0x16e>
    c222:	0485                	addi	s1,s1,1
    c224:	445c                	lw	a5,12(s0)
    c226:	4732                	lw	a4,12(sp)
    c228:	8f99                	sub	a5,a5,a4
    c22a:	fef4c5e3          	blt	s1,a5,c214 <_printf_i+0x260>
    c22e:	bfe9                	j	c208 <_printf_i+0x254>
    c230:	4481                	li	s1,0
    c232:	01940a93          	addi	s5,s0,25
    c236:	5b7d                	li	s6,-1
    c238:	b7f5                	j	c224 <_printf_i+0x270>

0000c23a <_read_r>:
    c23a:	1141                	addi	sp,sp,-16
    c23c:	c422                	sw	s0,8(sp)
    c23e:	842a                	mv	s0,a0
    c240:	852e                	mv	a0,a1
    c242:	85b2                	mv	a1,a2
    c244:	8636                	mv	a2,a3
    c246:	a601a823          	sw	zero,-1424(gp) # 20001598 <errno>
    c24a:	c606                	sw	ra,12(sp)
    c24c:	20a1                	jal	c294 <_read>
    c24e:	57fd                	li	a5,-1
    c250:	00f51663          	bne	a0,a5,c25c <_read_r+0x22>
    c254:	a701a783          	lw	a5,-1424(gp) # 20001598 <errno>
    c258:	c391                	beqz	a5,c25c <_read_r+0x22>
    c25a:	c01c                	sw	a5,0(s0)
    c25c:	40b2                	lw	ra,12(sp)
    c25e:	4422                	lw	s0,8(sp)
    c260:	0141                	addi	sp,sp,16
    c262:	8082                	ret

0000c264 <_close>:
    c264:	05800793          	li	a5,88
    c268:	a6f1a823          	sw	a5,-1424(gp) # 20001598 <errno>
    c26c:	557d                	li	a0,-1
    c26e:	8082                	ret

0000c270 <_fstat>:
    c270:	05800793          	li	a5,88
    c274:	a6f1a823          	sw	a5,-1424(gp) # 20001598 <errno>
    c278:	557d                	li	a0,-1
    c27a:	8082                	ret

0000c27c <_isatty>:
    c27c:	05800793          	li	a5,88
    c280:	a6f1a823          	sw	a5,-1424(gp) # 20001598 <errno>
    c284:	4501                	li	a0,0
    c286:	8082                	ret

0000c288 <_lseek>:
    c288:	05800793          	li	a5,88
    c28c:	a6f1a823          	sw	a5,-1424(gp) # 20001598 <errno>
    c290:	557d                	li	a0,-1
    c292:	8082                	ret

0000c294 <_read>:
    c294:	05800793          	li	a5,88
    c298:	a6f1a823          	sw	a5,-1424(gp) # 20001598 <errno>
    c29c:	557d                	li	a0,-1
    c29e:	8082                	ret
    c2a0:	2500                	.2byte	0x2500
    c2a2:	5008                	lw	a0,32(s0)
    c2a4:	6f72                	.2byte	0x6f72
    c2a6:	4320                	lw	s0,64(a4)
    c2a8:	72746e6f          	jal	t3,531ce <_data_lma+0x461ba>
    c2ac:	656c6c6f          	jal	s8,d2902 <_data_lma+0xc58ee>
    c2b0:	0072                	c.slli	zero,0x1c
    c2b2:	0000                	unimp
    c2b4:	0000                	unimp
    c2b6:	6800                	.2byte	0x6800
    c2b8:	049c                	addi	a5,sp,576
    c2ba:	0000                	unimp
    c2bc:	0522                	slli	a0,a0,0x8
    c2be:	0000                	unimp
    c2c0:	0534                	addi	a3,sp,648
    c2c2:	0000                	unimp
    c2c4:	0610                	addi	a2,sp,768
    c2c6:	0000                	unimp
    c2c8:	0610                	addi	a2,sp,768
    c2ca:	0000                	unimp
    c2cc:	0610                	addi	a2,sp,768
    c2ce:	0000                	unimp
    c2d0:	0610                	addi	a2,sp,768
    c2d2:	0000                	unimp
    c2d4:	0610                	addi	a2,sp,768
    c2d6:	0000                	unimp
    c2d8:	04b6                	slli	s1,s1,0xd
    c2da:	0000                	unimp
    c2dc:	04fe                	slli	s1,s1,0x1f
    c2de:	0000                	unimp
    c2e0:	0510                	addi	a2,sp,640
    c2e2:	0000                	unimp
    c2e4:	07cc                	addi	a1,sp,964
    c2e6:	0000                	unimp
    c2e8:	06aa                	slli	a3,a3,0xa
    c2ea:	0000                	unimp
    c2ec:	0610                	addi	a2,sp,768
    c2ee:	0000                	unimp
    c2f0:	0732                	slli	a4,a4,0xc
    c2f2:	0000                	unimp
    c2f4:	0610                	addi	a2,sp,768
    c2f6:	0000                	unimp
    c2f8:	0670                	addi	a2,sp,780
    c2fa:	0000                	unimp
    c2fc:	055c                	addi	a5,sp,644
    c2fe:	0000                	unimp
    c300:	0610                	addi	a2,sp,768
    c302:	0000                	unimp
    c304:	067e                	slli	a2,a2,0x1f
    c306:	0000                	unimp
    c308:	0696                	slli	a3,a3,0x5
    c30a:	0000                	unimp
    c30c:	07c6                	slli	a5,a5,0x11
    c30e:	0000                	unimp
    c310:	04b6                	slli	s1,s1,0xd
	...

0000c314 <freq_exp2_index_lookup_tb>:
    c314:	00c0 00c1 00c2 00c3 00c4 00c5 00c6 00c7     ................
    c324:	00c8 00c9 00ca 00cb 00cc 00cd 00ce 00cf     ................
    c334:	00d0 00d1 00d2 00d3 00d4 00d5 00d6 00d7     ................
    c344:	00d8 00d9 00da 00db 00dc 00dd 00de 00df     ................
    c354:	00e0 00e1 00e2 00e3 00e4 00e5 00e6 00e7     ................
    c364:	00e8 00e9 00ea 00eb 00ec 00ed 00ee 00ef     ................
    c374:	00f0 00f1 00f2 00f3 00f4 00f5 00f6 00f7     ................
    c384:	00f8 00f9 00fa 00fb 00fc 00fd 00fe 00ff     ................
    c394:	0100 0101 0102 0103 0104 0105 0106 0107     ................
    c3a4:	0108 0109 010a 010b 010c 010d 010e 010f     ................
    c3b4:	0110 0111 0112 0113 0114 0115 0116 0117     ................
    c3c4:	0118 0119 011a 011b 011c 011d 011e 011f     ................
    c3d4:	0120 0121 0122 0123 0124 0125 0126 0127      .!.".#.$.%.&.'.
    c3e4:	0128 0129 012a 012b 012c 012d 012e 012f     (.).*.+.,.-.../.
    c3f4:	0130 0131 0132 0133 0134 0135 0136 0137     0.1.2.3.4.5.6.7.
    c404:	0138 0139 013a 013b 013c 013d 013e 013f     8.9.:.;.<.=.>.?.

0000c414 <amp_exp2_index_lookup_tb_high_amp_drop>:
    c414:	0000 002c 0034 003b 0044 004c 0054 005b     ..,.4.;.D.L.T.[.
    c424:	0063 006c 0073 007b 0084 008c 0094 009b     c.l.s.{.........
    c434:	009d 00a0 00a2 00a4 00a6 00a8 00aa 00ac     ................
    c444:	00ae 00b0 00b2 00b4 00b6 00b8 00ba 00bc     ................
    c454:	00bd 00be 00bf 00c0 00c1 00c2 00c3 00c4     ................
    c464:	00c5 00c6 00c7 00c8 00c9 00ca 00cb 00cc     ................
    c474:	00cd 00ce 00cf 00d0 00d1 00d2 00d3 00d4     ................
    c484:	00d5 00d6 00d7 00d8 00d9 00da 00da 00db     ................
    c494:	00dc 00dd 00de 00df 00e0 00e0 00e1 00e2     ................
    c4a4:	00e3 00e4 00e4 00e5 00e5 00e6 00e7 00e7     ................
    c4b4:	00e8 00e9 00e9 00ea 00ea 00eb 00eb 00ec     ................
    c4c4:	00ec 00ed 00ed 00ee 00ee 00ef 00ef 00ef     ................
    c4d4:	00f0 00f0 00f1 00f1 00f1 00f2 00f2 00f3     ................
    c4e4:	00f3 00f3 00f4 00f4 00f5 00f5 00f5 00f6     ................
    c4f4:	00f6 00f7 00f7 00f7 00f8 00f8 00f9 00f9     ................
    c504:	00f9 00fa 00fa 00fb 00fb 00fb 00fc 00fc     ................

0000c514 <amp_exp2_index_lookup_tb_low_amp_rise>:
    c514:	004c 0050 0056 0058 005c 0060 0064 0068     L.P.V.X.\.`.d.h.

0000c524 <amp_exp2_index_lookup_tb_raw>:
    c524:	0000 002c 0034 003b 0044 004c 0054 005b     ..,.4.;.D.L.T.[.
    c534:	0063 006c 0073 007b 0084 008c 0094 009b     c.l.s.{.........
    c544:	009d 00a0 00a2 00a4 00a6 00a8 00aa 00ac     ................
    c554:	00ae 00af 00b2 00b4 00b6 00b8 00ba 00bc     ................
    c564:	00bd 00be 00bf 00c0 00c1 00c2 00c3 00c4     ................
    c574:	00c5 00c6 00c7 00c8 00c9 00ca 00cb 00cc     ................
    c584:	00cd 00ce 00cf 00d0 00d1 00d2 00d3 00d4     ................
    c594:	00d5 00d6 00d7 00d8 00d9 00da 00db 00dc     ................
    c5a4:	00dd 00de 00df 00e0 00e1 00e2 00e3 00e4     ................
    c5b4:	00e5 00e6 00e7 00e8 00e9 00ea 00eb 00ec     ................
    c5c4:	00ed 00ee 00ef 00f0 00f1 00f2 00f3 00f4     ................
    c5d4:	00f5 00f6 00f7 00f8 00f9 00fa 00fb 00fc     ................
    c5e4:	00fd 00fe 00ff 0100 0101 0102 0103 0104     ................
    c5f4:	0105 0106 0107 0108 0109 010a 010b 010c     ................
    c604:	010d 010e 010f 0110 0111 0112 0113 0114     ................
    c614:	0115 0116 0117 0118 0119 011a 011b 011c     ................

0000c624 <exp2_lookup_tb>:
	...
    c62c:	0043 0000 0044 0000 0046 0000 0047 0000     C...D...F...G...
    c63c:	0049 0000 004a 0000 004c 0000 004e 0000     I...J...L...N...
    c64c:	004f 0000 0051 0000 0053 0000 0055 0000     O...Q...S...U...
    c65c:	0057 0000 0059 0000 005b 0000 005c 0000     W...Y...[...\...
    c66c:	005f 0000 0061 0000 0063 0000 0065 0000     _...a...c...e...
    c67c:	0067 0000 0069 0000 006c 0000 006e 0000     g...i...l...n...
    c68c:	0070 0000 0073 0000 0075 0000 0078 0000     p...s...u...x...
    c69c:	007b 0000 007d 0000 0080 0000 0083 0000     {...}...........
    c6ac:	0086 0000 0089 0000 008c 0000 008f 0000     ................
    c6bc:	0092 0000 0095 0000 0098 0000 009c 0000     ................
    c6cc:	009f 0000 00a2 0000 00a6 0000 00aa 0000     ................
    c6dc:	00ad 0000 00b1 0000 00b5 0000 00b9 0000     ................
    c6ec:	00bd 0000 00c1 0000 00c5 0000 00ca 0000     ................
    c6fc:	00ce 0000 00d3 0000 00d7 0000 00dc 0000     ................
    c70c:	00e1 0000 00e6 0000 00eb 0000 00f0 0000     ................
    c71c:	00f5 0000 00fb 0000 0100 0000 0106 0000     ................
    c72c:	010b 0000 0111 0000 0117 0000 011d 0000     ................
    c73c:	0124 0000 012a 0000 0130 0000 0137 0000     $...*...0...7...
    c74c:	013e 0000 0145 0000 014c 0000 0153 0000     >...E...L...S...
    c75c:	015b 0000 0162 0000 016a 0000 0172 0000     [...b...j...r...
    c76c:	017a 0000 0182 0000 018b 0000 0193 0000     z...............
    c77c:	019c 0000 01a5 0000 01af 0000 01b8 0000     ................
    c78c:	01c2 0000 01cb 0000 01d6 0000 01e0 0000     ................
    c79c:	01ea 0000 01f5 0000 0200 0000 020b 0000     ................
    c7ac:	0217 0000 0222 0000 022e 0000 023b 0000     ....".......;...
    c7bc:	0247 0000 0254 0000 0261 0000 026e 0000     G...T...a...n...
    c7cc:	027c 0000 028a 0000 0298 0000 02a7 0000     |...............
    c7dc:	02b5 0000 02c5 0000 02d4 0000 02e4 0000     ................
    c7ec:	02f4 0000 0305 0000 0316 0000 0327 0000     ............'...
    c7fc:	0339 0000 034b 0000 035d 0000 0370 0000     9...K...]...p...
    c80c:	0383 0000 0397 0000 03ab 0000 03c0 0000     ................
    c81c:	03d5 0000 03ea 0000 0400 0000 0416 0000     ................
    c82c:	042d 0000 0445 0000 045d 0000 0475 0000     -...E...]...u...
    c83c:	048e 0000 04a8 0000 04c2 0000 04dc 0000     ................
    c84c:	04f8 0000 0514 0000 0530 0000 054d 0000     ........0...M...
    c85c:	056b 0000 0589 0000 05a8 0000 05c8 0000     k...............
    c86c:	05e8 0000 0609 0000 062b 0000 064e 0000     ........+...N...
    c87c:	0671 0000 0695 0000 06ba 0000 06e0 0000     q...............
    c88c:	0706 0000 072e 0000 0756 0000 077f 0000     ........V.......
    c89c:	07a9 0000 07d4 0000 0800 0000 082d 0000     ............-...
    c8ac:	085b 0000 088a 0000 08b9 0000 08ea 0000     [...............
    c8bc:	091c 0000 094f 0000 0983 0000 09b9 0000     ....O...........
    c8cc:	09ef 0000 0a27 0000 0a60 0000 0a9a 0000     ....'...`.......
    c8dc:	0ad6 0000 0b12 0000 0b50 0000 0b90 0000     ........P.......
    c8ec:	0bd1 0000 0c13 0000 0c56 0000 0c9c 0000     ........V.......
    c8fc:	0ce2 0000 0d2b 0000 0d74 0000 0dc0 0000     ....+...t.......
    c90c:	0e0d 0000 0e5c 0000 0eac 0000 0efe 0000     ....\...........
    c91c:	0f52 0000 0fa8 0000 1000 0000 105a 0000     R...........Z...
    c92c:	10b5 0000 1113 0000 1173 0000 11d5 0000     ........s.......
    c93c:	1238 0000 129f 0000 1307 0000 1372 0000     8...........r...
    c94c:	13df 0000 144e 0000 14c0 0000 1534 0000     ....N.......4...
    c95c:	15ab 0000 1624 0000 16a1 0000 171f 0000     ....$...........
    c96c:	17a1 0000 1826 0000 18ad 0000 1937 0000     ....&.......7...
    c97c:	19c5 0000 1a55 0000 1ae9 0000 1b7f 0000     ....U...........
    c98c:	1c1a 0000 1cb7 0000 1d58 0000 1dfd 0000     ........X.......
    c99c:	1ea5 0000 1f50 0000 2000 0000 20b3 0000     ....P.... ... ..
    c9ac:	216b 0000 2226 0000 22e5 0000 23a9 0000     k!..&"..."...#..
    c9bc:	2471 0000 253d 0000 260e 0000 26e3 0000     q$..=%...&...&..
    c9cc:	27bd 0000 289c 0000 2980 0000 2a68 0000     .'...(...)..h*..
    c9dc:	2b56 0000 2c49 0000 2d41 0000 2e3f 0000     V+..I,..A-..?...
    c9ec:	2f42 0000 304b 0000 315a 0000 326e 0000     B/..K0..Z1..n2..
    c9fc:	3389 0000 34aa 0000 35d1 0000 36ff 0000     .3...4...5...6..
    ca0c:	3833 0000 396e 0000 3ab0 0000 3bf9 0000     38..n9...:...;..
    ca1c:	3d49 0000 3ea1 0000 4000 0000 4167 0000     I=...>...@..gA..
    ca2c:	42d5 0000 444c 0000 45cb 0000 4752 0000     .B..LD...E..RG..
    ca3c:	48e2 0000 4a7a 0000 4c1c 0000 4dc7 0000     .H..zJ...L...M..
    ca4c:	4f7b 0000 5138 0000 52ff 0000 54d1 0000     {O..8Q...R...T..
    ca5c:	56ac 0000 5892 0000 5a82 0000 5c7e 0000     .V...X...Z..~\..
    ca6c:	5e84 0000 6096 0000 62b4 0000 64dd 0000     .^...`...b...d..
    ca7c:	6712 0000 6954 0000 6ba2 0000 6dfe 0000     .g..Ti...k...m..
    ca8c:	7066 0000 72dd 0000 7560 0000 77f2 0000     fp...r..`u...w..
    ca9c:	7a93 0000 7d42 0000 8000 0000 82ce 0000     .z..B}..........
    caac:	85ab 0000 8898 0000 8b96 0000 8ea4 0000     ................
    cabc:	91c4 0000 94f5 0000 9838 0000 9b8d 0000     ........8.......
    cacc:	9ef5 0000 a270 0000 a5ff 0000 a9a1 0000     ....p...........
    cadc:	ad58 0000 b124 0000 b505 0000 b8fc 0000     X...$...........
    caec:	bd09 0000 c12c 0000 c567 0000 c9ba 0000     ....,...g.......
    cafc:	ce25 0000 d2a8 0000 d745 0000 dbfc 0000     %.......E.......
    cb0c:	e0cd 0000 e5b9 0000 eac1 0000 efe5 0000     ................
    cb1c:	f525 0000 fa84 0000 0a0d 0a0d 5250 434f     %...........PROC
    cb2c:	4e4f 5020 4f52 454a 5443 000d 7953 7473     ON PROJECT..Syst
    cb3c:	6d65 6c43 3a6b 6425 0a0d 0000 491e 0000     emClk:%d.....I..
    cb4c:	4950 0000 495e 0000 4964 0000 496a 0000     PI..^I..dI..jI..
    cb5c:	4970 0000 4f56 0000 4f5c 0000 4f62 0000     pI..VO..\O..bO..
    cb6c:	4f68 0000 4f6e 0000 4f52 0000 4f86 0000     hO..nO..RO...O..
    cb7c:	6c73 6565 0d70 0000 6352 0000 6370 0000     sleep...Rc..pc..
    cb8c:	639a 0000 636c 0000 636c 0000 636c 0000     .c..lc..lc..lc..
    cb9c:	636c 0000 636c 0000 636c 0000 636c 0000     lc..lc..lc..lc..
    cbac:	636c 0000 636c 0000 63d2 0000 636c 0000     lc..lc...c..lc..
    cbbc:	63f0 0000 63fa 0000 6814 0000 6818 0000     .c...c...h...h..
    cbcc:	6818 0000 681c 0000 6822 0000 6818 0000     .h...h.."h...h..
    cbdc:	6828 0000 6818 0000 682e 0000 682e 0000     (h...h...h...h..
    cbec:	6818 0000 6834 0000                         .h..4h..

0000cbf4 <MySerNumInfo>:
    cbf4:	0316 0030 0031 0032 0033 0034 0035 0036     ..0.1.2.3.4.5.6.
    cc04:	0037 0038 0039 0000                         7.8.9...

0000cc0c <MyProdInfo>:
    cc0c:	032a 0053 006d 0061 0073 0068 0020 0050     *.S.m.a.s.h. .P.
    cc1c:	0072 006f 0020 0043 006f 006e 0074 0072     r.o. .C.o.n.t.r.
    cc2c:	006f 006c 006c 0065 0072 0000               o.l.l.e.r...

0000cc38 <MyManuInfo>:
    cc38:	030a 0052 0065 0065 0064 0000               ..R.e.e.d...

0000cc44 <MyHIDReportDesc>:
    cc44:	0105 0015 0409 01a1 3085 0105 0905 0119     .........0......
    cc54:	0a29 0015 0125 0175 0a95 0055 0065 0281     )...%.u...U.e...
    cc64:	0905 0b19 0e29 0015 0125 0175 0495 0281     ....)...%.u.....
    cc74:	0175 0295 0381 010b 0100 a100 0b00 0030     u.............0.
    cc84:	0001 310b 0100 0b00 0032 0001 350b 0100     ...1....2....5..
    cc94:	1500 2700 ffff 0000 1075 0495 0281 0bc0     ...'....u.......
    cca4:	0039 0001 0015 0725 0035 3b46 6501 7514     9.....%.5.F;.e.u
    ccb4:	9504 8101 0502 1909 290f 1512 2500 7501     .........)...%.u
    ccc4:	9501 8104 7502 9508 8134 0603 ff00 2185     .....u..4......!
    ccd4:	0109 0875 3f95 0381 8185 0209 0875 3f95     ..u..?......u..?
    cce4:	0381 0185 0309 0875 3f95 8391 1085 0409     ......u..?......
    ccf4:	0875 3f95 8391 8085 0509 0875 3f95 8391     u..?......u..?..
    cd04:	8285 0609 0875 3f95 8391 fe85 0709 0875     ....u..?......u.
    cd14:	3f95 0281 fe85 0709 0875 3f95 8291 00c0     .?......u..?....

0000cd24 <MyDevDescr>:
    cd24:	0112 0002 0000 4000 057e 2009 0100 0201     .......@~.. ....
    cd34:	0103 0000 be2a ffff bce4 ffff bcba ffff     ....*...........
    cd44:	bd9c ffff bcba ffff bcee ffff bcba ffff     ................
    cd54:	bd9c ffff bce4 ffff bce4 ffff bcee ffff     ................
    cd64:	bd9c ffff bdf6 ffff bdf6 ffff bdf6 ffff     ................
    cd74:	bcee ffff d46a ffff d2ca ffff d2fc ffff     ....j...........
    cd84:	d302 ffff d2fc ffff d30c ffff d2fc ffff     ................
    cd94:	d302 ffff d2ca ffff d2ca ffff d30c ffff     ................
    cda4:	d302 ffff d3ce ffff d3ce ffff d3ce ffff     ................
    cdb4:	d30c ffff d28a ffff d28a ffff d2bc ffff     ................
    cdc4:	d4be ffff d2bc ffff d2cc ffff d2bc ffff     ................
    cdd4:	d4be ffff d28a ffff d28a ffff d2cc ffff     ................
    cde4:	d4be ffff d38e ffff d38e ffff d4a8 ffff     ................
    cdf4:	d284 ffff d48c ffff d284 ffff d4a8 ffff     ................
    ce04:	d252 ffff d252 ffff d48c ffff d4a8 ffff     R...R...........
    ce14:	d352 ffff d352 ffff d352 ffff               R...R...R...

0000ce20 <__clz_tab>:
    ce20:	0100 0202 0303 0303 0404 0404 0404 0404     ................
    ce30:	0505 0505 0505 0505 0505 0505 0505 0505     ................
    ce40:	0606 0606 0606 0606 0606 0606 0606 0606     ................
    ce50:	0606 0606 0606 0606 0606 0606 0606 0606     ................
    ce60:	0707 0707 0707 0707 0707 0707 0707 0707     ................
    ce70:	0707 0707 0707 0707 0707 0707 0707 0707     ................
    ce80:	0707 0707 0707 0707 0707 0707 0707 0707     ................
    ce90:	0707 0707 0707 0707 0707 0707 0707 0707     ................
    cea0:	0808 0808 0808 0808 0808 0808 0808 0808     ................
    ceb0:	0808 0808 0808 0808 0808 0808 0808 0808     ................
    cec0:	0808 0808 0808 0808 0808 0808 0808 0808     ................
    ced0:	0808 0808 0808 0808 0808 0808 0808 0808     ................
    cee0:	0808 0808 0808 0808 0808 0808 0808 0808     ................
    cef0:	0808 0808 0808 0808 0808 0808 0808 0808     ................
    cf00:	0808 0808 0808 0808 0808 0808 0808 0808     ................
    cf10:	0808 0808 0808 0808 0808 0808 0808 0808     ................

0000cf20 <__sf_fake_stderr>:
	...

0000cf40 <__sf_fake_stdout>:
	...

0000cf60 <__sf_fake_stdin>:
	...
    cf80:	2d23 2b30 0020 0000 6c68 004c 6665 4567     #-0+ ...hlL.efgE
    cf90:	4746 0000 3130 3332 3534 3736 3938 4241     FG..0123456789AB
    cfa0:	4443 4645 0000 0000 3130 3332 3534 3736     CDEF....01234567
    cfb0:	3938 6261 6463 6665 0000 0000 f068 ffff     89abcdef....h...
    cfc0:	f07e ffff f03e ffff f03e ffff f03e ffff     ~...>...>...>...
    cfd0:	f03e ffff f07e ffff f03e ffff f03e ffff     >...~...>...>...
    cfe0:	f03e ffff f03e ffff f1e4 ffff f0e6 ffff     >...>...........
    cff0:	f17c ffff f03e ffff f03e ffff f214 ffff     |...>...>.......
    d000:	f03e ffff f0e6 ffff f03e ffff f03e ffff     >.......>...>...
    d010:	f184 ffff                                   ....
