Archive member included to satisfy reference by file (symbol)

d:/mounriver_studio/toolchain/risc-v embedded gcc12/bin/../lib/gcc/riscv-none-elf/12.2.0/../../../../riscv-none-elf/lib\libm_nano.a(lib_a-wf_sqrt.o)
                              ./User/imu_quaternion.o (sqrtf)
d:/mounriver_studio/toolchain/risc-v embedded gcc12/bin/../lib/gcc/riscv-none-elf/12.2.0/../../../../riscv-none-elf/lib\libm_nano.a(lib_a-ef_sqrt.o)
                              d:/mounriver_studio/toolchain/risc-v embedded gcc12/bin/../lib/gcc/riscv-none-elf/12.2.0/../../../../riscv-none-elf/lib\libm_nano.a(lib_a-wf_sqrt.o) (__ieee754_sqrtf)
d:/mounriver_studio/toolchain/risc-v embedded gcc12/bin/../lib/gcc/riscv-none-elf/12.2.0\libgcc.a(_divdi3.o)
                              ./User/hd_rumble2.o (__divdi3)
d:/mounriver_studio/toolchain/risc-v embedded gcc12/bin/../lib/gcc/riscv-none-elf/12.2.0\libgcc.a(_udivdi3.o)
                              ./User/hd_rumble2.o (__udivdi3)
d:/mounriver_studio/toolchain/risc-v embedded gcc12/bin/../lib/gcc/riscv-none-elf/12.2.0\libgcc.a(adddf3.o)
                              ./User/imu_quaternion.o (__adddf3)
d:/mounriver_studio/toolchain/risc-v embedded gcc12/bin/../lib/gcc/riscv-none-elf/12.2.0\libgcc.a(divdf3.o)
                              ./User/imu_quaternion.o (__divdf3)
d:/mounriver_studio/toolchain/risc-v embedded gcc12/bin/../lib/gcc/riscv-none-elf/12.2.0\libgcc.a(muldf3.o)
                              ./User/imu_quaternion.o (__muldf3)
d:/mounriver_studio/toolchain/risc-v embedded gcc12/bin/../lib/gcc/riscv-none-elf/12.2.0\libgcc.a(subdf3.o)
                              ./User/imu_quaternion.o (__subdf3)
d:/mounriver_studio/toolchain/risc-v embedded gcc12/bin/../lib/gcc/riscv-none-elf/12.2.0\libgcc.a(floatsidf.o)
                              ./User/imu_quaternion.o (__floatsidf)
d:/mounriver_studio/toolchain/risc-v embedded gcc12/bin/../lib/gcc/riscv-none-elf/12.2.0\libgcc.a(floatunsidf.o)
                              ./User/imu_quaternion.o (__floatunsidf)
d:/mounriver_studio/toolchain/risc-v embedded gcc12/bin/../lib/gcc/riscv-none-elf/12.2.0\libgcc.a(addsf3.o)
                              ./User/imu_quaternion.o (__addsf3)
d:/mounriver_studio/toolchain/risc-v embedded gcc12/bin/../lib/gcc/riscv-none-elf/12.2.0\libgcc.a(divsf3.o)
                              ./User/conf.o (__divsf3)
d:/mounriver_studio/toolchain/risc-v embedded gcc12/bin/../lib/gcc/riscv-none-elf/12.2.0\libgcc.a(gesf2.o)
                              ./User/imu_quaternion.o (__gtsf2)
d:/mounriver_studio/toolchain/risc-v embedded gcc12/bin/../lib/gcc/riscv-none-elf/12.2.0\libgcc.a(lesf2.o)
                              d:/mounriver_studio/toolchain/risc-v embedded gcc12/bin/../lib/gcc/riscv-none-elf/12.2.0/../../../../riscv-none-elf/lib\libm_nano.a(lib_a-ef_sqrt.o) (__lesf2)
d:/mounriver_studio/toolchain/risc-v embedded gcc12/bin/../lib/gcc/riscv-none-elf/12.2.0\libgcc.a(mulsf3.o)
                              ./User/imu.o (__mulsf3)
d:/mounriver_studio/toolchain/risc-v embedded gcc12/bin/../lib/gcc/riscv-none-elf/12.2.0\libgcc.a(subsf3.o)
                              ./User/imu_quaternion.o (__subsf3)
d:/mounriver_studio/toolchain/risc-v embedded gcc12/bin/../lib/gcc/riscv-none-elf/12.2.0\libgcc.a(unordsf2.o)
                              d:/mounriver_studio/toolchain/risc-v embedded gcc12/bin/../lib/gcc/riscv-none-elf/12.2.0/../../../../riscv-none-elf/lib\libm_nano.a(lib_a-wf_sqrt.o) (__unordsf2)
d:/mounriver_studio/toolchain/risc-v embedded gcc12/bin/../lib/gcc/riscv-none-elf/12.2.0\libgcc.a(fixsfsi.o)
                              ./User/imu.o (__fixsfsi)
d:/mounriver_studio/toolchain/risc-v embedded gcc12/bin/../lib/gcc/riscv-none-elf/12.2.0\libgcc.a(floatsisf.o)
                              ./User/conf.o (__floatsisf)
d:/mounriver_studio/toolchain/risc-v embedded gcc12/bin/../lib/gcc/riscv-none-elf/12.2.0\libgcc.a(fixsfdi.o)
                              ./User/ns_com_mux.o (__fixsfdi)
d:/mounriver_studio/toolchain/risc-v embedded gcc12/bin/../lib/gcc/riscv-none-elf/12.2.0\libgcc.a(floatdisf.o)
                              ./User/ns_com_mux.o (__floatdisf)
d:/mounriver_studio/toolchain/risc-v embedded gcc12/bin/../lib/gcc/riscv-none-elf/12.2.0\libgcc.a(truncdfsf2.o)
                              ./User/imu_quaternion.o (__truncdfsf2)
d:/mounriver_studio/toolchain/risc-v embedded gcc12/bin/../lib/gcc/riscv-none-elf/12.2.0\libgcc.a(save-restore.o)
                              ./User/imu.o (__riscv_save_12)
d:/mounriver_studio/toolchain/risc-v embedded gcc12/bin/../lib/gcc/riscv-none-elf/12.2.0\libgcc.a(_clz.o)
                              d:/mounriver_studio/toolchain/risc-v embedded gcc12/bin/../lib/gcc/riscv-none-elf/12.2.0\libgcc.a(_divdi3.o) (__clz_tab)
d:/mounriver_studio/toolchain/risc-v embedded gcc12/bin/../lib/gcc/riscv-none-elf/12.2.0\libgcc.a(_clzsi2.o)
                              d:/mounriver_studio/toolchain/risc-v embedded gcc12/bin/../lib/gcc/riscv-none-elf/12.2.0\libgcc.a(adddf3.o) (__clzsi2)
d:/mounriver_studio/toolchain/risc-v embedded gcc12/bin/../lib/gcc/riscv-none-elf/12.2.0/../../../../riscv-none-elf/lib\libg_nano.a(lib_a-errno.o)
                              d:/mounriver_studio/toolchain/risc-v embedded gcc12/bin/../lib/gcc/riscv-none-elf/12.2.0/../../../../riscv-none-elf/lib\libm_nano.a(lib_a-wf_sqrt.o) (__errno)
d:/mounriver_studio/toolchain/risc-v embedded gcc12/bin/../lib/gcc/riscv-none-elf/12.2.0/../../../../riscv-none-elf/lib\libg_nano.a(lib_a-impure.o)
                              d:/mounriver_studio/toolchain/risc-v embedded gcc12/bin/../lib/gcc/riscv-none-elf/12.2.0/../../../../riscv-none-elf/lib\libg_nano.a(lib_a-errno.o) (_impure_ptr)
d:/mounriver_studio/toolchain/risc-v embedded gcc12/bin/../lib/gcc/riscv-none-elf/12.2.0/../../../../riscv-none-elf/lib\libg_nano.a(lib_a-memcpy-asm.o)
                              ./User/ch32v10x_usbfs_device.o (memcpy)
d:/mounriver_studio/toolchain/risc-v embedded gcc12/bin/../lib/gcc/riscv-none-elf/12.2.0/../../../../riscv-none-elf/lib\libg_nano.a(lib_a-memset.o)
                              ./User/conf.o (memset)
d:/mounriver_studio/toolchain/risc-v embedded gcc12/bin/../lib/gcc/riscv-none-elf/12.2.0/../../../../riscv-none-elf/lib\libg_nano.a(lib_a-printf.o)
                              ./User/main.o (printf)
d:/mounriver_studio/toolchain/risc-v embedded gcc12/bin/../lib/gcc/riscv-none-elf/12.2.0/../../../../riscv-none-elf/lib\libg_nano.a(lib_a-puts.o)
                              ./User/main.o (puts)
d:/mounriver_studio/toolchain/risc-v embedded gcc12/bin/../lib/gcc/riscv-none-elf/12.2.0/../../../../riscv-none-elf/lib\libg_nano.a(lib_a-wbuf.o)
                              d:/mounriver_studio/toolchain/risc-v embedded gcc12/bin/../lib/gcc/riscv-none-elf/12.2.0/../../../../riscv-none-elf/lib\libg_nano.a(lib_a-puts.o) (__swbuf_r)
d:/mounriver_studio/toolchain/risc-v embedded gcc12/bin/../lib/gcc/riscv-none-elf/12.2.0/../../../../riscv-none-elf/lib\libg_nano.a(lib_a-wsetup.o)
                              d:/mounriver_studio/toolchain/risc-v embedded gcc12/bin/../lib/gcc/riscv-none-elf/12.2.0/../../../../riscv-none-elf/lib\libg_nano.a(lib_a-puts.o) (__swsetup_r)
d:/mounriver_studio/toolchain/risc-v embedded gcc12/bin/../lib/gcc/riscv-none-elf/12.2.0/../../../../riscv-none-elf/lib\libg_nano.a(lib_a-fflush.o)
                              d:/mounriver_studio/toolchain/risc-v embedded gcc12/bin/../lib/gcc/riscv-none-elf/12.2.0/../../../../riscv-none-elf/lib\libg_nano.a(lib_a-wbuf.o) (_fflush_r)
d:/mounriver_studio/toolchain/risc-v embedded gcc12/bin/../lib/gcc/riscv-none-elf/12.2.0/../../../../riscv-none-elf/lib\libg_nano.a(lib_a-findfp.o)
                              d:/mounriver_studio/toolchain/risc-v embedded gcc12/bin/../lib/gcc/riscv-none-elf/12.2.0/../../../../riscv-none-elf/lib\libg_nano.a(lib_a-printf.o) (__sinit)
d:/mounriver_studio/toolchain/risc-v embedded gcc12/bin/../lib/gcc/riscv-none-elf/12.2.0/../../../../riscv-none-elf/lib\libg_nano.a(lib_a-fwalk.o)
                              d:/mounriver_studio/toolchain/risc-v embedded gcc12/bin/../lib/gcc/riscv-none-elf/12.2.0/../../../../riscv-none-elf/lib\libg_nano.a(lib_a-findfp.o) (_fwalk)
d:/mounriver_studio/toolchain/risc-v embedded gcc12/bin/../lib/gcc/riscv-none-elf/12.2.0/../../../../riscv-none-elf/lib\libg_nano.a(lib_a-lock.o)
                              d:/mounriver_studio/toolchain/risc-v embedded gcc12/bin/../lib/gcc/riscv-none-elf/12.2.0/../../../../riscv-none-elf/lib\libg_nano.a(lib_a-findfp.o) (__retarget_lock_init_recursive)
d:/mounriver_studio/toolchain/risc-v embedded gcc12/bin/../lib/gcc/riscv-none-elf/12.2.0/../../../../riscv-none-elf/lib\libg_nano.a(lib_a-makebuf.o)
                              d:/mounriver_studio/toolchain/risc-v embedded gcc12/bin/../lib/gcc/riscv-none-elf/12.2.0/../../../../riscv-none-elf/lib\libg_nano.a(lib_a-wsetup.o) (__smakebuf_r)
d:/mounriver_studio/toolchain/risc-v embedded gcc12/bin/../lib/gcc/riscv-none-elf/12.2.0/../../../../riscv-none-elf/lib\libg_nano.a(lib_a-nano-freer.o)
                              d:/mounriver_studio/toolchain/risc-v embedded gcc12/bin/../lib/gcc/riscv-none-elf/12.2.0/../../../../riscv-none-elf/lib\libg_nano.a(lib_a-wsetup.o) (_free_r)
d:/mounriver_studio/toolchain/risc-v embedded gcc12/bin/../lib/gcc/riscv-none-elf/12.2.0/../../../../riscv-none-elf/lib\libg_nano.a(lib_a-nano-mallocr.o)
                              d:/mounriver_studio/toolchain/risc-v embedded gcc12/bin/../lib/gcc/riscv-none-elf/12.2.0/../../../../riscv-none-elf/lib\libg_nano.a(lib_a-findfp.o) (_malloc_r)
d:/mounriver_studio/toolchain/risc-v embedded gcc12/bin/../lib/gcc/riscv-none-elf/12.2.0/../../../../riscv-none-elf/lib\libg_nano.a(lib_a-nano-vfprintf.o)
                              d:/mounriver_studio/toolchain/risc-v embedded gcc12/bin/../lib/gcc/riscv-none-elf/12.2.0/../../../../riscv-none-elf/lib\libg_nano.a(lib_a-printf.o) (_vfprintf_r)
d:/mounriver_studio/toolchain/risc-v embedded gcc12/bin/../lib/gcc/riscv-none-elf/12.2.0/../../../../riscv-none-elf/lib\libg_nano.a(lib_a-sbrkr.o)
                              d:/mounriver_studio/toolchain/risc-v embedded gcc12/bin/../lib/gcc/riscv-none-elf/12.2.0/../../../../riscv-none-elf/lib\libg_nano.a(lib_a-nano-mallocr.o) (_sbrk_r)
d:/mounriver_studio/toolchain/risc-v embedded gcc12/bin/../lib/gcc/riscv-none-elf/12.2.0/../../../../riscv-none-elf/lib\libg_nano.a(lib_a-stdio.o)
                              d:/mounriver_studio/toolchain/risc-v embedded gcc12/bin/../lib/gcc/riscv-none-elf/12.2.0/../../../../riscv-none-elf/lib\libg_nano.a(lib_a-findfp.o) (__sread)
d:/mounriver_studio/toolchain/risc-v embedded gcc12/bin/../lib/gcc/riscv-none-elf/12.2.0/../../../../riscv-none-elf/lib\libg_nano.a(lib_a-writer.o)
                              d:/mounriver_studio/toolchain/risc-v embedded gcc12/bin/../lib/gcc/riscv-none-elf/12.2.0/../../../../riscv-none-elf/lib\libg_nano.a(lib_a-stdio.o) (_write_r)
d:/mounriver_studio/toolchain/risc-v embedded gcc12/bin/../lib/gcc/riscv-none-elf/12.2.0/../../../../riscv-none-elf/lib\libg_nano.a(lib_a-closer.o)
                              d:/mounriver_studio/toolchain/risc-v embedded gcc12/bin/../lib/gcc/riscv-none-elf/12.2.0/../../../../riscv-none-elf/lib\libg_nano.a(lib_a-stdio.o) (_close_r)
d:/mounriver_studio/toolchain/risc-v embedded gcc12/bin/../lib/gcc/riscv-none-elf/12.2.0/../../../../riscv-none-elf/lib\libg_nano.a(lib_a-fstatr.o)
                              d:/mounriver_studio/toolchain/risc-v embedded gcc12/bin/../lib/gcc/riscv-none-elf/12.2.0/../../../../riscv-none-elf/lib\libg_nano.a(lib_a-makebuf.o) (_fstat_r)
d:/mounriver_studio/toolchain/risc-v embedded gcc12/bin/../lib/gcc/riscv-none-elf/12.2.0/../../../../riscv-none-elf/lib\libg_nano.a(lib_a-fvwrite.o)
                              d:/mounriver_studio/toolchain/risc-v embedded gcc12/bin/../lib/gcc/riscv-none-elf/12.2.0/../../../../riscv-none-elf/lib\libg_nano.a(lib_a-nano-vfprintf.o) (__sfvwrite_r)
d:/mounriver_studio/toolchain/risc-v embedded gcc12/bin/../lib/gcc/riscv-none-elf/12.2.0/../../../../riscv-none-elf/lib\libg_nano.a(lib_a-isattyr.o)
                              d:/mounriver_studio/toolchain/risc-v embedded gcc12/bin/../lib/gcc/riscv-none-elf/12.2.0/../../../../riscv-none-elf/lib\libg_nano.a(lib_a-makebuf.o) (_isatty_r)
d:/mounriver_studio/toolchain/risc-v embedded gcc12/bin/../lib/gcc/riscv-none-elf/12.2.0/../../../../riscv-none-elf/lib\libg_nano.a(lib_a-lseekr.o)
                              d:/mounriver_studio/toolchain/risc-v embedded gcc12/bin/../lib/gcc/riscv-none-elf/12.2.0/../../../../riscv-none-elf/lib\libg_nano.a(lib_a-stdio.o) (_lseek_r)
d:/mounriver_studio/toolchain/risc-v embedded gcc12/bin/../lib/gcc/riscv-none-elf/12.2.0/../../../../riscv-none-elf/lib\libg_nano.a(lib_a-memchr.o)
                              d:/mounriver_studio/toolchain/risc-v embedded gcc12/bin/../lib/gcc/riscv-none-elf/12.2.0/../../../../riscv-none-elf/lib\libg_nano.a(lib_a-nano-vfprintf.o) (memchr)
d:/mounriver_studio/toolchain/risc-v embedded gcc12/bin/../lib/gcc/riscv-none-elf/12.2.0/../../../../riscv-none-elf/lib\libg_nano.a(lib_a-memmove.o)
                              d:/mounriver_studio/toolchain/risc-v embedded gcc12/bin/../lib/gcc/riscv-none-elf/12.2.0/../../../../riscv-none-elf/lib\libg_nano.a(lib_a-fvwrite.o) (memmove)
d:/mounriver_studio/toolchain/risc-v embedded gcc12/bin/../lib/gcc/riscv-none-elf/12.2.0/../../../../riscv-none-elf/lib\libg_nano.a(lib_a-mlock.o)
                              d:/mounriver_studio/toolchain/risc-v embedded gcc12/bin/../lib/gcc/riscv-none-elf/12.2.0/../../../../riscv-none-elf/lib\libg_nano.a(lib_a-nano-freer.o) (__malloc_lock)
d:/mounriver_studio/toolchain/risc-v embedded gcc12/bin/../lib/gcc/riscv-none-elf/12.2.0/../../../../riscv-none-elf/lib\libg_nano.a(lib_a-nano-reallocr.o)
                              d:/mounriver_studio/toolchain/risc-v embedded gcc12/bin/../lib/gcc/riscv-none-elf/12.2.0/../../../../riscv-none-elf/lib\libg_nano.a(lib_a-fvwrite.o) (_realloc_r)
d:/mounriver_studio/toolchain/risc-v embedded gcc12/bin/../lib/gcc/riscv-none-elf/12.2.0/../../../../riscv-none-elf/lib\libg_nano.a(lib_a-nano-vfprintf_i.o)
                              d:/mounriver_studio/toolchain/risc-v embedded gcc12/bin/../lib/gcc/riscv-none-elf/12.2.0/../../../../riscv-none-elf/lib\libg_nano.a(lib_a-nano-vfprintf.o) (_printf_i)
d:/mounriver_studio/toolchain/risc-v embedded gcc12/bin/../lib/gcc/riscv-none-elf/12.2.0/../../../../riscv-none-elf/lib\libg_nano.a(lib_a-readr.o)
                              d:/mounriver_studio/toolchain/risc-v embedded gcc12/bin/../lib/gcc/riscv-none-elf/12.2.0/../../../../riscv-none-elf/lib\libg_nano.a(lib_a-stdio.o) (_read_r)
d:/mounriver_studio/toolchain/risc-v embedded gcc12/bin/../lib/gcc/riscv-none-elf/12.2.0/../../../../riscv-none-elf/lib\libg_nano.a(lib_a-reent.o)
                              d:/mounriver_studio/toolchain/risc-v embedded gcc12/bin/../lib/gcc/riscv-none-elf/12.2.0/../../../../riscv-none-elf/lib\libg_nano.a(lib_a-sbrkr.o) (errno)
d:/mounriver_studio/toolchain/risc-v embedded gcc12/bin/../lib/gcc/riscv-none-elf/12.2.0/../../../../riscv-none-elf/lib\libg_nano.a(lib_a-nano-msizer.o)
                              d:/mounriver_studio/toolchain/risc-v embedded gcc12/bin/../lib/gcc/riscv-none-elf/12.2.0/../../../../riscv-none-elf/lib\libg_nano.a(lib_a-nano-reallocr.o) (_malloc_usable_size_r)
d:/mounriver_studio/toolchain/risc-v embedded gcc12/bin/../lib/gcc/riscv-none-elf/12.2.0/../../../../riscv-none-elf/lib\libnosys.a(close.o)
                              d:/mounriver_studio/toolchain/risc-v embedded gcc12/bin/../lib/gcc/riscv-none-elf/12.2.0/../../../../riscv-none-elf/lib\libg_nano.a(lib_a-closer.o) (_close)
d:/mounriver_studio/toolchain/risc-v embedded gcc12/bin/../lib/gcc/riscv-none-elf/12.2.0/../../../../riscv-none-elf/lib\libnosys.a(fstat.o)
                              d:/mounriver_studio/toolchain/risc-v embedded gcc12/bin/../lib/gcc/riscv-none-elf/12.2.0/../../../../riscv-none-elf/lib\libg_nano.a(lib_a-fstatr.o) (_fstat)
d:/mounriver_studio/toolchain/risc-v embedded gcc12/bin/../lib/gcc/riscv-none-elf/12.2.0/../../../../riscv-none-elf/lib\libnosys.a(isatty.o)
                              d:/mounriver_studio/toolchain/risc-v embedded gcc12/bin/../lib/gcc/riscv-none-elf/12.2.0/../../../../riscv-none-elf/lib\libg_nano.a(lib_a-isattyr.o) (_isatty)
d:/mounriver_studio/toolchain/risc-v embedded gcc12/bin/../lib/gcc/riscv-none-elf/12.2.0/../../../../riscv-none-elf/lib\libnosys.a(lseek.o)
                              d:/mounriver_studio/toolchain/risc-v embedded gcc12/bin/../lib/gcc/riscv-none-elf/12.2.0/../../../../riscv-none-elf/lib\libg_nano.a(lib_a-lseekr.o) (_lseek)
d:/mounriver_studio/toolchain/risc-v embedded gcc12/bin/../lib/gcc/riscv-none-elf/12.2.0/../../../../riscv-none-elf/lib\libnosys.a(read.o)
                              d:/mounriver_studio/toolchain/risc-v embedded gcc12/bin/../lib/gcc/riscv-none-elf/12.2.0/../../../../riscv-none-elf/lib\libg_nano.a(lib_a-readr.o) (_read)

Discarded input sections

 .text          0x0000000000000000        0x0 ./User/ch32v10x_it.o
 .data          0x0000000000000000        0x0 ./User/ch32v10x_it.o
 .bss           0x0000000000000000        0x0 ./User/ch32v10x_it.o
 .sbss.EXC_PC   0x0000000000000000        0x4 ./User/ch32v10x_it.o
 .sbss.EXC_CAUSE
                0x0000000000000000        0x4 ./User/ch32v10x_it.o
 .text          0x0000000000000000        0x0 ./User/ch32v10x_usbfs_device.o
 .data          0x0000000000000000        0x0 ./User/ch32v10x_usbfs_device.o
 .bss           0x0000000000000000        0x0 ./User/ch32v10x_usbfs_device.o
 .text.USBFS_Endp_DataUp
                0x0000000000000000      0x14a ./User/ch32v10x_usbfs_device.o
 .text.USBFS_Send_Resume
                0x0000000000000000       0x36 ./User/ch32v10x_usbfs_device.o
 .text          0x0000000000000000        0x0 ./User/conf.o
 .data          0x0000000000000000        0x0 ./User/conf.o
 .bss           0x0000000000000000        0x0 ./User/conf.o
 .text          0x0000000000000000        0x0 ./User/flash.o
 .data          0x0000000000000000        0x0 ./User/flash.o
 .bss           0x0000000000000000        0x0 ./User/flash.o
 .bss.buf       0x0000000000000000      0x200 ./User/flash.o
 .sdata.MemoryEraseStatus
                0x0000000000000000        0x4 ./User/flash.o
 .sdata.MemoryProgramStatus
                0x0000000000000000        0x4 ./User/flash.o
 .sdata.FLASHStatus
                0x0000000000000000        0x4 ./User/flash.o
 .sbss.NbrOfPage
                0x0000000000000000        0x4 ./User/flash.o
 .sbss.ProtectedPages
                0x0000000000000000        0x4 ./User/flash.o
 .sdata.WRPR_Value
                0x0000000000000000        0x4 ./User/flash.o
 .sdata.Data    0x0000000000000000        0x2 ./User/flash.o
 .sbss.Address  0x0000000000000000        0x4 ./User/flash.o
 .sbss.EraseCounter
                0x0000000000000000        0x4 ./User/flash.o
 .text          0x0000000000000000        0x0 ./User/global_api.o
 .data          0x0000000000000000        0x0 ./User/global_api.o
 .bss           0x0000000000000000        0x0 ./User/global_api.o
 .text.u8_max   0x0000000000000000        0xe ./User/global_api.o
 .text.u8_min   0x0000000000000000        0xe ./User/global_api.o
 .text.i32_max  0x0000000000000000        0xc ./User/global_api.o
 .text.u32_max  0x0000000000000000        0xc ./User/global_api.o
 .text.u32_min  0x0000000000000000        0xc ./User/global_api.o
 .text.fetch_uint16
                0x0000000000000000       0x1a ./User/global_api.o
 .text.trigger_hardfault
                0x0000000000000000        0x6 ./User/global_api.o
 .text          0x0000000000000000        0x0 ./User/gpio_adc.o
 .data          0x0000000000000000        0x0 ./User/gpio_adc.o
 .bss           0x0000000000000000        0x0 ./User/gpio_adc.o
 .text.Get_ADC_Val
                0x0000000000000000       0x52 ./User/gpio_adc.o
 .text          0x0000000000000000        0x0 ./User/gpio_digit.o
 .data          0x0000000000000000        0x0 ./User/gpio_digit.o
 .bss           0x0000000000000000        0x0 ./User/gpio_digit.o
 .data._gpio_mask_to_group
                0x0000000000000000       0x20 ./User/gpio_digit.o
 .text          0x0000000000000000        0x0 ./User/hd_rumble.o
 .data          0x0000000000000000        0x0 ./User/hd_rumble.o
 .bss           0x0000000000000000        0x0 ./User/hd_rumble.o
 .bss.rumble_rb
                0x0000000000000000       0x14 ./User/hd_rumble.o
 .text          0x0000000000000000        0x0 ./User/hd_rumble2.o
 .data          0x0000000000000000        0x0 ./User/hd_rumble2.o
 .bss           0x0000000000000000        0x0 ./User/hd_rumble2.o
 .text          0x0000000000000000        0x0 ./User/hd_rumble_high_accuracy.o
 .data          0x0000000000000000        0x0 ./User/hd_rumble_high_accuracy.o
 .bss           0x0000000000000000        0x0 ./User/hd_rumble_high_accuracy.o
 .text.ck_if_not_enough
                0x0000000000000000       0x1c ./User/hd_rumble_high_accuracy.o
 .text          0x0000000000000000        0x0 ./User/hd_rumble_high_accurary_packed.o
 .data          0x0000000000000000        0x0 ./User/hd_rumble_high_accurary_packed.o
 .bss           0x0000000000000000        0x0 ./User/hd_rumble_high_accurary_packed.o
 .debug_line    0x0000000000000000        0x0 ./User/hd_rumble_high_accurary_packed.o
 .debug_str     0x0000000000000000       0xc2 ./User/hd_rumble_high_accurary_packed.o
 .debug_line_str
                0x0000000000000000       0x45 ./User/hd_rumble_high_accurary_packed.o
 .comment       0x0000000000000000       0x32 ./User/hd_rumble_high_accurary_packed.o
 .riscv.attributes
                0x0000000000000000       0x34 ./User/hd_rumble_high_accurary_packed.o
 .text          0x0000000000000000        0x0 ./User/i2c.o
 .data          0x0000000000000000        0x0 ./User/i2c.o
 .bss           0x0000000000000000        0x0 ./User/i2c.o
 .text.i2c2_check_error
                0x0000000000000000       0x3a ./User/i2c.o
 .text.i2c_enable_error_interupt
                0x0000000000000000       0x4c ./User/i2c.o
 .text.i2c_hardware_recovery
                0x0000000000000000       0x40 ./User/i2c.o
 .text          0x0000000000000000        0x0 ./User/imu.o
 .data          0x0000000000000000        0x0 ./User/imu.o
 .bss           0x0000000000000000        0x0 ./User/imu.o
 .text.imu_set_acc_bandwidth
                0x0000000000000000       0x2e ./User/imu.o
 .sbss.test_cnt
                0x0000000000000000        0x2 ./User/imu.o
 .text          0x0000000000000000        0x0 ./User/imu_quaternion.o
 .data          0x0000000000000000        0x0 ./User/imu_quaternion.o
 .bss           0x0000000000000000        0x0 ./User/imu_quaternion.o
 .text          0x0000000000000000        0x0 ./User/main.o
 .data          0x0000000000000000        0x0 ./User/main.o
 .bss           0x0000000000000000        0x0 ./User/main.o
 .text.Var_Init
                0x0000000000000000        0x2 ./User/main.o
 .text.button_read
                0x0000000000000000       0x16 ./User/main.o
 .text.get_ljs_range_on_axis
                0x0000000000000000        0x6 ./User/main.o
 .text.imu_read_test
                0x0000000000000000       0x56 ./User/main.o
 .text.routine_service_init
                0x0000000000000000        0x8 ./User/main.o
 .sbss.id.10    0x0000000000000000        0x1 ./User/main.o
 .sbss.last_tick.11
                0x0000000000000000        0x4 ./User/main.o
 .text          0x0000000000000000        0x0 ./User/ns_com.o
 .data          0x0000000000000000        0x0 ./User/ns_com.o
 .bss           0x0000000000000000        0x0 ./User/ns_com.o
 .text._ns_subcommand_set_ack
                0x0000000000000000       0x12 ./User/ns_com.o
 .text.ns_register_subcommand_cb
                0x0000000000000000       0x18 ./User/ns_com.o
 .rodata.pro_controller_string
                0x0000000000000000       0x18 ./User/ns_com.o
 .sbss.tp_timer
                0x0000000000000000        0x4 ./User/ns_com.o
 .sbss.max_packet_gap
                0x0000000000000000        0x4 ./User/ns_com.o
 .sbss.last_packet_send
                0x0000000000000000        0x4 ./User/ns_com.o
 .sbss.average_packet_gap
                0x0000000000000000        0x4 ./User/ns_com.o
 .sbss.global_packet_timer
                0x0000000000000000        0x1 ./User/ns_com.o
 .sbss.auto_con
                0x0000000000000000        0x1 ./User/ns_com.o
 .sbss.is_paired
                0x0000000000000000        0x1 ./User/ns_com.o
 .sbss.is_connected
                0x0000000000000000        0x1 ./User/ns_com.o
 .sbss.report_mode
                0x0000000000000000        0x4 ./User/ns_com.o
 .text          0x0000000000000000        0x0 ./User/ns_com_mux.o
 .data          0x0000000000000000        0x0 ./User/ns_com_mux.o
 .bss           0x0000000000000000        0x0 ./User/ns_com_mux.o
 .text.fw_subcommand_write_setting
                0x0000000000000000        0x8 ./User/ns_com_mux.o
 .text.fw_subcommand_calibrate_js_center
                0x0000000000000000        0x2 ./User/ns_com_mux.o
 .text.ns_hid_register_packet_dispatch
                0x0000000000000000       0x18 ./User/ns_com_mux.o
 .sdata.bd_addr_default
                0x0000000000000000        0x6 ./User/ns_com_mux.o
 .sbss.is_esp32_enabled
                0x0000000000000000        0x1 ./User/ns_com_mux.o
 .bss.ns_hid_packet_dispatch_tb
                0x0000000000000000      0x400 ./User/ns_com_mux.o
 .text          0x0000000000000000        0x0 ./User/pwr.o
 .data          0x0000000000000000        0x0 ./User/pwr.o
 .bss           0x0000000000000000        0x0 ./User/pwr.o
 .sdata.PWR_CSR
                0x0000000000000000        0x4 ./User/pwr.o
 .sdata.PFIC_SCTLR
                0x0000000000000000        0x4 ./User/pwr.o
 .data.deep_sleep_exti_gpio
                0x0000000000000000       0x14 ./User/pwr.o
 .text          0x0000000000000000        0x0 ./User/ring_buffer.o
 .data          0x0000000000000000        0x0 ./User/ring_buffer.o
 .bss           0x0000000000000000        0x0 ./User/ring_buffer.o
 .text          0x0000000000000000        0x0 ./User/spi.o
 .data          0x0000000000000000        0x0 ./User/spi.o
 .bss           0x0000000000000000        0x0 ./User/spi.o
 .text.update_rgb
                0x0000000000000000        0x8 ./User/spi.o
 .text          0x0000000000000000        0x0 ./User/system_ch32v10x.o
 .data          0x0000000000000000        0x0 ./User/system_ch32v10x.o
 .bss           0x0000000000000000        0x0 ./User/system_ch32v10x.o
 .text          0x0000000000000000        0x0 ./User/tick.o
 .data          0x0000000000000000        0x0 ./User/tick.o
 .bss           0x0000000000000000        0x0 ./User/tick.o
 .text.Get_Systick_US64
                0x0000000000000000       0x26 ./User/tick.o
 .text._set_systick_cmp
                0x0000000000000000       0x52 ./User/tick.o
 .text._reset_systick_cnt
                0x0000000000000000       0x26 ./User/tick.o
 .text.HighPrecisionTimerCmd
                0x0000000000000000        0x8 ./User/tick.o
 .text.HighPrecisionTimerStart
                0x0000000000000000       0x24 ./User/tick.o
 .text.HighPrecisionTimerCnt
                0x0000000000000000        0xa ./User/tick.o
 .text.HighPrecisionTimerUs
                0x0000000000000000       0x2a ./User/tick.o
 .text.HighPrecisionTimerDelayUs
                0x0000000000000000       0x34 ./User/tick.o
 .text.wait_nonblocking_ms
                0x0000000000000000       0x48 ./User/tick.o
 .sbss.Systick_Inited
                0x0000000000000000        0x1 ./User/tick.o
 .text          0x0000000000000000        0x0 ./User/uart.o
 .data          0x0000000000000000        0x0 ./User/uart.o
 .bss           0x0000000000000000        0x0 ./User/uart.o
 .text.decode_uart_pkt
                0x0000000000000000        0xc ./User/uart.o
 .text          0x0000000000000000        0x0 ./User/uart_com.o
 .data          0x0000000000000000        0x0 ./User/uart_com.o
 .bss           0x0000000000000000        0x0 ./User/uart_com.o
 .text.uart_update_config
                0x0000000000000000       0x6a ./User/uart_com.o
 .text.reliable_uart_send
                0x0000000000000000       0x94 ./User/uart_com.o
 .text.reliable_uart_send_acc
                0x0000000000000000        0xc ./User/uart_com.o
 .text.reliable_uart_default_handler
                0x0000000000000000        0x2 ./User/uart_com.o
 .text          0x0000000000000000        0x0 ./User/usb_desc.o
 .data          0x0000000000000000        0x0 ./User/usb_desc.o
 .bss           0x0000000000000000        0x0 ./User/usb_desc.o
 .text          0x0000000000000000        0x0 ./User/usbd_compatibility_hid.o
 .data          0x0000000000000000        0x0 ./User/usbd_compatibility_hid.o
 .bss           0x0000000000000000        0x0 ./User/usbd_compatibility_hid.o
 .text.update_peripheral_data
                0x0000000000000000       0x16 ./User/usbd_compatibility_hid.o
 .text.HID_Set_Report_Deal
                0x0000000000000000       0x24 ./User/usbd_compatibility_hid.o
 .sdata.empty_report
                0x0000000000000000        0x2 ./User/usbd_compatibility_hid.o
 .text          0x0000000000000000        0x0 ./Startup/startup_ch32v10x.o
 .data          0x0000000000000000        0x0 ./Startup/startup_ch32v10x.o
 .bss           0x0000000000000000        0x0 ./Startup/startup_ch32v10x.o
 .text          0x0000000000000000        0x0 ./Peripheral/src/ch32v10x_adc.o
 .data          0x0000000000000000        0x0 ./Peripheral/src/ch32v10x_adc.o
 .bss           0x0000000000000000        0x0 ./Peripheral/src/ch32v10x_adc.o
 .text.ADC_StructInit
                0x0000000000000000       0x1c ./Peripheral/src/ch32v10x_adc.o
 .text.ADC_ITConfig
                0x0000000000000000       0x18 ./Peripheral/src/ch32v10x_adc.o
 .text.ADC_GetSoftwareStartConvStatus
                0x0000000000000000        0x8 ./Peripheral/src/ch32v10x_adc.o
 .text.ADC_DiscModeChannelCountConfig
                0x0000000000000000       0x12 ./Peripheral/src/ch32v10x_adc.o
 .text.ADC_DiscModeCmd
                0x0000000000000000       0x1a ./Peripheral/src/ch32v10x_adc.o
 .text.ADC_ExternalTrigConvCmd
                0x0000000000000000       0x18 ./Peripheral/src/ch32v10x_adc.o
 .text.ADC_GetConversionValue
                0x0000000000000000        0x8 ./Peripheral/src/ch32v10x_adc.o
 .text.ADC_GetDualModeConversionValue
                0x0000000000000000        0xa ./Peripheral/src/ch32v10x_adc.o
 .text.ADC_AutoInjectedConvCmd
                0x0000000000000000       0x12 ./Peripheral/src/ch32v10x_adc.o
 .text.ADC_InjectedDiscModeCmd
                0x0000000000000000       0x14 ./Peripheral/src/ch32v10x_adc.o
 .text.ADC_ExternalTrigInjectedConvConfig
                0x0000000000000000        0xe ./Peripheral/src/ch32v10x_adc.o
 .text.ADC_ExternalTrigInjectedConvCmd
                0x0000000000000000       0x14 ./Peripheral/src/ch32v10x_adc.o
 .text.ADC_SoftwareStartInjectedConvCmd
                0x0000000000000000       0x18 ./Peripheral/src/ch32v10x_adc.o
 .text.ADC_GetSoftwareStartInjectedConvCmdStatus
                0x0000000000000000        0x8 ./Peripheral/src/ch32v10x_adc.o
 .text.ADC_InjectedChannelConfig
                0x0000000000000000       0x7a ./Peripheral/src/ch32v10x_adc.o
 .text.ADC_InjectedSequencerLengthConfig
                0x0000000000000000       0x14 ./Peripheral/src/ch32v10x_adc.o
 .text.ADC_SetInjectedOffset
                0x0000000000000000       0x14 ./Peripheral/src/ch32v10x_adc.o
 .text.ADC_GetInjectedConversionValue
                0x0000000000000000       0x1c ./Peripheral/src/ch32v10x_adc.o
 .text.ADC_AnalogWatchdogCmd
                0x0000000000000000       0x12 ./Peripheral/src/ch32v10x_adc.o
 .text.ADC_AnalogWatchdogThresholdsConfig
                0x0000000000000000        0x6 ./Peripheral/src/ch32v10x_adc.o
 .text.ADC_AnalogWatchdogSingleChannelConfig
                0x0000000000000000        0xa ./Peripheral/src/ch32v10x_adc.o
 .text.ADC_TempSensorVrefintCmd
                0x0000000000000000       0x20 ./Peripheral/src/ch32v10x_adc.o
 .text.ADC_GetFlagStatus
                0x0000000000000000        0xc ./Peripheral/src/ch32v10x_adc.o
 .text.ADC_ClearFlag
                0x0000000000000000        0x8 ./Peripheral/src/ch32v10x_adc.o
 .text.ADC_GetITStatus
                0x0000000000000000       0x18 ./Peripheral/src/ch32v10x_adc.o
 .text.ADC_ClearITPendingBit
                0x0000000000000000        0xa ./Peripheral/src/ch32v10x_adc.o
 .text.TempSensor_Volt_To_Temper
                0x0000000000000000       0x2a ./Peripheral/src/ch32v10x_adc.o
 .text          0x0000000000000000        0x0 ./Peripheral/src/ch32v10x_bkp.o
 .data          0x0000000000000000        0x0 ./Peripheral/src/ch32v10x_bkp.o
 .bss           0x0000000000000000        0x0 ./Peripheral/src/ch32v10x_bkp.o
 .text.BKP_DeInit
                0x0000000000000000       0x24 ./Peripheral/src/ch32v10x_bkp.o
 .text.BKP_TamperPinLevelConfig
                0x0000000000000000       0x24 ./Peripheral/src/ch32v10x_bkp.o
 .text.BKP_TamperPinCmd
                0x0000000000000000       0x24 ./Peripheral/src/ch32v10x_bkp.o
 .text.BKP_ITConfig
                0x0000000000000000       0x24 ./Peripheral/src/ch32v10x_bkp.o
 .text.BKP_RTCOutputConfig
                0x0000000000000000       0x18 ./Peripheral/src/ch32v10x_bkp.o
 .text.BKP_SetRTCCalibrationValue
                0x0000000000000000       0x18 ./Peripheral/src/ch32v10x_bkp.o
 .text.BKP_WriteBackupRegister
                0x0000000000000000       0x1c ./Peripheral/src/ch32v10x_bkp.o
 .text.BKP_ReadBackupRegister
                0x0000000000000000       0x1e ./Peripheral/src/ch32v10x_bkp.o
 .text.BKP_GetFlagStatus
                0x0000000000000000        0xe ./Peripheral/src/ch32v10x_bkp.o
 .text.BKP_ClearFlag
                0x0000000000000000       0x12 ./Peripheral/src/ch32v10x_bkp.o
 .text.BKP_GetITStatus
                0x0000000000000000        0xe ./Peripheral/src/ch32v10x_bkp.o
 .text.BKP_ClearITPendingBit
                0x0000000000000000       0x12 ./Peripheral/src/ch32v10x_bkp.o
 .debug_info    0x0000000000000000      0x6f5 ./Peripheral/src/ch32v10x_bkp.o
 .debug_abbrev  0x0000000000000000      0x1aa ./Peripheral/src/ch32v10x_bkp.o
 .debug_loclists
                0x0000000000000000       0x95 ./Peripheral/src/ch32v10x_bkp.o
 .debug_aranges
                0x0000000000000000       0x78 ./Peripheral/src/ch32v10x_bkp.o
 .debug_rnglists
                0x0000000000000000       0x79 ./Peripheral/src/ch32v10x_bkp.o
 .debug_line    0x0000000000000000      0x451 ./Peripheral/src/ch32v10x_bkp.o
 .debug_str     0x0000000000000000      0x661 ./Peripheral/src/ch32v10x_bkp.o
 .debug_line_str
                0x0000000000000000      0x1b1 ./Peripheral/src/ch32v10x_bkp.o
 .comment       0x0000000000000000       0x32 ./Peripheral/src/ch32v10x_bkp.o
 .debug_frame   0x0000000000000000       0xec ./Peripheral/src/ch32v10x_bkp.o
 .riscv.attributes
                0x0000000000000000       0x34 ./Peripheral/src/ch32v10x_bkp.o
 .text          0x0000000000000000        0x0 ./Peripheral/src/ch32v10x_crc.o
 .data          0x0000000000000000        0x0 ./Peripheral/src/ch32v10x_crc.o
 .bss           0x0000000000000000        0x0 ./Peripheral/src/ch32v10x_crc.o
 .text.CRC_ResetDR
                0x0000000000000000        0xa ./Peripheral/src/ch32v10x_crc.o
 .text.CRC_CalcCRC
                0x0000000000000000        0xa ./Peripheral/src/ch32v10x_crc.o
 .text.CRC_CalcBlockCRC
                0x0000000000000000       0x20 ./Peripheral/src/ch32v10x_crc.o
 .text.CRC_GetCRC
                0x0000000000000000        0x8 ./Peripheral/src/ch32v10x_crc.o
 .text.CRC_SetIDRegister
                0x0000000000000000        0xa ./Peripheral/src/ch32v10x_crc.o
 .text.CRC_GetIDRegister
                0x0000000000000000        0xa ./Peripheral/src/ch32v10x_crc.o
 .debug_info    0x0000000000000000      0x1e6 ./Peripheral/src/ch32v10x_crc.o
 .debug_abbrev  0x0000000000000000      0x10f ./Peripheral/src/ch32v10x_crc.o
 .debug_loclists
                0x0000000000000000       0x84 ./Peripheral/src/ch32v10x_crc.o
 .debug_aranges
                0x0000000000000000       0x48 ./Peripheral/src/ch32v10x_crc.o
 .debug_rnglists
                0x0000000000000000       0x43 ./Peripheral/src/ch32v10x_crc.o
 .debug_line    0x0000000000000000      0x1d7 ./Peripheral/src/ch32v10x_crc.o
 .debug_str     0x0000000000000000      0x237 ./Peripheral/src/ch32v10x_crc.o
 .debug_line_str
                0x0000000000000000      0x178 ./Peripheral/src/ch32v10x_crc.o
 .comment       0x0000000000000000       0x32 ./Peripheral/src/ch32v10x_crc.o
 .debug_frame   0x0000000000000000       0x70 ./Peripheral/src/ch32v10x_crc.o
 .riscv.attributes
                0x0000000000000000       0x34 ./Peripheral/src/ch32v10x_crc.o
 .text          0x0000000000000000        0x0 ./Peripheral/src/ch32v10x_dbgmcu.o
 .data          0x0000000000000000        0x0 ./Peripheral/src/ch32v10x_dbgmcu.o
 .bss           0x0000000000000000        0x0 ./Peripheral/src/ch32v10x_dbgmcu.o
 .text.DBGMCU_GetREVID
                0x0000000000000000        0xa ./Peripheral/src/ch32v10x_dbgmcu.o
 .text.DBGMCU_GetDEVID
                0x0000000000000000        0xa ./Peripheral/src/ch32v10x_dbgmcu.o
 .text.DBGMCU_Config
                0x0000000000000000       0x4c ./Peripheral/src/ch32v10x_dbgmcu.o
 .text.DBGMCU_GetCHIPID
                0x0000000000000000        0xa ./Peripheral/src/ch32v10x_dbgmcu.o
 .debug_info    0x0000000000000000      0x15b ./Peripheral/src/ch32v10x_dbgmcu.o
 .debug_abbrev  0x0000000000000000       0xf6 ./Peripheral/src/ch32v10x_dbgmcu.o
 .debug_loclists
                0x0000000000000000       0x5b ./Peripheral/src/ch32v10x_dbgmcu.o
 .debug_aranges
                0x0000000000000000       0x38 ./Peripheral/src/ch32v10x_dbgmcu.o
 .debug_rnglists
                0x0000000000000000       0x31 ./Peripheral/src/ch32v10x_dbgmcu.o
 .debug_line    0x0000000000000000      0x1a3 ./Peripheral/src/ch32v10x_dbgmcu.o
 .debug_str     0x0000000000000000      0x1ef ./Peripheral/src/ch32v10x_dbgmcu.o
 .debug_line_str
                0x0000000000000000      0x1ab ./Peripheral/src/ch32v10x_dbgmcu.o
 .comment       0x0000000000000000       0x32 ./Peripheral/src/ch32v10x_dbgmcu.o
 .debug_frame   0x0000000000000000       0x50 ./Peripheral/src/ch32v10x_dbgmcu.o
 .riscv.attributes
                0x0000000000000000       0x34 ./Peripheral/src/ch32v10x_dbgmcu.o
 .text          0x0000000000000000        0x0 ./Peripheral/src/ch32v10x_dma.o
 .data          0x0000000000000000        0x0 ./Peripheral/src/ch32v10x_dma.o
 .bss           0x0000000000000000        0x0 ./Peripheral/src/ch32v10x_dma.o
 .text.DMA_StructInit
                0x0000000000000000       0x2e ./Peripheral/src/ch32v10x_dma.o
 .text.DMA_ITConfig
                0x0000000000000000       0x14 ./Peripheral/src/ch32v10x_dma.o
 .text.DMA_SetCurrDataCounter
                0x0000000000000000        0x4 ./Peripheral/src/ch32v10x_dma.o
 .text          0x0000000000000000        0x0 ./Peripheral/src/ch32v10x_exti.o
 .data          0x0000000000000000        0x0 ./Peripheral/src/ch32v10x_exti.o
 .bss           0x0000000000000000        0x0 ./Peripheral/src/ch32v10x_exti.o
 .text.EXTI_DeInit
                0x0000000000000000       0x22 ./Peripheral/src/ch32v10x_exti.o
 .text.EXTI_StructInit
                0x0000000000000000       0x12 ./Peripheral/src/ch32v10x_exti.o
 .text.EXTI_GenerateSWInterrupt
                0x0000000000000000       0x10 ./Peripheral/src/ch32v10x_exti.o
 .text.EXTI_GetFlagStatus
                0x0000000000000000       0x12 ./Peripheral/src/ch32v10x_exti.o
 .text.EXTI_ClearFlag
                0x0000000000000000        0xc ./Peripheral/src/ch32v10x_exti.o
 .text.EXTI_GetITStatus
                0x0000000000000000       0x1a ./Peripheral/src/ch32v10x_exti.o
 .text.EXTI_ClearITPendingBit
                0x0000000000000000        0xc ./Peripheral/src/ch32v10x_exti.o
 .text          0x0000000000000000        0x0 ./Peripheral/src/ch32v10x_flash.o
 .data          0x0000000000000000        0x0 ./Peripheral/src/ch32v10x_flash.o
 .bss           0x0000000000000000        0x0 ./Peripheral/src/ch32v10x_flash.o
 .text.FLASH_SetLatency
                0x0000000000000000       0x10 ./Peripheral/src/ch32v10x_flash.o
 .text.FLASH_HalfCycleAccessCmd
                0x0000000000000000       0x12 ./Peripheral/src/ch32v10x_flash.o
 .text.FLASH_PrefetchBufferCmd
                0x0000000000000000       0x12 ./Peripheral/src/ch32v10x_flash.o
 .text.FLASH_Unlock
                0x0000000000000000       0x1a ./Peripheral/src/ch32v10x_flash.o
 .text.FLASH_UnlockBank1
                0x0000000000000000        0x8 ./Peripheral/src/ch32v10x_flash.o
 .text.FLASH_Lock
                0x0000000000000000        0xe ./Peripheral/src/ch32v10x_flash.o
 .text.FLASH_LockBank1
                0x0000000000000000        0x8 ./Peripheral/src/ch32v10x_flash.o
 .text.FLASH_GetUserOptionByte
                0x0000000000000000        0xa ./Peripheral/src/ch32v10x_flash.o
 .text.FLASH_GetWriteProtectionOptionByte
                0x0000000000000000        0x8 ./Peripheral/src/ch32v10x_flash.o
 .text.FLASH_GetReadOutProtectionStatus
                0x0000000000000000        0xc ./Peripheral/src/ch32v10x_flash.o
 .text.FLASH_GetPrefetchBufferStatus
                0x0000000000000000        0xc ./Peripheral/src/ch32v10x_flash.o
 .text.FLASH_ITConfig
                0x0000000000000000       0x1e ./Peripheral/src/ch32v10x_flash.o
 .text.FLASH_GetFlagStatus
                0x0000000000000000       0x1e ./Peripheral/src/ch32v10x_flash.o
 .text.FLASH_ClearFlag
                0x0000000000000000        0x8 ./Peripheral/src/ch32v10x_flash.o
 .text.FLASH_GetStatus
                0x0000000000000000       0x1e ./Peripheral/src/ch32v10x_flash.o
 .text.FLASH_GetBank1Status
                0x0000000000000000       0x1e ./Peripheral/src/ch32v10x_flash.o
 .text.FLASH_WaitForLastOperation
                0x0000000000000000       0x34 ./Peripheral/src/ch32v10x_flash.o
 .text.FLASH_ErasePage
                0x0000000000000000       0x5a ./Peripheral/src/ch32v10x_flash.o
 .text.FLASH_EraseAllPages
                0x0000000000000000       0x48 ./Peripheral/src/ch32v10x_flash.o
 .text.FLASH_EraseAllBank1Pages
                0x0000000000000000        0x8 ./Peripheral/src/ch32v10x_flash.o
 .text.FLASH_EraseOptionBytes
                0x0000000000000000       0x9c ./Peripheral/src/ch32v10x_flash.o
 .text.FLASH_ProgramWord
                0x0000000000000000       0x7c ./Peripheral/src/ch32v10x_flash.o
 .text.FLASH_ProgramHalfWord
                0x0000000000000000       0x52 ./Peripheral/src/ch32v10x_flash.o
 .text.FLASH_ProgramOptionByteData
                0x0000000000000000       0x6c ./Peripheral/src/ch32v10x_flash.o
 .text.FLASH_EnableWriteProtection
                0x0000000000000000       0xee ./Peripheral/src/ch32v10x_flash.o
 .text.FLASH_ReadOutProtection
                0x0000000000000000       0xb0 ./Peripheral/src/ch32v10x_flash.o
 .text.FLASH_UserOptionByteConfig
                0x0000000000000000       0x70 ./Peripheral/src/ch32v10x_flash.o
 .text.FLASH_WaitForLastBank1Operation
                0x0000000000000000        0x8 ./Peripheral/src/ch32v10x_flash.o
 .text.FLASH_Unlock_Fast
                0x0000000000000000       0x1e ./Peripheral/src/ch32v10x_flash.o
 .text.FLASH_Lock_Fast
                0x0000000000000000        0xe ./Peripheral/src/ch32v10x_flash.o
 .text.FLASH_BufReset
                0x0000000000000000       0x28 ./Peripheral/src/ch32v10x_flash.o
 .text.FLASH_BufLoad
                0x0000000000000000       0x4a ./Peripheral/src/ch32v10x_flash.o
 .text.FLASH_ErasePage_Fast
                0x0000000000000000       0x40 ./Peripheral/src/ch32v10x_flash.o
 .text.FLASH_ProgramPage_Fast
                0x0000000000000000       0x3c ./Peripheral/src/ch32v10x_flash.o
 .text          0x0000000000000000        0x0 ./Peripheral/src/ch32v10x_gpio.o
 .data          0x0000000000000000        0x0 ./Peripheral/src/ch32v10x_gpio.o
 .bss           0x0000000000000000        0x0 ./Peripheral/src/ch32v10x_gpio.o
 .text.GPIO_DeInit
                0x0000000000000000       0xdc ./Peripheral/src/ch32v10x_gpio.o
 .text.GPIO_AFIODeInit
                0x0000000000000000       0x28 ./Peripheral/src/ch32v10x_gpio.o
 .text.GPIO_StructInit
                0x0000000000000000       0x10 ./Peripheral/src/ch32v10x_gpio.o
 .text.GPIO_ReadInputData
                0x0000000000000000        0x8 ./Peripheral/src/ch32v10x_gpio.o
 .text.GPIO_ReadOutputDataBit
                0x0000000000000000        0xc ./Peripheral/src/ch32v10x_gpio.o
 .text.GPIO_ReadOutputData
                0x0000000000000000        0x8 ./Peripheral/src/ch32v10x_gpio.o
 .text.GPIO_Write
                0x0000000000000000        0x4 ./Peripheral/src/ch32v10x_gpio.o
 .text.GPIO_PinLockConfig
                0x0000000000000000       0x10 ./Peripheral/src/ch32v10x_gpio.o
 .text.GPIO_EventOutputConfig
                0x0000000000000000       0x18 ./Peripheral/src/ch32v10x_gpio.o
 .text.GPIO_EventOutputCmd
                0x0000000000000000       0x16 ./Peripheral/src/ch32v10x_gpio.o
 .text.GPIO_PinRemapConfig
                0x0000000000000000       0x8c ./Peripheral/src/ch32v10x_gpio.o
 .text.GPIO_IPD_Unused
                0x0000000000000000       0x74 ./Peripheral/src/ch32v10x_gpio.o
 .text          0x0000000000000000        0x0 ./Peripheral/src/ch32v10x_i2c.o
 .data          0x0000000000000000        0x0 ./Peripheral/src/ch32v10x_i2c.o
 .bss           0x0000000000000000        0x0 ./Peripheral/src/ch32v10x_i2c.o
 .text.I2C_StructInit
                0x0000000000000000       0x1a ./Peripheral/src/ch32v10x_i2c.o
 .text.I2C_DMACmd
                0x0000000000000000       0x22 ./Peripheral/src/ch32v10x_i2c.o
 .text.I2C_DMALastTransferCmd
                0x0000000000000000       0x18 ./Peripheral/src/ch32v10x_i2c.o
 .text.I2C_OwnAddress2Config
                0x0000000000000000       0x18 ./Peripheral/src/ch32v10x_i2c.o
 .text.I2C_DualAddressCmd
                0x0000000000000000       0x1c ./Peripheral/src/ch32v10x_i2c.o
 .text.I2C_GeneralCallCmd
                0x0000000000000000       0x1e ./Peripheral/src/ch32v10x_i2c.o
 .text.I2C_ITConfig
                0x0000000000000000       0x16 ./Peripheral/src/ch32v10x_i2c.o
 .text.I2C_ReadRegister
                0x0000000000000000       0x16 ./Peripheral/src/ch32v10x_i2c.o
 .text.I2C_SMBusAlertConfig
                0x0000000000000000       0x20 ./Peripheral/src/ch32v10x_i2c.o
 .text.I2C_TransmitPEC
                0x0000000000000000       0x18 ./Peripheral/src/ch32v10x_i2c.o
 .text.I2C_PECPositionConfig
                0x0000000000000000        0x8 ./Peripheral/src/ch32v10x_i2c.o
 .text.I2C_CalculatePEC
                0x0000000000000000       0x1e ./Peripheral/src/ch32v10x_i2c.o
 .text.I2C_GetPEC
                0x0000000000000000        0x8 ./Peripheral/src/ch32v10x_i2c.o
 .text.I2C_ARPCmd
                0x0000000000000000       0x1c ./Peripheral/src/ch32v10x_i2c.o
 .text.I2C_StretchClockCmd
                0x0000000000000000       0x1e ./Peripheral/src/ch32v10x_i2c.o
 .text.I2C_FastModeDutyCycleConfig
                0x0000000000000000       0x20 ./Peripheral/src/ch32v10x_i2c.o
 .text.I2C_GetLastEvent
                0x0000000000000000       0x12 ./Peripheral/src/ch32v10x_i2c.o
 .text.I2C_ClearFlag
                0x0000000000000000        0xe ./Peripheral/src/ch32v10x_i2c.o
 .text.I2C_GetITStatus
                0x0000000000000000       0x20 ./Peripheral/src/ch32v10x_i2c.o
 .text.I2C_ClearITPendingBit
                0x0000000000000000        0xe ./Peripheral/src/ch32v10x_i2c.o
 .text          0x0000000000000000        0x0 ./Peripheral/src/ch32v10x_iwdg.o
 .data          0x0000000000000000        0x0 ./Peripheral/src/ch32v10x_iwdg.o
 .bss           0x0000000000000000        0x0 ./Peripheral/src/ch32v10x_iwdg.o
 .text.IWDG_WriteAccessCmd
                0x0000000000000000        0x8 ./Peripheral/src/ch32v10x_iwdg.o
 .text.IWDG_SetPrescaler
                0x0000000000000000        0x8 ./Peripheral/src/ch32v10x_iwdg.o
 .text.IWDG_SetReload
                0x0000000000000000        0x8 ./Peripheral/src/ch32v10x_iwdg.o
 .text.IWDG_ReloadCounter
                0x0000000000000000        0xe ./Peripheral/src/ch32v10x_iwdg.o
 .text.IWDG_Enable
                0x0000000000000000       0x18 ./Peripheral/src/ch32v10x_iwdg.o
 .text.IWDG_GetFlagStatus
                0x0000000000000000        0xe ./Peripheral/src/ch32v10x_iwdg.o
 .debug_info    0x0000000000000000      0x277 ./Peripheral/src/ch32v10x_iwdg.o
 .debug_abbrev  0x0000000000000000      0x13c ./Peripheral/src/ch32v10x_iwdg.o
 .debug_loclists
                0x0000000000000000       0x66 ./Peripheral/src/ch32v10x_iwdg.o
 .debug_aranges
                0x0000000000000000       0x48 ./Peripheral/src/ch32v10x_iwdg.o
 .debug_rnglists
                0x0000000000000000       0x43 ./Peripheral/src/ch32v10x_iwdg.o
 .debug_line    0x0000000000000000      0x1c0 ./Peripheral/src/ch32v10x_iwdg.o
 .debug_str     0x0000000000000000      0x2b1 ./Peripheral/src/ch32v10x_iwdg.o
 .debug_line_str
                0x0000000000000000      0x1a5 ./Peripheral/src/ch32v10x_iwdg.o
 .comment       0x0000000000000000       0x32 ./Peripheral/src/ch32v10x_iwdg.o
 .debug_frame   0x0000000000000000       0x70 ./Peripheral/src/ch32v10x_iwdg.o
 .riscv.attributes
                0x0000000000000000       0x34 ./Peripheral/src/ch32v10x_iwdg.o
 .text          0x0000000000000000        0x0 ./Peripheral/src/ch32v10x_misc.o
 .data          0x0000000000000000        0x0 ./Peripheral/src/ch32v10x_misc.o
 .bss           0x0000000000000000        0x0 ./Peripheral/src/ch32v10x_misc.o
 .text          0x0000000000000000        0x0 ./Peripheral/src/ch32v10x_pwr.o
 .data          0x0000000000000000        0x0 ./Peripheral/src/ch32v10x_pwr.o
 .bss           0x0000000000000000        0x0 ./Peripheral/src/ch32v10x_pwr.o
 .text.PWR_DeInit
                0x0000000000000000       0x2c ./Peripheral/src/ch32v10x_pwr.o
 .text.PWR_BackupAccessCmd
                0x0000000000000000       0x16 ./Peripheral/src/ch32v10x_pwr.o
 .text.PWR_WakeUpPinCmd
                0x0000000000000000       0x16 ./Peripheral/src/ch32v10x_pwr.o
 .text.PWR_EnterSTOPMode
                0x0000000000000000       0x62 ./Peripheral/src/ch32v10x_pwr.o
 .text.PWR_EnterSTANDBYMode
                0x0000000000000000       0x30 ./Peripheral/src/ch32v10x_pwr.o
 .text.PWR_ClearFlag
                0x0000000000000000        0xe ./Peripheral/src/ch32v10x_pwr.o
 .text          0x0000000000000000        0x0 ./Peripheral/src/ch32v10x_rcc.o
 .data          0x0000000000000000        0x0 ./Peripheral/src/ch32v10x_rcc.o
 .bss           0x0000000000000000        0x0 ./Peripheral/src/ch32v10x_rcc.o
 .text.RCC_DeInit
                0x0000000000000000       0x42 ./Peripheral/src/ch32v10x_rcc.o
 .text.RCC_HSEConfig
                0x0000000000000000       0x3c ./Peripheral/src/ch32v10x_rcc.o
 .text.RCC_AdjustHSICalibrationValue
                0x0000000000000000       0x12 ./Peripheral/src/ch32v10x_rcc.o
 .text.RCC_PLLConfig
                0x0000000000000000       0x16 ./Peripheral/src/ch32v10x_rcc.o
 .text.RCC_PLLCmd
                0x0000000000000000       0x24 ./Peripheral/src/ch32v10x_rcc.o
 .text.RCC_SYSCLKConfig
                0x0000000000000000        0xe ./Peripheral/src/ch32v10x_rcc.o
 .text.RCC_GetSYSCLKSource
                0x0000000000000000        0xa ./Peripheral/src/ch32v10x_rcc.o
 .text.RCC_HCLKConfig
                0x0000000000000000       0x10 ./Peripheral/src/ch32v10x_rcc.o
 .text.RCC_PCLK1Config
                0x0000000000000000       0x10 ./Peripheral/src/ch32v10x_rcc.o
 .text.RCC_PCLK2Config
                0x0000000000000000       0x16 ./Peripheral/src/ch32v10x_rcc.o
 .text.RCC_ITConfig
                0x0000000000000000       0x1a ./Peripheral/src/ch32v10x_rcc.o
 .text.RCC_LSEConfig
                0x0000000000000000       0x28 ./Peripheral/src/ch32v10x_rcc.o
 .text.RCC_RTCCLKConfig
                0x0000000000000000        0xc ./Peripheral/src/ch32v10x_rcc.o
 .text.RCC_RTCCLKCmd
                0x0000000000000000       0x20 ./Peripheral/src/ch32v10x_rcc.o
 .text.RCC_BackupResetCmd
                0x0000000000000000       0x20 ./Peripheral/src/ch32v10x_rcc.o
 .text.RCC_ClockSecuritySystemCmd
                0x0000000000000000       0x24 ./Peripheral/src/ch32v10x_rcc.o
 .text.RCC_MCOConfig
                0x0000000000000000        0xa ./Peripheral/src/ch32v10x_rcc.o
 .text.RCC_WaitForHSEStartUp
                0x0000000000000000       0x42 ./Peripheral/src/ch32v10x_rcc.o
 .text.RCC_ClearFlag
                0x0000000000000000       0x10 ./Peripheral/src/ch32v10x_rcc.o
 .text.RCC_GetITStatus
                0x0000000000000000        0xe ./Peripheral/src/ch32v10x_rcc.o
 .text.RCC_ClearITPendingBit
                0x0000000000000000        0xa ./Peripheral/src/ch32v10x_rcc.o
 .text          0x0000000000000000        0x0 ./Peripheral/src/ch32v10x_rtc.o
 .data          0x0000000000000000        0x0 ./Peripheral/src/ch32v10x_rtc.o
 .bss           0x0000000000000000        0x0 ./Peripheral/src/ch32v10x_rtc.o
 .text.RTC_ITConfig
                0x0000000000000000       0x1a ./Peripheral/src/ch32v10x_rtc.o
 .text.RTC_EnterConfigMode
                0x0000000000000000       0x12 ./Peripheral/src/ch32v10x_rtc.o
 .text.RTC_ExitConfigMode
                0x0000000000000000       0x18 ./Peripheral/src/ch32v10x_rtc.o
 .text.RTC_GetCounter
                0x0000000000000000       0x72 ./Peripheral/src/ch32v10x_rtc.o
 .text.RTC_SetCounter
                0x0000000000000000       0x36 ./Peripheral/src/ch32v10x_rtc.o
 .text.RTC_SetPrescaler
                0x0000000000000000       0x38 ./Peripheral/src/ch32v10x_rtc.o
 .text.RTC_SetAlarm
                0x0000000000000000       0x36 ./Peripheral/src/ch32v10x_rtc.o
 .text.RTC_GetDivider
                0x0000000000000000       0x78 ./Peripheral/src/ch32v10x_rtc.o
 .text.RTC_WaitForLastTask
                0x0000000000000000       0x14 ./Peripheral/src/ch32v10x_rtc.o
 .text.RTC_WaitForSynchro
                0x0000000000000000       0x24 ./Peripheral/src/ch32v10x_rtc.o
 .text.RTC_GetFlagStatus
                0x0000000000000000       0x14 ./Peripheral/src/ch32v10x_rtc.o
 .text.RTC_ClearFlag
                0x0000000000000000       0x14 ./Peripheral/src/ch32v10x_rtc.o
 .text.RTC_GetITStatus
                0x0000000000000000       0x20 ./Peripheral/src/ch32v10x_rtc.o
 .text.RTC_ClearITPendingBit
                0x0000000000000000        0x8 ./Peripheral/src/ch32v10x_rtc.o
 .debug_info    0x0000000000000000      0x4cd ./Peripheral/src/ch32v10x_rtc.o
 .debug_abbrev  0x0000000000000000      0x1c4 ./Peripheral/src/ch32v10x_rtc.o
 .debug_loclists
                0x0000000000000000      0x2f3 ./Peripheral/src/ch32v10x_rtc.o
 .debug_aranges
                0x0000000000000000       0x88 ./Peripheral/src/ch32v10x_rtc.o
 .debug_rnglists
                0x0000000000000000       0x8b ./Peripheral/src/ch32v10x_rtc.o
 .debug_line    0x0000000000000000      0x7a2 ./Peripheral/src/ch32v10x_rtc.o
 .debug_str     0x0000000000000000      0x3c2 ./Peripheral/src/ch32v10x_rtc.o
 .debug_line_str
                0x0000000000000000      0x1a2 ./Peripheral/src/ch32v10x_rtc.o
 .comment       0x0000000000000000       0x32 ./Peripheral/src/ch32v10x_rtc.o
 .debug_frame   0x0000000000000000      0x114 ./Peripheral/src/ch32v10x_rtc.o
 .riscv.attributes
                0x0000000000000000       0x34 ./Peripheral/src/ch32v10x_rtc.o
 .text          0x0000000000000000        0x0 ./Peripheral/src/ch32v10x_spi.o
 .data          0x0000000000000000        0x0 ./Peripheral/src/ch32v10x_spi.o
 .bss           0x0000000000000000        0x0 ./Peripheral/src/ch32v10x_spi.o
 .text.SPI_I2S_DeInit
                0x0000000000000000       0x70 ./Peripheral/src/ch32v10x_spi.o
 .text.I2S_Init
                0x0000000000000000       0xd6 ./Peripheral/src/ch32v10x_spi.o
 .text.SPI_StructInit
                0x0000000000000000       0x24 ./Peripheral/src/ch32v10x_spi.o
 .text.I2S_StructInit
                0x0000000000000000       0x12 ./Peripheral/src/ch32v10x_spi.o
 .text.I2S_Cmd  0x0000000000000000       0x1e ./Peripheral/src/ch32v10x_spi.o
 .text.SPI_I2S_ITConfig
                0x0000000000000000       0x22 ./Peripheral/src/ch32v10x_spi.o
 .text.SPI_I2S_SendData
                0x0000000000000000        0x6 ./Peripheral/src/ch32v10x_spi.o
 .text.SPI_I2S_ReceiveData
                0x0000000000000000        0x6 ./Peripheral/src/ch32v10x_spi.o
 .text.SPI_NSSInternalSoftwareConfig
                0x0000000000000000       0x2a ./Peripheral/src/ch32v10x_spi.o
 .text.SPI_SSOutputCmd
                0x0000000000000000       0x1c ./Peripheral/src/ch32v10x_spi.o
 .text.SPI_DataSizeConfig
                0x0000000000000000       0x1c ./Peripheral/src/ch32v10x_spi.o
 .text.SPI_TransmitCRC
                0x0000000000000000        0xe ./Peripheral/src/ch32v10x_spi.o
 .text.SPI_CalculateCRC
                0x0000000000000000       0x18 ./Peripheral/src/ch32v10x_spi.o
 .text.SPI_GetCRC
                0x0000000000000000       0x16 ./Peripheral/src/ch32v10x_spi.o
 .text.SPI_GetCRCPolynomial
                0x0000000000000000        0x6 ./Peripheral/src/ch32v10x_spi.o
 .text.SPI_BiDirectionalLineConfig
                0x0000000000000000       0x20 ./Peripheral/src/ch32v10x_spi.o
 .text.SPI_I2S_GetFlagStatus
                0x0000000000000000        0xc ./Peripheral/src/ch32v10x_spi.o
 .text.SPI_I2S_ClearFlag
                0x0000000000000000        0xe ./Peripheral/src/ch32v10x_spi.o
 .text.SPI_I2S_GetITStatus
                0x0000000000000000       0x2e ./Peripheral/src/ch32v10x_spi.o
 .text.SPI_I2S_ClearITPendingBit
                0x0000000000000000       0x16 ./Peripheral/src/ch32v10x_spi.o
 .text          0x0000000000000000        0x0 ./Peripheral/src/ch32v10x_tim.o
 .data          0x0000000000000000        0x0 ./Peripheral/src/ch32v10x_tim.o
 .bss           0x0000000000000000        0x0 ./Peripheral/src/ch32v10x_tim.o
 .text.TI1_Config
                0x0000000000000000       0x7a ./Peripheral/src/ch32v10x_tim.o
 .text.TI2_Config
                0x0000000000000000       0x98 ./Peripheral/src/ch32v10x_tim.o
 .text.TIM_DeInit
                0x0000000000000000       0x94 ./Peripheral/src/ch32v10x_tim.o
 .text.TIM_OC1Init
                0x0000000000000000       0x88 ./Peripheral/src/ch32v10x_tim.o
 .text.TIM_OC2Init
                0x0000000000000000       0xb2 ./Peripheral/src/ch32v10x_tim.o
 .text.TIM_BDTRConfig
                0x0000000000000000       0x2e ./Peripheral/src/ch32v10x_tim.o
 .text.TIM_TimeBaseStructInit
                0x0000000000000000       0x18 ./Peripheral/src/ch32v10x_tim.o
 .text.TIM_OCStructInit
                0x0000000000000000       0x22 ./Peripheral/src/ch32v10x_tim.o
 .text.TIM_ICStructInit
                0x0000000000000000       0x18 ./Peripheral/src/ch32v10x_tim.o
 .text.TIM_BDTRStructInit
                0x0000000000000000       0x1e ./Peripheral/src/ch32v10x_tim.o
 .text.TIM_GenerateEvent
                0x0000000000000000        0x6 ./Peripheral/src/ch32v10x_tim.o
 .text.TIM_DMAConfig
                0x0000000000000000        0x8 ./Peripheral/src/ch32v10x_tim.o
 .text.TIM_DMACmd
                0x0000000000000000        0x8 ./Peripheral/src/ch32v10x_tim.o
 .text.TIM_InternalClockConfig
                0x0000000000000000       0x14 ./Peripheral/src/ch32v10x_tim.o
 .text.TIM_ITRxExternalClockConfig
                0x0000000000000000       0x20 ./Peripheral/src/ch32v10x_tim.o
 .text.TIM_TIxExternalClockConfig
                0x0000000000000000       0x50 ./Peripheral/src/ch32v10x_tim.o
 .text.TIM_ETRConfig
                0x0000000000000000       0x1a ./Peripheral/src/ch32v10x_tim.o
 .text.TIM_ETRClockMode1Config
                0x0000000000000000       0x2e ./Peripheral/src/ch32v10x_tim.o
 .text.TIM_ETRClockMode2Config
                0x0000000000000000       0x26 ./Peripheral/src/ch32v10x_tim.o
 .text.TIM_PrescalerConfig
                0x0000000000000000        0xa ./Peripheral/src/ch32v10x_tim.o
 .text.TIM_CounterModeConfig
                0x0000000000000000       0x14 ./Peripheral/src/ch32v10x_tim.o
 .text.TIM_SelectInputTrigger
                0x0000000000000000       0x14 ./Peripheral/src/ch32v10x_tim.o
 .text.TIM_EncoderInterfaceConfig
                0x0000000000000000       0x46 ./Peripheral/src/ch32v10x_tim.o
 .text.TIM_ForcedOC1Config
                0x0000000000000000       0x14 ./Peripheral/src/ch32v10x_tim.o
 .text.TIM_ForcedOC2Config
                0x0000000000000000       0x18 ./Peripheral/src/ch32v10x_tim.o
 .text.TIM_ForcedOC3Config
                0x0000000000000000       0x14 ./Peripheral/src/ch32v10x_tim.o
 .text.TIM_ForcedOC4Config
                0x0000000000000000       0x18 ./Peripheral/src/ch32v10x_tim.o
 .text.TIM_SelectCOM
                0x0000000000000000       0x1c ./Peripheral/src/ch32v10x_tim.o
 .text.TIM_SelectCCDMA
                0x0000000000000000       0x1c ./Peripheral/src/ch32v10x_tim.o
 .text.TIM_CCPreloadControl
                0x0000000000000000       0x1c ./Peripheral/src/ch32v10x_tim.o
 .text.TIM_OC1PreloadConfig
                0x0000000000000000       0x12 ./Peripheral/src/ch32v10x_tim.o
 .text.TIM_OC2PreloadConfig
                0x0000000000000000       0x1a ./Peripheral/src/ch32v10x_tim.o
 .text.TIM_OC1FastConfig
                0x0000000000000000       0x12 ./Peripheral/src/ch32v10x_tim.o
 .text.TIM_OC2FastConfig
                0x0000000000000000       0x1a ./Peripheral/src/ch32v10x_tim.o
 .text.TIM_OC3FastConfig
                0x0000000000000000       0x12 ./Peripheral/src/ch32v10x_tim.o
 .text.TIM_OC4FastConfig
                0x0000000000000000       0x1a ./Peripheral/src/ch32v10x_tim.o
 .text.TIM_ClearOC1Ref
                0x0000000000000000       0x14 ./Peripheral/src/ch32v10x_tim.o
 .text.TIM_ClearOC2Ref
                0x0000000000000000       0x16 ./Peripheral/src/ch32v10x_tim.o
 .text.TIM_ClearOC3Ref
                0x0000000000000000       0x14 ./Peripheral/src/ch32v10x_tim.o
 .text.TIM_ClearOC4Ref
                0x0000000000000000       0x16 ./Peripheral/src/ch32v10x_tim.o
 .text.TIM_OC1PolarityConfig
                0x0000000000000000       0x12 ./Peripheral/src/ch32v10x_tim.o
 .text.TIM_OC1NPolarityConfig
                0x0000000000000000       0x12 ./Peripheral/src/ch32v10x_tim.o
 .text.TIM_OC2PolarityConfig
                0x0000000000000000       0x1a ./Peripheral/src/ch32v10x_tim.o
 .text.TIM_OC2NPolarityConfig
                0x0000000000000000       0x1a ./Peripheral/src/ch32v10x_tim.o
 .text.TIM_OC3PolarityConfig
                0x0000000000000000       0x1a ./Peripheral/src/ch32v10x_tim.o
 .text.TIM_OC3NPolarityConfig
                0x0000000000000000       0x1a ./Peripheral/src/ch32v10x_tim.o
 .text.TIM_OC4PolarityConfig
                0x0000000000000000       0x18 ./Peripheral/src/ch32v10x_tim.o
 .text.TIM_CCxCmd
                0x0000000000000000       0x28 ./Peripheral/src/ch32v10x_tim.o
 .text.TIM_CCxNCmd
                0x0000000000000000       0x28 ./Peripheral/src/ch32v10x_tim.o
 .text.TIM_SelectOCxM
                0x0000000000000000       0x50 ./Peripheral/src/ch32v10x_tim.o
 .text.TIM_UpdateDisableConfig
                0x0000000000000000       0x1c ./Peripheral/src/ch32v10x_tim.o
 .text.TIM_UpdateRequestConfig
                0x0000000000000000       0x1c ./Peripheral/src/ch32v10x_tim.o
 .text.TIM_SelectHallSensor
                0x0000000000000000       0x1e ./Peripheral/src/ch32v10x_tim.o
 .text.TIM_SelectOnePulseMode
                0x0000000000000000       0x1e ./Peripheral/src/ch32v10x_tim.o
 .text.TIM_SelectOutputTrigger
                0x0000000000000000       0x20 ./Peripheral/src/ch32v10x_tim.o
 .text.TIM_SelectSlaveMode
                0x0000000000000000       0x1e ./Peripheral/src/ch32v10x_tim.o
 .text.TIM_SelectMasterSlaveMode
                0x0000000000000000       0x20 ./Peripheral/src/ch32v10x_tim.o
 .text.TIM_SetCounter
                0x0000000000000000        0x6 ./Peripheral/src/ch32v10x_tim.o
 .text.TIM_SetAutoreload
                0x0000000000000000        0x6 ./Peripheral/src/ch32v10x_tim.o
 .text.TIM_SetCompare1
                0x0000000000000000        0x6 ./Peripheral/src/ch32v10x_tim.o
 .text.TIM_SetCompare2
                0x0000000000000000        0x6 ./Peripheral/src/ch32v10x_tim.o
 .text.TIM_SetIC1Prescaler
                0x0000000000000000       0x1e ./Peripheral/src/ch32v10x_tim.o
 .text.TIM_SetIC2Prescaler
                0x0000000000000000       0x22 ./Peripheral/src/ch32v10x_tim.o
 .text.TIM_PWMIConfig
                0x0000000000000000       0xa8 ./Peripheral/src/ch32v10x_tim.o
 .text.TIM_SetIC3Prescaler
                0x0000000000000000       0x1e ./Peripheral/src/ch32v10x_tim.o
 .text.TIM_SetIC4Prescaler
                0x0000000000000000       0x22 ./Peripheral/src/ch32v10x_tim.o
 .text.TIM_ICInit
                0x0000000000000000      0x1aa ./Peripheral/src/ch32v10x_tim.o
 .text.TIM_SetClockDivision
                0x0000000000000000       0x20 ./Peripheral/src/ch32v10x_tim.o
 .text.TIM_GetCapture1
                0x0000000000000000        0x6 ./Peripheral/src/ch32v10x_tim.o
 .text.TIM_GetCapture2
                0x0000000000000000        0x6 ./Peripheral/src/ch32v10x_tim.o
 .text.TIM_GetCapture3
                0x0000000000000000        0x6 ./Peripheral/src/ch32v10x_tim.o
 .text.TIM_GetCapture4
                0x0000000000000000        0x6 ./Peripheral/src/ch32v10x_tim.o
 .text.TIM_GetCounter
                0x0000000000000000        0x6 ./Peripheral/src/ch32v10x_tim.o
 .text.TIM_GetPrescaler
                0x0000000000000000        0x6 ./Peripheral/src/ch32v10x_tim.o
 .text.TIM_ClearFlag
                0x0000000000000000        0xe ./Peripheral/src/ch32v10x_tim.o
 .text          0x0000000000000000        0x0 ./Peripheral/src/ch32v10x_usart.o
 .data          0x0000000000000000        0x0 ./Peripheral/src/ch32v10x_usart.o
 .bss           0x0000000000000000        0x0 ./Peripheral/src/ch32v10x_usart.o
 .text.USART_DeInit
                0x0000000000000000       0xb8 ./Peripheral/src/ch32v10x_usart.o
 .text.USART_StructInit
                0x0000000000000000       0x18 ./Peripheral/src/ch32v10x_usart.o
 .text.USART_ClockInit
                0x0000000000000000       0x2a ./Peripheral/src/ch32v10x_usart.o
 .text.USART_ClockStructInit
                0x0000000000000000       0x12 ./Peripheral/src/ch32v10x_usart.o
 .text.USART_ITConfig
                0x0000000000000000       0x38 ./Peripheral/src/ch32v10x_usart.o
 .text.USART_SetAddress
                0x0000000000000000       0x1e ./Peripheral/src/ch32v10x_usart.o
 .text.USART_WakeUpConfig
                0x0000000000000000       0x1c ./Peripheral/src/ch32v10x_usart.o
 .text.USART_ReceiverWakeUpCmd
                0x0000000000000000       0x1c ./Peripheral/src/ch32v10x_usart.o
 .text.USART_LINBreakDetectLengthConfig
                0x0000000000000000       0x20 ./Peripheral/src/ch32v10x_usart.o
 .text.USART_LINCmd
                0x0000000000000000       0x18 ./Peripheral/src/ch32v10x_usart.o
 .text.USART_SendData
                0x0000000000000000        0xa ./Peripheral/src/ch32v10x_usart.o
 .text.USART_ReceiveData
                0x0000000000000000        0xa ./Peripheral/src/ch32v10x_usart.o
 .text.USART_SendBreak
                0x0000000000000000        0xe ./Peripheral/src/ch32v10x_usart.o
 .text.USART_SetGuardTime
                0x0000000000000000       0x1a ./Peripheral/src/ch32v10x_usart.o
 .text.USART_SetPrescaler
                0x0000000000000000       0x20 ./Peripheral/src/ch32v10x_usart.o
 .text.USART_SmartCardCmd
                0x0000000000000000       0x1e ./Peripheral/src/ch32v10x_usart.o
 .text.USART_SmartCardNACKCmd
                0x0000000000000000       0x1c ./Peripheral/src/ch32v10x_usart.o
 .text.USART_HalfDuplexCmd
                0x0000000000000000       0x1c ./Peripheral/src/ch32v10x_usart.o
 .text.USART_IrDAConfig
                0x0000000000000000       0x1e ./Peripheral/src/ch32v10x_usart.o
 .text.USART_IrDACmd
                0x0000000000000000       0x1c ./Peripheral/src/ch32v10x_usart.o
 .text.USART_GetITStatus
                0x0000000000000000       0x46 ./Peripheral/src/ch32v10x_usart.o
 .text.USART_ClearITPendingBit
                0x0000000000000000       0x16 ./Peripheral/src/ch32v10x_usart.o
 .text          0x0000000000000000        0x0 ./Peripheral/src/ch32v10x_usb.o
 .data          0x0000000000000000        0x0 ./Peripheral/src/ch32v10x_usb.o
 .bss           0x0000000000000000        0x0 ./Peripheral/src/ch32v10x_usb.o
 .text.USB_DeviceInit
                0x0000000000000000       0xc2 ./Peripheral/src/ch32v10x_usb.o
 .text.DevEP1_IN_Deal
                0x0000000000000000       0x16 ./Peripheral/src/ch32v10x_usb.o
 .text.DevEP2_IN_Deal
                0x0000000000000000       0x16 ./Peripheral/src/ch32v10x_usb.o
 .text.DevEP3_IN_Deal
                0x0000000000000000       0x16 ./Peripheral/src/ch32v10x_usb.o
 .text.DevEP4_IN_Deal
                0x0000000000000000       0x16 ./Peripheral/src/ch32v10x_usb.o
 .text.DevEP5_IN_Deal
                0x0000000000000000       0x16 ./Peripheral/src/ch32v10x_usb.o
 .text.DevEP6_IN_Deal
                0x0000000000000000       0x16 ./Peripheral/src/ch32v10x_usb.o
 .text.DevEP7_IN_Deal
                0x0000000000000000       0x16 ./Peripheral/src/ch32v10x_usb.o
 .sbss.pEP7_RAM_Addr
                0x0000000000000000        0x4 ./Peripheral/src/ch32v10x_usb.o
 .sbss.pEP6_RAM_Addr
                0x0000000000000000        0x4 ./Peripheral/src/ch32v10x_usb.o
 .sbss.pEP5_RAM_Addr
                0x0000000000000000        0x4 ./Peripheral/src/ch32v10x_usb.o
 .sbss.pEP4_RAM_Addr
                0x0000000000000000        0x4 ./Peripheral/src/ch32v10x_usb.o
 .sbss.pEP3_RAM_Addr
                0x0000000000000000        0x4 ./Peripheral/src/ch32v10x_usb.o
 .sbss.pEP2_RAM_Addr
                0x0000000000000000        0x4 ./Peripheral/src/ch32v10x_usb.o
 .sbss.pEP0_RAM_Addr
                0x0000000000000000        0x4 ./Peripheral/src/ch32v10x_usb.o
 .text          0x0000000000000000        0x0 ./Peripheral/src/ch32v10x_usb_host.o
 .data          0x0000000000000000        0x0 ./Peripheral/src/ch32v10x_usb_host.o
 .bss           0x0000000000000000        0x0 ./Peripheral/src/ch32v10x_usb_host.o
 .text.SetUsbSpeed.part.0
                0x0000000000000000       0x1e ./Peripheral/src/ch32v10x_usb_host.o
 .text.DisableRootHubPort
                0x0000000000000000        0xa ./Peripheral/src/ch32v10x_usb_host.o
 .text.AnalyzeRootHub
                0x0000000000000000       0x66 ./Peripheral/src/ch32v10x_usb_host.o
 .text.SetHostUsbAddr
                0x0000000000000000       0x18 ./Peripheral/src/ch32v10x_usb_host.o
 .text.SetUsbSpeed
                0x0000000000000000       0x1c ./Peripheral/src/ch32v10x_usb_host.o
 .text.ResetRootHubPort
                0x0000000000000000       0x74 ./Peripheral/src/ch32v10x_usb_host.o
 .text.EnableRootHubPort
                0x0000000000000000       0x5a ./Peripheral/src/ch32v10x_usb_host.o
 .text.WaitUSB_Interrupt
                0x0000000000000000       0x2e ./Peripheral/src/ch32v10x_usb_host.o
 .text.USBHostTransact
                0x0000000000000000      0x130 ./Peripheral/src/ch32v10x_usb_host.o
 .text.HostCtrlTransfer
                0x0000000000000000      0x1dc ./Peripheral/src/ch32v10x_usb_host.o
 .text.CopySetupReqPkg
                0x0000000000000000       0x22 ./Peripheral/src/ch32v10x_usb_host.o
 .text.CtrlGetDeviceDescr
                0x0000000000000000       0x54 ./Peripheral/src/ch32v10x_usb_host.o
 .text.CtrlGetConfigDescr
                0x0000000000000000       0x7c ./Peripheral/src/ch32v10x_usb_host.o
 .text.CtrlSetUsbAddress
                0x0000000000000000       0x58 ./Peripheral/src/ch32v10x_usb_host.o
 .text.CtrlSetUsbConfig
                0x0000000000000000       0x3e ./Peripheral/src/ch32v10x_usb_host.o
 .text.CtrlClearEndpStall
                0x0000000000000000       0x3e ./Peripheral/src/ch32v10x_usb_host.o
 .text.CtrlSetUsbIntercace
                0x0000000000000000       0x3e ./Peripheral/src/ch32v10x_usb_host.o
 .text.USB_HostInit
                0x0000000000000000       0x78 ./Peripheral/src/ch32v10x_usb_host.o
 .text.InitRootDevice
                0x0000000000000000      0x18a ./Peripheral/src/ch32v10x_usb_host.o
 .text.HubGetPortStatus
                0x0000000000000000       0x64 ./Peripheral/src/ch32v10x_usb_host.o
 .text.HubSetPortFeature
                0x0000000000000000       0x3a ./Peripheral/src/ch32v10x_usb_host.o
 .text.HubClearPortFeature
                0x0000000000000000       0x3a ./Peripheral/src/ch32v10x_usb_host.o
 .srodata.SetupClrEndpStall
                0x0000000000000000        0x8 ./Peripheral/src/ch32v10x_usb_host.o
 .srodata.SetupSetUsbInterface
                0x0000000000000000        0x8 ./Peripheral/src/ch32v10x_usb_host.o
 .srodata.SetupSetUsbConfig
                0x0000000000000000        0x8 ./Peripheral/src/ch32v10x_usb_host.o
 .srodata.SetupSetUsbAddr
                0x0000000000000000        0x8 ./Peripheral/src/ch32v10x_usb_host.o
 .srodata.SetupGetCfgDescr
                0x0000000000000000        0x8 ./Peripheral/src/ch32v10x_usb_host.o
 .srodata.SetupGetDevDescr
                0x0000000000000000        0x8 ./Peripheral/src/ch32v10x_usb_host.o
 .sbss.pHOST_TX_RAM_Addr
                0x0000000000000000        0x4 ./Peripheral/src/ch32v10x_usb_host.o
 .sbss.pHOST_RX_RAM_Addr
                0x0000000000000000        0x4 ./Peripheral/src/ch32v10x_usb_host.o
 .bss.ThisUsbDev
                0x0000000000000000        0xe ./Peripheral/src/ch32v10x_usb_host.o
 .sbss.FoundNewDev
                0x0000000000000000        0x1 ./Peripheral/src/ch32v10x_usb_host.o
 .sbss.UsbDevEndp0Size
                0x0000000000000000        0x1 ./Peripheral/src/ch32v10x_usb_host.o
 .debug_info    0x0000000000000000     0x107a ./Peripheral/src/ch32v10x_usb_host.o
 .debug_abbrev  0x0000000000000000      0x404 ./Peripheral/src/ch32v10x_usb_host.o
 .debug_loclists
                0x0000000000000000      0x85f ./Peripheral/src/ch32v10x_usb_host.o
 .debug_aranges
                0x0000000000000000       0xc8 ./Peripheral/src/ch32v10x_usb_host.o
 .debug_rnglists
                0x0000000000000000      0x166 ./Peripheral/src/ch32v10x_usb_host.o
 .debug_line    0x0000000000000000     0x1734 ./Peripheral/src/ch32v10x_usb_host.o
 .debug_str     0x0000000000000000      0x76f ./Peripheral/src/ch32v10x_usb_host.o
 .debug_line_str
                0x0000000000000000       0xe2 ./Peripheral/src/ch32v10x_usb_host.o
 .comment       0x0000000000000000       0x32 ./Peripheral/src/ch32v10x_usb_host.o
 .debug_frame   0x0000000000000000      0x294 ./Peripheral/src/ch32v10x_usb_host.o
 .riscv.attributes
                0x0000000000000000       0x34 ./Peripheral/src/ch32v10x_usb_host.o
 .text          0x0000000000000000        0x0 ./Peripheral/src/ch32v10x_wwdg.o
 .data          0x0000000000000000        0x0 ./Peripheral/src/ch32v10x_wwdg.o
 .bss           0x0000000000000000        0x0 ./Peripheral/src/ch32v10x_wwdg.o
 .text.WWDG_DeInit
                0x0000000000000000       0x2e ./Peripheral/src/ch32v10x_wwdg.o
 .text.WWDG_SetPrescaler
                0x0000000000000000       0x14 ./Peripheral/src/ch32v10x_wwdg.o
 .text.WWDG_SetWindowValue
                0x0000000000000000       0x26 ./Peripheral/src/ch32v10x_wwdg.o
 .text.WWDG_EnableIT
                0x0000000000000000       0x12 ./Peripheral/src/ch32v10x_wwdg.o
 .text.WWDG_SetCounter
                0x0000000000000000        0xe ./Peripheral/src/ch32v10x_wwdg.o
 .text.WWDG_Enable
                0x0000000000000000        0xe ./Peripheral/src/ch32v10x_wwdg.o
 .text.WWDG_GetFlagStatus
                0x0000000000000000        0xc ./Peripheral/src/ch32v10x_wwdg.o
 .text.WWDG_ClearFlag
                0x0000000000000000        0xe ./Peripheral/src/ch32v10x_wwdg.o
 .debug_info    0x0000000000000000      0x269 ./Peripheral/src/ch32v10x_wwdg.o
 .debug_abbrev  0x0000000000000000      0x184 ./Peripheral/src/ch32v10x_wwdg.o
 .debug_loclists
                0x0000000000000000       0x72 ./Peripheral/src/ch32v10x_wwdg.o
 .debug_aranges
                0x0000000000000000       0x58 ./Peripheral/src/ch32v10x_wwdg.o
 .debug_rnglists
                0x0000000000000000       0x55 ./Peripheral/src/ch32v10x_wwdg.o
 .debug_line    0x0000000000000000      0x267 ./Peripheral/src/ch32v10x_wwdg.o
 .debug_str     0x0000000000000000      0x27d ./Peripheral/src/ch32v10x_wwdg.o
 .debug_line_str
                0x0000000000000000      0x1b4 ./Peripheral/src/ch32v10x_wwdg.o
 .comment       0x0000000000000000       0x32 ./Peripheral/src/ch32v10x_wwdg.o
 .debug_frame   0x0000000000000000       0xa4 ./Peripheral/src/ch32v10x_wwdg.o
 .riscv.attributes
                0x0000000000000000       0x34 ./Peripheral/src/ch32v10x_wwdg.o
 .text          0x0000000000000000        0x0 ./Debug/debug.o
 .data          0x0000000000000000        0x0 ./Debug/debug.o
 .bss           0x0000000000000000        0x0 ./Debug/debug.o
 .text.SDI_printf_Enable
                0x0000000000000000       0x12 ./Debug/debug.o
 .text          0x0000000000000000        0x0 ./Core/core_riscv.o
 .data          0x0000000000000000        0x0 ./Core/core_riscv.o
 .bss           0x0000000000000000        0x0 ./Core/core_riscv.o
 .text.__get_MSTATUS
                0x0000000000000000        0x6 ./Core/core_riscv.o
 .text.__set_MSTATUS
                0x0000000000000000        0x6 ./Core/core_riscv.o
 .text.__get_MISA
                0x0000000000000000        0x6 ./Core/core_riscv.o
 .text.__set_MISA
                0x0000000000000000        0x6 ./Core/core_riscv.o
 .text.__get_MTVEC
                0x0000000000000000        0x6 ./Core/core_riscv.o
 .text.__set_MTVEC
                0x0000000000000000        0x6 ./Core/core_riscv.o
 .text.__get_MSCRATCH
                0x0000000000000000        0x6 ./Core/core_riscv.o
 .text.__set_MSCRATCH
                0x0000000000000000        0x6 ./Core/core_riscv.o
 .text.__get_MEPC
                0x0000000000000000        0x6 ./Core/core_riscv.o
 .text.__set_MEPC
                0x0000000000000000        0x6 ./Core/core_riscv.o
 .text.__get_MCAUSE
                0x0000000000000000        0x6 ./Core/core_riscv.o
 .text.__set_MCAUSE
                0x0000000000000000        0x6 ./Core/core_riscv.o
 .text.__get_MTVAL
                0x0000000000000000        0x6 ./Core/core_riscv.o
 .text.__set_MTVAL
                0x0000000000000000        0x6 ./Core/core_riscv.o
 .text.__get_MVENDORID
                0x0000000000000000        0x6 ./Core/core_riscv.o
 .text.__get_MARCHID
                0x0000000000000000        0x6 ./Core/core_riscv.o
 .text.__get_MIMPID
                0x0000000000000000        0x6 ./Core/core_riscv.o
 .text.__get_MHARTID
                0x0000000000000000        0x6 ./Core/core_riscv.o
 .text.__get_SP
                0x0000000000000000        0x4 ./Core/core_riscv.o
 .debug_info    0x0000000000000000      0x333 ./Core/core_riscv.o
 .debug_abbrev  0x0000000000000000       0xe7 ./Core/core_riscv.o
 .debug_aranges
                0x0000000000000000       0xb0 ./Core/core_riscv.o
 .debug_rnglists
                0x0000000000000000       0xb8 ./Core/core_riscv.o
 .debug_line    0x0000000000000000      0x386 ./Core/core_riscv.o
 .debug_str     0x0000000000000000      0x259 ./Core/core_riscv.o
 .debug_line_str
                0x0000000000000000      0x12c ./Core/core_riscv.o
 .comment       0x0000000000000000       0x32 ./Core/core_riscv.o
 .debug_frame   0x0000000000000000      0x140 ./Core/core_riscv.o
 .riscv.attributes
                0x0000000000000000       0x34 ./Core/core_riscv.o
 .text          0x0000000000000000        0x0 d:/mounriver_studio/toolchain/risc-v embedded gcc12/bin/../lib/gcc/riscv-none-elf/12.2.0/../../../../riscv-none-elf/lib\libm_nano.a(lib_a-wf_sqrt.o)
 .data          0x0000000000000000        0x0 d:/mounriver_studio/toolchain/risc-v embedded gcc12/bin/../lib/gcc/riscv-none-elf/12.2.0/../../../../riscv-none-elf/lib\libm_nano.a(lib_a-wf_sqrt.o)
 .bss           0x0000000000000000        0x0 d:/mounriver_studio/toolchain/risc-v embedded gcc12/bin/../lib/gcc/riscv-none-elf/12.2.0/../../../../riscv-none-elf/lib\libm_nano.a(lib_a-wf_sqrt.o)
 .text          0x0000000000000000        0x0 d:/mounriver_studio/toolchain/risc-v embedded gcc12/bin/../lib/gcc/riscv-none-elf/12.2.0/../../../../riscv-none-elf/lib\libm_nano.a(lib_a-ef_sqrt.o)
 .data          0x0000000000000000        0x0 d:/mounriver_studio/toolchain/risc-v embedded gcc12/bin/../lib/gcc/riscv-none-elf/12.2.0/../../../../riscv-none-elf/lib\libm_nano.a(lib_a-ef_sqrt.o)
 .bss           0x0000000000000000        0x0 d:/mounriver_studio/toolchain/risc-v embedded gcc12/bin/../lib/gcc/riscv-none-elf/12.2.0/../../../../riscv-none-elf/lib\libm_nano.a(lib_a-ef_sqrt.o)
 .text          0x0000000000000000        0x0 d:/mounriver_studio/toolchain/risc-v embedded gcc12/bin/../lib/gcc/riscv-none-elf/12.2.0\libgcc.a(_divdi3.o)
 .data          0x0000000000000000        0x0 d:/mounriver_studio/toolchain/risc-v embedded gcc12/bin/../lib/gcc/riscv-none-elf/12.2.0\libgcc.a(_divdi3.o)
 .bss           0x0000000000000000        0x0 d:/mounriver_studio/toolchain/risc-v embedded gcc12/bin/../lib/gcc/riscv-none-elf/12.2.0\libgcc.a(_divdi3.o)
 .text.__divdi3
                0x0000000000000000      0x3ec d:/mounriver_studio/toolchain/risc-v embedded gcc12/bin/../lib/gcc/riscv-none-elf/12.2.0\libgcc.a(_divdi3.o)
 .comment       0x0000000000000000       0x32 d:/mounriver_studio/toolchain/risc-v embedded gcc12/bin/../lib/gcc/riscv-none-elf/12.2.0\libgcc.a(_divdi3.o)
 .eh_frame      0x0000000000000000       0x28 d:/mounriver_studio/toolchain/risc-v embedded gcc12/bin/../lib/gcc/riscv-none-elf/12.2.0\libgcc.a(_divdi3.o)
 .riscv.attributes
                0x0000000000000000       0x34 d:/mounriver_studio/toolchain/risc-v embedded gcc12/bin/../lib/gcc/riscv-none-elf/12.2.0\libgcc.a(_divdi3.o)
 .text          0x0000000000000000        0x0 d:/mounriver_studio/toolchain/risc-v embedded gcc12/bin/../lib/gcc/riscv-none-elf/12.2.0\libgcc.a(_udivdi3.o)
 .data          0x0000000000000000        0x0 d:/mounriver_studio/toolchain/risc-v embedded gcc12/bin/../lib/gcc/riscv-none-elf/12.2.0\libgcc.a(_udivdi3.o)
 .bss           0x0000000000000000        0x0 d:/mounriver_studio/toolchain/risc-v embedded gcc12/bin/../lib/gcc/riscv-none-elf/12.2.0\libgcc.a(_udivdi3.o)
 .eh_frame      0x0000000000000000       0x28 d:/mounriver_studio/toolchain/risc-v embedded gcc12/bin/../lib/gcc/riscv-none-elf/12.2.0\libgcc.a(_udivdi3.o)
 .text          0x0000000000000000        0x0 d:/mounriver_studio/toolchain/risc-v embedded gcc12/bin/../lib/gcc/riscv-none-elf/12.2.0\libgcc.a(adddf3.o)
 .data          0x0000000000000000        0x0 d:/mounriver_studio/toolchain/risc-v embedded gcc12/bin/../lib/gcc/riscv-none-elf/12.2.0\libgcc.a(adddf3.o)
 .bss           0x0000000000000000        0x0 d:/mounriver_studio/toolchain/risc-v embedded gcc12/bin/../lib/gcc/riscv-none-elf/12.2.0\libgcc.a(adddf3.o)
 .text          0x0000000000000000        0x0 d:/mounriver_studio/toolchain/risc-v embedded gcc12/bin/../lib/gcc/riscv-none-elf/12.2.0\libgcc.a(divdf3.o)
 .data          0x0000000000000000        0x0 d:/mounriver_studio/toolchain/risc-v embedded gcc12/bin/../lib/gcc/riscv-none-elf/12.2.0\libgcc.a(divdf3.o)
 .bss           0x0000000000000000        0x0 d:/mounriver_studio/toolchain/risc-v embedded gcc12/bin/../lib/gcc/riscv-none-elf/12.2.0\libgcc.a(divdf3.o)
 .text          0x0000000000000000        0x0 d:/mounriver_studio/toolchain/risc-v embedded gcc12/bin/../lib/gcc/riscv-none-elf/12.2.0\libgcc.a(muldf3.o)
 .data          0x0000000000000000        0x0 d:/mounriver_studio/toolchain/risc-v embedded gcc12/bin/../lib/gcc/riscv-none-elf/12.2.0\libgcc.a(muldf3.o)
 .bss           0x0000000000000000        0x0 d:/mounriver_studio/toolchain/risc-v embedded gcc12/bin/../lib/gcc/riscv-none-elf/12.2.0\libgcc.a(muldf3.o)
 .text          0x0000000000000000        0x0 d:/mounriver_studio/toolchain/risc-v embedded gcc12/bin/../lib/gcc/riscv-none-elf/12.2.0\libgcc.a(subdf3.o)
 .data          0x0000000000000000        0x0 d:/mounriver_studio/toolchain/risc-v embedded gcc12/bin/../lib/gcc/riscv-none-elf/12.2.0\libgcc.a(subdf3.o)
 .bss           0x0000000000000000        0x0 d:/mounriver_studio/toolchain/risc-v embedded gcc12/bin/../lib/gcc/riscv-none-elf/12.2.0\libgcc.a(subdf3.o)
 .text          0x0000000000000000        0x0 d:/mounriver_studio/toolchain/risc-v embedded gcc12/bin/../lib/gcc/riscv-none-elf/12.2.0\libgcc.a(floatsidf.o)
 .data          0x0000000000000000        0x0 d:/mounriver_studio/toolchain/risc-v embedded gcc12/bin/../lib/gcc/riscv-none-elf/12.2.0\libgcc.a(floatsidf.o)
 .bss           0x0000000000000000        0x0 d:/mounriver_studio/toolchain/risc-v embedded gcc12/bin/../lib/gcc/riscv-none-elf/12.2.0\libgcc.a(floatsidf.o)
 .text          0x0000000000000000        0x0 d:/mounriver_studio/toolchain/risc-v embedded gcc12/bin/../lib/gcc/riscv-none-elf/12.2.0\libgcc.a(floatunsidf.o)
 .data          0x0000000000000000        0x0 d:/mounriver_studio/toolchain/risc-v embedded gcc12/bin/../lib/gcc/riscv-none-elf/12.2.0\libgcc.a(floatunsidf.o)
 .bss           0x0000000000000000        0x0 d:/mounriver_studio/toolchain/risc-v embedded gcc12/bin/../lib/gcc/riscv-none-elf/12.2.0\libgcc.a(floatunsidf.o)
 .text          0x0000000000000000        0x0 d:/mounriver_studio/toolchain/risc-v embedded gcc12/bin/../lib/gcc/riscv-none-elf/12.2.0\libgcc.a(addsf3.o)
 .data          0x0000000000000000        0x0 d:/mounriver_studio/toolchain/risc-v embedded gcc12/bin/../lib/gcc/riscv-none-elf/12.2.0\libgcc.a(addsf3.o)
 .bss           0x0000000000000000        0x0 d:/mounriver_studio/toolchain/risc-v embedded gcc12/bin/../lib/gcc/riscv-none-elf/12.2.0\libgcc.a(addsf3.o)
 .text          0x0000000000000000        0x0 d:/mounriver_studio/toolchain/risc-v embedded gcc12/bin/../lib/gcc/riscv-none-elf/12.2.0\libgcc.a(divsf3.o)
 .data          0x0000000000000000        0x0 d:/mounriver_studio/toolchain/risc-v embedded gcc12/bin/../lib/gcc/riscv-none-elf/12.2.0\libgcc.a(divsf3.o)
 .bss           0x0000000000000000        0x0 d:/mounriver_studio/toolchain/risc-v embedded gcc12/bin/../lib/gcc/riscv-none-elf/12.2.0\libgcc.a(divsf3.o)
 .text          0x0000000000000000        0x0 d:/mounriver_studio/toolchain/risc-v embedded gcc12/bin/../lib/gcc/riscv-none-elf/12.2.0\libgcc.a(gesf2.o)
 .data          0x0000000000000000        0x0 d:/mounriver_studio/toolchain/risc-v embedded gcc12/bin/../lib/gcc/riscv-none-elf/12.2.0\libgcc.a(gesf2.o)
 .bss           0x0000000000000000        0x0 d:/mounriver_studio/toolchain/risc-v embedded gcc12/bin/../lib/gcc/riscv-none-elf/12.2.0\libgcc.a(gesf2.o)
 .text          0x0000000000000000        0x0 d:/mounriver_studio/toolchain/risc-v embedded gcc12/bin/../lib/gcc/riscv-none-elf/12.2.0\libgcc.a(lesf2.o)
 .data          0x0000000000000000        0x0 d:/mounriver_studio/toolchain/risc-v embedded gcc12/bin/../lib/gcc/riscv-none-elf/12.2.0\libgcc.a(lesf2.o)
 .bss           0x0000000000000000        0x0 d:/mounriver_studio/toolchain/risc-v embedded gcc12/bin/../lib/gcc/riscv-none-elf/12.2.0\libgcc.a(lesf2.o)
 .text          0x0000000000000000        0x0 d:/mounriver_studio/toolchain/risc-v embedded gcc12/bin/../lib/gcc/riscv-none-elf/12.2.0\libgcc.a(mulsf3.o)
 .data          0x0000000000000000        0x0 d:/mounriver_studio/toolchain/risc-v embedded gcc12/bin/../lib/gcc/riscv-none-elf/12.2.0\libgcc.a(mulsf3.o)
 .bss           0x0000000000000000        0x0 d:/mounriver_studio/toolchain/risc-v embedded gcc12/bin/../lib/gcc/riscv-none-elf/12.2.0\libgcc.a(mulsf3.o)
 .text          0x0000000000000000        0x0 d:/mounriver_studio/toolchain/risc-v embedded gcc12/bin/../lib/gcc/riscv-none-elf/12.2.0\libgcc.a(subsf3.o)
 .data          0x0000000000000000        0x0 d:/mounriver_studio/toolchain/risc-v embedded gcc12/bin/../lib/gcc/riscv-none-elf/12.2.0\libgcc.a(subsf3.o)
 .bss           0x0000000000000000        0x0 d:/mounriver_studio/toolchain/risc-v embedded gcc12/bin/../lib/gcc/riscv-none-elf/12.2.0\libgcc.a(subsf3.o)
 .text          0x0000000000000000        0x0 d:/mounriver_studio/toolchain/risc-v embedded gcc12/bin/../lib/gcc/riscv-none-elf/12.2.0\libgcc.a(unordsf2.o)
 .data          0x0000000000000000        0x0 d:/mounriver_studio/toolchain/risc-v embedded gcc12/bin/../lib/gcc/riscv-none-elf/12.2.0\libgcc.a(unordsf2.o)
 .bss           0x0000000000000000        0x0 d:/mounriver_studio/toolchain/risc-v embedded gcc12/bin/../lib/gcc/riscv-none-elf/12.2.0\libgcc.a(unordsf2.o)
 .text          0x0000000000000000        0x0 d:/mounriver_studio/toolchain/risc-v embedded gcc12/bin/../lib/gcc/riscv-none-elf/12.2.0\libgcc.a(fixsfsi.o)
 .data          0x0000000000000000        0x0 d:/mounriver_studio/toolchain/risc-v embedded gcc12/bin/../lib/gcc/riscv-none-elf/12.2.0\libgcc.a(fixsfsi.o)
 .bss           0x0000000000000000        0x0 d:/mounriver_studio/toolchain/risc-v embedded gcc12/bin/../lib/gcc/riscv-none-elf/12.2.0\libgcc.a(fixsfsi.o)
 .text          0x0000000000000000        0x0 d:/mounriver_studio/toolchain/risc-v embedded gcc12/bin/../lib/gcc/riscv-none-elf/12.2.0\libgcc.a(floatsisf.o)
 .data          0x0000000000000000        0x0 d:/mounriver_studio/toolchain/risc-v embedded gcc12/bin/../lib/gcc/riscv-none-elf/12.2.0\libgcc.a(floatsisf.o)
 .bss           0x0000000000000000        0x0 d:/mounriver_studio/toolchain/risc-v embedded gcc12/bin/../lib/gcc/riscv-none-elf/12.2.0\libgcc.a(floatsisf.o)
 .text          0x0000000000000000        0x0 d:/mounriver_studio/toolchain/risc-v embedded gcc12/bin/../lib/gcc/riscv-none-elf/12.2.0\libgcc.a(fixsfdi.o)
 .data          0x0000000000000000        0x0 d:/mounriver_studio/toolchain/risc-v embedded gcc12/bin/../lib/gcc/riscv-none-elf/12.2.0\libgcc.a(fixsfdi.o)
 .bss           0x0000000000000000        0x0 d:/mounriver_studio/toolchain/risc-v embedded gcc12/bin/../lib/gcc/riscv-none-elf/12.2.0\libgcc.a(fixsfdi.o)
 .text          0x0000000000000000        0x0 d:/mounriver_studio/toolchain/risc-v embedded gcc12/bin/../lib/gcc/riscv-none-elf/12.2.0\libgcc.a(floatdisf.o)
 .data          0x0000000000000000        0x0 d:/mounriver_studio/toolchain/risc-v embedded gcc12/bin/../lib/gcc/riscv-none-elf/12.2.0\libgcc.a(floatdisf.o)
 .bss           0x0000000000000000        0x0 d:/mounriver_studio/toolchain/risc-v embedded gcc12/bin/../lib/gcc/riscv-none-elf/12.2.0\libgcc.a(floatdisf.o)
 .text          0x0000000000000000        0x0 d:/mounriver_studio/toolchain/risc-v embedded gcc12/bin/../lib/gcc/riscv-none-elf/12.2.0\libgcc.a(truncdfsf2.o)
 .data          0x0000000000000000        0x0 d:/mounriver_studio/toolchain/risc-v embedded gcc12/bin/../lib/gcc/riscv-none-elf/12.2.0\libgcc.a(truncdfsf2.o)
 .bss           0x0000000000000000        0x0 d:/mounriver_studio/toolchain/risc-v embedded gcc12/bin/../lib/gcc/riscv-none-elf/12.2.0\libgcc.a(truncdfsf2.o)
 .data          0x0000000000000000        0x0 d:/mounriver_studio/toolchain/risc-v embedded gcc12/bin/../lib/gcc/riscv-none-elf/12.2.0\libgcc.a(save-restore.o)
 .bss           0x0000000000000000        0x0 d:/mounriver_studio/toolchain/risc-v embedded gcc12/bin/../lib/gcc/riscv-none-elf/12.2.0\libgcc.a(save-restore.o)
 .eh_frame      0x0000000000000000       0xf8 d:/mounriver_studio/toolchain/risc-v embedded gcc12/bin/../lib/gcc/riscv-none-elf/12.2.0\libgcc.a(save-restore.o)
 .text          0x0000000000000000        0x0 d:/mounriver_studio/toolchain/risc-v embedded gcc12/bin/../lib/gcc/riscv-none-elf/12.2.0\libgcc.a(_clz.o)
 .data          0x0000000000000000        0x0 d:/mounriver_studio/toolchain/risc-v embedded gcc12/bin/../lib/gcc/riscv-none-elf/12.2.0\libgcc.a(_clz.o)
 .bss           0x0000000000000000        0x0 d:/mounriver_studio/toolchain/risc-v embedded gcc12/bin/../lib/gcc/riscv-none-elf/12.2.0\libgcc.a(_clz.o)
 .text          0x0000000000000000        0x0 d:/mounriver_studio/toolchain/risc-v embedded gcc12/bin/../lib/gcc/riscv-none-elf/12.2.0\libgcc.a(_clzsi2.o)
 .data          0x0000000000000000        0x0 d:/mounriver_studio/toolchain/risc-v embedded gcc12/bin/../lib/gcc/riscv-none-elf/12.2.0\libgcc.a(_clzsi2.o)
 .bss           0x0000000000000000        0x0 d:/mounriver_studio/toolchain/risc-v embedded gcc12/bin/../lib/gcc/riscv-none-elf/12.2.0\libgcc.a(_clzsi2.o)
 .text          0x0000000000000000        0x0 d:/mounriver_studio/toolchain/risc-v embedded gcc12/bin/../lib/gcc/riscv-none-elf/12.2.0/../../../../riscv-none-elf/lib\libg_nano.a(lib_a-errno.o)
 .data          0x0000000000000000        0x0 d:/mounriver_studio/toolchain/risc-v embedded gcc12/bin/../lib/gcc/riscv-none-elf/12.2.0/../../../../riscv-none-elf/lib\libg_nano.a(lib_a-errno.o)
 .bss           0x0000000000000000        0x0 d:/mounriver_studio/toolchain/risc-v embedded gcc12/bin/../lib/gcc/riscv-none-elf/12.2.0/../../../../riscv-none-elf/lib\libg_nano.a(lib_a-errno.o)
 .text          0x0000000000000000        0x0 d:/mounriver_studio/toolchain/risc-v embedded gcc12/bin/../lib/gcc/riscv-none-elf/12.2.0/../../../../riscv-none-elf/lib\libg_nano.a(lib_a-impure.o)
 .data          0x0000000000000000        0x0 d:/mounriver_studio/toolchain/risc-v embedded gcc12/bin/../lib/gcc/riscv-none-elf/12.2.0/../../../../riscv-none-elf/lib\libg_nano.a(lib_a-impure.o)
 .bss           0x0000000000000000        0x0 d:/mounriver_studio/toolchain/risc-v embedded gcc12/bin/../lib/gcc/riscv-none-elf/12.2.0/../../../../riscv-none-elf/lib\libg_nano.a(lib_a-impure.o)
 .data          0x0000000000000000        0x0 d:/mounriver_studio/toolchain/risc-v embedded gcc12/bin/../lib/gcc/riscv-none-elf/12.2.0/../../../../riscv-none-elf/lib\libg_nano.a(lib_a-memcpy-asm.o)
 .bss           0x0000000000000000        0x0 d:/mounriver_studio/toolchain/risc-v embedded gcc12/bin/../lib/gcc/riscv-none-elf/12.2.0/../../../../riscv-none-elf/lib\libg_nano.a(lib_a-memcpy-asm.o)
 .data          0x0000000000000000        0x0 d:/mounriver_studio/toolchain/risc-v embedded gcc12/bin/../lib/gcc/riscv-none-elf/12.2.0/../../../../riscv-none-elf/lib\libg_nano.a(lib_a-memset.o)
 .bss           0x0000000000000000        0x0 d:/mounriver_studio/toolchain/risc-v embedded gcc12/bin/../lib/gcc/riscv-none-elf/12.2.0/../../../../riscv-none-elf/lib\libg_nano.a(lib_a-memset.o)
 .text          0x0000000000000000        0x0 d:/mounriver_studio/toolchain/risc-v embedded gcc12/bin/../lib/gcc/riscv-none-elf/12.2.0/../../../../riscv-none-elf/lib\libg_nano.a(lib_a-printf.o)
 .data          0x0000000000000000        0x0 d:/mounriver_studio/toolchain/risc-v embedded gcc12/bin/../lib/gcc/riscv-none-elf/12.2.0/../../../../riscv-none-elf/lib\libg_nano.a(lib_a-printf.o)
 .bss           0x0000000000000000        0x0 d:/mounriver_studio/toolchain/risc-v embedded gcc12/bin/../lib/gcc/riscv-none-elf/12.2.0/../../../../riscv-none-elf/lib\libg_nano.a(lib_a-printf.o)
 .text._printf_r
                0x0000000000000000       0x42 d:/mounriver_studio/toolchain/risc-v embedded gcc12/bin/../lib/gcc/riscv-none-elf/12.2.0/../../../../riscv-none-elf/lib\libg_nano.a(lib_a-printf.o)
 .text          0x0000000000000000        0x0 d:/mounriver_studio/toolchain/risc-v embedded gcc12/bin/../lib/gcc/riscv-none-elf/12.2.0/../../../../riscv-none-elf/lib\libg_nano.a(lib_a-puts.o)
 .data          0x0000000000000000        0x0 d:/mounriver_studio/toolchain/risc-v embedded gcc12/bin/../lib/gcc/riscv-none-elf/12.2.0/../../../../riscv-none-elf/lib\libg_nano.a(lib_a-puts.o)
 .bss           0x0000000000000000        0x0 d:/mounriver_studio/toolchain/risc-v embedded gcc12/bin/../lib/gcc/riscv-none-elf/12.2.0/../../../../riscv-none-elf/lib\libg_nano.a(lib_a-puts.o)
 .text          0x0000000000000000        0x0 d:/mounriver_studio/toolchain/risc-v embedded gcc12/bin/../lib/gcc/riscv-none-elf/12.2.0/../../../../riscv-none-elf/lib\libg_nano.a(lib_a-wbuf.o)
 .data          0x0000000000000000        0x0 d:/mounriver_studio/toolchain/risc-v embedded gcc12/bin/../lib/gcc/riscv-none-elf/12.2.0/../../../../riscv-none-elf/lib\libg_nano.a(lib_a-wbuf.o)
 .bss           0x0000000000000000        0x0 d:/mounriver_studio/toolchain/risc-v embedded gcc12/bin/../lib/gcc/riscv-none-elf/12.2.0/../../../../riscv-none-elf/lib\libg_nano.a(lib_a-wbuf.o)
 .text.__swbuf  0x0000000000000000       0x14 d:/mounriver_studio/toolchain/risc-v embedded gcc12/bin/../lib/gcc/riscv-none-elf/12.2.0/../../../../riscv-none-elf/lib\libg_nano.a(lib_a-wbuf.o)
 .text          0x0000000000000000        0x0 d:/mounriver_studio/toolchain/risc-v embedded gcc12/bin/../lib/gcc/riscv-none-elf/12.2.0/../../../../riscv-none-elf/lib\libg_nano.a(lib_a-wsetup.o)
 .data          0x0000000000000000        0x0 d:/mounriver_studio/toolchain/risc-v embedded gcc12/bin/../lib/gcc/riscv-none-elf/12.2.0/../../../../riscv-none-elf/lib\libg_nano.a(lib_a-wsetup.o)
 .bss           0x0000000000000000        0x0 d:/mounriver_studio/toolchain/risc-v embedded gcc12/bin/../lib/gcc/riscv-none-elf/12.2.0/../../../../riscv-none-elf/lib\libg_nano.a(lib_a-wsetup.o)
 .text          0x0000000000000000        0x0 d:/mounriver_studio/toolchain/risc-v embedded gcc12/bin/../lib/gcc/riscv-none-elf/12.2.0/../../../../riscv-none-elf/lib\libg_nano.a(lib_a-fflush.o)
 .data          0x0000000000000000        0x0 d:/mounriver_studio/toolchain/risc-v embedded gcc12/bin/../lib/gcc/riscv-none-elf/12.2.0/../../../../riscv-none-elf/lib\libg_nano.a(lib_a-fflush.o)
 .bss           0x0000000000000000        0x0 d:/mounriver_studio/toolchain/risc-v embedded gcc12/bin/../lib/gcc/riscv-none-elf/12.2.0/../../../../riscv-none-elf/lib\libg_nano.a(lib_a-fflush.o)
 .text.fflush   0x0000000000000000       0x2c d:/mounriver_studio/toolchain/risc-v embedded gcc12/bin/../lib/gcc/riscv-none-elf/12.2.0/../../../../riscv-none-elf/lib\libg_nano.a(lib_a-fflush.o)
 .text          0x0000000000000000        0x0 d:/mounriver_studio/toolchain/risc-v embedded gcc12/bin/../lib/gcc/riscv-none-elf/12.2.0/../../../../riscv-none-elf/lib\libg_nano.a(lib_a-findfp.o)
 .data          0x0000000000000000        0x0 d:/mounriver_studio/toolchain/risc-v embedded gcc12/bin/../lib/gcc/riscv-none-elf/12.2.0/../../../../riscv-none-elf/lib\libg_nano.a(lib_a-findfp.o)
 .bss           0x0000000000000000        0x0 d:/mounriver_studio/toolchain/risc-v embedded gcc12/bin/../lib/gcc/riscv-none-elf/12.2.0/../../../../riscv-none-elf/lib\libg_nano.a(lib_a-findfp.o)
 .text.__fp_lock
                0x0000000000000000       0x2a d:/mounriver_studio/toolchain/risc-v embedded gcc12/bin/../lib/gcc/riscv-none-elf/12.2.0/../../../../riscv-none-elf/lib\libg_nano.a(lib_a-findfp.o)
 .text.__fp_unlock
                0x0000000000000000       0x2a d:/mounriver_studio/toolchain/risc-v embedded gcc12/bin/../lib/gcc/riscv-none-elf/12.2.0/../../../../riscv-none-elf/lib\libg_nano.a(lib_a-findfp.o)
 .text._cleanup
                0x0000000000000000       0x10 d:/mounriver_studio/toolchain/risc-v embedded gcc12/bin/../lib/gcc/riscv-none-elf/12.2.0/../../../../riscv-none-elf/lib\libg_nano.a(lib_a-findfp.o)
 .text.__fp_lock_all
                0x0000000000000000       0x28 d:/mounriver_studio/toolchain/risc-v embedded gcc12/bin/../lib/gcc/riscv-none-elf/12.2.0/../../../../riscv-none-elf/lib\libg_nano.a(lib_a-findfp.o)
 .text.__fp_unlock_all
                0x0000000000000000       0x28 d:/mounriver_studio/toolchain/risc-v embedded gcc12/bin/../lib/gcc/riscv-none-elf/12.2.0/../../../../riscv-none-elf/lib\libg_nano.a(lib_a-findfp.o)
 .text          0x0000000000000000        0x0 d:/mounriver_studio/toolchain/risc-v embedded gcc12/bin/../lib/gcc/riscv-none-elf/12.2.0/../../../../riscv-none-elf/lib\libg_nano.a(lib_a-fwalk.o)
 .data          0x0000000000000000        0x0 d:/mounriver_studio/toolchain/risc-v embedded gcc12/bin/../lib/gcc/riscv-none-elf/12.2.0/../../../../riscv-none-elf/lib\libg_nano.a(lib_a-fwalk.o)
 .bss           0x0000000000000000        0x0 d:/mounriver_studio/toolchain/risc-v embedded gcc12/bin/../lib/gcc/riscv-none-elf/12.2.0/../../../../riscv-none-elf/lib\libg_nano.a(lib_a-fwalk.o)
 .text._fwalk   0x0000000000000000       0x62 d:/mounriver_studio/toolchain/risc-v embedded gcc12/bin/../lib/gcc/riscv-none-elf/12.2.0/../../../../riscv-none-elf/lib\libg_nano.a(lib_a-fwalk.o)
 .text          0x0000000000000000        0x0 d:/mounriver_studio/toolchain/risc-v embedded gcc12/bin/../lib/gcc/riscv-none-elf/12.2.0/../../../../riscv-none-elf/lib\libg_nano.a(lib_a-lock.o)
 .data          0x0000000000000000        0x0 d:/mounriver_studio/toolchain/risc-v embedded gcc12/bin/../lib/gcc/riscv-none-elf/12.2.0/../../../../riscv-none-elf/lib\libg_nano.a(lib_a-lock.o)
 .bss           0x0000000000000000        0x0 d:/mounriver_studio/toolchain/risc-v embedded gcc12/bin/../lib/gcc/riscv-none-elf/12.2.0/../../../../riscv-none-elf/lib\libg_nano.a(lib_a-lock.o)
 .text.__retarget_lock_init
                0x0000000000000000        0x2 d:/mounriver_studio/toolchain/risc-v embedded gcc12/bin/../lib/gcc/riscv-none-elf/12.2.0/../../../../riscv-none-elf/lib\libg_nano.a(lib_a-lock.o)
 .text.__retarget_lock_close
                0x0000000000000000        0x2 d:/mounriver_studio/toolchain/risc-v embedded gcc12/bin/../lib/gcc/riscv-none-elf/12.2.0/../../../../riscv-none-elf/lib\libg_nano.a(lib_a-lock.o)
 .text.__retarget_lock_close_recursive
                0x0000000000000000        0x2 d:/mounriver_studio/toolchain/risc-v embedded gcc12/bin/../lib/gcc/riscv-none-elf/12.2.0/../../../../riscv-none-elf/lib\libg_nano.a(lib_a-lock.o)
 .text.__retarget_lock_acquire
                0x0000000000000000        0x2 d:/mounriver_studio/toolchain/risc-v embedded gcc12/bin/../lib/gcc/riscv-none-elf/12.2.0/../../../../riscv-none-elf/lib\libg_nano.a(lib_a-lock.o)
 .text.__retarget_lock_try_acquire
                0x0000000000000000        0x4 d:/mounriver_studio/toolchain/risc-v embedded gcc12/bin/../lib/gcc/riscv-none-elf/12.2.0/../../../../riscv-none-elf/lib\libg_nano.a(lib_a-lock.o)
 .text.__retarget_lock_try_acquire_recursive
                0x0000000000000000        0x4 d:/mounriver_studio/toolchain/risc-v embedded gcc12/bin/../lib/gcc/riscv-none-elf/12.2.0/../../../../riscv-none-elf/lib\libg_nano.a(lib_a-lock.o)
 .text.__retarget_lock_release
                0x0000000000000000        0x2 d:/mounriver_studio/toolchain/risc-v embedded gcc12/bin/../lib/gcc/riscv-none-elf/12.2.0/../../../../riscv-none-elf/lib\libg_nano.a(lib_a-lock.o)
 .sbss.__lock___arc4random_mutex
                0x0000000000000000        0x1 d:/mounriver_studio/toolchain/risc-v embedded gcc12/bin/../lib/gcc/riscv-none-elf/12.2.0/../../../../riscv-none-elf/lib\libg_nano.a(lib_a-lock.o)
 .sbss.__lock___dd_hash_mutex
                0x0000000000000000        0x1 d:/mounriver_studio/toolchain/risc-v embedded gcc12/bin/../lib/gcc/riscv-none-elf/12.2.0/../../../../riscv-none-elf/lib\libg_nano.a(lib_a-lock.o)
 .sbss.__lock___tz_mutex
                0x0000000000000000        0x1 d:/mounriver_studio/toolchain/risc-v embedded gcc12/bin/../lib/gcc/riscv-none-elf/12.2.0/../../../../riscv-none-elf/lib\libg_nano.a(lib_a-lock.o)
 .sbss.__lock___env_recursive_mutex
                0x0000000000000000        0x1 d:/mounriver_studio/toolchain/risc-v embedded gcc12/bin/../lib/gcc/riscv-none-elf/12.2.0/../../../../riscv-none-elf/lib\libg_nano.a(lib_a-lock.o)
 .sbss.__lock___at_quick_exit_mutex
                0x0000000000000000        0x1 d:/mounriver_studio/toolchain/risc-v embedded gcc12/bin/../lib/gcc/riscv-none-elf/12.2.0/../../../../riscv-none-elf/lib\libg_nano.a(lib_a-lock.o)
 .sbss.__lock___atexit_recursive_mutex
                0x0000000000000000        0x1 d:/mounriver_studio/toolchain/risc-v embedded gcc12/bin/../lib/gcc/riscv-none-elf/12.2.0/../../../../riscv-none-elf/lib\libg_nano.a(lib_a-lock.o)
 .text          0x0000000000000000        0x0 d:/mounriver_studio/toolchain/risc-v embedded gcc12/bin/../lib/gcc/riscv-none-elf/12.2.0/../../../../riscv-none-elf/lib\libg_nano.a(lib_a-makebuf.o)
 .data          0x0000000000000000        0x0 d:/mounriver_studio/toolchain/risc-v embedded gcc12/bin/../lib/gcc/riscv-none-elf/12.2.0/../../../../riscv-none-elf/lib\libg_nano.a(lib_a-makebuf.o)
 .bss           0x0000000000000000        0x0 d:/mounriver_studio/toolchain/risc-v embedded gcc12/bin/../lib/gcc/riscv-none-elf/12.2.0/../../../../riscv-none-elf/lib\libg_nano.a(lib_a-makebuf.o)
 .text          0x0000000000000000        0x0 d:/mounriver_studio/toolchain/risc-v embedded gcc12/bin/../lib/gcc/riscv-none-elf/12.2.0/../../../../riscv-none-elf/lib\libg_nano.a(lib_a-nano-freer.o)
 .data          0x0000000000000000        0x0 d:/mounriver_studio/toolchain/risc-v embedded gcc12/bin/../lib/gcc/riscv-none-elf/12.2.0/../../../../riscv-none-elf/lib\libg_nano.a(lib_a-nano-freer.o)
 .bss           0x0000000000000000        0x0 d:/mounriver_studio/toolchain/risc-v embedded gcc12/bin/../lib/gcc/riscv-none-elf/12.2.0/../../../../riscv-none-elf/lib\libg_nano.a(lib_a-nano-freer.o)
 .text          0x0000000000000000        0x0 d:/mounriver_studio/toolchain/risc-v embedded gcc12/bin/../lib/gcc/riscv-none-elf/12.2.0/../../../../riscv-none-elf/lib\libg_nano.a(lib_a-nano-mallocr.o)
 .data          0x0000000000000000        0x0 d:/mounriver_studio/toolchain/risc-v embedded gcc12/bin/../lib/gcc/riscv-none-elf/12.2.0/../../../../riscv-none-elf/lib\libg_nano.a(lib_a-nano-mallocr.o)
 .bss           0x0000000000000000        0x0 d:/mounriver_studio/toolchain/risc-v embedded gcc12/bin/../lib/gcc/riscv-none-elf/12.2.0/../../../../riscv-none-elf/lib\libg_nano.a(lib_a-nano-mallocr.o)
 .text          0x0000000000000000        0x0 d:/mounriver_studio/toolchain/risc-v embedded gcc12/bin/../lib/gcc/riscv-none-elf/12.2.0/../../../../riscv-none-elf/lib\libg_nano.a(lib_a-nano-vfprintf.o)
 .data          0x0000000000000000        0x0 d:/mounriver_studio/toolchain/risc-v embedded gcc12/bin/../lib/gcc/riscv-none-elf/12.2.0/../../../../riscv-none-elf/lib\libg_nano.a(lib_a-nano-vfprintf.o)
 .bss           0x0000000000000000        0x0 d:/mounriver_studio/toolchain/risc-v embedded gcc12/bin/../lib/gcc/riscv-none-elf/12.2.0/../../../../riscv-none-elf/lib\libg_nano.a(lib_a-nano-vfprintf.o)
 .text.__sprint_r
                0x0000000000000000       0x28 d:/mounriver_studio/toolchain/risc-v embedded gcc12/bin/../lib/gcc/riscv-none-elf/12.2.0/../../../../riscv-none-elf/lib\libg_nano.a(lib_a-nano-vfprintf.o)
 .text.vfprintf
                0x0000000000000000       0x16 d:/mounriver_studio/toolchain/risc-v embedded gcc12/bin/../lib/gcc/riscv-none-elf/12.2.0/../../../../riscv-none-elf/lib\libg_nano.a(lib_a-nano-vfprintf.o)
 .text          0x0000000000000000        0x0 d:/mounriver_studio/toolchain/risc-v embedded gcc12/bin/../lib/gcc/riscv-none-elf/12.2.0/../../../../riscv-none-elf/lib\libg_nano.a(lib_a-sbrkr.o)
 .data          0x0000000000000000        0x0 d:/mounriver_studio/toolchain/risc-v embedded gcc12/bin/../lib/gcc/riscv-none-elf/12.2.0/../../../../riscv-none-elf/lib\libg_nano.a(lib_a-sbrkr.o)
 .bss           0x0000000000000000        0x0 d:/mounriver_studio/toolchain/risc-v embedded gcc12/bin/../lib/gcc/riscv-none-elf/12.2.0/../../../../riscv-none-elf/lib\libg_nano.a(lib_a-sbrkr.o)
 .text          0x0000000000000000        0x0 d:/mounriver_studio/toolchain/risc-v embedded gcc12/bin/../lib/gcc/riscv-none-elf/12.2.0/../../../../riscv-none-elf/lib\libg_nano.a(lib_a-stdio.o)
 .data          0x0000000000000000        0x0 d:/mounriver_studio/toolchain/risc-v embedded gcc12/bin/../lib/gcc/riscv-none-elf/12.2.0/../../../../riscv-none-elf/lib\libg_nano.a(lib_a-stdio.o)
 .bss           0x0000000000000000        0x0 d:/mounriver_studio/toolchain/risc-v embedded gcc12/bin/../lib/gcc/riscv-none-elf/12.2.0/../../../../riscv-none-elf/lib\libg_nano.a(lib_a-stdio.o)
 .text.__seofread
                0x0000000000000000        0x4 d:/mounriver_studio/toolchain/risc-v embedded gcc12/bin/../lib/gcc/riscv-none-elf/12.2.0/../../../../riscv-none-elf/lib\libg_nano.a(lib_a-stdio.o)
 .text          0x0000000000000000        0x0 d:/mounriver_studio/toolchain/risc-v embedded gcc12/bin/../lib/gcc/riscv-none-elf/12.2.0/../../../../riscv-none-elf/lib\libg_nano.a(lib_a-writer.o)
 .data          0x0000000000000000        0x0 d:/mounriver_studio/toolchain/risc-v embedded gcc12/bin/../lib/gcc/riscv-none-elf/12.2.0/../../../../riscv-none-elf/lib\libg_nano.a(lib_a-writer.o)
 .bss           0x0000000000000000        0x0 d:/mounriver_studio/toolchain/risc-v embedded gcc12/bin/../lib/gcc/riscv-none-elf/12.2.0/../../../../riscv-none-elf/lib\libg_nano.a(lib_a-writer.o)
 .text          0x0000000000000000        0x0 d:/mounriver_studio/toolchain/risc-v embedded gcc12/bin/../lib/gcc/riscv-none-elf/12.2.0/../../../../riscv-none-elf/lib\libg_nano.a(lib_a-closer.o)
 .data          0x0000000000000000        0x0 d:/mounriver_studio/toolchain/risc-v embedded gcc12/bin/../lib/gcc/riscv-none-elf/12.2.0/../../../../riscv-none-elf/lib\libg_nano.a(lib_a-closer.o)
 .bss           0x0000000000000000        0x0 d:/mounriver_studio/toolchain/risc-v embedded gcc12/bin/../lib/gcc/riscv-none-elf/12.2.0/../../../../riscv-none-elf/lib\libg_nano.a(lib_a-closer.o)
 .text          0x0000000000000000        0x0 d:/mounriver_studio/toolchain/risc-v embedded gcc12/bin/../lib/gcc/riscv-none-elf/12.2.0/../../../../riscv-none-elf/lib\libg_nano.a(lib_a-fstatr.o)
 .data          0x0000000000000000        0x0 d:/mounriver_studio/toolchain/risc-v embedded gcc12/bin/../lib/gcc/riscv-none-elf/12.2.0/../../../../riscv-none-elf/lib\libg_nano.a(lib_a-fstatr.o)
 .bss           0x0000000000000000        0x0 d:/mounriver_studio/toolchain/risc-v embedded gcc12/bin/../lib/gcc/riscv-none-elf/12.2.0/../../../../riscv-none-elf/lib\libg_nano.a(lib_a-fstatr.o)
 .text          0x0000000000000000        0x0 d:/mounriver_studio/toolchain/risc-v embedded gcc12/bin/../lib/gcc/riscv-none-elf/12.2.0/../../../../riscv-none-elf/lib\libg_nano.a(lib_a-fvwrite.o)
 .data          0x0000000000000000        0x0 d:/mounriver_studio/toolchain/risc-v embedded gcc12/bin/../lib/gcc/riscv-none-elf/12.2.0/../../../../riscv-none-elf/lib\libg_nano.a(lib_a-fvwrite.o)
 .bss           0x0000000000000000        0x0 d:/mounriver_studio/toolchain/risc-v embedded gcc12/bin/../lib/gcc/riscv-none-elf/12.2.0/../../../../riscv-none-elf/lib\libg_nano.a(lib_a-fvwrite.o)
 .text.__sfvwrite_r
                0x0000000000000000      0x306 d:/mounriver_studio/toolchain/risc-v embedded gcc12/bin/../lib/gcc/riscv-none-elf/12.2.0/../../../../riscv-none-elf/lib\libg_nano.a(lib_a-fvwrite.o)
 .comment       0x0000000000000000       0x32 d:/mounriver_studio/toolchain/risc-v embedded gcc12/bin/../lib/gcc/riscv-none-elf/12.2.0/../../../../riscv-none-elf/lib\libg_nano.a(lib_a-fvwrite.o)
 .riscv.attributes
                0x0000000000000000       0x34 d:/mounriver_studio/toolchain/risc-v embedded gcc12/bin/../lib/gcc/riscv-none-elf/12.2.0/../../../../riscv-none-elf/lib\libg_nano.a(lib_a-fvwrite.o)
 .text          0x0000000000000000        0x0 d:/mounriver_studio/toolchain/risc-v embedded gcc12/bin/../lib/gcc/riscv-none-elf/12.2.0/../../../../riscv-none-elf/lib\libg_nano.a(lib_a-isattyr.o)
 .data          0x0000000000000000        0x0 d:/mounriver_studio/toolchain/risc-v embedded gcc12/bin/../lib/gcc/riscv-none-elf/12.2.0/../../../../riscv-none-elf/lib\libg_nano.a(lib_a-isattyr.o)
 .bss           0x0000000000000000        0x0 d:/mounriver_studio/toolchain/risc-v embedded gcc12/bin/../lib/gcc/riscv-none-elf/12.2.0/../../../../riscv-none-elf/lib\libg_nano.a(lib_a-isattyr.o)
 .text          0x0000000000000000        0x0 d:/mounriver_studio/toolchain/risc-v embedded gcc12/bin/../lib/gcc/riscv-none-elf/12.2.0/../../../../riscv-none-elf/lib\libg_nano.a(lib_a-lseekr.o)
 .data          0x0000000000000000        0x0 d:/mounriver_studio/toolchain/risc-v embedded gcc12/bin/../lib/gcc/riscv-none-elf/12.2.0/../../../../riscv-none-elf/lib\libg_nano.a(lib_a-lseekr.o)
 .bss           0x0000000000000000        0x0 d:/mounriver_studio/toolchain/risc-v embedded gcc12/bin/../lib/gcc/riscv-none-elf/12.2.0/../../../../riscv-none-elf/lib\libg_nano.a(lib_a-lseekr.o)
 .text          0x0000000000000000        0x0 d:/mounriver_studio/toolchain/risc-v embedded gcc12/bin/../lib/gcc/riscv-none-elf/12.2.0/../../../../riscv-none-elf/lib\libg_nano.a(lib_a-memchr.o)
 .data          0x0000000000000000        0x0 d:/mounriver_studio/toolchain/risc-v embedded gcc12/bin/../lib/gcc/riscv-none-elf/12.2.0/../../../../riscv-none-elf/lib\libg_nano.a(lib_a-memchr.o)
 .bss           0x0000000000000000        0x0 d:/mounriver_studio/toolchain/risc-v embedded gcc12/bin/../lib/gcc/riscv-none-elf/12.2.0/../../../../riscv-none-elf/lib\libg_nano.a(lib_a-memchr.o)
 .text          0x0000000000000000       0x26 d:/mounriver_studio/toolchain/risc-v embedded gcc12/bin/../lib/gcc/riscv-none-elf/12.2.0/../../../../riscv-none-elf/lib\libg_nano.a(lib_a-memmove.o)
 .data          0x0000000000000000        0x0 d:/mounriver_studio/toolchain/risc-v embedded gcc12/bin/../lib/gcc/riscv-none-elf/12.2.0/../../../../riscv-none-elf/lib\libg_nano.a(lib_a-memmove.o)
 .bss           0x0000000000000000        0x0 d:/mounriver_studio/toolchain/risc-v embedded gcc12/bin/../lib/gcc/riscv-none-elf/12.2.0/../../../../riscv-none-elf/lib\libg_nano.a(lib_a-memmove.o)
 .riscv.attributes
                0x0000000000000000       0x32 d:/mounriver_studio/toolchain/risc-v embedded gcc12/bin/../lib/gcc/riscv-none-elf/12.2.0/../../../../riscv-none-elf/lib\libg_nano.a(lib_a-memmove.o)
 .text          0x0000000000000000        0x0 d:/mounriver_studio/toolchain/risc-v embedded gcc12/bin/../lib/gcc/riscv-none-elf/12.2.0/../../../../riscv-none-elf/lib\libg_nano.a(lib_a-mlock.o)
 .data          0x0000000000000000        0x0 d:/mounriver_studio/toolchain/risc-v embedded gcc12/bin/../lib/gcc/riscv-none-elf/12.2.0/../../../../riscv-none-elf/lib\libg_nano.a(lib_a-mlock.o)
 .bss           0x0000000000000000        0x0 d:/mounriver_studio/toolchain/risc-v embedded gcc12/bin/../lib/gcc/riscv-none-elf/12.2.0/../../../../riscv-none-elf/lib\libg_nano.a(lib_a-mlock.o)
 .text          0x0000000000000000        0x0 d:/mounriver_studio/toolchain/risc-v embedded gcc12/bin/../lib/gcc/riscv-none-elf/12.2.0/../../../../riscv-none-elf/lib\libg_nano.a(lib_a-nano-reallocr.o)
 .data          0x0000000000000000        0x0 d:/mounriver_studio/toolchain/risc-v embedded gcc12/bin/../lib/gcc/riscv-none-elf/12.2.0/../../../../riscv-none-elf/lib\libg_nano.a(lib_a-nano-reallocr.o)
 .bss           0x0000000000000000        0x0 d:/mounriver_studio/toolchain/risc-v embedded gcc12/bin/../lib/gcc/riscv-none-elf/12.2.0/../../../../riscv-none-elf/lib\libg_nano.a(lib_a-nano-reallocr.o)
 .text._realloc_r
                0x0000000000000000       0x96 d:/mounriver_studio/toolchain/risc-v embedded gcc12/bin/../lib/gcc/riscv-none-elf/12.2.0/../../../../riscv-none-elf/lib\libg_nano.a(lib_a-nano-reallocr.o)
 .comment       0x0000000000000000       0x32 d:/mounriver_studio/toolchain/risc-v embedded gcc12/bin/../lib/gcc/riscv-none-elf/12.2.0/../../../../riscv-none-elf/lib\libg_nano.a(lib_a-nano-reallocr.o)
 .riscv.attributes
                0x0000000000000000       0x34 d:/mounriver_studio/toolchain/risc-v embedded gcc12/bin/../lib/gcc/riscv-none-elf/12.2.0/../../../../riscv-none-elf/lib\libg_nano.a(lib_a-nano-reallocr.o)
 .text          0x0000000000000000        0x0 d:/mounriver_studio/toolchain/risc-v embedded gcc12/bin/../lib/gcc/riscv-none-elf/12.2.0/../../../../riscv-none-elf/lib\libg_nano.a(lib_a-nano-vfprintf_i.o)
 .data          0x0000000000000000        0x0 d:/mounriver_studio/toolchain/risc-v embedded gcc12/bin/../lib/gcc/riscv-none-elf/12.2.0/../../../../riscv-none-elf/lib\libg_nano.a(lib_a-nano-vfprintf_i.o)
 .bss           0x0000000000000000        0x0 d:/mounriver_studio/toolchain/risc-v embedded gcc12/bin/../lib/gcc/riscv-none-elf/12.2.0/../../../../riscv-none-elf/lib\libg_nano.a(lib_a-nano-vfprintf_i.o)
 .text          0x0000000000000000        0x0 d:/mounriver_studio/toolchain/risc-v embedded gcc12/bin/../lib/gcc/riscv-none-elf/12.2.0/../../../../riscv-none-elf/lib\libg_nano.a(lib_a-readr.o)
 .data          0x0000000000000000        0x0 d:/mounriver_studio/toolchain/risc-v embedded gcc12/bin/../lib/gcc/riscv-none-elf/12.2.0/../../../../riscv-none-elf/lib\libg_nano.a(lib_a-readr.o)
 .bss           0x0000000000000000        0x0 d:/mounriver_studio/toolchain/risc-v embedded gcc12/bin/../lib/gcc/riscv-none-elf/12.2.0/../../../../riscv-none-elf/lib\libg_nano.a(lib_a-readr.o)
 .text          0x0000000000000000        0x0 d:/mounriver_studio/toolchain/risc-v embedded gcc12/bin/../lib/gcc/riscv-none-elf/12.2.0/../../../../riscv-none-elf/lib\libg_nano.a(lib_a-reent.o)
 .data          0x0000000000000000        0x0 d:/mounriver_studio/toolchain/risc-v embedded gcc12/bin/../lib/gcc/riscv-none-elf/12.2.0/../../../../riscv-none-elf/lib\libg_nano.a(lib_a-reent.o)
 .bss           0x0000000000000000        0x0 d:/mounriver_studio/toolchain/risc-v embedded gcc12/bin/../lib/gcc/riscv-none-elf/12.2.0/../../../../riscv-none-elf/lib\libg_nano.a(lib_a-reent.o)
 .text.cleanup_glue
                0x0000000000000000       0x2c d:/mounriver_studio/toolchain/risc-v embedded gcc12/bin/../lib/gcc/riscv-none-elf/12.2.0/../../../../riscv-none-elf/lib\libg_nano.a(lib_a-reent.o)
 .text._reclaim_reent
                0x0000000000000000      0x10c d:/mounriver_studio/toolchain/risc-v embedded gcc12/bin/../lib/gcc/riscv-none-elf/12.2.0/../../../../riscv-none-elf/lib\libg_nano.a(lib_a-reent.o)
 .text          0x0000000000000000        0x0 d:/mounriver_studio/toolchain/risc-v embedded gcc12/bin/../lib/gcc/riscv-none-elf/12.2.0/../../../../riscv-none-elf/lib\libg_nano.a(lib_a-nano-msizer.o)
 .data          0x0000000000000000        0x0 d:/mounriver_studio/toolchain/risc-v embedded gcc12/bin/../lib/gcc/riscv-none-elf/12.2.0/../../../../riscv-none-elf/lib\libg_nano.a(lib_a-nano-msizer.o)
 .bss           0x0000000000000000        0x0 d:/mounriver_studio/toolchain/risc-v embedded gcc12/bin/../lib/gcc/riscv-none-elf/12.2.0/../../../../riscv-none-elf/lib\libg_nano.a(lib_a-nano-msizer.o)
 .text._malloc_usable_size_r
                0x0000000000000000       0x14 d:/mounriver_studio/toolchain/risc-v embedded gcc12/bin/../lib/gcc/riscv-none-elf/12.2.0/../../../../riscv-none-elf/lib\libg_nano.a(lib_a-nano-msizer.o)
 .comment       0x0000000000000000       0x32 d:/mounriver_studio/toolchain/risc-v embedded gcc12/bin/../lib/gcc/riscv-none-elf/12.2.0/../../../../riscv-none-elf/lib\libg_nano.a(lib_a-nano-msizer.o)
 .riscv.attributes
                0x0000000000000000       0x34 d:/mounriver_studio/toolchain/risc-v embedded gcc12/bin/../lib/gcc/riscv-none-elf/12.2.0/../../../../riscv-none-elf/lib\libg_nano.a(lib_a-nano-msizer.o)
 .text          0x0000000000000000        0x0 d:/mounriver_studio/toolchain/risc-v embedded gcc12/bin/../lib/gcc/riscv-none-elf/12.2.0/../../../../riscv-none-elf/lib\libnosys.a(close.o)
 .data          0x0000000000000000        0x0 d:/mounriver_studio/toolchain/risc-v embedded gcc12/bin/../lib/gcc/riscv-none-elf/12.2.0/../../../../riscv-none-elf/lib\libnosys.a(close.o)
 .bss           0x0000000000000000        0x0 d:/mounriver_studio/toolchain/risc-v embedded gcc12/bin/../lib/gcc/riscv-none-elf/12.2.0/../../../../riscv-none-elf/lib\libnosys.a(close.o)
 .text          0x0000000000000000        0x0 d:/mounriver_studio/toolchain/risc-v embedded gcc12/bin/../lib/gcc/riscv-none-elf/12.2.0/../../../../riscv-none-elf/lib\libnosys.a(fstat.o)
 .data          0x0000000000000000        0x0 d:/mounriver_studio/toolchain/risc-v embedded gcc12/bin/../lib/gcc/riscv-none-elf/12.2.0/../../../../riscv-none-elf/lib\libnosys.a(fstat.o)
 .bss           0x0000000000000000        0x0 d:/mounriver_studio/toolchain/risc-v embedded gcc12/bin/../lib/gcc/riscv-none-elf/12.2.0/../../../../riscv-none-elf/lib\libnosys.a(fstat.o)
 .text          0x0000000000000000        0x0 d:/mounriver_studio/toolchain/risc-v embedded gcc12/bin/../lib/gcc/riscv-none-elf/12.2.0/../../../../riscv-none-elf/lib\libnosys.a(isatty.o)
 .data          0x0000000000000000        0x0 d:/mounriver_studio/toolchain/risc-v embedded gcc12/bin/../lib/gcc/riscv-none-elf/12.2.0/../../../../riscv-none-elf/lib\libnosys.a(isatty.o)
 .bss           0x0000000000000000        0x0 d:/mounriver_studio/toolchain/risc-v embedded gcc12/bin/../lib/gcc/riscv-none-elf/12.2.0/../../../../riscv-none-elf/lib\libnosys.a(isatty.o)
 .text          0x0000000000000000        0x0 d:/mounriver_studio/toolchain/risc-v embedded gcc12/bin/../lib/gcc/riscv-none-elf/12.2.0/../../../../riscv-none-elf/lib\libnosys.a(lseek.o)
 .data          0x0000000000000000        0x0 d:/mounriver_studio/toolchain/risc-v embedded gcc12/bin/../lib/gcc/riscv-none-elf/12.2.0/../../../../riscv-none-elf/lib\libnosys.a(lseek.o)
 .bss           0x0000000000000000        0x0 d:/mounriver_studio/toolchain/risc-v embedded gcc12/bin/../lib/gcc/riscv-none-elf/12.2.0/../../../../riscv-none-elf/lib\libnosys.a(lseek.o)
 .text          0x0000000000000000        0x0 d:/mounriver_studio/toolchain/risc-v embedded gcc12/bin/../lib/gcc/riscv-none-elf/12.2.0/../../../../riscv-none-elf/lib\libnosys.a(read.o)
 .data          0x0000000000000000        0x0 d:/mounriver_studio/toolchain/risc-v embedded gcc12/bin/../lib/gcc/riscv-none-elf/12.2.0/../../../../riscv-none-elf/lib\libnosys.a(read.o)
 .bss           0x0000000000000000        0x0 d:/mounriver_studio/toolchain/risc-v embedded gcc12/bin/../lib/gcc/riscv-none-elf/12.2.0/../../../../riscv-none-elf/lib\libnosys.a(read.o)

Memory Configuration

Name             Origin             Length             Attributes
FLASH            0x0000000000000000 0x0000000000010000 xr
RAM              0x0000000020000000 0x0000000000005000 xrw
*default*        0x0000000000000000 0xffffffffffffffff

Linker script and memory map

LOAD ./User/ch32v10x_it.o
LOAD ./User/ch32v10x_usbfs_device.o
LOAD ./User/conf.o
LOAD ./User/flash.o
LOAD ./User/global_api.o
LOAD ./User/gpio_adc.o
LOAD ./User/gpio_digit.o
LOAD ./User/hd_rumble.o
LOAD ./User/hd_rumble2.o
LOAD ./User/hd_rumble_high_accuracy.o
LOAD ./User/hd_rumble_high_accurary_packed.o
LOAD ./User/i2c.o
LOAD ./User/imu.o
LOAD ./User/imu_quaternion.o
LOAD ./User/main.o
LOAD ./User/ns_com.o
LOAD ./User/ns_com_mux.o
LOAD ./User/pwr.o
LOAD ./User/ring_buffer.o
LOAD ./User/spi.o
LOAD ./User/system_ch32v10x.o
LOAD ./User/tick.o
LOAD ./User/uart.o
LOAD ./User/uart_com.o
LOAD ./User/usb_desc.o
LOAD ./User/usbd_compatibility_hid.o
LOAD ./Startup/startup_ch32v10x.o
LOAD ./Peripheral/src/ch32v10x_adc.o
LOAD ./Peripheral/src/ch32v10x_bkp.o
LOAD ./Peripheral/src/ch32v10x_crc.o
LOAD ./Peripheral/src/ch32v10x_dbgmcu.o
LOAD ./Peripheral/src/ch32v10x_dma.o
LOAD ./Peripheral/src/ch32v10x_exti.o
LOAD ./Peripheral/src/ch32v10x_flash.o
LOAD ./Peripheral/src/ch32v10x_gpio.o
LOAD ./Peripheral/src/ch32v10x_i2c.o
LOAD ./Peripheral/src/ch32v10x_iwdg.o
LOAD ./Peripheral/src/ch32v10x_misc.o
LOAD ./Peripheral/src/ch32v10x_pwr.o
LOAD ./Peripheral/src/ch32v10x_rcc.o
LOAD ./Peripheral/src/ch32v10x_rtc.o
LOAD ./Peripheral/src/ch32v10x_spi.o
LOAD ./Peripheral/src/ch32v10x_tim.o
LOAD ./Peripheral/src/ch32v10x_usart.o
LOAD ./Peripheral/src/ch32v10x_usb.o
LOAD ./Peripheral/src/ch32v10x_usb_host.o
LOAD ./Peripheral/src/ch32v10x_wwdg.o
LOAD ./Debug/debug.o
LOAD ./Core/core_riscv.o
LOAD d:/mounriver_studio/toolchain/risc-v embedded gcc12/bin/../lib/gcc/riscv-none-elf/12.2.0/../../../../riscv-none-elf/lib\libm_nano.a
LOAD d:/mounriver_studio/toolchain/risc-v embedded gcc12/bin/../lib/gcc/riscv-none-elf/12.2.0\libgcc.a
LOAD d:/mounriver_studio/toolchain/risc-v embedded gcc12/bin/../lib/gcc/riscv-none-elf/12.2.0/../../../../riscv-none-elf/lib\libg_nano.a
LOAD d:/mounriver_studio/toolchain/risc-v embedded gcc12/bin/../lib/gcc/riscv-none-elf/12.2.0/../../../../riscv-none-elf/lib\libc_nano.a
LOAD d:/mounriver_studio/toolchain/risc-v embedded gcc12/bin/../lib/gcc/riscv-none-elf/12.2.0\libgcc.a
START GROUP
LOAD d:/mounriver_studio/toolchain/risc-v embedded gcc12/bin/../lib/gcc/riscv-none-elf/12.2.0\libgcc.a
LOAD d:/mounriver_studio/toolchain/risc-v embedded gcc12/bin/../lib/gcc/riscv-none-elf/12.2.0/../../../../riscv-none-elf/lib\libc_nano.a
LOAD d:/mounriver_studio/toolchain/risc-v embedded gcc12/bin/../lib/gcc/riscv-none-elf/12.2.0/../../../../riscv-none-elf/lib\libnosys.a
END GROUP
START GROUP
LOAD d:/mounriver_studio/toolchain/risc-v embedded gcc12/bin/../lib/gcc/riscv-none-elf/12.2.0\libgcc.a
LOAD d:/mounriver_studio/toolchain/risc-v embedded gcc12/bin/../lib/gcc/riscv-none-elf/12.2.0/../../../../riscv-none-elf/lib\libc_nano.a
LOAD d:/mounriver_studio/toolchain/risc-v embedded gcc12/bin/../lib/gcc/riscv-none-elf/12.2.0/../../../../riscv-none-elf/lib\libnosys.a
END GROUP
                0x0000000000000800                __stack_size = 0x800
                [!provide]                        PROVIDE (_stack_size = __stack_size)

.init           0x0000000000000000       0x38
                0x0000000000000000                _sinit = .
                0x0000000000000000                . = ALIGN (0x4)
 *(SORT_NONE(.init))
 .init          0x0000000000000000       0x38 ./Startup/startup_ch32v10x.o
                0x0000000000000000                _start
                0x0000000000000038                . = ALIGN (0x4)
                0x0000000000000038                _einit = .

.vector         0x0000000000000038      0x108
 *(.vector)
 .vector        0x0000000000000038       0xf0 ./Startup/startup_ch32v10x.o
                0x0000000000000140                . = ALIGN (0x40)
 *fill*         0x0000000000000128       0x18 

.text           0x0000000000000140     0xced4
                0x0000000000000140                . = ALIGN (0x4)
 *(.text)
 .text          0x0000000000000140       0x60 d:/mounriver_studio/toolchain/risc-v embedded gcc12/bin/../lib/gcc/riscv-none-elf/12.2.0\libgcc.a(save-restore.o)
                0x0000000000000140                __riscv_save_12
                0x0000000000000148                __riscv_save_9
                0x0000000000000148                __riscv_save_11
                0x0000000000000148                __riscv_save_10
                0x0000000000000148                __riscv_save_8
                0x0000000000000156                __riscv_save_4
                0x0000000000000156                __riscv_save_6
                0x0000000000000156                __riscv_save_5
                0x0000000000000156                __riscv_save_7
                0x0000000000000170                __riscv_save_3
                0x0000000000000170                __riscv_save_2
                0x0000000000000170                __riscv_save_1
                0x0000000000000170                __riscv_save_0
                0x000000000000017c                __riscv_restore_12
                0x0000000000000180                __riscv_restore_11
                0x0000000000000180                __riscv_restore_9
                0x0000000000000180                __riscv_restore_10
                0x0000000000000180                __riscv_restore_8
                0x000000000000018a                __riscv_restore_5
                0x000000000000018a                __riscv_restore_7
                0x000000000000018a                __riscv_restore_6
                0x000000000000018a                __riscv_restore_4
                0x0000000000000194                __riscv_restore_3
                0x0000000000000194                __riscv_restore_0
                0x0000000000000194                __riscv_restore_2
                0x0000000000000194                __riscv_restore_1
 .text          0x00000000000001a0       0x16 d:/mounriver_studio/toolchain/risc-v embedded gcc12/bin/../lib/gcc/riscv-none-elf/12.2.0/../../../../riscv-none-elf/lib\libg_nano.a(lib_a-memcpy-asm.o)
                0x00000000000001a0                memcpy
 .text          0x00000000000001b6       0x10 d:/mounriver_studio/toolchain/risc-v embedded gcc12/bin/../lib/gcc/riscv-none-elf/12.2.0/../../../../riscv-none-elf/lib\libg_nano.a(lib_a-memset.o)
                0x00000000000001b6                memset
 *(.text.*)
 .text.NMI_Handler
                0x00000000000001c6       0x28 ./User/ch32v10x_it.o
                0x00000000000001c6                NMI_Handler
 .text.HardFault_Handler
                0x00000000000001ee        0x4 ./User/ch32v10x_it.o
                0x00000000000001ee                HardFault_Handler
 .text.USBFS_RCC_Init
                0x00000000000001f2       0x4a ./User/ch32v10x_usbfs_device.o
                0x00000000000001f2                USBFS_RCC_Init
 .text.USBFS_Device_Endp_Init
                0x000000000000023c       0x3c ./User/ch32v10x_usbfs_device.o
                0x000000000000023c                USBFS_Device_Endp_Init
 .text.USBFS_IRQHandler
                0x0000000000000278      0x672 ./User/ch32v10x_usbfs_device.o
                0x0000000000000278                USBFS_IRQHandler
 .text.USBFS_Device_Init
                0x00000000000008ea       0xbc ./User/ch32v10x_usbfs_device.o
                0x00000000000008ea                USBFS_Device_Init
 .text.set_hd_rumble_range
                0x00000000000009a6       0x4a ./User/conf.o
                0x00000000000009a6                set_hd_rumble_range
 .text.conf_read
                0x00000000000009f0       0x7c ./User/conf.o
                0x00000000000009f0                conf_read
 .text.custom_conf_read
                0x0000000000000a6c       0x10 ./User/conf.o
                0x0000000000000a6c                custom_conf_read
 .text.custom_conf_write
                0x0000000000000a7c       0x10 ./User/conf.o
                0x0000000000000a7c                custom_conf_write
 .text.fac_conf_read
                0x0000000000000a8c       0x12 ./User/conf.o
                0x0000000000000a8c                fac_conf_read
 .text.fac_conf_write
                0x0000000000000a9e       0x12 ./User/conf.o
                0x0000000000000a9e                fac_conf_write
 .text.conf_flush
                0x0000000000000ab0       0x8c ./User/conf.o
                0x0000000000000ab0                conf_flush
 .text.conf_init
                0x0000000000000b3c      0x31e ./User/conf.o
                0x0000000000000b3c                conf_init
 .text.hw_config_flush
                0x0000000000000e5a       0x10 ./User/conf.o
                0x0000000000000e5a                hw_config_flush
 .text.conf_write
                0x0000000000000e6a      0x10c ./User/conf.o
                0x0000000000000e6a                conf_write
 .text.write_flash
                0x0000000000000f76       0x6e ./User/flash.o
                0x0000000000000f76                write_flash
 .text.read_flash
                0x0000000000000fe4       0x30 ./User/flash.o
                0x0000000000000fe4                read_flash
 .text.i32_min  0x0000000000001014        0xc ./User/global_api.o
                0x0000000000001014                i32_min
 .text.fetch_uint32
                0x0000000000001020       0x18 ./User/global_api.o
                0x0000000000001020                fetch_uint32
 .text.i32_clamp
                0x0000000000001038       0x12 ./User/global_api.o
                0x0000000000001038                i32_clamp
 .text.ADC_Function_Init
                0x000000000000104a       0xb2 ./User/gpio_adc.o
                0x000000000000104a                ADC_Function_Init
 .text.DMA_Tx_Init
                0x00000000000010fc       0x56 ./User/gpio_adc.o
                0x00000000000010fc                DMA_Tx_Init
 .text.adc_init
                0x0000000000001152       0x6e ./User/gpio_adc.o
                0x0000000000001152                adc_init
 .text.gpio_tb_init
                0x00000000000011c0       0xa2 ./User/gpio_digit.o
                0x00000000000011c0                gpio_tb_init
 .text._gpio_init
                0x0000000000001262       0xce ./User/gpio_digit.o
                0x0000000000001262                _gpio_init
 .text.gpio_kb_scan_init
                0x0000000000001330       0x8c ./User/gpio_digit.o
                0x0000000000001330                gpio_kb_scan_init
 .text.gpio_init
                0x00000000000013bc       0x22 ./User/gpio_digit.o
                0x00000000000013bc                gpio_init
 .text.gpio_kb_scan
                0x00000000000013de       0xa0 ./User/gpio_digit.o
                0x00000000000013de                gpio_kb_scan
 .text.gpio_read_all
                0x000000000000147e       0x82 ./User/gpio_digit.o
                0x000000000000147e                gpio_read_all
 .text.gpio_read
                0x0000000000001500       0x54 ./User/gpio_digit.o
                0x0000000000001500                gpio_read
 .text.gpio_set
                0x0000000000001554       0x1e ./User/gpio_digit.o
                0x0000000000001554                gpio_set
 .text.button_read_raw
                0x0000000000001572       0x12 ./User/gpio_digit.o
                0x0000000000001572                button_read_raw
 .text.hd_rumble_init
                0x0000000000001584      0x116 ./User/hd_rumble.o
                0x0000000000001584                hd_rumble_init
 .text.hd_rumble_set_status
                0x000000000000169a        0xe ./User/hd_rumble.o
                0x000000000000169a                hd_rumble_set_status
 .text.ApplyCommand
                0x00000000000016a8       0x36 ./User/hd_rumble2.o
                0x00000000000016a8                ApplyCommand
 .text.ApplyAmCommand
                0x00000000000016de       0x24 ./User/hd_rumble2.o
                0x00000000000016de                ApplyAmCommand
 .text.ApplyFmCommand
                0x0000000000001702       0x28 ./User/hd_rumble2.o
                0x0000000000001702                ApplyFmCommand
 .text.get_hd_rumble_pack
                0x000000000000172a       0x1a ./User/hd_rumble2.o
                0x000000000000172a                get_hd_rumble_pack
 .text.deocde_hd_rumble_format1
                0x0000000000001744       0x70 ./User/hd_rumble2.o
                0x0000000000001744                deocde_hd_rumble_format1
 .text.decode_hd_rumble_format1long
                0x00000000000017b4       0x82 ./User/hd_rumble2.o
                0x00000000000017b4                decode_hd_rumble_format1long
 .text.decode_hd_rumble_format1full
                0x0000000000001836      0x12a ./User/hd_rumble2.o
                0x0000000000001836                decode_hd_rumble_format1full
 .text.decode_hd_rumble_format2
                0x0000000000001960       0xcc ./User/hd_rumble2.o
                0x0000000000001960                decode_hd_rumble_format2
 .text.decode_hd_rumble_format2long
                0x0000000000001a2c      0x10e ./User/hd_rumble2.o
                0x0000000000001a2c                decode_hd_rumble_format2long
 .text.decode_hd_rumble_format3
                0x0000000000001b3a      0x142 ./User/hd_rumble2.o
                0x0000000000001b3a                decode_hd_rumble_format3
 .text.decode_hd_rumble_multiformat_high_acc
                0x0000000000001c7c      0x27e ./User/hd_rumble2.o
                0x0000000000001c7c                decode_hd_rumble_multiformat_high_acc
 .text.hd_rumble_lookup_tb_init
                0x0000000000001efa       0x4a ./User/hd_rumble2.o
                0x0000000000001efa                hd_rumble_lookup_tb_init
 .text.hd_rumble_high_accurary_init
                0x0000000000001f44       0xa2 ./User/hd_rumble_high_accuracy.o
                0x0000000000001f44                hd_rumble_high_accurary_init
 .text.push_waveform
                0x0000000000001fe6       0x60 ./User/hd_rumble_high_accuracy.o
                0x0000000000001fe6                push_waveform
 .text.push_waveform_into_buffer_task
                0x0000000000002046      0x108 ./User/hd_rumble_high_accuracy.o
                0x0000000000002046                push_waveform_into_buffer_task
 .text.step_forward
                0x000000000000214e       0x44 ./User/hd_rumble_high_accuracy.o
                0x000000000000214e                step_forward
 .text.rumble_pattern_check
                0x0000000000002192       0x5c ./User/hd_rumble_high_accuracy.o
                0x0000000000002192                rumble_pattern_check
 .text.TIM3_IRQHandler
                0x00000000000021ee      0x484 ./User/hd_rumble_high_accuracy.o
                0x00000000000021ee                TIM3_IRQHandler
 .text.i2c2_check_flag
                0x0000000000002672       0x1a ./User/i2c.o
                0x0000000000002672                i2c2_check_flag
 .text.i2c2_check_event
                0x000000000000268c       0x1a ./User/i2c.o
                0x000000000000268c                i2c2_check_event
 .text.I2C2_ER_IRQHandler
                0x00000000000026a6       0x2a ./User/i2c.o
                0x00000000000026a6                I2C2_ER_IRQHandler
 .text.i2c_software_recovery
                0x00000000000026d0      0x11e ./User/i2c.o
                0x00000000000026d0                i2c_software_recovery
 .text.i2c2_reset
                0x00000000000027ee       0x44 ./User/i2c.o
                0x00000000000027ee                i2c2_reset
 .text.i2c_hardware_init
                0x0000000000002832       0xc0 ./User/i2c.o
                0x0000000000002832                i2c_hardware_init
 .text.i2c_read_start
                0x00000000000028f2      0x140 ./User/i2c.o
                0x00000000000028f2                i2c_read_start
 .text.i2c_read_byte
                0x0000000000002a32       0x84 ./User/i2c.o
                0x0000000000002a32                i2c_read_byte
 .text.i2c_read_continuous
                0x0000000000002ab6       0xac ./User/i2c.o
                0x0000000000002ab6                i2c_read_continuous
 .text.i2c_write_byte
                0x0000000000002b62      0x116 ./User/i2c.o
                0x0000000000002b62                i2c_write_byte
 .text.i2c_init
                0x0000000000002c78       0x10 ./User/i2c.o
                0x0000000000002c78                i2c_init
 .text.imu_set_reg
                0x0000000000002c88       0x34 ./User/imu.o
                0x0000000000002c88                imu_set_reg
 .text.imu_read
                0x0000000000002cbc       0xca ./User/imu.o
                0x0000000000002cbc                imu_read
 .text.set_imu_awake
                0x0000000000002d86       0x96 ./User/imu.o
                0x0000000000002d86                set_imu_awake
 .text.set_imu_sleep
                0x0000000000002e1c       0x24 ./User/imu.o
                0x0000000000002e1c                set_imu_sleep
 .text.imu_init
                0x0000000000002e40        0x2 ./User/imu.o
                0x0000000000002e40                imu_init
 .text.imu_upd  0x0000000000002e42      0x264 ./User/imu.o
                0x0000000000002e42                imu_upd
 .text._imu_quat_normalize
                0x00000000000030a6       0x90 ./User/imu_quaternion.o
                0x00000000000030a6                _imu_quat_normalize
 .text._imu_rotate_quaternion
                0x0000000000003136      0x128 ./User/imu_quaternion.o
                0x0000000000003136                _imu_rotate_quaternion
 .text._imu_update_quaternion
                0x000000000000325e      0x1fe ./User/imu_quaternion.o
                0x000000000000325e                _imu_update_quaternion
 .text.switch_motion_pack_quat
                0x000000000000345c      0x326 ./User/imu_quaternion.o
                0x000000000000345c                switch_motion_pack_quat
 .text.imu_upd2
                0x0000000000003782       0x32 ./User/imu_quaternion.o
                0x0000000000003782                imu_upd2
 .text.button_upd_all
                0x00000000000037b4       0x18 ./User/main.o
                0x00000000000037b4                button_upd_all
 .text.get_peripheral_data_handler.part.0
                0x00000000000037cc       0xce ./User/main.o
 .text.get_peripheral_data_handler
                0x000000000000389a        0x8 ./User/main.o
                0x000000000000389a                get_peripheral_data_handler
 .text.joystick_snapback_filter
                0x00000000000038a2      0x2ce ./User/main.o
                0x00000000000038a2                joystick_snapback_filter
 .text.joystick_debounce_task
                0x0000000000003b70       0x84 ./User/main.o
                0x0000000000003b70                joystick_debounce_task
 .text.func_switch_task
                0x0000000000003bf4      0x202 ./User/main.o
                0x0000000000003bf4                func_switch_task
 .text.top_timer
                0x0000000000003df6       0x58 ./User/main.o
                0x0000000000003df6                top_timer
 .text.routine_service
                0x0000000000003e4e       0x62 ./User/main.o
                0x0000000000003e4e                routine_service
 .text.set_peripherals_state
                0x0000000000003eb0       0x92 ./User/main.o
                0x0000000000003eb0                set_peripherals_state
 .text.init_all
                0x0000000000003f42       0xd8 ./User/main.o
                0x0000000000003f42                init_all
 .text.startup.main
                0x000000000000401a       0x8a ./User/main.o
                0x000000000000401a                main
 .text.ns_subcommand_set_hci_state
                0x00000000000040a4        0x2 ./User/ns_com.o
                0x00000000000040a4                ns_subcommand_set_hci_state
 .text.ns_subcommand_set_imu_register
                0x00000000000040a6       0x10 ./User/ns_com.o
                0x00000000000040a6                ns_subcommand_set_imu_register
 .text.ns_subcommand_reset_mcu
                0x00000000000040b6        0x2 ./User/ns_com.o
                0x00000000000040b6                ns_subcommand_reset_mcu
 .text.ns_subcommand_set_home_led
                0x00000000000040b8        0x2 ./User/ns_com.o
                0x00000000000040b8                ns_subcommand_set_home_led
 .text.ns_subcommand_reset_pairing_info
                0x00000000000040ba        0x2 ./User/ns_com.o
                0x00000000000040ba                ns_subcommand_reset_pairing_info
 .text.pkt_clr  0x00000000000040bc       0x16 ./User/ns_com.o
                0x00000000000040bc                pkt_clr
 .text.ns_subcommand_set_mcu_conf
                0x00000000000040d2       0x40 ./User/ns_com.o
                0x00000000000040d2                ns_subcommand_set_mcu_conf
 .text.ns_subcommand_default
                0x0000000000004112       0x38 ./User/ns_com.o
                0x0000000000004112                ns_subcommand_default
 .text.ns_subcommand_pair_by_wire
                0x000000000000414a       0xa0 ./User/ns_com.o
                0x000000000000414a                ns_subcommand_pair_by_wire
 .text.ns_subcommand_get_device_info
                0x00000000000041ea       0x9c ./User/ns_com.o
                0x00000000000041ea                ns_subcommand_get_device_info
 .text.ns_subcommand_set_input_mode
                0x0000000000004286       0x4a ./User/ns_com.o
                0x0000000000004286                ns_subcommand_set_input_mode
 .text.ns_subcommand_trigger_buttons_elapsed_time
                0x00000000000042d0       0x46 ./User/ns_com.o
                0x00000000000042d0                ns_subcommand_trigger_buttons_elapsed_time
 .text.ns_subcommand_get_page_list_state
                0x0000000000004316       0x3a ./User/ns_com.o
                0x0000000000004316                ns_subcommand_get_page_list_state
 .text.ns_subcommand_set_shipping_mode
                0x0000000000004350       0x38 ./User/ns_com.o
                0x0000000000004350                ns_subcommand_set_shipping_mode
 .text.ns_subcommand_spi_erase
                0x0000000000004388        0x4 ./User/ns_com.o
                0x0000000000004388                ns_subcommand_spi_erase
 .text.ns_subcommand_enable_mcu_polling
                0x000000000000438c        0x4 ./User/ns_com.o
                0x000000000000438c                ns_subcommand_enable_mcu_polling
 .text.ns_subcommand_disable_mcu_polling
                0x0000000000004390        0x4 ./User/ns_com.o
                0x0000000000004390                ns_subcommand_disable_mcu_polling
 .text.ns_subcommand_spi_read
                0x0000000000004394       0x7a ./User/ns_com.o
                0x0000000000004394                ns_subcommand_spi_read
 .text.ns_subcommand_spi_write
                0x000000000000440e       0x62 ./User/ns_com.o
                0x000000000000440e                ns_subcommand_spi_write
 .text.ns_subcommand_set_mcu_state
                0x0000000000004470       0x34 ./User/ns_com.o
                0x0000000000004470                ns_subcommand_set_mcu_state
 .text.ns_subcommand_attachmend_write
                0x00000000000044a4        0x4 ./User/ns_com.o
                0x00000000000044a4                ns_subcommand_attachmend_write
 .text.ns_subcommand_write_charge_setting
                0x00000000000044a8        0x4 ./User/ns_com.o
                0x00000000000044a8                ns_subcommand_write_charge_setting
 .text.ns_subcommand_attachmend_read
                0x00000000000044ac       0x36 ./User/ns_com.o
                0x00000000000044ac                ns_subcommand_attachmend_read
 .text.ns_subcommand_attachment_state
                0x00000000000044e2       0x30 ./User/ns_com.o
                0x00000000000044e2                ns_subcommand_attachment_state
 .text.ns_subcommand_get_attachment_info
                0x0000000000004512       0x34 ./User/ns_com.o
                0x0000000000004512                ns_subcommand_get_attachment_info
 .text.ns_subcommand_set_indicate_led
                0x0000000000004546       0x4a ./User/ns_com.o
                0x0000000000004546                ns_subcommand_set_indicate_led
 .text.ns_subcommand_get_indicate_led
                0x0000000000004590       0x3c ./User/ns_com.o
                0x0000000000004590                ns_subcommand_get_indicate_led
 .text.ns_subcommand_set_imu_state
                0x00000000000045cc       0x40 ./User/ns_com.o
                0x00000000000045cc                ns_subcommand_set_imu_state
 .text.ns_subcommand_set_imu_conf
                0x000000000000460c       0x5e ./User/ns_com.o
                0x000000000000460c                ns_subcommand_set_imu_conf
 .text.ns_subcommand_read_imu_register
                0x000000000000466a       0x68 ./User/ns_com.o
                0x000000000000466a                ns_subcommand_read_imu_register
 .text.ns_subcommand_set_rumble_state
                0x00000000000046d2       0x40 ./User/ns_com.o
                0x00000000000046d2                ns_subcommand_set_rumble_state
 .text.ns_subcommand_get_battery_voltage
                0x0000000000004712       0x3c ./User/ns_com.o
                0x0000000000004712                ns_subcommand_get_battery_voltage
 .text.ns_subcommand_read_charge_setting
                0x000000000000474e       0x3a ./User/ns_com.o
                0x000000000000474e                ns_subcommand_read_charge_setting
 .text.ns_subcommand_callback_init
                0x0000000000004788      0x112 ./User/ns_com.o
                0x0000000000004788                ns_subcommand_callback_init
 .text.ns_rumble_handler
                0x000000000000489a       0x14 ./User/ns_com_mux.o
                0x000000000000489a                ns_rumble_handler
 .text.ns_cmd_subcommand_dispatcher
                0x00000000000048ae       0x3c ./User/ns_com_mux.o
                0x00000000000048ae                ns_cmd_subcommand_dispatcher
 .text.ns_mux_usb_handshake_handler
                0x00000000000048ea       0x8e ./User/ns_com_mux.o
                0x00000000000048ea                ns_mux_usb_handshake_handler
 .text.fw_snd_pkt
                0x0000000000004978       0x28 ./User/ns_com_mux.o
                0x0000000000004978                fw_snd_pkt
 .text.fw_subcommand_read_setting
                0x00000000000049a0       0x52 ./User/ns_com_mux.o
                0x00000000000049a0                fw_subcommand_read_setting
 .text.fw_subcommand_read_emulate_rom
                0x00000000000049f2       0xb8 ./User/ns_com_mux.o
                0x00000000000049f2                fw_subcommand_read_emulate_rom
 .text.fw_subcommand_write_emulate_rom
                0x0000000000004aaa       0x40 ./User/ns_com_mux.o
                0x0000000000004aaa                fw_subcommand_write_emulate_rom
 .text._calibrate_imu_raw
                0x0000000000004aea      0x118 ./User/ns_com_mux.o
                0x0000000000004aea                _calibrate_imu_raw
 .text.calibrate_imu
                0x0000000000004c02      0x18a ./User/ns_com_mux.o
                0x0000000000004c02                calibrate_imu
 .text.fw_subcommand_calibrate_imu
                0x0000000000004d8c       0x2c ./User/ns_com_mux.o
                0x0000000000004d8c                fw_subcommand_calibrate_imu
 .text.fw_subcommand_calibrate_js_offset
                0x0000000000004db8       0x6c ./User/ns_com_mux.o
                0x0000000000004db8                fw_subcommand_calibrate_js_offset
 .text.fw_subcommand_get_status
                0x0000000000004e24       0x70 ./User/ns_com_mux.o
                0x0000000000004e24                fw_subcommand_get_status
 .text.fw_subcommand_reboot
                0x0000000000004e94       0x22 ./User/ns_com_mux.o
                0x0000000000004e94                fw_subcommand_reboot
 .text.fw_subcommand_get_version
                0x0000000000004eb6       0x42 ./User/ns_com_mux.o
                0x0000000000004eb6                fw_subcommand_get_version
 .text.fw_subcommand_dispatcher
                0x0000000000004ef8       0x96 ./User/ns_com_mux.o
                0x0000000000004ef8                fw_subcommand_dispatcher
 .text.ns_mux_init
                0x0000000000004f8e        0x4 ./User/ns_com_mux.o
                0x0000000000004f8e                ns_mux_init
 .text.hid_dispatch
                0x0000000000004f92       0x46 ./User/ns_com_mux.o
                0x0000000000004f92                hid_dispatch
 .text.ns_send_report
                0x0000000000004fd8        0xe ./User/ns_com_mux.o
                0x0000000000004fd8                ns_send_report
 .text.setup_exti
                0x0000000000004fe6       0xae ./User/pwr.o
                0x0000000000004fe6                setup_exti
 .text.top_init
                0x0000000000005094       0x2e ./User/pwr.o
                0x0000000000005094                top_init
 .text.set_pwr_mode_sleep
                0x00000000000050c2       0x4c ./User/pwr.o
                0x00000000000050c2                set_pwr_mode_sleep
 .text.set_pwr_mode_stop
                0x000000000000510e       0x4c ./User/pwr.o
                0x000000000000510e                set_pwr_mode_stop
 .text.ring_buffer_init
                0x000000000000515a       0x3e ./User/ring_buffer.o
                0x000000000000515a                ring_buffer_init
 .text.ring_buffer_push
                0x0000000000005198       0x90 ./User/ring_buffer.o
                0x0000000000005198                ring_buffer_push
 .text.ring_buffer_push_with_hdr
                0x0000000000005228       0xaa ./User/ring_buffer.o
                0x0000000000005228                ring_buffer_push_with_hdr
 .text.ring_buffer_pop
                0x00000000000052d2       0x54 ./User/ring_buffer.o
                0x00000000000052d2                ring_buffer_pop
 .text.SPI_FullDuplex_Init
                0x0000000000005326       0x76 ./User/spi.o
                0x0000000000005326                SPI_FullDuplex_Init
 .text.spi_DMA_Tx_Init
                0x000000000000539c       0x54 ./User/spi.o
                0x000000000000539c                spi_DMA_Tx_Init
 .text.rgb_spi_pkg_gen
                0x00000000000053f0       0x54 ./User/spi.o
                0x00000000000053f0                rgb_spi_pkg_gen
 .text.set_led_rgb
                0x0000000000005444       0x7e ./User/spi.o
                0x0000000000005444                set_led_rgb
 .text.flush_spi_tx_seq
                0x00000000000054c2      0x100 ./User/spi.o
                0x00000000000054c2                flush_spi_tx_seq
 .text._flush_rgb
                0x00000000000055c2       0x52 ./User/spi.o
                0x00000000000055c2                _flush_rgb
 .text.flush_rgb
                0x0000000000005614       0x14 ./User/spi.o
                0x0000000000005614                flush_rgb
 .text.spi_init
                0x0000000000005628       0x54 ./User/spi.o
                0x0000000000005628                spi_init
 .text.set_indicate_led_function
                0x000000000000567c       0xd6 ./User/spi.o
                0x000000000000567c                set_indicate_led_function
 .text.set_indicate_led_player
                0x0000000000005752       0x9e ./User/spi.o
                0x0000000000005752                set_indicate_led_player
 .text.set_indicate_led_status
                0x00000000000057f0        0xc ./User/spi.o
                0x00000000000057f0                set_indicate_led_status
 .text.set_indicate_led_mode
                0x00000000000057fc       0x14 ./User/spi.o
                0x00000000000057fc                set_indicate_led_mode
 .text.indicate_rgb_task
                0x0000000000005810       0x46 ./User/spi.o
                0x0000000000005810                indicate_rgb_task
 .text.DMA1_Channel3_IRQHandler
                0x0000000000005856       0x2e ./User/spi.o
                0x0000000000005856                DMA1_Channel3_IRQHandler
 .text.SetSysClockTo72_HSE
                0x0000000000005884       0xc6 ./User/system_ch32v10x.o
 .text.SystemInit
                0x000000000000594a       0x44 ./User/system_ch32v10x.o
                0x000000000000594a                SystemInit
 .text.SystemCoreClockUpdate
                0x000000000000598e       0x76 ./User/system_ch32v10x.o
                0x000000000000598e                SystemCoreClockUpdate
 .text.SetSysClock
                0x0000000000005a04        0x4 ./User/system_ch32v10x.o
                0x0000000000005a04                SetSysClock
 .text.TIM2_IRQHandler
                0x0000000000005a08       0x28 ./User/tick.o
                0x0000000000005a08                TIM2_IRQHandler
 .text._systick_init
                0x0000000000005a30       0x68 ./User/tick.o
                0x0000000000005a30                _systick_init
 .text.SysTick_Init
                0x0000000000005a98       0x12 ./User/tick.o
                0x0000000000005a98                SysTick_Init
 .text.Get_Systick_US
                0x0000000000005aaa       0x18 ./User/tick.o
                0x0000000000005aaa                Get_Systick_US
 .text.Get_Systick_MS
                0x0000000000005ac2        0x6 ./User/tick.o
                0x0000000000005ac2                Get_Systick_MS
 .text.HighPrecisionTimer_Init
                0x0000000000005ac8       0x16 ./User/tick.o
                0x0000000000005ac8                HighPrecisionTimer_Init
 .text.wait_nonblocking_us
                0x0000000000005ade       0x3c ./User/tick.o
                0x0000000000005ade                wait_nonblocking_us
 .text.Delay_Us
                0x0000000000005b1a       0x20 ./User/tick.o
                0x0000000000005b1a                Delay_Us
 .text.Delay_Ms
                0x0000000000005b3a       0x18 ./User/tick.o
                0x0000000000005b3a                Delay_Ms
 .text.decode_uart_pkt.part.0
                0x0000000000005b52       0x52 ./User/uart.o
 .text.UART1_DMA_Init
                0x0000000000005ba4       0xae ./User/uart.o
                0x0000000000005ba4                UART1_DMA_Init
 .text.UART1_Init
                0x0000000000005c52       0xde ./User/uart.o
                0x0000000000005c52                UART1_Init
 .text.UART1_DMA_Tx
                0x0000000000005d30       0x48 ./User/uart.o
                0x0000000000005d30                UART1_DMA_Tx
 .text.UART1_Tx_Service
                0x0000000000005d78       0xb2 ./User/uart.o
                0x0000000000005d78                UART1_Tx_Service
 .text.encode_uart_pkt
                0x0000000000005e2a       0xae ./User/uart.o
                0x0000000000005e2a                encode_uart_pkt
 .text.check_uart_pkt
                0x0000000000005ed8       0x34 ./User/uart.o
                0x0000000000005ed8                check_uart_pkt
 .text.UART1_Rx_Service
                0x0000000000005f0c      0x13c ./User/uart.o
                0x0000000000005f0c                UART1_Rx_Service
 .text.send_uart_pkt
                0x0000000000006048       0x4a ./User/uart.o
                0x0000000000006048                send_uart_pkt
 .text.send_uart_large_pkt
                0x0000000000006092       0x9e ./User/uart.o
                0x0000000000006092                send_uart_large_pkt
 .text.reliable_uart_send_acc.part.0
                0x0000000000006130       0x28 ./User/uart_com.o
 .text.uart_conf_write
                0x0000000000006158       0x6a ./User/uart_com.o
                0x0000000000006158                uart_conf_write
 .text.imu_buffer_reset_notifier
                0x00000000000061c2        0x8 ./User/uart_com.o
                0x00000000000061c2                imu_buffer_reset_notifier
 .text.send_input_with_uart
                0x00000000000061ca       0x64 ./User/uart_com.o
                0x00000000000061ca                send_input_with_uart
 .text.set_bt_connect_mode
                0x000000000000622e        0x6 ./User/uart_com.o
                0x000000000000622e                set_bt_connect_mode
 .text.start_connect
                0x0000000000006234       0xbc ./User/uart_com.o
                0x0000000000006234                start_connect
 .text.wake_esp32
                0x00000000000062f0       0x38 ./User/uart_com.o
                0x00000000000062f0                wake_esp32
 .text.recv_esp32_connect_control
                0x0000000000006328       0xe2 ./User/uart_com.o
                0x0000000000006328                recv_esp32_connect_control
 .text.recv_rumble_frame
                0x000000000000640a       0x24 ./User/uart_com.o
                0x000000000000640a                recv_rumble_frame
 .text.recv_pwr_control
                0x000000000000642e       0x58 ./User/uart_com.o
                0x000000000000642e                recv_pwr_control
 .text.recv_flash_operation
                0x0000000000006486      0x10a ./User/uart_com.o
                0x0000000000006486                recv_flash_operation
 .text.connection_state_handler
                0x0000000000006590      0x126 ./User/uart_com.o
                0x0000000000006590                connection_state_handler
 .text.reliable_uart_init
                0x00000000000066b6       0x36 ./User/uart_com.o
                0x00000000000066b6                reliable_uart_init
 .text.reliable_uart_task
                0x00000000000066ec       0x7c ./User/uart_com.o
                0x00000000000066ec                reliable_uart_task
 .text.reliable_uart_handler
                0x0000000000006768       0x86 ./User/uart_com.o
                0x0000000000006768                reliable_uart_handler
 .text.recv_esp32_pkg
                0x00000000000067ee       0x56 ./User/uart_com.o
                0x00000000000067ee                recv_esp32_pkg
 .text.uart_com_task
                0x0000000000006844       0x60 ./User/uart_com.o
                0x0000000000006844                uart_com_task
 .text.ns_set_peripheral_data_getter
                0x00000000000068a4        0x6 ./User/usbd_compatibility_hid.o
                0x00000000000068a4                ns_set_peripheral_data_getter
 .text.ns_hid_get_packet_timer
                0x00000000000068aa       0x3e ./User/usbd_compatibility_hid.o
                0x00000000000068aa                ns_hid_get_packet_timer
 .text.rpt_wrapper
                0x00000000000068e8       0x8e ./User/usbd_compatibility_hid.o
                0x00000000000068e8                rpt_wrapper
 .text.set_imu_available
                0x0000000000006976        0x8 ./User/usbd_compatibility_hid.o
                0x0000000000006976                set_imu_available
 .text.hid_init
                0x000000000000697e        0xe ./User/usbd_compatibility_hid.o
                0x000000000000697e                hid_init
 .text.hid_tx_service
                0x000000000000698c       0xec ./User/usbd_compatibility_hid.o
                0x000000000000698c                hid_tx_service
 .text.hid_rx_service
                0x0000000000006a78       0x5c ./User/usbd_compatibility_hid.o
                0x0000000000006a78                hid_rx_service
 .text.vector_handler
                0x0000000000006ad4        0x2 ./Startup/startup_ch32v10x.o
                0x0000000000006ad4                EXTI2_IRQHandler
                0x0000000000006ad4                TIM1_CC_IRQHandler
                0x0000000000006ad4                SysTick_Handler
                0x0000000000006ad4                PVD_IRQHandler
                0x0000000000006ad4                EXTI3_IRQHandler
                0x0000000000006ad4                EXTI0_IRQHandler
                0x0000000000006ad4                I2C2_EV_IRQHandler
                0x0000000000006ad4                ADC1_2_IRQHandler
                0x0000000000006ad4                SPI1_IRQHandler
                0x0000000000006ad4                TAMPER_IRQHandler
                0x0000000000006ad4                DMA1_Channel4_IRQHandler
                0x0000000000006ad4                USART3_IRQHandler
                0x0000000000006ad4                RTC_IRQHandler
                0x0000000000006ad4                DMA1_Channel7_IRQHandler
                0x0000000000006ad4                TIM4_IRQHandler
                0x0000000000006ad4                I2C1_EV_IRQHandler
                0x0000000000006ad4                DMA1_Channel6_IRQHandler
                0x0000000000006ad4                RCC_IRQHandler
                0x0000000000006ad4                TIM1_TRG_COM_IRQHandler
                0x0000000000006ad4                DMA1_Channel1_IRQHandler
                0x0000000000006ad4                EXTI15_10_IRQHandler
                0x0000000000006ad4                EXTI9_5_IRQHandler
                0x0000000000006ad4                SPI2_IRQHandler
                0x0000000000006ad4                DMA1_Channel5_IRQHandler
                0x0000000000006ad4                EXTI4_IRQHandler
                0x0000000000006ad4                TIM1_UP_IRQHandler
                0x0000000000006ad4                WWDG_IRQHandler
                0x0000000000006ad4                SW_Handler
                0x0000000000006ad4                TIM1_BRK_IRQHandler
                0x0000000000006ad4                EXTI1_IRQHandler
                0x0000000000006ad4                RTCAlarm_IRQHandler
                0x0000000000006ad4                USART2_IRQHandler
                0x0000000000006ad4                DMA1_Channel2_IRQHandler
                0x0000000000006ad4                FLASH_IRQHandler
                0x0000000000006ad4                USART1_IRQHandler
                0x0000000000006ad4                I2C1_ER_IRQHandler
                0x0000000000006ad4                USBWakeUp_IRQHandler
 .text.handle_reset
                0x0000000000006ad6       0x7e ./Startup/startup_ch32v10x.o
                0x0000000000006ad6                handle_reset
 .text.ADC_DeInit
                0x0000000000006b54       0x2a ./Peripheral/src/ch32v10x_adc.o
                0x0000000000006b54                ADC_DeInit
 .text.ADC_Init
                0x0000000000006b7e       0x50 ./Peripheral/src/ch32v10x_adc.o
                0x0000000000006b7e                ADC_Init
 .text.ADC_Cmd  0x0000000000006bce       0x10 ./Peripheral/src/ch32v10x_adc.o
                0x0000000000006bce                ADC_Cmd
 .text.ADC_DMACmd
                0x0000000000006bde       0x12 ./Peripheral/src/ch32v10x_adc.o
                0x0000000000006bde                ADC_DMACmd
 .text.ADC_ResetCalibration
                0x0000000000006bf0        0xa ./Peripheral/src/ch32v10x_adc.o
                0x0000000000006bf0                ADC_ResetCalibration
 .text.ADC_GetResetCalibrationStatus
                0x0000000000006bfa        0x8 ./Peripheral/src/ch32v10x_adc.o
                0x0000000000006bfa                ADC_GetResetCalibrationStatus
 .text.ADC_StartCalibration
                0x0000000000006c02        0xa ./Peripheral/src/ch32v10x_adc.o
                0x0000000000006c02                ADC_StartCalibration
 .text.ADC_GetCalibrationStatus
                0x0000000000006c0c        0x8 ./Peripheral/src/ch32v10x_adc.o
                0x0000000000006c0c                ADC_GetCalibrationStatus
 .text.ADC_SoftwareStartConvCmd
                0x0000000000006c14       0x18 ./Peripheral/src/ch32v10x_adc.o
                0x0000000000006c14                ADC_SoftwareStartConvCmd
 .text.ADC_RegularChannelConfig
                0x0000000000006c2c       0xb8 ./Peripheral/src/ch32v10x_adc.o
                0x0000000000006c2c                ADC_RegularChannelConfig
 .text.Get_CalibrationValue
                0x0000000000006ce4      0x182 ./Peripheral/src/ch32v10x_adc.o
                0x0000000000006ce4                Get_CalibrationValue
 .text.DMA_DeInit
                0x0000000000006e66       0xe0 ./Peripheral/src/ch32v10x_dma.o
                0x0000000000006e66                DMA_DeInit
 .text.DMA_Init
                0x0000000000006f46       0x38 ./Peripheral/src/ch32v10x_dma.o
                0x0000000000006f46                DMA_Init
 .text.DMA_Cmd  0x0000000000006f7e       0x14 ./Peripheral/src/ch32v10x_dma.o
                0x0000000000006f7e                DMA_Cmd
 .text.DMA_GetCurrDataCounter
                0x0000000000006f92        0x8 ./Peripheral/src/ch32v10x_dma.o
                0x0000000000006f92                DMA_GetCurrDataCounter
 .text.DMA_GetFlagStatus
                0x0000000000006f9a       0x20 ./Peripheral/src/ch32v10x_dma.o
                0x0000000000006f9a                DMA_GetFlagStatus
 .text.DMA_ClearFlag
                0x0000000000006fba       0x1a ./Peripheral/src/ch32v10x_dma.o
                0x0000000000006fba                DMA_ClearFlag
 .text.DMA_GetITStatus
                0x0000000000006fd4        0x4 ./Peripheral/src/ch32v10x_dma.o
                0x0000000000006fd4                DMA_GetITStatus
 .text.DMA_ClearITPendingBit
                0x0000000000006fd8        0x4 ./Peripheral/src/ch32v10x_dma.o
                0x0000000000006fd8                DMA_ClearITPendingBit
 .text.EXTI_Init
                0x0000000000006fdc       0x62 ./Peripheral/src/ch32v10x_exti.o
                0x0000000000006fdc                EXTI_Init
 .text.ROM_ERASE
                0x000000000000703e       0x80 ./Peripheral/src/ch32v10x_flash.o
 .text.FLASH_ROM_ERASE
                0x00000000000070be      0x11a ./Peripheral/src/ch32v10x_flash.o
                0x00000000000070be                FLASH_ROM_ERASE
 .text.FLASH_ROM_WRITE
                0x00000000000071d8      0x11a ./Peripheral/src/ch32v10x_flash.o
                0x00000000000071d8                FLASH_ROM_WRITE
 .text.GPIO_Init
                0x00000000000072f2       0xbe ./Peripheral/src/ch32v10x_gpio.o
                0x00000000000072f2                GPIO_Init
 .text.GPIO_ReadInputDataBit
                0x00000000000073b0        0xc ./Peripheral/src/ch32v10x_gpio.o
                0x00000000000073b0                GPIO_ReadInputDataBit
 .text.GPIO_SetBits
                0x00000000000073bc        0x4 ./Peripheral/src/ch32v10x_gpio.o
                0x00000000000073bc                GPIO_SetBits
 .text.GPIO_ResetBits
                0x00000000000073c0        0x4 ./Peripheral/src/ch32v10x_gpio.o
                0x00000000000073c0                GPIO_ResetBits
 .text.GPIO_WriteBit
                0x00000000000073c4        0xa ./Peripheral/src/ch32v10x_gpio.o
                0x00000000000073c4                GPIO_WriteBit
 .text.GPIO_EXTILineConfig
                0x00000000000073ce       0x2c ./Peripheral/src/ch32v10x_gpio.o
                0x00000000000073ce                GPIO_EXTILineConfig
 .text.I2C_DeInit
                0x00000000000073fa       0x32 ./Peripheral/src/ch32v10x_i2c.o
                0x00000000000073fa                I2C_DeInit
 .text.I2C_Init
                0x000000000000742c      0x112 ./Peripheral/src/ch32v10x_i2c.o
                0x000000000000742c                I2C_Init
 .text.I2C_Cmd  0x000000000000753e       0x1c ./Peripheral/src/ch32v10x_i2c.o
                0x000000000000753e                I2C_Cmd
 .text.I2C_GenerateSTART
                0x000000000000755a       0x1e ./Peripheral/src/ch32v10x_i2c.o
                0x000000000000755a                I2C_GenerateSTART
 .text.I2C_GenerateSTOP
                0x0000000000007578       0x1e ./Peripheral/src/ch32v10x_i2c.o
                0x0000000000007578                I2C_GenerateSTOP
 .text.I2C_AcknowledgeConfig
                0x0000000000007596       0x1e ./Peripheral/src/ch32v10x_i2c.o
                0x0000000000007596                I2C_AcknowledgeConfig
 .text.I2C_SendData
                0x00000000000075b4        0x6 ./Peripheral/src/ch32v10x_i2c.o
                0x00000000000075b4                I2C_SendData
 .text.I2C_ReceiveData
                0x00000000000075ba        0xa ./Peripheral/src/ch32v10x_i2c.o
                0x00000000000075ba                I2C_ReceiveData
 .text.I2C_Send7bitAddress
                0x00000000000075c4       0x10 ./Peripheral/src/ch32v10x_i2c.o
                0x00000000000075c4                I2C_Send7bitAddress
 .text.I2C_SoftwareResetCmd
                0x00000000000075d4       0x16 ./Peripheral/src/ch32v10x_i2c.o
                0x00000000000075d4                I2C_SoftwareResetCmd
 .text.I2C_NACKPositionConfig
                0x00000000000075ea       0x26 ./Peripheral/src/ch32v10x_i2c.o
                0x00000000000075ea                I2C_NACKPositionConfig
 .text.I2C_CheckEvent
                0x0000000000007610       0x1a ./Peripheral/src/ch32v10x_i2c.o
                0x0000000000007610                I2C_CheckEvent
 .text.I2C_GetFlagStatus
                0x000000000000762a       0x32 ./Peripheral/src/ch32v10x_i2c.o
                0x000000000000762a                I2C_GetFlagStatus
 .text.NVIC_PriorityGroupConfig
                0x000000000000765c       0x10 ./Peripheral/src/ch32v10x_misc.o
                0x000000000000765c                NVIC_PriorityGroupConfig
 .text.NVIC_Init
                0x000000000000766c       0x6e ./Peripheral/src/ch32v10x_misc.o
                0x000000000000766c                NVIC_Init
 .text.PWR_PVDCmd
                0x00000000000076da       0x14 ./Peripheral/src/ch32v10x_pwr.o
                0x00000000000076da                PWR_PVDCmd
 .text.PWR_PVDLevelConfig
                0x00000000000076ee       0x10 ./Peripheral/src/ch32v10x_pwr.o
                0x00000000000076ee                PWR_PVDLevelConfig
 .text.PWR_GetFlagStatus
                0x00000000000076fe        0xe ./Peripheral/src/ch32v10x_pwr.o
                0x00000000000076fe                PWR_GetFlagStatus
 .text.PWR_VDD_SupplyVoltage
                0x000000000000770c       0x42 ./Peripheral/src/ch32v10x_pwr.o
                0x000000000000770c                PWR_VDD_SupplyVoltage
 .text.RCC_HSICmd
                0x000000000000774e       0x14 ./Peripheral/src/ch32v10x_rcc.o
                0x000000000000774e                RCC_HSICmd
 .text.RCC_USBCLKConfig
                0x0000000000007762       0x24 ./Peripheral/src/ch32v10x_rcc.o
                0x0000000000007762                RCC_USBCLKConfig
 .text.RCC_ADCCLKConfig
                0x0000000000007786       0x12 ./Peripheral/src/ch32v10x_rcc.o
                0x0000000000007786                RCC_ADCCLKConfig
 .text.RCC_LSICmd
                0x0000000000007798       0x14 ./Peripheral/src/ch32v10x_rcc.o
                0x0000000000007798                RCC_LSICmd
 .text.RCC_GetClocksFreq
                0x00000000000077ac       0xb0 ./Peripheral/src/ch32v10x_rcc.o
                0x00000000000077ac                RCC_GetClocksFreq
 .text.RCC_AHBPeriphClockCmd
                0x000000000000785c       0x1e ./Peripheral/src/ch32v10x_rcc.o
                0x000000000000785c                RCC_AHBPeriphClockCmd
 .text.RCC_APB2PeriphClockCmd
                0x000000000000787a       0x1e ./Peripheral/src/ch32v10x_rcc.o
                0x000000000000787a                RCC_APB2PeriphClockCmd
 .text.RCC_APB1PeriphClockCmd
                0x0000000000007898       0x1e ./Peripheral/src/ch32v10x_rcc.o
                0x0000000000007898                RCC_APB1PeriphClockCmd
 .text.RCC_APB2PeriphResetCmd
                0x00000000000078b6       0x1e ./Peripheral/src/ch32v10x_rcc.o
                0x00000000000078b6                RCC_APB2PeriphResetCmd
 .text.RCC_APB1PeriphResetCmd
                0x00000000000078d4       0x1e ./Peripheral/src/ch32v10x_rcc.o
                0x00000000000078d4                RCC_APB1PeriphResetCmd
 .text.RCC_GetFlagStatus
                0x00000000000078f2       0x2e ./Peripheral/src/ch32v10x_rcc.o
                0x00000000000078f2                RCC_GetFlagStatus
 .text.SPI_Init
                0x0000000000007920       0x5a ./Peripheral/src/ch32v10x_spi.o
                0x0000000000007920                SPI_Init
 .text.SPI_Cmd  0x000000000000797a       0x1e ./Peripheral/src/ch32v10x_spi.o
                0x000000000000797a                SPI_Cmd
 .text.SPI_I2S_DMACmd
                0x0000000000007998       0x16 ./Peripheral/src/ch32v10x_spi.o
                0x0000000000007998                SPI_I2S_DMACmd
 .text.TIM_TimeBaseInit
                0x00000000000079ae       0x78 ./Peripheral/src/ch32v10x_tim.o
                0x00000000000079ae                TIM_TimeBaseInit
 .text.TIM_OC3Init
                0x0000000000007a26       0xb0 ./Peripheral/src/ch32v10x_tim.o
                0x0000000000007a26                TIM_OC3Init
 .text.TIM_OC4Init
                0x0000000000007ad6       0x80 ./Peripheral/src/ch32v10x_tim.o
                0x0000000000007ad6                TIM_OC4Init
 .text.TIM_Cmd  0x0000000000007b56       0x1c ./Peripheral/src/ch32v10x_tim.o
                0x0000000000007b56                TIM_Cmd
 .text.TIM_CtrlPWMOutputs
                0x0000000000007b72       0x16 ./Peripheral/src/ch32v10x_tim.o
                0x0000000000007b72                TIM_CtrlPWMOutputs
 .text.TIM_ITConfig
                0x0000000000007b88       0x16 ./Peripheral/src/ch32v10x_tim.o
                0x0000000000007b88                TIM_ITConfig
 .text.TIM_ARRPreloadConfig
                0x0000000000007b9e       0x1e ./Peripheral/src/ch32v10x_tim.o
                0x0000000000007b9e                TIM_ARRPreloadConfig
 .text.TIM_OC3PreloadConfig
                0x0000000000007bbc       0x12 ./Peripheral/src/ch32v10x_tim.o
                0x0000000000007bbc                TIM_OC3PreloadConfig
 .text.TIM_OC4PreloadConfig
                0x0000000000007bce       0x1a ./Peripheral/src/ch32v10x_tim.o
                0x0000000000007bce                TIM_OC4PreloadConfig
 .text.TIM_SetCompare3
                0x0000000000007be8        0x6 ./Peripheral/src/ch32v10x_tim.o
                0x0000000000007be8                TIM_SetCompare3
 .text.TIM_SetCompare4
                0x0000000000007bee        0x6 ./Peripheral/src/ch32v10x_tim.o
                0x0000000000007bee                TIM_SetCompare4
 .text.TIM_GetFlagStatus
                0x0000000000007bf4        0xc ./Peripheral/src/ch32v10x_tim.o
                0x0000000000007bf4                TIM_GetFlagStatus
 .text.TIM_GetITStatus
                0x0000000000007c00       0x1c ./Peripheral/src/ch32v10x_tim.o
                0x0000000000007c00                TIM_GetITStatus
 .text.TIM_ClearITPendingBit
                0x0000000000007c1c        0xe ./Peripheral/src/ch32v10x_tim.o
                0x0000000000007c1c                TIM_ClearITPendingBit
 .text.USART_Init
                0x0000000000007c2a       0xa6 ./Peripheral/src/ch32v10x_usart.o
                0x0000000000007c2a                USART_Init
 .text.USART_Cmd
                0x0000000000007cd0       0x18 ./Peripheral/src/ch32v10x_usart.o
                0x0000000000007cd0                USART_Cmd
 .text.USART_DMACmd
                0x0000000000007ce8       0x16 ./Peripheral/src/ch32v10x_usart.o
                0x0000000000007ce8                USART_DMACmd
 .text.USART_GetFlagStatus
                0x0000000000007cfe        0xc ./Peripheral/src/ch32v10x_usart.o
                0x0000000000007cfe                USART_GetFlagStatus
 .text.USART_ClearFlag
                0x0000000000007d0a        0xe ./Peripheral/src/ch32v10x_usart.o
                0x0000000000007d0a                USART_ClearFlag
 .text.USART_printf_Init
                0x0000000000007d18        0x2 ./Debug/debug.o
                0x0000000000007d18                USART_printf_Init
 .text._write   0x0000000000007d1a        0x4 ./Debug/debug.o
                0x0000000000007d1a                _write
 .text._sbrk    0x0000000000007d1e       0x2a ./Debug/debug.o
                0x0000000000007d1e                _sbrk
 .text.sqrtf    0x0000000000007d48       0x48 d:/mounriver_studio/toolchain/risc-v embedded gcc12/bin/../lib/gcc/riscv-none-elf/12.2.0/../../../../riscv-none-elf/lib\libm_nano.a(lib_a-wf_sqrt.o)
                0x0000000000007d48                sqrtf
 .text.__ieee754_sqrtf
                0x0000000000007d90      0x114 d:/mounriver_studio/toolchain/risc-v embedded gcc12/bin/../lib/gcc/riscv-none-elf/12.2.0/../../../../riscv-none-elf/lib\libm_nano.a(lib_a-ef_sqrt.o)
                0x0000000000007d90                __ieee754_sqrtf
 .text.__udivdi3
                0x0000000000007ea4      0x3b0 d:/mounriver_studio/toolchain/risc-v embedded gcc12/bin/../lib/gcc/riscv-none-elf/12.2.0\libgcc.a(_udivdi3.o)
                0x0000000000007ea4                __udivdi3
 .text.__adddf3
                0x0000000000008254      0x6e8 d:/mounriver_studio/toolchain/risc-v embedded gcc12/bin/../lib/gcc/riscv-none-elf/12.2.0\libgcc.a(adddf3.o)
                0x0000000000008254                __adddf3
 .text.__divdf3
                0x000000000000893c      0x5ae d:/mounriver_studio/toolchain/risc-v embedded gcc12/bin/../lib/gcc/riscv-none-elf/12.2.0\libgcc.a(divdf3.o)
                0x000000000000893c                __divdf3
 .text.__muldf3
                0x0000000000008eea      0x54a d:/mounriver_studio/toolchain/risc-v embedded gcc12/bin/../lib/gcc/riscv-none-elf/12.2.0\libgcc.a(muldf3.o)
                0x0000000000008eea                __muldf3
 .text.__subdf3
                0x0000000000009434      0x736 d:/mounriver_studio/toolchain/risc-v embedded gcc12/bin/../lib/gcc/riscv-none-elf/12.2.0\libgcc.a(subdf3.o)
                0x0000000000009434                __subdf3
 .text.__floatsidf
                0x0000000000009b6a       0x70 d:/mounriver_studio/toolchain/risc-v embedded gcc12/bin/../lib/gcc/riscv-none-elf/12.2.0\libgcc.a(floatsidf.o)
                0x0000000000009b6a                __floatsidf
 .text.__floatunsidf
                0x0000000000009bda       0x70 d:/mounriver_studio/toolchain/risc-v embedded gcc12/bin/../lib/gcc/riscv-none-elf/12.2.0\libgcc.a(floatunsidf.o)
                0x0000000000009bda                __floatunsidf
 .text.__addsf3
                0x0000000000009c4a      0x368 d:/mounriver_studio/toolchain/risc-v embedded gcc12/bin/../lib/gcc/riscv-none-elf/12.2.0\libgcc.a(addsf3.o)
                0x0000000000009c4a                __addsf3
 .text.__divsf3
                0x0000000000009fb2      0x2ea d:/mounriver_studio/toolchain/risc-v embedded gcc12/bin/../lib/gcc/riscv-none-elf/12.2.0\libgcc.a(divsf3.o)
                0x0000000000009fb2                __divsf3
 .text.__gesf2  0x000000000000a29c       0x96 d:/mounriver_studio/toolchain/risc-v embedded gcc12/bin/../lib/gcc/riscv-none-elf/12.2.0\libgcc.a(gesf2.o)
                0x000000000000a29c                __gesf2
                0x000000000000a29c                __gtsf2
 .text.__lesf2  0x000000000000a332       0x98 d:/mounriver_studio/toolchain/risc-v embedded gcc12/bin/../lib/gcc/riscv-none-elf/12.2.0\libgcc.a(lesf2.o)
                0x000000000000a332                __ltsf2
                0x000000000000a332                __lesf2
 .text.__mulsf3
                0x000000000000a3ca      0x2dc d:/mounriver_studio/toolchain/risc-v embedded gcc12/bin/../lib/gcc/riscv-none-elf/12.2.0\libgcc.a(mulsf3.o)
                0x000000000000a3ca                __mulsf3
 .text.__subsf3
                0x000000000000a6a6      0x38c d:/mounriver_studio/toolchain/risc-v embedded gcc12/bin/../lib/gcc/riscv-none-elf/12.2.0\libgcc.a(subsf3.o)
                0x000000000000a6a6                __subsf3
 .text.__unordsf2
                0x000000000000aa32       0x3c d:/mounriver_studio/toolchain/risc-v embedded gcc12/bin/../lib/gcc/riscv-none-elf/12.2.0\libgcc.a(unordsf2.o)
                0x000000000000aa32                __unordsf2
 .text.__fixsfsi
                0x000000000000aa6e       0x60 d:/mounriver_studio/toolchain/risc-v embedded gcc12/bin/../lib/gcc/riscv-none-elf/12.2.0\libgcc.a(fixsfsi.o)
                0x000000000000aa6e                __fixsfsi
 .text.__floatsisf
                0x000000000000aace       0xcc d:/mounriver_studio/toolchain/risc-v embedded gcc12/bin/../lib/gcc/riscv-none-elf/12.2.0\libgcc.a(floatsisf.o)
                0x000000000000aace                __floatsisf
 .text.__fixsfdi
                0x000000000000ab9a       0x96 d:/mounriver_studio/toolchain/risc-v embedded gcc12/bin/../lib/gcc/riscv-none-elf/12.2.0\libgcc.a(fixsfdi.o)
                0x000000000000ab9a                __fixsfdi
 .text.__floatdisf
                0x000000000000ac30      0x146 d:/mounriver_studio/toolchain/risc-v embedded gcc12/bin/../lib/gcc/riscv-none-elf/12.2.0\libgcc.a(floatdisf.o)
                0x000000000000ac30                __floatdisf
 .text.__truncdfsf2
                0x000000000000ad76      0x16c d:/mounriver_studio/toolchain/risc-v embedded gcc12/bin/../lib/gcc/riscv-none-elf/12.2.0\libgcc.a(truncdfsf2.o)
                0x000000000000ad76                __truncdfsf2
 .text.__clzsi2
                0x000000000000aee2       0x6e d:/mounriver_studio/toolchain/risc-v embedded gcc12/bin/../lib/gcc/riscv-none-elf/12.2.0\libgcc.a(_clzsi2.o)
                0x000000000000aee2                __clzsi2
 .text.__errno  0x000000000000af50        0x6 d:/mounriver_studio/toolchain/risc-v embedded gcc12/bin/../lib/gcc/riscv-none-elf/12.2.0/../../../../riscv-none-elf/lib\libg_nano.a(lib_a-errno.o)
                0x000000000000af50                __errno
 .text.printf   0x000000000000af56       0x3a d:/mounriver_studio/toolchain/risc-v embedded gcc12/bin/../lib/gcc/riscv-none-elf/12.2.0/../../../../riscv-none-elf/lib\libg_nano.a(lib_a-printf.o)
                0x000000000000af56                iprintf
                0x000000000000af56                printf
 .text._puts_r  0x000000000000af90      0x10e d:/mounriver_studio/toolchain/risc-v embedded gcc12/bin/../lib/gcc/riscv-none-elf/12.2.0/../../../../riscv-none-elf/lib\libg_nano.a(lib_a-puts.o)
                0x000000000000af90                _puts_r
 .text.puts     0x000000000000b09e        0xa d:/mounriver_studio/toolchain/risc-v embedded gcc12/bin/../lib/gcc/riscv-none-elf/12.2.0/../../../../riscv-none-elf/lib\libg_nano.a(lib_a-puts.o)
                0x000000000000b09e                puts
 .text.__swbuf_r
                0x000000000000b0a8       0xc0 d:/mounriver_studio/toolchain/risc-v embedded gcc12/bin/../lib/gcc/riscv-none-elf/12.2.0/../../../../riscv-none-elf/lib\libg_nano.a(lib_a-wbuf.o)
                0x000000000000b0a8                __swbuf_r
 .text.__swsetup_r
                0x000000000000b168       0xfa d:/mounriver_studio/toolchain/risc-v embedded gcc12/bin/../lib/gcc/riscv-none-elf/12.2.0/../../../../riscv-none-elf/lib\libg_nano.a(lib_a-wsetup.o)
                0x000000000000b168                __swsetup_r
 .text.__sflush_r
                0x000000000000b262      0x138 d:/mounriver_studio/toolchain/risc-v embedded gcc12/bin/../lib/gcc/riscv-none-elf/12.2.0/../../../../riscv-none-elf/lib\libg_nano.a(lib_a-fflush.o)
                0x000000000000b262                __sflush_r
 .text._fflush_r
                0x000000000000b39a       0x8a d:/mounriver_studio/toolchain/risc-v embedded gcc12/bin/../lib/gcc/riscv-none-elf/12.2.0/../../../../riscv-none-elf/lib\libg_nano.a(lib_a-fflush.o)
                0x000000000000b39a                _fflush_r
 .text.std      0x000000000000b424       0x6a d:/mounriver_studio/toolchain/risc-v embedded gcc12/bin/../lib/gcc/riscv-none-elf/12.2.0/../../../../riscv-none-elf/lib\libg_nano.a(lib_a-findfp.o)
 .text._cleanup_r
                0x000000000000b48e        0xa d:/mounriver_studio/toolchain/risc-v embedded gcc12/bin/../lib/gcc/riscv-none-elf/12.2.0/../../../../riscv-none-elf/lib\libg_nano.a(lib_a-findfp.o)
                0x000000000000b48e                _cleanup_r
 .text.__sfmoreglue
                0x000000000000b498       0x46 d:/mounriver_studio/toolchain/risc-v embedded gcc12/bin/../lib/gcc/riscv-none-elf/12.2.0/../../../../riscv-none-elf/lib\libg_nano.a(lib_a-findfp.o)
                0x000000000000b498                __sfmoreglue
 .text.__sfp_lock_acquire
                0x000000000000b4de        0x6 d:/mounriver_studio/toolchain/risc-v embedded gcc12/bin/../lib/gcc/riscv-none-elf/12.2.0/../../../../riscv-none-elf/lib\libg_nano.a(lib_a-findfp.o)
                0x000000000000b4de                __sfp_lock_acquire
 .text.__sfp_lock_release
                0x000000000000b4e4        0x6 d:/mounriver_studio/toolchain/risc-v embedded gcc12/bin/../lib/gcc/riscv-none-elf/12.2.0/../../../../riscv-none-elf/lib\libg_nano.a(lib_a-findfp.o)
                0x000000000000b4e4                __sfp_lock_release
 .text.__sinit_lock_acquire
                0x000000000000b4ea        0x6 d:/mounriver_studio/toolchain/risc-v embedded gcc12/bin/../lib/gcc/riscv-none-elf/12.2.0/../../../../riscv-none-elf/lib\libg_nano.a(lib_a-findfp.o)
                0x000000000000b4ea                __sinit_lock_acquire
 .text.__sinit_lock_release
                0x000000000000b4f0        0x6 d:/mounriver_studio/toolchain/risc-v embedded gcc12/bin/../lib/gcc/riscv-none-elf/12.2.0/../../../../riscv-none-elf/lib\libg_nano.a(lib_a-findfp.o)
                0x000000000000b4f0                __sinit_lock_release
 .text.__sinit  0x000000000000b4f6       0x72 d:/mounriver_studio/toolchain/risc-v embedded gcc12/bin/../lib/gcc/riscv-none-elf/12.2.0/../../../../riscv-none-elf/lib\libg_nano.a(lib_a-findfp.o)
                0x000000000000b4f6                __sinit
 .text.__sfp    0x000000000000b568       0xb0 d:/mounriver_studio/toolchain/risc-v embedded gcc12/bin/../lib/gcc/riscv-none-elf/12.2.0/../../../../riscv-none-elf/lib\libg_nano.a(lib_a-findfp.o)
                0x000000000000b568                __sfp
 .text._fwalk_reent
                0x000000000000b618       0x6a d:/mounriver_studio/toolchain/risc-v embedded gcc12/bin/../lib/gcc/riscv-none-elf/12.2.0/../../../../riscv-none-elf/lib\libg_nano.a(lib_a-fwalk.o)
                0x000000000000b618                _fwalk_reent
 .text.__retarget_lock_init_recursive
                0x000000000000b682        0x2 d:/mounriver_studio/toolchain/risc-v embedded gcc12/bin/../lib/gcc/riscv-none-elf/12.2.0/../../../../riscv-none-elf/lib\libg_nano.a(lib_a-lock.o)
                0x000000000000b682                __retarget_lock_init_recursive
 .text.__retarget_lock_acquire_recursive
                0x000000000000b684        0x2 d:/mounriver_studio/toolchain/risc-v embedded gcc12/bin/../lib/gcc/riscv-none-elf/12.2.0/../../../../riscv-none-elf/lib\libg_nano.a(lib_a-lock.o)
                0x000000000000b684                __retarget_lock_acquire_recursive
 .text.__retarget_lock_release_recursive
                0x000000000000b686        0x2 d:/mounriver_studio/toolchain/risc-v embedded gcc12/bin/../lib/gcc/riscv-none-elf/12.2.0/../../../../riscv-none-elf/lib\libg_nano.a(lib_a-lock.o)
                0x000000000000b686                __retarget_lock_release_recursive
 .text.__swhatbuf_r
                0x000000000000b688       0x5c d:/mounriver_studio/toolchain/risc-v embedded gcc12/bin/../lib/gcc/riscv-none-elf/12.2.0/../../../../riscv-none-elf/lib\libg_nano.a(lib_a-makebuf.o)
                0x000000000000b688                __swhatbuf_r
 .text.__smakebuf_r
                0x000000000000b6e4       0xa4 d:/mounriver_studio/toolchain/risc-v embedded gcc12/bin/../lib/gcc/riscv-none-elf/12.2.0/../../../../riscv-none-elf/lib\libg_nano.a(lib_a-makebuf.o)
                0x000000000000b6e4                __smakebuf_r
 .text._free_r  0x000000000000b788       0x9e d:/mounriver_studio/toolchain/risc-v embedded gcc12/bin/../lib/gcc/riscv-none-elf/12.2.0/../../../../riscv-none-elf/lib\libg_nano.a(lib_a-nano-freer.o)
                0x000000000000b788                _free_r
 .text.sbrk_aligned
                0x000000000000b826       0x54 d:/mounriver_studio/toolchain/risc-v embedded gcc12/bin/../lib/gcc/riscv-none-elf/12.2.0/../../../../riscv-none-elf/lib\libg_nano.a(lib_a-nano-mallocr.o)
 .text._malloc_r
                0x000000000000b87a      0x10c d:/mounriver_studio/toolchain/risc-v embedded gcc12/bin/../lib/gcc/riscv-none-elf/12.2.0/../../../../riscv-none-elf/lib\libg_nano.a(lib_a-nano-mallocr.o)
                0x000000000000b87a                _malloc_r
 .text.__sfputc_r
                0x000000000000b986       0x2a d:/mounriver_studio/toolchain/risc-v embedded gcc12/bin/../lib/gcc/riscv-none-elf/12.2.0/../../../../riscv-none-elf/lib\libg_nano.a(lib_a-nano-vfprintf.o)
 .text.__sfputs_r
                0x000000000000b9b0       0x44 d:/mounriver_studio/toolchain/risc-v embedded gcc12/bin/../lib/gcc/riscv-none-elf/12.2.0/../../../../riscv-none-elf/lib\libg_nano.a(lib_a-nano-vfprintf.o)
                0x000000000000b9b0                __sfputs_r
 .text._vfprintf_r
                0x000000000000b9f4      0x2da d:/mounriver_studio/toolchain/risc-v embedded gcc12/bin/../lib/gcc/riscv-none-elf/12.2.0/../../../../riscv-none-elf/lib\libg_nano.a(lib_a-nano-vfprintf.o)
                0x000000000000b9f4                _vfprintf_r
                0x000000000000b9f4                _vfiprintf_r
 .text._sbrk_r  0x000000000000bcce       0x28 d:/mounriver_studio/toolchain/risc-v embedded gcc12/bin/../lib/gcc/riscv-none-elf/12.2.0/../../../../riscv-none-elf/lib\libg_nano.a(lib_a-sbrkr.o)
                0x000000000000bcce                _sbrk_r
 .text.__sread  0x000000000000bcf6       0x30 d:/mounriver_studio/toolchain/risc-v embedded gcc12/bin/../lib/gcc/riscv-none-elf/12.2.0/../../../../riscv-none-elf/lib\libg_nano.a(lib_a-stdio.o)
                0x000000000000bcf6                __sread
 .text.__swrite
                0x000000000000bd26       0x4e d:/mounriver_studio/toolchain/risc-v embedded gcc12/bin/../lib/gcc/riscv-none-elf/12.2.0/../../../../riscv-none-elf/lib\libg_nano.a(lib_a-stdio.o)
                0x000000000000bd26                __swrite
 .text.__sseek  0x000000000000bd74       0x36 d:/mounriver_studio/toolchain/risc-v embedded gcc12/bin/../lib/gcc/riscv-none-elf/12.2.0/../../../../riscv-none-elf/lib\libg_nano.a(lib_a-stdio.o)
                0x000000000000bd74                __sseek
 .text.__sclose
                0x000000000000bdaa        0x6 d:/mounriver_studio/toolchain/risc-v embedded gcc12/bin/../lib/gcc/riscv-none-elf/12.2.0/../../../../riscv-none-elf/lib\libg_nano.a(lib_a-stdio.o)
                0x000000000000bdaa                __sclose
 .text._write_r
                0x000000000000bdb0       0x2c d:/mounriver_studio/toolchain/risc-v embedded gcc12/bin/../lib/gcc/riscv-none-elf/12.2.0/../../../../riscv-none-elf/lib\libg_nano.a(lib_a-writer.o)
                0x000000000000bdb0                _write_r
 .text._close_r
                0x000000000000bddc       0x26 d:/mounriver_studio/toolchain/risc-v embedded gcc12/bin/../lib/gcc/riscv-none-elf/12.2.0/../../../../riscv-none-elf/lib\libg_nano.a(lib_a-closer.o)
                0x000000000000bddc                _close_r
 .text._fstat_r
                0x000000000000be02       0x28 d:/mounriver_studio/toolchain/risc-v embedded gcc12/bin/../lib/gcc/riscv-none-elf/12.2.0/../../../../riscv-none-elf/lib\libg_nano.a(lib_a-fstatr.o)
                0x000000000000be02                _fstat_r
 .text._isatty_r
                0x000000000000be2a       0x26 d:/mounriver_studio/toolchain/risc-v embedded gcc12/bin/../lib/gcc/riscv-none-elf/12.2.0/../../../../riscv-none-elf/lib\libg_nano.a(lib_a-isattyr.o)
                0x000000000000be2a                _isatty_r
 .text._lseek_r
                0x000000000000be50       0x2a d:/mounriver_studio/toolchain/risc-v embedded gcc12/bin/../lib/gcc/riscv-none-elf/12.2.0/../../../../riscv-none-elf/lib\libg_nano.a(lib_a-lseekr.o)
                0x000000000000be50                _lseek_r
 .text.memchr   0x000000000000be7a       0x1a d:/mounriver_studio/toolchain/risc-v embedded gcc12/bin/../lib/gcc/riscv-none-elf/12.2.0/../../../../riscv-none-elf/lib\libg_nano.a(lib_a-memchr.o)
                0x000000000000be7a                memchr
 .text.__malloc_lock
                0x000000000000be94        0x8 d:/mounriver_studio/toolchain/risc-v embedded gcc12/bin/../lib/gcc/riscv-none-elf/12.2.0/../../../../riscv-none-elf/lib\libg_nano.a(lib_a-mlock.o)
                0x000000000000be94                __malloc_lock
 .text.__malloc_unlock
                0x000000000000be9c        0x8 d:/mounriver_studio/toolchain/risc-v embedded gcc12/bin/../lib/gcc/riscv-none-elf/12.2.0/../../../../riscv-none-elf/lib\libg_nano.a(lib_a-mlock.o)
                0x000000000000be9c                __malloc_unlock
 .text._printf_common
                0x000000000000bea4      0x110 d:/mounriver_studio/toolchain/risc-v embedded gcc12/bin/../lib/gcc/riscv-none-elf/12.2.0/../../../../riscv-none-elf/lib\libg_nano.a(lib_a-nano-vfprintf_i.o)
                0x000000000000bea4                _printf_common
 .text._printf_i
                0x000000000000bfb4      0x286 d:/mounriver_studio/toolchain/risc-v embedded gcc12/bin/../lib/gcc/riscv-none-elf/12.2.0/../../../../riscv-none-elf/lib\libg_nano.a(lib_a-nano-vfprintf_i.o)
                0x000000000000bfb4                _printf_i
 .text._read_r  0x000000000000c23a       0x2a d:/mounriver_studio/toolchain/risc-v embedded gcc12/bin/../lib/gcc/riscv-none-elf/12.2.0/../../../../riscv-none-elf/lib\libg_nano.a(lib_a-readr.o)
                0x000000000000c23a                _read_r
 .text._close   0x000000000000c264        0xc d:/mounriver_studio/toolchain/risc-v embedded gcc12/bin/../lib/gcc/riscv-none-elf/12.2.0/../../../../riscv-none-elf/lib\libnosys.a(close.o)
                0x000000000000c264                _close
 .text._fstat   0x000000000000c270        0xc d:/mounriver_studio/toolchain/risc-v embedded gcc12/bin/../lib/gcc/riscv-none-elf/12.2.0/../../../../riscv-none-elf/lib\libnosys.a(fstat.o)
                0x000000000000c270                _fstat
 .text._isatty  0x000000000000c27c        0xc d:/mounriver_studio/toolchain/risc-v embedded gcc12/bin/../lib/gcc/riscv-none-elf/12.2.0/../../../../riscv-none-elf/lib\libnosys.a(isatty.o)
                0x000000000000c27c                _isatty
 .text._lseek   0x000000000000c288        0xc d:/mounriver_studio/toolchain/risc-v embedded gcc12/bin/../lib/gcc/riscv-none-elf/12.2.0/../../../../riscv-none-elf/lib\libnosys.a(lseek.o)
                0x000000000000c288                _lseek
 .text._read    0x000000000000c294        0xc d:/mounriver_studio/toolchain/risc-v embedded gcc12/bin/../lib/gcc/riscv-none-elf/12.2.0/../../../../riscv-none-elf/lib\libnosys.a(read.o)
                0x000000000000c294                _read
 *(.rodata)
 *fill*         0x000000000000c2a0        0x0 
 .rodata        0x000000000000c2a0       0x18 ./User/ns_com.o
 *(.rodata*)
 .rodata.USBFS_IRQHandler
                0x000000000000c2b8       0x5c ./User/ch32v10x_usbfs_device.o
 .rodata.freq_exp2_index_lookup_tb
                0x000000000000c314      0x100 ./User/hd_rumble2.o
 .rodata.amp_exp2_index_lookup_tb_high_amp_drop
                0x000000000000c414      0x100 ./User/hd_rumble2.o
 .rodata.amp_exp2_index_lookup_tb_low_amp_rise
                0x000000000000c514       0x10 ./User/hd_rumble2.o
 .rodata.amp_exp2_index_lookup_tb_raw
                0x000000000000c524      0x100 ./User/hd_rumble2.o
 .rodata.exp2_lookup_tb
                0x000000000000c624      0x500 ./User/hd_rumble2.o
 .rodata.init_all.str1.4
                0x000000000000cb24       0x14 ./User/main.o
 .rodata.main.str1.4
                0x000000000000cb38        0xf ./User/main.o
 *fill*         0x000000000000cb47        0x1 
 .rodata.ns_mux_usb_handshake_handler
                0x000000000000cb48       0x18 ./User/ns_com_mux.o
 .rodata.fw_subcommand_dispatcher
                0x000000000000cb60       0x1c ./User/ns_com_mux.o
 .rodata.set_pwr_mode_stop.str1.4
                0x000000000000cb7c        0x7 ./User/pwr.o
 *fill*         0x000000000000cb83        0x1 
 .rodata.recv_esp32_connect_control
                0x000000000000cb84       0x40 ./User/uart_com.o
 .rodata.recv_esp32_pkg
                0x000000000000cbc4       0x30 ./User/uart_com.o
 .rodata.MySerNumInfo
                0x000000000000cbf4       0x16 ./User/usb_desc.o
                0x000000000000cbf4                MySerNumInfo
 *fill*         0x000000000000cc0a        0x2 
 .rodata.MyProdInfo
                0x000000000000cc0c       0x2a ./User/usb_desc.o
                0x000000000000cc0c                MyProdInfo
 *fill*         0x000000000000cc36        0x2 
 .rodata.MyManuInfo
                0x000000000000cc38        0xa ./User/usb_desc.o
                0x000000000000cc38                MyManuInfo
 *fill*         0x000000000000cc42        0x2 
 .rodata.MyHIDReportDesc
                0x000000000000cc44       0xdf ./User/usb_desc.o
                0x000000000000cc44                MyHIDReportDesc
 *fill*         0x000000000000cd23        0x1 
 .rodata.MyDevDescr
                0x000000000000cd24       0x12 ./User/usb_desc.o
                0x000000000000cd24                MyDevDescr
 *fill*         0x000000000000cd36        0x2 
 .rodata.__divdf3
                0x000000000000cd38       0x40 d:/mounriver_studio/toolchain/risc-v embedded gcc12/bin/../lib/gcc/riscv-none-elf/12.2.0\libgcc.a(divdf3.o)
 .rodata.__divsf3
                0x000000000000cd78       0xa8 d:/mounriver_studio/toolchain/risc-v embedded gcc12/bin/../lib/gcc/riscv-none-elf/12.2.0\libgcc.a(divsf3.o)
 .rodata.__clz_tab
                0x000000000000ce20      0x100 d:/mounriver_studio/toolchain/risc-v embedded gcc12/bin/../lib/gcc/riscv-none-elf/12.2.0\libgcc.a(_clz.o)
                0x000000000000ce20                __clz_tab
 .rodata.__sf_fake_stderr
                0x000000000000cf20       0x20 d:/mounriver_studio/toolchain/risc-v embedded gcc12/bin/../lib/gcc/riscv-none-elf/12.2.0/../../../../riscv-none-elf/lib\libg_nano.a(lib_a-findfp.o)
                0x000000000000cf20                __sf_fake_stderr
 .rodata.__sf_fake_stdout
                0x000000000000cf40       0x20 d:/mounriver_studio/toolchain/risc-v embedded gcc12/bin/../lib/gcc/riscv-none-elf/12.2.0/../../../../riscv-none-elf/lib\libg_nano.a(lib_a-findfp.o)
                0x000000000000cf40                __sf_fake_stdout
 .rodata.__sf_fake_stdin
                0x000000000000cf60       0x20 d:/mounriver_studio/toolchain/risc-v embedded gcc12/bin/../lib/gcc/riscv-none-elf/12.2.0/../../../../riscv-none-elf/lib\libg_nano.a(lib_a-findfp.o)
                0x000000000000cf60                __sf_fake_stdin
 .rodata._vfprintf_r.str1.4
                0x000000000000cf80       0x13 d:/mounriver_studio/toolchain/risc-v embedded gcc12/bin/../lib/gcc/riscv-none-elf/12.2.0/../../../../riscv-none-elf/lib\libg_nano.a(lib_a-nano-vfprintf.o)
 *fill*         0x000000000000cf93        0x1 
 .rodata._printf_i.str1.4
                0x000000000000cf94       0x25 d:/mounriver_studio/toolchain/risc-v embedded gcc12/bin/../lib/gcc/riscv-none-elf/12.2.0/../../../../riscv-none-elf/lib\libg_nano.a(lib_a-nano-vfprintf_i.o)
 *fill*         0x000000000000cfb9        0x3 
 .rodata._printf_i
                0x000000000000cfbc       0x58 d:/mounriver_studio/toolchain/risc-v embedded gcc12/bin/../lib/gcc/riscv-none-elf/12.2.0/../../../../riscv-none-elf/lib\libg_nano.a(lib_a-nano-vfprintf_i.o)
 *(.gnu.linkonce.t.*)
                0x000000000000d014                . = ALIGN (0x4)

.rela.dyn       0x000000000000d014        0x0
 .rela.init     0x000000000000d014        0x0 ./User/ch32v10x_it.o
 .rela.vector   0x000000000000d014        0x0 ./User/ch32v10x_it.o
 .rela.text.handle_reset
                0x000000000000d014        0x0 ./User/ch32v10x_it.o
 .rela.text._sbrk
                0x000000000000d014        0x0 ./User/ch32v10x_it.o
 .rela.sdata.curbrk.0
                0x000000000000d014        0x0 ./User/ch32v10x_it.o
 .rela.text._vfprintf_r
                0x000000000000d014        0x0 ./User/ch32v10x_it.o

.fini           0x000000000000d014        0x0
 *(SORT_NONE(.fini))
                0x000000000000d014                . = ALIGN (0x4)
                [!provide]                        PROVIDE (_etext = .)
                [!provide]                        PROVIDE (_eitcm = .)

.preinit_array  0x000000000000d014        0x0
                [!provide]                        PROVIDE (__preinit_array_start = .)
 *(.preinit_array)
                [!provide]                        PROVIDE (__preinit_array_end = .)

.init_array     0x000000000000d014        0x0
                [!provide]                        PROVIDE (__init_array_start = .)
 *(SORT_BY_INIT_PRIORITY(.init_array.*) SORT_BY_INIT_PRIORITY(.ctors.*))
 *(.init_array EXCLUDE_FILE(*crtend?.o *crtend.o *crtbegin?.o *crtbegin.o) .ctors)
                [!provide]                        PROVIDE (__init_array_end = .)

.fini_array     0x000000000000d014        0x0
                [!provide]                        PROVIDE (__fini_array_start = .)
 *(SORT_BY_INIT_PRIORITY(.fini_array.*) SORT_BY_INIT_PRIORITY(.dtors.*))
 *(.fini_array EXCLUDE_FILE(*crtend?.o *crtend.o *crtbegin?.o *crtbegin.o) .dtors)
                [!provide]                        PROVIDE (__fini_array_end = .)

.ctors
 *crtbegin.o(.ctors)
 *crtbegin?.o(.ctors)
 *(EXCLUDE_FILE(*crtend?.o *crtend.o) .ctors)
 *(SORT_BY_NAME(.ctors.*))
 *(.ctors)

.dtors
 *crtbegin.o(.dtors)
 *crtbegin?.o(.dtors)
 *(EXCLUDE_FILE(*crtend?.o *crtend.o) .dtors)
 *(SORT_BY_NAME(.dtors.*))
 *(.dtors)

.dalign         0x0000000020000000        0x0 load address 0x000000000000d014
                0x0000000020000000                . = ALIGN (0x4)
                0x0000000020000000                PROVIDE (_data_vma = .)

.dlalign        0x000000000000d014        0x0
                0x000000000000d014                . = ALIGN (0x4)
                0x000000000000d014                PROVIDE (_data_lma = .)

.data           0x0000000020000000     0x13cc load address 0x000000000000d014
 *(.gnu.linkonce.r.*)
 *(.data .data.*)
 .data.kb_scan  0x0000000020000000       0x10 ./User/gpio_digit.o
                0x0000000020000000                kb_scan
 .data.kb_pull  0x0000000020000010       0x10 ./User/gpio_digit.o
                0x0000000020000010                kb_pull
 .data.kb_scan_to_hid
                0x0000000020000020       0x40 ./User/gpio_digit.o
                0x0000000020000020                kb_scan_to_hid
 .data._gpio_mask_to_group_unsafe
                0x0000000020000060       0x20 ./User/gpio_digit.o
                0x0000000020000060                _gpio_mask_to_group_unsafe
 .data.CommandTable
                0x0000000020000080       0xc0 ./User/hd_rumble2.o
                0x0000000020000080                CommandTable
 .data.amp_exp2_index_lookup_tb
                0x0000000020000140      0x100 ./User/hd_rumble2.o
                0x0000000020000140                amp_exp2_index_lookup_tb
 .data.ccr_lookup_tb
                0x0000000020000240     0x1000 ./User/hd_rumble_high_accuracy.o
                0x0000000020000240                ccr_lookup_tb
 .data._imu_quat_state
                0x0000000020001240       0x1c ./User/imu_quaternion.o
                0x0000000020001240                _imu_quat_state
 .data.default_et
                0x000000002000125c        0xe ./User/ns_com.o
                0x000000002000125c                default_et
 *fill*         0x000000002000126a        0x2 
 .data.default_device_info
                0x000000002000126c        0xc ./User/ns_com.o
                0x000000002000126c                default_device_info
 .data.AHBPrescTable
                0x0000000020001278       0x10 ./User/system_ch32v10x.o
                0x0000000020001278                AHBPrescTable
 .data.MyCfgDescr
                0x0000000020001288       0x29 ./User/usb_desc.o
                0x0000000020001288                MyCfgDescr
 *fill*         0x00000000200012b1        0x3 
 .data.APBAHBPrescTable
                0x00000000200012b4       0x10 ./Peripheral/src/ch32v10x_rcc.o
 .data.impure_data
                0x00000000200012c4       0x60 d:/mounriver_studio/toolchain/risc-v embedded gcc12/bin/../lib/gcc/riscv-none-elf/12.2.0/../../../../riscv-none-elf/lib\libg_nano.a(lib_a-impure.o)
 *(.gnu.linkonce.d.*)
                0x0000000020001328                . = ALIGN (0x8)
 *fill*         0x0000000020001324        0x4 
                0x0000000020001b28                PROVIDE (__global_pointer$ = (. + 0x800))
 *(.sdata .sdata.*)
 .sdata.rumble_state
                0x0000000020001328        0x1 ./User/hd_rumble.o
                0x0000000020001328                rumble_state
 *fill*         0x0000000020001329        0x3 
 .sdata.hd_rumble_cvr_min
                0x000000002000132c        0x4 ./User/hd_rumble_high_accuracy.o
                0x000000002000132c                hd_rumble_cvr_min
 .sdata.hd_rumble_cvr_max
                0x0000000020001330        0x4 ./User/hd_rumble_high_accuracy.o
                0x0000000020001330                hd_rumble_cvr_max
 .sdata.hd_rumble_cvr_max_offset
                0x0000000020001334        0x4 ./User/hd_rumble_high_accuracy.o
                0x0000000020001334                hd_rumble_cvr_max_offset
 .sdata.hd_rumble_cvr_range
                0x0000000020001338        0x4 ./User/hd_rumble_high_accuracy.o
                0x0000000020001338                hd_rumble_cvr_range
 .sdata.switch_flag
                0x000000002000133c        0x1 ./User/hd_rumble_high_accuracy.o
 .sdata.input_mode
                0x000000002000133d        0x1 ./User/ns_com.o
                0x000000002000133d                input_mode
 *fill*         0x000000002000133e        0x2 
 .sdata.rts_tcnt
                0x0000000020001340        0x4 ./User/ns_com_mux.o
                0x0000000020001340                rts_tcnt
 .sdata.indicate_led_updated
                0x0000000020001344        0x1 ./User/spi.o
 *fill*         0x0000000020001345        0x3 
 .sdata.spi_rgb_trans
                0x0000000020001348        0x2 ./User/spi.o
                0x0000000020001348                spi_rgb_trans
 *fill*         0x000000002000134a        0x2 
 .sdata.SystemCoreClock
                0x000000002000134c        0x4 ./User/system_ch32v10x.o
                0x000000002000134c                SystemCoreClock
 .sdata.bt_connect_mode
                0x0000000020001350        0x1 ./User/uart_com.o
 *fill*         0x0000000020001351        0x3 
 .sdata.ADCPrescTable
                0x0000000020001354        0x4 ./Peripheral/src/ch32v10x_rcc.o
 .sdata.curbrk.0
                0x0000000020001358        0x4 ./Debug/debug.o
 .sdata.tiny    0x000000002000135c        0x4 d:/mounriver_studio/toolchain/risc-v embedded gcc12/bin/../lib/gcc/riscv-none-elf/12.2.0/../../../../riscv-none-elf/lib\libm_nano.a(lib_a-ef_sqrt.o)
 .sdata.one     0x0000000020001360        0x4 d:/mounriver_studio/toolchain/risc-v embedded gcc12/bin/../lib/gcc/riscv-none-elf/12.2.0/../../../../riscv-none-elf/lib\libm_nano.a(lib_a-ef_sqrt.o)
 .sdata._impure_ptr
                0x0000000020001364        0x4 d:/mounriver_studio/toolchain/risc-v embedded gcc12/bin/../lib/gcc/riscv-none-elf/12.2.0/../../../../riscv-none-elf/lib\libg_nano.a(lib_a-impure.o)
                0x0000000020001364                _impure_ptr
 *(.sdata2.*)
 *(.gnu.linkonce.s.*)
                0x0000000020001368                . = ALIGN (0x8)
 *(.srodata.cst16)
 *(.srodata.cst8)
 .srodata.cst8  0x0000000020001368       0x38 ./User/imu_quaternion.o
 *(.srodata.cst4)
 .srodata.cst4  0x00000000200013a0        0x4 ./User/conf.o
 .srodata.cst4  0x00000000200013a4        0xc ./User/imu_quaternion.o
 .srodata.cst4  0x00000000200013b0        0xc ./User/ns_com_mux.o
 *(.srodata.cst2)
 *(.srodata .srodata.*)
 .srodata.FW_SUB_VERSION
                0x00000000200013bc        0x4 ./User/conf.o
                0x00000000200013bc                FW_SUB_VERSION
 .srodata.FW_VERSION
                0x00000000200013c0        0x4 ./User/conf.o
                0x00000000200013c0                FW_VERSION
 .srodata.MyLangDescr
                0x00000000200013c4        0x4 ./User/usb_desc.o
                0x00000000200013c4                MyLangDescr
 .srodata._global_impure_ptr
                0x00000000200013c8        0x4 d:/mounriver_studio/toolchain/risc-v embedded gcc12/bin/../lib/gcc/riscv-none-elf/12.2.0/../../../../riscv-none-elf/lib\libg_nano.a(lib_a-impure.o)
                0x00000000200013c8                _global_impure_ptr
                0x00000000200013cc                . = ALIGN (0x4)
                0x00000000200013cc                PROVIDE (_edata = .)

.bss            0x00000000200013d0     0x2e8c load address 0x000000000000e3e0
                0x00000000200013d0                . = ALIGN (0x4)
                0x00000000200013d0                PROVIDE (_sbss = .)
 *(.sbss*)
 .sbss.USBFS_Endp_Busy
                0x00000000200013d0        0x8 ./User/ch32v10x_usbfs_device.o
                0x00000000200013d0                USBFS_Endp_Busy
 .sbss.USBFS_HidProtocol
                0x00000000200013d8        0x1 ./User/ch32v10x_usbfs_device.o
                0x00000000200013d8                USBFS_HidProtocol
 .sbss.USBFS_HidIdle
                0x00000000200013d9        0x1 ./User/ch32v10x_usbfs_device.o
                0x00000000200013d9                USBFS_HidIdle
 .sbss.USBFS_DevEnumStatus
                0x00000000200013da        0x1 ./User/ch32v10x_usbfs_device.o
                0x00000000200013da                USBFS_DevEnumStatus
 .sbss.USBFS_DevSleepStatus
                0x00000000200013db        0x1 ./User/ch32v10x_usbfs_device.o
                0x00000000200013db                USBFS_DevSleepStatus
 .sbss.USBFS_DevAddr
                0x00000000200013dc        0x1 ./User/ch32v10x_usbfs_device.o
                0x00000000200013dc                USBFS_DevAddr
 .sbss.USBFS_DevConfig
                0x00000000200013dd        0x1 ./User/ch32v10x_usbfs_device.o
                0x00000000200013dd                USBFS_DevConfig
 .sbss.USBFS_SetupReqLen
                0x00000000200013de        0x2 ./User/ch32v10x_usbfs_device.o
                0x00000000200013de                USBFS_SetupReqLen
 .sbss.USBFS_SetupReqIndex
                0x00000000200013e0        0x2 ./User/ch32v10x_usbfs_device.o
                0x00000000200013e0                USBFS_SetupReqIndex
 .sbss.USBFS_SetupReqValue
                0x00000000200013e2        0x2 ./User/ch32v10x_usbfs_device.o
                0x00000000200013e2                USBFS_SetupReqValue
 .sbss.USBFS_SetupReqType
                0x00000000200013e4        0x1 ./User/ch32v10x_usbfs_device.o
                0x00000000200013e4                USBFS_SetupReqType
 .sbss.USBFS_SetupReqCode
                0x00000000200013e5        0x1 ./User/ch32v10x_usbfs_device.o
                0x00000000200013e5                USBFS_SetupReqCode
 *fill*         0x00000000200013e6        0x2 
 .sbss.pUSBFS_Descr
                0x00000000200013e8        0x4 ./User/ch32v10x_usbfs_device.o
                0x00000000200013e8                pUSBFS_Descr
 .sbss.button_active_mask
                0x00000000200013ec        0x4 ./User/conf.o
                0x00000000200013ec                button_active_mask
 .sbss.joystick_snapback_deadzone_sq
                0x00000000200013f0        0x8 ./User/conf.o
                0x00000000200013f0                joystick_snapback_deadzone_sq
 .sbss.Calibrattion_Val
                0x00000000200013f8        0x2 ./User/gpio_adc.o
                0x00000000200013f8                Calibrattion_Val
 *fill*         0x00000000200013fa        0x2 
 .sbss.adc_data
                0x00000000200013fc        0x8 ./User/gpio_adc.o
                0x00000000200013fc                adc_data
 .sbss.sts_button_raw
                0x0000000020001404        0x4 ./User/gpio_digit.o
                0x0000000020001404                sts_button_raw
 .sbss.sts_button
                0x0000000020001408        0x4 ./User/gpio_digit.o
                0x0000000020001408                sts_button
 .sbss.sample   0x000000002000140c        0x8 ./User/hd_rumble2.o
                0x000000002000140c                sample
 .sbss.m_state  0x0000000020001414        0x8 ./User/hd_rumble2.o
                0x0000000020001414                m_state
 .sbss.global_sample_channel
                0x000000002000141c        0x1 ./User/hd_rumble2.o
                0x000000002000141c                global_sample_channel
 .sbss.decoded_cnt
                0x000000002000141d        0x1 ./User/hd_rumble2.o
                0x000000002000141d                decoded_cnt
 .sbss.switch_upd
                0x000000002000141e        0x1 ./User/hd_rumble_high_accuracy.o
 *fill*         0x000000002000141f        0x1 
 .sbss.tim3_counter
                0x0000000020001420        0x4 ./User/hd_rumble_high_accuracy.o
 .sbss.right_low_tick
                0x0000000020001424        0x4 ./User/hd_rumble_high_accuracy.o
 .sbss.right_high_tick
                0x0000000020001428        0x4 ./User/hd_rumble_high_accuracy.o
 .sbss.left_low_tick
                0x000000002000142c        0x4 ./User/hd_rumble_high_accuracy.o
 .sbss.left_high_tick
                0x0000000020001430        0x4 ./User/hd_rumble_high_accuracy.o
 .sbss.tim3_irq_tmp_r
                0x0000000020001434        0x4 ./User/hd_rumble_high_accuracy.o
 .sbss.tim3_irq_tmp_l
                0x0000000020001438        0x4 ./User/hd_rumble_high_accuracy.o
 .sbss.rumble_rb_overflow
                0x000000002000143c        0x1 ./User/hd_rumble_high_accuracy.o
                0x000000002000143c                rumble_rb_overflow
 *fill*         0x000000002000143d        0x3 
 .sbss.right_low_sum
                0x0000000020001440        0x4 ./User/hd_rumble_high_accuracy.o
                0x0000000020001440                right_low_sum
 .sbss.right_high_sum
                0x0000000020001444        0x4 ./User/hd_rumble_high_accuracy.o
                0x0000000020001444                right_high_sum
 .sbss.left_low_sum
                0x0000000020001448        0x4 ./User/hd_rumble_high_accuracy.o
                0x0000000020001448                left_low_sum
 .sbss.left_high_sum
                0x000000002000144c        0x4 ./User/hd_rumble_high_accuracy.o
                0x000000002000144c                left_high_sum
 .sbss.right_low_pos
                0x0000000020001450        0x2 ./User/hd_rumble_high_accuracy.o
                0x0000000020001450                right_low_pos
 .sbss.right_high_pos
                0x0000000020001452        0x2 ./User/hd_rumble_high_accuracy.o
                0x0000000020001452                right_high_pos
 .sbss.left_low_pos
                0x0000000020001454        0x2 ./User/hd_rumble_high_accuracy.o
                0x0000000020001454                left_low_pos
 .sbss.left_high_pos
                0x0000000020001456        0x2 ./User/hd_rumble_high_accuracy.o
                0x0000000020001456                left_high_pos
 .sbss.right_low_buf_stdby
                0x0000000020001458        0x1 ./User/hd_rumble_high_accuracy.o
                0x0000000020001458                right_low_buf_stdby
 .sbss.right_high_buf_stdby
                0x0000000020001459        0x1 ./User/hd_rumble_high_accuracy.o
                0x0000000020001459                right_high_buf_stdby
 .sbss.left_low_buf_stdby
                0x000000002000145a        0x1 ./User/hd_rumble_high_accuracy.o
                0x000000002000145a                left_low_buf_stdby
 .sbss.left_high_buf_stdby
                0x000000002000145b        0x1 ./User/hd_rumble_high_accuracy.o
                0x000000002000145b                left_high_buf_stdby
 .sbss.right_low_buf_rdy
                0x000000002000145c        0x1 ./User/hd_rumble_high_accuracy.o
                0x000000002000145c                right_low_buf_rdy
 .sbss.right_high_buf_rdy
                0x000000002000145d        0x1 ./User/hd_rumble_high_accuracy.o
                0x000000002000145d                right_high_buf_rdy
 .sbss.left_low_buf_rdy
                0x000000002000145e        0x1 ./User/hd_rumble_high_accuracy.o
                0x000000002000145e                left_low_buf_rdy
 .sbss.left_high_buf_rdy
                0x000000002000145f        0x1 ./User/hd_rumble_high_accuracy.o
                0x000000002000145f                left_high_buf_rdy
 .sbss.right_low_buf
                0x0000000020001460        0x8 ./User/hd_rumble_high_accuracy.o
                0x0000000020001460                right_low_buf
 .sbss.right_high_buf
                0x0000000020001468        0x8 ./User/hd_rumble_high_accuracy.o
                0x0000000020001468                right_high_buf
 .sbss.left_low_buf
                0x0000000020001470        0x8 ./User/hd_rumble_high_accuracy.o
                0x0000000020001470                left_low_buf
 .sbss.left_high_buf
                0x0000000020001478        0x8 ./User/hd_rumble_high_accuracy.o
                0x0000000020001478                left_high_buf
 .sbss.right_low
                0x0000000020001480        0x8 ./User/hd_rumble_high_accuracy.o
                0x0000000020001480                right_low
 .sbss.right_high
                0x0000000020001488        0x8 ./User/hd_rumble_high_accuracy.o
                0x0000000020001488                right_high
 .sbss.left_low
                0x0000000020001490        0x8 ./User/hd_rumble_high_accuracy.o
                0x0000000020001490                left_low
 .sbss.left_high
                0x0000000020001498        0x8 ./User/hd_rumble_high_accuracy.o
                0x0000000020001498                left_high
 .sbss.res.0    0x00000000200014a0        0x1 ./User/i2c.o
 .sbss.i2c_intr_error
                0x00000000200014a1        0x1 ./User/i2c.o
                0x00000000200014a1                i2c_intr_error
 .sbss.i2c_error_code
                0x00000000200014a2        0x1 ./User/i2c.o
                0x00000000200014a2                i2c_error_code
 .sbss.i2c_status
                0x00000000200014a3        0x1 ./User/i2c.o
                0x00000000200014a3                i2c_status
 .sbss.last_upd.0
                0x00000000200014a4        0x4 ./User/imu.o
 .sbss.rep      0x00000000200014a8        0x4 ./User/imu.o
 .sbss.imu_buf_pos
                0x00000000200014ac        0x1 ./User/imu.o
                0x00000000200014ac                imu_buf_pos
 .sbss.imu_sample_cnt
                0x00000000200014ad        0x1 ./User/imu.o
 *fill*         0x00000000200014ae        0x2 
 .sbss.last_imu_upd
                0x00000000200014b0        0x4 ./User/imu.o
 .sbss.imu_error
                0x00000000200014b4        0x1 ./User/imu.o
                0x00000000200014b4                imu_error
 *fill*         0x00000000200014b5        0x3 
 .sbss.imu_id_read_fail_cnt
                0x00000000200014b8        0x4 ./User/imu.o
                0x00000000200014b8                imu_id_read_fail_cnt
 .sbss.imu_read_fail_cnt
                0x00000000200014bc        0x4 ./User/imu.o
                0x00000000200014bc                imu_read_fail_cnt
 .sbss.imu_read_cnt
                0x00000000200014c0        0x4 ./User/imu.o
                0x00000000200014c0                imu_read_cnt
 .sbss.imu_ratio_zf
                0x00000000200014c4        0x4 ./User/imu.o
                0x00000000200014c4                imu_ratio_zf
 .sbss.imu_ratio_yf
                0x00000000200014c8        0x4 ./User/imu.o
                0x00000000200014c8                imu_ratio_yf
 .sbss.imu_ratio_xf
                0x00000000200014cc        0x4 ./User/imu.o
                0x00000000200014cc                imu_ratio_xf
 .sbss.imu_mode
                0x00000000200014d0        0x1 ./User/imu.o
                0x00000000200014d0                imu_mode
 .sbss.imu_rdy  0x00000000200014d1        0x1 ./User/imu.o
                0x00000000200014d1                imu_rdy
 .sbss.imu_upd_cnt
                0x00000000200014d2        0x1 ./User/imu.o
                0x00000000200014d2                imu_upd_cnt
 .sbss.pos.0    0x00000000200014d3        0x1 ./User/imu_quaternion.o
 .sbss.timestamp.2
                0x00000000200014d4        0x4 ./User/imu_quaternion.o
 .sbss.prev_timestamp.3
                0x00000000200014d8        0x4 ./User/imu_quaternion.o
 .sbss.f6.0     0x00000000200014dc        0x1 ./User/main.o
 .sbss.f5.1     0x00000000200014dd        0x1 ./User/main.o
 .sbss.f4.2     0x00000000200014de        0x1 ./User/main.o
 .sbss.f3.3     0x00000000200014df        0x1 ./User/main.o
 .sbss.f2.4     0x00000000200014e0        0x1 ./User/main.o
 .sbss.f1.5     0x00000000200014e1        0x1 ./User/main.o
 .sbss.upd.7    0x00000000200014e2        0x1 ./User/main.o
 .sbss.save.8   0x00000000200014e3        0x1 ./User/main.o
 .sbss.px.12    0x00000000200014e4        0x4 ./User/main.o
 .sbss.py.13    0x00000000200014e8        0x4 ./User/main.o
 .sbss.nx.14    0x00000000200014ec        0x4 ./User/main.o
 .sbss.ny.15    0x00000000200014f0        0x4 ./User/main.o
 .sbss.set.16   0x00000000200014f4        0x1 ./User/main.o
 *fill*         0x00000000200014f5        0x3 
 .sbss.routine_tick
                0x00000000200014f8        0x4 ./User/main.o
 .sbss.top_tick
                0x00000000200014fc        0x4 ./User/main.o
 .sbss.sts_rjoy
                0x0000000020001500        0x4 ./User/main.o
 .sbss.sts_ljoy
                0x0000000020001504        0x4 ./User/main.o
 .sbss.top_trigger
                0x0000000020001508        0x1 ./User/main.o
 *fill*         0x0000000020001509        0x3 
 .sbss.imu_conf
                0x000000002000150c        0x5 ./User/ns_com.o
                0x000000002000150c                imu_conf
 .sbss.indicate_led_status
                0x0000000020001511        0x1 ./User/ns_com.o
 *fill*         0x0000000020001512        0x2 
 .sbss.rts_cnt  0x0000000020001514        0x4 ./User/ns_com_mux.o
                0x0000000020001514                rts_cnt
 .sbss.is_rumble_start
                0x0000000020001518        0x1 ./User/ns_com_mux.o
                0x0000000020001518                is_rumble_start
 .sbss.force_esp32_active
                0x0000000020001519        0x1 ./User/pwr.o
                0x0000000020001519                force_esp32_active
 *fill*         0x000000002000151a        0x2 
 .sbss.indicate_rgb_task_tick.0
                0x000000002000151c        0x4 ./User/spi.o
 .sbss.p.2      0x0000000020001520        0x3 ./User/spi.o
 .sbss.indicate_led_override
                0x0000000020001523        0x1 ./User/spi.o
 .sbss.indi_status
                0x0000000020001524        0x1 ./User/spi.o
                0x0000000020001524                indi_status
 *fill*         0x0000000020001525        0x3 
 .sbss.inited.0
                0x0000000020001528        0x4 ./User/tick.o
 .sbss.p_us     0x000000002000152c        0x1 ./User/tick.o
 *fill*         0x000000002000152d        0x3 
 .sbss.Systick_MS
                0x0000000020001530        0x4 ./User/tick.o
                0x0000000020001530                Systick_MS
 .sbss.rx_ptr   0x0000000020001534        0x1 ./User/uart.o
                0x0000000020001534                rx_ptr
 *fill*         0x0000000020001535        0x1 
 .sbss.UART1_Rx_Deal_Ptr
                0x0000000020001536        0x2 ./User/uart.o
                0x0000000020001536                UART1_Rx_Deal_Ptr
 .sbss.UART1_Rx_RemainLen
                0x0000000020001538        0x2 ./User/uart.o
                0x0000000020001538                UART1_Rx_RemainLen
 .sbss.UART1_RX_LastCnt
                0x000000002000153a        0x2 ./User/uart.o
                0x000000002000153a                UART1_RX_LastCnt
 .sbss.UART1_RX_CurCnt
                0x000000002000153c        0x2 ./User/uart.o
                0x000000002000153c                UART1_RX_CurCnt
 .sbss.UART1_Tx_Flag
                0x000000002000153e        0x1 ./User/uart.o
                0x000000002000153e                UART1_Tx_Flag
 *fill*         0x000000002000153f        0x1 
 .sbss.UART1_TimeOut
                0x0000000020001540        0x2 ./User/uart.o
                0x0000000020001540                UART1_TimeOut
 .sbss.id.0     0x0000000020001542        0x1 ./User/uart_com.o
 *fill*         0x0000000020001543        0x1 
 .sbss.tick.1   0x0000000020001544        0x4 ./User/uart_com.o
 .sbss.reliable_uart_handled_cnt
                0x0000000020001548        0x4 ./User/uart_com.o
                0x0000000020001548                reliable_uart_handled_cnt
 .sbss.reliable_uart_timeout_cnt
                0x000000002000154c        0x4 ./User/uart_com.o
                0x000000002000154c                reliable_uart_timeout_cnt
 .sbss.imu_report_buffer_ptr_reset_flag
                0x0000000020001550        0x1 ./User/uart_com.o
 *fill*         0x0000000020001551        0x3 
 .sbss.input_update_tick
                0x0000000020001554        0x4 ./User/uart_com.o
 .sbss.pkt.0    0x0000000020001558        0x8 ./User/usbd_compatibility_hid.o
 .sbss.imu_report_buffer_ptr
                0x0000000020001560        0x4 ./User/usbd_compatibility_hid.o
                0x0000000020001560                imu_report_buffer_ptr
 .sbss.rpt      0x0000000020001564        0x4 ./User/usbd_compatibility_hid.o
                0x0000000020001564                rpt
 .sbss.pkg_typ  0x0000000020001568        0x1 ./User/usbd_compatibility_hid.o
                0x0000000020001568                pkg_typ
 .sbss.pkg_len  0x0000000020001569        0x1 ./User/usbd_compatibility_hid.o
                0x0000000020001569                pkg_len
 *fill*         0x000000002000156a        0x2 
 .sbss.pkg_ptr  0x000000002000156c        0x4 ./User/usbd_compatibility_hid.o
                0x000000002000156c                pkg_ptr
 .sbss.ns_hid_pkt_cnt
                0x0000000020001570        0x1 ./User/usbd_compatibility_hid.o
 *fill*         0x0000000020001571        0x3 
 .sbss.get_peripheral_data
                0x0000000020001574        0x4 ./User/usbd_compatibility_hid.o
                0x0000000020001574                get_peripheral_data
 .sbss.HID_Set_Report_Flag
                0x0000000020001578        0x1 ./User/usbd_compatibility_hid.o
                0x0000000020001578                HID_Set_Report_Flag
 *fill*         0x0000000020001579        0x3 
 .sbss.NVIC_Priority_Group
                0x000000002000157c        0x4 ./Peripheral/src/ch32v10x_misc.o
                0x000000002000157c                NVIC_Priority_Group
 .sbss.pEP1_RAM_Addr
                0x0000000020001580        0x4 ./Peripheral/src/ch32v10x_usb.o
                0x0000000020001580                pEP1_RAM_Addr
 .sbss.__lock___malloc_recursive_mutex
                0x0000000020001584        0x1 d:/mounriver_studio/toolchain/risc-v embedded gcc12/bin/../lib/gcc/riscv-none-elf/12.2.0/../../../../riscv-none-elf/lib\libg_nano.a(lib_a-lock.o)
                0x0000000020001584                __lock___malloc_recursive_mutex
 *fill*         0x0000000020001585        0x3 
 .sbss.__lock___sfp_recursive_mutex
                0x0000000020001588        0x1 d:/mounriver_studio/toolchain/risc-v embedded gcc12/bin/../lib/gcc/riscv-none-elf/12.2.0/../../../../riscv-none-elf/lib\libg_nano.a(lib_a-lock.o)
                0x0000000020001588                __lock___sfp_recursive_mutex
 *fill*         0x0000000020001589        0x3 
 .sbss.__lock___sinit_recursive_mutex
                0x000000002000158c        0x1 d:/mounriver_studio/toolchain/risc-v embedded gcc12/bin/../lib/gcc/riscv-none-elf/12.2.0/../../../../riscv-none-elf/lib\libg_nano.a(lib_a-lock.o)
                0x000000002000158c                __lock___sinit_recursive_mutex
 *fill*         0x000000002000158d        0x3 
 .sbss.__malloc_sbrk_start
                0x0000000020001590        0x4 d:/mounriver_studio/toolchain/risc-v embedded gcc12/bin/../lib/gcc/riscv-none-elf/12.2.0/../../../../riscv-none-elf/lib\libg_nano.a(lib_a-nano-mallocr.o)
                0x0000000020001590                __malloc_sbrk_start
 .sbss.__malloc_free_list
                0x0000000020001594        0x4 d:/mounriver_studio/toolchain/risc-v embedded gcc12/bin/../lib/gcc/riscv-none-elf/12.2.0/../../../../riscv-none-elf/lib\libg_nano.a(lib_a-nano-mallocr.o)
                0x0000000020001594                __malloc_free_list
 .sbss.errno    0x0000000020001598        0x4 d:/mounriver_studio/toolchain/risc-v embedded gcc12/bin/../lib/gcc/riscv-none-elf/12.2.0/../../../../riscv-none-elf/lib\libg_nano.a(lib_a-reent.o)
                0x0000000020001598                errno
 *(.gnu.linkonce.sb.*)
 *(.bss*)
 .bss.ns_usb_rb_len
                0x000000002000159c       0x30 ./User/ch32v10x_usbfs_device.o
                0x000000002000159c                ns_usb_rb_len
 .bss.ns_usb_recv_buf
                0x00000000200015cc      0x618 ./User/ch32v10x_usbfs_device.o
                0x00000000200015cc                ns_usb_recv_buf
 .bss.ns_usb_send_buf
                0x0000000020001be4      0x618 ./User/ch32v10x_usbfs_device.o
                0x0000000020001be4                ns_usb_send_buf
 .bss.ns_usb_recv_rb
                0x00000000200021fc       0x14 ./User/ch32v10x_usbfs_device.o
                0x00000000200021fc                ns_usb_recv_rb
 .bss.ns_usb_send_rb
                0x0000000020002210       0x14 ./User/ch32v10x_usbfs_device.o
                0x0000000020002210                ns_usb_send_rb
 .bss.USBFS_EP1_Buf
                0x0000000020002224       0x80 ./User/ch32v10x_usbfs_device.o
                0x0000000020002224                USBFS_EP1_Buf
 .bss.USBFS_EP0_Buf
                0x00000000200022a4       0x40 ./User/ch32v10x_usbfs_device.o
                0x00000000200022a4                USBFS_EP0_Buf
 .bss.smashpro_factory_config
                0x00000000200022e4        0xb ./User/conf.o
                0x00000000200022e4                smashpro_factory_config
 *fill*         0x00000000200022ef        0x1 
 .bss.rgb_data  0x00000000200022f0       0xff ./User/conf.o
                0x00000000200022f0                rgb_data
 *fill*         0x00000000200023ef        0x1 
 .bss.user_config
                0x00000000200023f0       0x26 ./User/conf.o
                0x00000000200023f0                user_config
 *fill*         0x0000000020002416        0x2 
 .bss.user_calibration
                0x0000000020002418       0x48 ./User/conf.o
                0x0000000020002418                user_calibration
 .bss.factory_configuration
                0x0000000020002460       0xb1 ./User/conf.o
                0x0000000020002460                factory_configuration
 *fill*         0x0000000020002511        0x3 
 .bss.flash_buffer
                0x0000000020002514      0x100 ./User/flash.o
                0x0000000020002514                flash_buffer
 .bss.hid_num_to_gpio
                0x0000000020002614       0x60 ./User/gpio_digit.o
                0x0000000020002614                hid_num_to_gpio
 .bss.linear_samples
                0x0000000020002674       0x18 ./User/hd_rumble2.o
                0x0000000020002674                linear_samples
 .bss.rumble_rb_len
                0x000000002000268c       0x80 ./User/hd_rumble_high_accuracy.o
                0x000000002000268c                rumble_rb_len
 .bss.right_low_rb_buf
                0x000000002000270c      0x100 ./User/hd_rumble_high_accuracy.o
                0x000000002000270c                right_low_rb_buf
 .bss.right_high_rb_buf
                0x000000002000280c      0x100 ./User/hd_rumble_high_accuracy.o
                0x000000002000280c                right_high_rb_buf
 .bss.left_low_rb_buf
                0x000000002000290c      0x100 ./User/hd_rumble_high_accuracy.o
                0x000000002000290c                left_low_rb_buf
 .bss.left_high_rb_buf
                0x0000000020002a0c      0x100 ./User/hd_rumble_high_accuracy.o
                0x0000000020002a0c                left_high_rb_buf
 .bss.right_low_rb
                0x0000000020002b0c       0x14 ./User/hd_rumble_high_accuracy.o
                0x0000000020002b0c                right_low_rb
 .bss.right_high_rb
                0x0000000020002b20       0x14 ./User/hd_rumble_high_accuracy.o
                0x0000000020002b20                right_high_rb
 .bss.left_low_rb
                0x0000000020002b34       0x14 ./User/hd_rumble_high_accuracy.o
                0x0000000020002b34                left_low_rb
 .bss.left_high_rb
                0x0000000020002b48       0x14 ./User/hd_rumble_high_accuracy.o
                0x0000000020002b48                left_high_rb
 .bss.imu_pack_buf
                0x0000000020002b5c       0x48 ./User/imu.o
                0x0000000020002b5c                imu_pack_buf
 .bss.imu_res   0x0000000020002ba4        0xc ./User/imu.o
                0x0000000020002ba4                imu_res
 .bss.imu_raw_buf
                0x0000000020002bb0        0xc ./User/imu.o
                0x0000000020002bb0                imu_raw_buf
 .bss.imu_sum   0x0000000020002bbc       0x18 ./User/imu.o
 .bss.gyo_samples.1
                0x0000000020002bd4       0x12 ./User/imu_quaternion.o
 *fill*         0x0000000020002be6        0x2 
 .bss.pkt       0x0000000020002be8        0xd ./User/main.o
 *fill*         0x0000000020002bf5        0x3 
 .bss.js_snapback_samples
                0x0000000020002bf8       0x30 ./User/main.o
                0x0000000020002bf8                js_snapback_samples
 .bss.adc_debounce
                0x0000000020002c28       0x10 ./User/main.o
                0x0000000020002c28                adc_debounce
 .bss.pkt       0x0000000020002c38       0x30 ./User/ns_com.o
 .bss.ns_cmd_subcommand_cb_tb
                0x0000000020002c68      0x400 ./User/ns_com.o
                0x0000000020002c68                ns_cmd_subcommand_cb_tb
 .bss.calibrate_imu_raw_buf
                0x0000000020003068       0x30 ./User/ns_com_mux.o
 .bss.fw_buf_raw
                0x0000000020003098       0x40 ./User/ns_com_mux.o
 .bss.usb_handshake_buf
                0x00000000200030d8       0x40 ./User/ns_com_mux.o
 .bss.connection_state
                0x0000000020003118       0x25 ./User/ns_com_mux.o
                0x0000000020003118                connection_state
 *fill*         0x000000002000313d        0x3 
 .bss.spi_tx_buf
                0x0000000020003140      0x35d ./User/spi.o
                0x0000000020003140                spi_tx_buf
 *fill*         0x000000002000349d        0x3 
 .bss.send_buf  0x00000000200034a0        0xd ./User/uart.o
 *fill*         0x00000000200034ad        0x3 
 .bss.rx_filter_buf
                0x00000000200034b0        0xd ./User/uart.o
                0x00000000200034b0                rx_filter_buf
 *fill*         0x00000000200034bd        0x3 
 .bss.uart_tx_rb
                0x00000000200034c0       0x14 ./User/uart.o
                0x00000000200034c0                uart_tx_rb
 .bss.uart_rx_rb
                0x00000000200034d4       0x14 ./User/uart.o
                0x00000000200034d4                uart_rx_rb
 .bss.uart_tx_rb_len
                0x00000000200034e8       0x40 ./User/uart.o
                0x00000000200034e8                uart_tx_rb_len
 .bss.uart_rx_rb_len
                0x0000000020003528       0x40 ./User/uart.o
                0x0000000020003528                uart_rx_rb_len
 .bss.uart_tx_rb_buf
                0x0000000020003568      0x340 ./User/uart.o
                0x0000000020003568                uart_tx_rb_buf
 .bss.uart_rx_rb_buf
                0x00000000200038a8      0x340 ./User/uart.o
                0x00000000200038a8                uart_rx_rb_buf
 .bss.UART1_RxBuffer
                0x0000000020003be8      0x180 ./User/uart.o
                0x0000000020003be8                UART1_RxBuffer
 .bss.r_wait_queue_buffer
                0x0000000020003d68       0x40 ./User/uart_com.o
 .bss.r_wait_queue
                0x0000000020003da8       0x14 ./User/uart_com.o
 .bss.rurt_lst  0x0000000020003dbc      0x400 ./User/uart_com.o
 .bss.pkt       0x00000000200041bc        0xd ./User/uart_com.o
 *fill*         0x00000000200041c9        0x3 
 .bss.usb_rx_buf
                0x00000000200041cc       0x41 ./User/usbd_compatibility_hid.o
 *fill*         0x000000002000420d        0x3 
 .bss.global_input_data
                0x0000000020004210        0x9 ./User/usbd_compatibility_hid.o
                0x0000000020004210                global_input_data
 *fill*         0x0000000020004219        0x3 
 .bss.HID_Report_Buffer
                0x000000002000421c       0x40 ./User/usbd_compatibility_hid.o
                0x000000002000421c                HID_Report_Buffer
 *(.gnu.linkonce.b.*)
 *(COMMON*)
                0x000000002000425c                . = ALIGN (0x4)
                0x000000002000425c                PROVIDE (_ebss = .)
                0x000000002000425c                PROVIDE (_end = _ebss)
                [!provide]                        PROVIDE (end = .)

.stack          0x0000000020004800      0x800
                0x0000000020004800                PROVIDE (_heap_end = .)
                0x0000000020004800                . = ALIGN (0x4)
                [!provide]                        PROVIDE (_susrstack = .)
                0x0000000020005000                . = (. + __stack_size)
 *fill*         0x0000000020004800      0x800 
                0x0000000020005000                PROVIDE (_eusrstack = .)
OUTPUT(CH32V103C8T6_USB.elf elf32-littleriscv)

.debug_info     0x0000000000000000    0x1f335
 .debug_info    0x0000000000000000      0x3c3 ./User/ch32v10x_it.o
 .debug_info    0x00000000000003c3      0xd9c ./User/ch32v10x_usbfs_device.o
 .debug_info    0x000000000000115f     0x148b ./User/conf.o
 .debug_info    0x00000000000025ea      0x40c ./User/flash.o
 .debug_info    0x00000000000029f6      0x35f ./User/global_api.o
 .debug_info    0x0000000000002d55      0xa46 ./User/gpio_adc.o
 .debug_info    0x000000000000379b      0xa27 ./User/gpio_digit.o
 .debug_info    0x00000000000041c2      0xd07 ./User/hd_rumble.o
 .debug_info    0x0000000000004ec9     0x106c ./User/hd_rumble2.o
 .debug_info    0x0000000000005f35     0x1013 ./User/hd_rumble_high_accuracy.o
 .debug_info    0x0000000000006f48     0x1672 ./User/i2c.o
 .debug_info    0x00000000000085ba      0xdbb ./User/imu.o
 .debug_info    0x0000000000009375      0xa44 ./User/imu_quaternion.o
 .debug_info    0x0000000000009db9     0x2451 ./User/main.o
 .debug_info    0x000000000000c20a     0x1fd1 ./User/ns_com.o
 .debug_info    0x000000000000e1db     0x22a6 ./User/ns_com_mux.o
 .debug_info    0x0000000000010481      0x9f5 ./User/pwr.o
 .debug_info    0x0000000000010e76      0x39e ./User/ring_buffer.o
 .debug_info    0x0000000000011214     0x1614 ./User/spi.o
 .debug_info    0x0000000000012828      0x32a ./User/system_ch32v10x.o
 .debug_info    0x0000000000012b52      0xd9a ./User/tick.o
 .debug_info    0x00000000000138ec     0x114e ./User/uart.o
 .debug_info    0x0000000000014a3a     0x1985 ./User/uart_com.o
 .debug_info    0x00000000000163bf      0x1f6 ./User/usb_desc.o
 .debug_info    0x00000000000165b5      0xd6c ./User/usbd_compatibility_hid.o
 .debug_info    0x0000000000017321       0x23 ./Startup/startup_ch32v10x.o
 .debug_info    0x0000000000017344      0xd24 ./Peripheral/src/ch32v10x_adc.o
 .debug_info    0x0000000000018068      0x40b ./Peripheral/src/ch32v10x_dma.o
 .debug_info    0x0000000000018473      0x332 ./Peripheral/src/ch32v10x_exti.o
 .debug_info    0x00000000000187a5      0xc47 ./Peripheral/src/ch32v10x_flash.o
 .debug_info    0x00000000000193ec      0x816 ./Peripheral/src/ch32v10x_gpio.o
 .debug_info    0x0000000000019c02      0xb10 ./Peripheral/src/ch32v10x_i2c.o
 .debug_info    0x000000000001a712      0x57a ./Peripheral/src/ch32v10x_misc.o
 .debug_info    0x000000000001ac8c      0x695 ./Peripheral/src/ch32v10x_pwr.o
 .debug_info    0x000000000001b321      0x88c ./Peripheral/src/ch32v10x_rcc.o
 .debug_info    0x000000000001bbad      0x96c ./Peripheral/src/ch32v10x_spi.o
 .debug_info    0x000000000001c519     0x1ea7 ./Peripheral/src/ch32v10x_tim.o
 .debug_info    0x000000000001e3c0      0xa16 ./Peripheral/src/ch32v10x_usart.o
 .debug_info    0x000000000001edd6      0x267 ./Peripheral/src/ch32v10x_usb.o
 .debug_info    0x000000000001f03d      0x2f8 ./Debug/debug.o

.debug_abbrev   0x0000000000000000     0x6f6e
 .debug_abbrev  0x0000000000000000      0x189 ./User/ch32v10x_it.o
 .debug_abbrev  0x0000000000000189      0x400 ./User/ch32v10x_usbfs_device.o
 .debug_abbrev  0x0000000000000589      0x3c6 ./User/conf.o
 .debug_abbrev  0x000000000000094f      0x166 ./User/flash.o
 .debug_abbrev  0x0000000000000ab5      0x136 ./User/global_api.o
 .debug_abbrev  0x0000000000000beb      0x20c ./User/gpio_adc.o
 .debug_abbrev  0x0000000000000df7      0x317 ./User/gpio_digit.o
 .debug_abbrev  0x000000000000110e      0x29f ./User/hd_rumble.o
 .debug_abbrev  0x00000000000013ad      0x362 ./User/hd_rumble2.o
 .debug_abbrev  0x000000000000170f      0x3a3 ./User/hd_rumble_high_accuracy.o
 .debug_abbrev  0x0000000000001ab2      0x47b ./User/i2c.o
 .debug_abbrev  0x0000000000001f2d      0x32d ./User/imu.o
 .debug_abbrev  0x000000000000225a      0x244 ./User/imu_quaternion.o
 .debug_abbrev  0x000000000000249e      0x55d ./User/main.o
 .debug_abbrev  0x00000000000029fb      0x49c ./User/ns_com.o
 .debug_abbrev  0x0000000000002e97      0x57e ./User/ns_com_mux.o
 .debug_abbrev  0x0000000000003415      0x2ab ./User/pwr.o
 .debug_abbrev  0x00000000000036c0      0x17f ./User/ring_buffer.o
 .debug_abbrev  0x000000000000383f      0x4ab ./User/spi.o
 .debug_abbrev  0x0000000000003cea      0x1a7 ./User/system_ch32v10x.o
 .debug_abbrev  0x0000000000003e91      0x403 ./User/tick.o
 .debug_abbrev  0x0000000000004294      0x3f2 ./User/uart.o
 .debug_abbrev  0x0000000000004686      0x625 ./User/uart_com.o
 .debug_abbrev  0x0000000000004cab       0x79 ./User/usb_desc.o
 .debug_abbrev  0x0000000000004d24      0x3ac ./User/usbd_compatibility_hid.o
 .debug_abbrev  0x00000000000050d0       0x12 ./Startup/startup_ch32v10x.o
 .debug_abbrev  0x00000000000050e2      0x272 ./Peripheral/src/ch32v10x_adc.o
 .debug_abbrev  0x0000000000005354      0x208 ./Peripheral/src/ch32v10x_dma.o
 .debug_abbrev  0x000000000000555c      0x1ad ./Peripheral/src/ch32v10x_exti.o
 .debug_abbrev  0x0000000000005709      0x328 ./Peripheral/src/ch32v10x_flash.o
 .debug_abbrev  0x0000000000005a31      0x256 ./Peripheral/src/ch32v10x_gpio.o
 .debug_abbrev  0x0000000000005c87      0x28a ./Peripheral/src/ch32v10x_i2c.o
 .debug_abbrev  0x0000000000005f11      0x1da ./Peripheral/src/ch32v10x_misc.o
 .debug_abbrev  0x00000000000060eb      0x28c ./Peripheral/src/ch32v10x_pwr.o
 .debug_abbrev  0x0000000000006377      0x252 ./Peripheral/src/ch32v10x_rcc.o
 .debug_abbrev  0x00000000000065c9      0x21a ./Peripheral/src/ch32v10x_spi.o
 .debug_abbrev  0x00000000000067e3      0x321 ./Peripheral/src/ch32v10x_tim.o
 .debug_abbrev  0x0000000000006b04      0x20b ./Peripheral/src/ch32v10x_usart.o
 .debug_abbrev  0x0000000000006d0f       0xba ./Peripheral/src/ch32v10x_usb.o
 .debug_abbrev  0x0000000000006dc9      0x1a5 ./Debug/debug.o

.debug_aranges  0x0000000000000000     0x1648
 .debug_aranges
                0x0000000000000000       0x28 ./User/ch32v10x_it.o
 .debug_aranges
                0x0000000000000028       0x48 ./User/ch32v10x_usbfs_device.o
 .debug_aranges
                0x0000000000000070       0x68 ./User/conf.o
 .debug_aranges
                0x00000000000000d8       0x28 ./User/flash.o
 .debug_aranges
                0x0000000000000100       0x68 ./User/global_api.o
 .debug_aranges
                0x0000000000000168       0x38 ./User/gpio_adc.o
 .debug_aranges
                0x00000000000001a0       0x60 ./User/gpio_digit.o
 .debug_aranges
                0x0000000000000200       0x28 ./User/hd_rumble.o
 .debug_aranges
                0x0000000000000228       0x78 ./User/hd_rumble2.o
 .debug_aranges
                0x00000000000002a0       0x50 ./User/hd_rumble_high_accuracy.o
 .debug_aranges
                0x00000000000002f0       0x88 ./User/i2c.o
 .debug_aranges
                0x0000000000000378       0x50 ./User/imu.o
 .debug_aranges
                0x00000000000003c8       0x40 ./User/imu_quaternion.o
 .debug_aranges
                0x0000000000000408       0x98 ./User/main.o
 .debug_aranges
                0x00000000000004a0      0x138 ./User/ns_com.o
 .debug_aranges
                0x00000000000005d8       0xc0 ./User/ns_com_mux.o
 .debug_aranges
                0x0000000000000698       0x38 ./User/pwr.o
 .debug_aranges
                0x00000000000006d0       0x38 ./User/ring_buffer.o
 .debug_aranges
                0x0000000000000708       0x90 ./User/spi.o
 .debug_aranges
                0x0000000000000798       0x38 ./User/system_ch32v10x.o
 .debug_aranges
                0x00000000000007d0       0xa8 ./User/tick.o
 .debug_aranges
                0x0000000000000878       0x70 ./User/uart.o
 .debug_aranges
                0x00000000000008e8       0xc0 ./User/uart_com.o
 .debug_aranges
                0x00000000000009a8       0x18 ./User/usb_desc.o
 .debug_aranges
                0x00000000000009c0       0x60 ./User/usbd_compatibility_hid.o
 .debug_aranges
                0x0000000000000a20       0x38 ./Startup/startup_ch32v10x.o
 .debug_aranges
                0x0000000000000a58      0x148 ./Peripheral/src/ch32v10x_adc.o
 .debug_aranges
                0x0000000000000ba0       0x70 ./Peripheral/src/ch32v10x_dma.o
 .debug_aranges
                0x0000000000000c10       0x58 ./Peripheral/src/ch32v10x_exti.o
 .debug_aranges
                0x0000000000000c68      0x140 ./Peripheral/src/ch32v10x_flash.o
 .debug_aranges
                0x0000000000000da8       0xa8 ./Peripheral/src/ch32v10x_gpio.o
 .debug_aranges
                0x0000000000000e50      0x120 ./Peripheral/src/ch32v10x_i2c.o
 .debug_aranges
                0x0000000000000f70       0x28 ./Peripheral/src/ch32v10x_misc.o
 .debug_aranges
                0x0000000000000f98       0x68 ./Peripheral/src/ch32v10x_pwr.o
 .debug_aranges
                0x0000000000001000      0x118 ./Peripheral/src/ch32v10x_rcc.o
 .debug_aranges
                0x0000000000001118       0xd0 ./Peripheral/src/ch32v10x_spi.o
 .debug_aranges
                0x00000000000011e8      0x2e0 ./Peripheral/src/ch32v10x_tim.o
 .debug_aranges
                0x00000000000014c8       0xf0 ./Peripheral/src/ch32v10x_usart.o
 .debug_aranges
                0x00000000000015b8       0x58 ./Peripheral/src/ch32v10x_usb.o
 .debug_aranges
                0x0000000000001610       0x38 ./Debug/debug.o

.debug_rnglists
                0x0000000000000000     0x1d3a
 .debug_rnglists
                0x0000000000000000       0x1f ./User/ch32v10x_it.o
 .debug_rnglists
                0x000000000000001f       0x7c ./User/ch32v10x_usbfs_device.o
 .debug_rnglists
                0x000000000000009b       0x83 ./User/conf.o
 .debug_rnglists
                0x000000000000011e       0x1f ./User/flash.o
 .debug_rnglists
                0x000000000000013d       0x67 ./User/global_api.o
 .debug_rnglists
                0x00000000000001a4       0x31 ./User/gpio_adc.o
 .debug_rnglists
                0x00000000000001d5      0x107 ./User/gpio_digit.o
 .debug_rnglists
                0x00000000000002dc       0x1f ./User/hd_rumble.o
 .debug_rnglists
                0x00000000000002fb       0xfb ./User/hd_rumble2.o
 .debug_rnglists
                0x00000000000003f6       0x4c ./User/hd_rumble_high_accuracy.o
 .debug_rnglists
                0x0000000000000442      0x118 ./User/i2c.o
 .debug_rnglists
                0x000000000000055a       0x5f ./User/imu.o
 .debug_rnglists
                0x00000000000005b9       0x69 ./User/imu_quaternion.o
 .debug_rnglists
                0x0000000000000622       0xfb ./User/main.o
 .debug_rnglists
                0x000000000000071d      0x34d ./User/ns_com.o
 .debug_rnglists
                0x0000000000000a6a      0x102 ./User/ns_com_mux.o
 .debug_rnglists
                0x0000000000000b6c       0x31 ./User/pwr.o
 .debug_rnglists
                0x0000000000000b9d       0x31 ./User/ring_buffer.o
 .debug_rnglists
                0x0000000000000bce       0xcd ./User/spi.o
 .debug_rnglists
                0x0000000000000c9b       0x31 ./User/system_ch32v10x.o
 .debug_rnglists
                0x0000000000000ccc       0xc2 ./User/tick.o
 .debug_rnglists
                0x0000000000000d8e       0x96 ./User/uart.o
 .debug_rnglists
                0x0000000000000e24      0x13c ./User/uart_com.o
 .debug_rnglists
                0x0000000000000f60       0x71 ./User/usbd_compatibility_hid.o
 .debug_rnglists
                0x0000000000000fd1       0x27 ./Startup/startup_ch32v10x.o
 .debug_rnglists
                0x0000000000000ff8      0x163 ./Peripheral/src/ch32v10x_adc.o
 .debug_rnglists
                0x000000000000115b       0x70 ./Peripheral/src/ch32v10x_dma.o
 .debug_rnglists
                0x00000000000011cb       0x55 ./Peripheral/src/ch32v10x_exti.o
 .debug_rnglists
                0x0000000000001220      0x15a ./Peripheral/src/ch32v10x_flash.o
 .debug_rnglists
                0x000000000000137a       0xaf ./Peripheral/src/ch32v10x_gpio.o
 .debug_rnglists
                0x0000000000001429      0x136 ./Peripheral/src/ch32v10x_i2c.o
 .debug_rnglists
                0x000000000000155f       0x45 ./Peripheral/src/ch32v10x_misc.o
 .debug_rnglists
                0x00000000000015a4       0xb3 ./Peripheral/src/ch32v10x_pwr.o
 .debug_rnglists
                0x0000000000001657      0x12d ./Peripheral/src/ch32v10x_rcc.o
 .debug_rnglists
                0x0000000000001784       0xdc ./Peripheral/src/ch32v10x_spi.o
 .debug_rnglists
                0x0000000000001860      0x354 ./Peripheral/src/ch32v10x_tim.o
 .debug_rnglists
                0x0000000000001bb4      0x100 ./Peripheral/src/ch32v10x_usart.o
 .debug_rnglists
                0x0000000000001cb4       0x55 ./Peripheral/src/ch32v10x_usb.o
 .debug_rnglists
                0x0000000000001d09       0x31 ./Debug/debug.o

.debug_line     0x0000000000000000    0x1c358
 .debug_line    0x0000000000000000       0xd8 ./User/ch32v10x_it.o
 .debug_line    0x00000000000000d8     0x145e ./User/ch32v10x_usbfs_device.o
 .debug_line    0x0000000000001536      0xbbf ./User/conf.o
 .debug_line    0x00000000000020f5      0x1db ./User/flash.o
 .debug_line    0x00000000000022d0      0x258 ./User/global_api.o
 .debug_line    0x0000000000002528      0x40f ./User/gpio_adc.o
 .debug_line    0x0000000000002937      0x93b ./User/gpio_digit.o
 .debug_line    0x0000000000003272      0x2fe ./User/hd_rumble.o
 .debug_line    0x0000000000003570     0x136d ./User/hd_rumble2.o
 .debug_line    0x00000000000048dd      0xfcb ./User/hd_rumble_high_accuracy.o
 .debug_line    0x00000000000058a8      0xe96 ./User/i2c.o
 .debug_line    0x000000000000673e      0xab4 ./User/imu.o
 .debug_line    0x00000000000071f2      0xb5a ./User/imu_quaternion.o
 .debug_line    0x0000000000007d4c     0x149d ./User/main.o
 .debug_line    0x00000000000091e9     0x16e9 ./User/ns_com.o
 .debug_line    0x000000000000a8d2      0xeec ./User/ns_com_mux.o
 .debug_line    0x000000000000b7be      0x4c1 ./User/pwr.o
 .debug_line    0x000000000000bc7f      0x59d ./User/ring_buffer.o
 .debug_line    0x000000000000c21c      0xc82 ./User/spi.o
 .debug_line    0x000000000000ce9e      0x5f3 ./User/system_ch32v10x.o
 .debug_line    0x000000000000d491      0x851 ./User/tick.o
 .debug_line    0x000000000000dce2      0xe4f ./User/uart.o
 .debug_line    0x000000000000eb31     0x1141 ./User/uart_com.o
 .debug_line    0x000000000000fc72       0x51 ./User/usb_desc.o
 .debug_line    0x000000000000fcc3      0x641 ./User/usbd_compatibility_hid.o
 .debug_line    0x0000000000010304      0x21a ./Startup/startup_ch32v10x.o
 .debug_line    0x000000000001051e     0x1555 ./Peripheral/src/ch32v10x_adc.o
 .debug_line    0x0000000000011a73      0x6a8 ./Peripheral/src/ch32v10x_dma.o
 .debug_line    0x000000000001211b      0x408 ./Peripheral/src/ch32v10x_exti.o
 .debug_line    0x0000000000012523     0x1e5f ./Peripheral/src/ch32v10x_flash.o
 .debug_line    0x0000000000014382      0xb5c ./Peripheral/src/ch32v10x_gpio.o
 .debug_line    0x0000000000014ede      0xf9f ./Peripheral/src/ch32v10x_i2c.o
 .debug_line    0x0000000000015e7d      0x251 ./Peripheral/src/ch32v10x_misc.o
 .debug_line    0x00000000000160ce      0x50f ./Peripheral/src/ch32v10x_pwr.o
 .debug_line    0x00000000000165dd      0xf4b ./Peripheral/src/ch32v10x_rcc.o
 .debug_line    0x0000000000017528      0xb2a ./Peripheral/src/ch32v10x_spi.o
 .debug_line    0x0000000000018052     0x301c ./Peripheral/src/ch32v10x_tim.o
 .debug_line    0x000000000001b06e      0xcd2 ./Peripheral/src/ch32v10x_usart.o
 .debug_line    0x000000000001bd40      0x45a ./Peripheral/src/ch32v10x_usb.o
 .debug_line    0x000000000001c19a      0x1be ./Debug/debug.o

.debug_str      0x0000000000000000     0x6d5f
 .debug_str     0x0000000000000000      0x264 ./User/ch32v10x_it.o
                                        0x2c8 (size before relaxing)
 .debug_str     0x0000000000000264      0x694 ./User/ch32v10x_usbfs_device.o
                                        0x8f9 (size before relaxing)
 .debug_str     0x00000000000008f8      0xd10 ./User/conf.o
                                       0x1119 (size before relaxing)
 .debug_str     0x0000000000001608      0x13a ./User/flash.o
                                        0x311 (size before relaxing)
 .debug_str     0x0000000000001742       0x64 ./User/global_api.o
                                        0x213 (size before relaxing)
 .debug_str     0x00000000000017a6      0x4c6 ./User/gpio_adc.o
                                        0x6cb (size before relaxing)
 .debug_str     0x0000000000001c6c      0x125 ./User/gpio_digit.o
                                        0x6ff (size before relaxing)
 .debug_str     0x0000000000001d91      0x3e1 ./User/hd_rumble.o
                                        0xa66 (size before relaxing)
 .debug_str     0x0000000000002172      0x5ba ./User/hd_rumble2.o
                                        0xb48 (size before relaxing)
 .debug_str     0x000000000000272c      0x325 ./User/hd_rumble_high_accuracy.o
                                        0x9c5 (size before relaxing)
 .debug_str     0x0000000000002a51      0x317 ./User/i2c.o
                                        0xdf8 (size before relaxing)
 .debug_str     0x0000000000002d68      0x269 ./User/imu.o
                                        0x74c (size before relaxing)
 .debug_str     0x0000000000002fd1      0x1a0 ./User/imu_quaternion.o
                                        0x4ea (size before relaxing)
 .debug_str     0x0000000000003171      0x680 ./User/main.o
                                       0x196a (size before relaxing)
 .debug_str     0x00000000000037f1      0x6f8 ./User/ns_com.o
                                        0xd99 (size before relaxing)
 .debug_str     0x0000000000003ee9      0x2a3 ./User/ns_com_mux.o
                                       0x198d (size before relaxing)
 .debug_str     0x000000000000418c      0x17e ./User/pwr.o
                                        0x69f (size before relaxing)
 .debug_str     0x000000000000430a       0x12 ./User/ring_buffer.o
                                        0x245 (size before relaxing)
 .debug_str     0x000000000000431c      0x236 ./User/spi.o
                                        0xe75 (size before relaxing)
 .debug_str     0x0000000000004552       0x77 ./User/system_ch32v10x.o
                                        0x2c6 (size before relaxing)
 .debug_str     0x00000000000045c9      0x1cf ./User/tick.o
                                        0x97f (size before relaxing)
 .debug_str     0x0000000000004798      0x21e ./User/uart.o
                                        0x864 (size before relaxing)
 .debug_str     0x00000000000049b6      0x318 ./User/uart_com.o
                                        0xe2b (size before relaxing)
 .debug_str     0x0000000000004cce      0x1b2 ./User/usb_desc.o
 .debug_str     0x0000000000004cce       0xd6 ./User/usbd_compatibility_hid.o
                                        0x8ff (size before relaxing)
 .debug_str     0x0000000000004da4       0x46 ./Startup/startup_ch32v10x.o
 .debug_str     0x0000000000004dea      0x3ab ./Peripheral/src/ch32v10x_adc.o
                                        0x7ac (size before relaxing)
 .debug_str     0x0000000000005195       0xa7 ./Peripheral/src/ch32v10x_dma.o
                                        0x3af (size before relaxing)
 .debug_str     0x000000000000523c       0xb5 ./Peripheral/src/ch32v10x_exti.o
                                        0x348 (size before relaxing)
 .debug_str     0x00000000000052f1      0x421 ./Peripheral/src/ch32v10x_flash.o
                                        0x712 (size before relaxing)
 .debug_str     0x0000000000005712      0x179 ./Peripheral/src/ch32v10x_gpio.o
                                        0x535 (size before relaxing)
 .debug_str     0x000000000000588b      0x23b ./Peripheral/src/ch32v10x_i2c.o
                                        0x69c (size before relaxing)
 .debug_str     0x0000000000005ac6       0x61 ./Peripheral/src/ch32v10x_misc.o
                                        0x5a4 (size before relaxing)
 .debug_str     0x0000000000005b27       0xd9 ./Peripheral/src/ch32v10x_pwr.o
                                        0x3dc (size before relaxing)
 .debug_str     0x0000000000005c00      0x25c ./Peripheral/src/ch32v10x_rcc.o
                                        0x639 (size before relaxing)
 .debug_str     0x0000000000005e5c      0x257 ./Peripheral/src/ch32v10x_spi.o
                                        0x63c (size before relaxing)
 .debug_str     0x00000000000060b3      0x8ae ./Peripheral/src/ch32v10x_tim.o
                                        0xe37 (size before relaxing)
 .debug_str     0x0000000000006961      0x2ec ./Peripheral/src/ch32v10x_usart.o
                                        0x6a4 (size before relaxing)
 .debug_str     0x0000000000006c4d       0xda ./Peripheral/src/ch32v10x_usb.o
                                        0x259 (size before relaxing)
 .debug_str     0x0000000000006d27       0x38 ./Debug/debug.o
                                        0x380 (size before relaxing)

.debug_line_str
                0x0000000000000000      0x800
 .debug_line_str
                0x0000000000000000      0x177 ./User/ch32v10x_it.o
                                        0x1ba (size before relaxing)
 .debug_line_str
                0x0000000000000177      0x159 ./User/ch32v10x_usbfs_device.o
                                        0x311 (size before relaxing)
 .debug_line_str
                0x00000000000002d0       0x5d ./User/conf.o
                                        0x26d (size before relaxing)
 .debug_line_str
                0x000000000000032d       0x21 ./User/flash.o
                                        0x18a (size before relaxing)
 .debug_line_str
                0x000000000000034e       0x15 ./User/global_api.o
                                        0x137 (size before relaxing)
 .debug_line_str
                0x0000000000000363       0x4c ./User/gpio_adc.o
                                        0x1d5 (size before relaxing)
 .debug_line_str
                0x00000000000003af       0x1c ./User/gpio_digit.o
                                        0x189 (size before relaxing)
 .debug_line_str
                0x00000000000003cb       0x3f ./User/hd_rumble.o
                                        0x1f7 (size before relaxing)
 .debug_line_str
                0x000000000000040a       0x15 ./User/hd_rumble2.o
                                        0x18f (size before relaxing)
 .debug_line_str
                0x000000000000041f       0x2f ./User/hd_rumble_high_accuracy.o
                                        0x205 (size before relaxing)
 .debug_line_str
                0x000000000000044e       0x1d ./User/i2c.o
                                        0x1be (size before relaxing)
 .debug_line_str
                0x000000000000046b       0x28 ./User/imu.o
                                        0x237 (size before relaxing)
 .debug_line_str
                0x0000000000000493       0x19 ./User/imu_quaternion.o
                                        0x159 (size before relaxing)
 .debug_line_str
                0x00000000000004ac       0x60 ./User/main.o
                                        0x3bc (size before relaxing)
 .debug_line_str
                0x000000000000050c       0x11 ./User/ns_com.o
                                        0x24e (size before relaxing)
 .debug_line_str
                0x000000000000051d       0x15 ./User/ns_com_mux.o
                                        0x281 (size before relaxing)
 .debug_line_str
                0x0000000000000532       0x1e ./User/pwr.o
                                        0x1c3 (size before relaxing)
 .debug_line_str
                0x0000000000000550       0x16 ./User/ring_buffer.o
                                        0x229 (size before relaxing)
 .debug_line_str
                0x0000000000000566       0x1d ./User/spi.o
                                        0x2cf (size before relaxing)
 .debug_line_str
                0x0000000000000583       0x1a ./User/system_ch32v10x.o
                                        0x1c6 (size before relaxing)
 .debug_line_str
                0x000000000000059d        0xf ./User/tick.o
                                        0x1c4 (size before relaxing)
 .debug_line_str
                0x00000000000005ac        0xf ./User/uart.o
                                        0x28c (size before relaxing)
 .debug_line_str
                0x00000000000005bb       0x13 ./User/uart_com.o
                                        0x2cb (size before relaxing)
 .debug_line_str
                0x00000000000005ce       0x13 ./User/usb_desc.o
                                        0x131 (size before relaxing)
 .debug_line_str
                0x00000000000005e1       0x21 ./User/usbd_compatibility_hid.o
                                        0x2ec (size before relaxing)
 .debug_line_str
                0x0000000000000602       0x1e ./Startup/startup_ch32v10x.o
                                         0x4d (size before relaxing)
 .debug_line_str
                0x0000000000000620       0x33 ./Peripheral/src/ch32v10x_adc.o
                                        0x1c0 (size before relaxing)
 .debug_line_str
                0x0000000000000653       0x21 ./Peripheral/src/ch32v10x_dma.o
                                        0x1b1 (size before relaxing)
 .debug_line_str
                0x0000000000000674       0x22 ./Peripheral/src/ch32v10x_exti.o
                                        0x1b5 (size before relaxing)
 .debug_line_str
                0x0000000000000696       0x23 ./Peripheral/src/ch32v10x_flash.o
                                        0x1b9 (size before relaxing)
 .debug_line_str
                0x00000000000006b9       0x22 ./Peripheral/src/ch32v10x_gpio.o
                                        0x1c4 (size before relaxing)
 .debug_line_str
                0x00000000000006db       0x21 ./Peripheral/src/ch32v10x_i2c.o
                                        0x1c0 (size before relaxing)
 .debug_line_str
                0x00000000000006fc       0x22 ./Peripheral/src/ch32v10x_misc.o
                                        0x1b5 (size before relaxing)
 .debug_line_str
                0x000000000000071e       0x21 ./Peripheral/src/ch32v10x_pwr.o
                                        0x1c0 (size before relaxing)
 .debug_line_str
                0x000000000000073f       0x21 ./Peripheral/src/ch32v10x_rcc.o
                                        0x1b1 (size before relaxing)
 .debug_line_str
                0x0000000000000760       0x21 ./Peripheral/src/ch32v10x_spi.o
                                        0x1c0 (size before relaxing)
 .debug_line_str
                0x0000000000000781       0x21 ./Peripheral/src/ch32v10x_tim.o
                                        0x1c0 (size before relaxing)
 .debug_line_str
                0x00000000000007a2       0x23 ./Peripheral/src/ch32v10x_usart.o
                                        0x1c8 (size before relaxing)
 .debug_line_str
                0x00000000000007c5       0x21 ./Peripheral/src/ch32v10x_usb.o
                                         0xbf (size before relaxing)
 .debug_line_str
                0x00000000000007e6       0x1a ./Debug/debug.o
                                        0x1ee (size before relaxing)

.comment        0x0000000000000000       0x31
 .comment       0x0000000000000000       0x31 ./User/ch32v10x_it.o
                                         0x32 (size before relaxing)
 .comment       0x0000000000000031       0x32 ./User/ch32v10x_usbfs_device.o
 .comment       0x0000000000000031       0x32 ./User/conf.o
 .comment       0x0000000000000031       0x32 ./User/flash.o
 .comment       0x0000000000000031       0x32 ./User/global_api.o
 .comment       0x0000000000000031       0x32 ./User/gpio_adc.o
 .comment       0x0000000000000031       0x32 ./User/gpio_digit.o
 .comment       0x0000000000000031       0x32 ./User/hd_rumble.o
 .comment       0x0000000000000031       0x32 ./User/hd_rumble2.o
 .comment       0x0000000000000031       0x32 ./User/hd_rumble_high_accuracy.o
 .comment       0x0000000000000031       0x32 ./User/i2c.o
 .comment       0x0000000000000031       0x32 ./User/imu.o
 .comment       0x0000000000000031       0x32 ./User/imu_quaternion.o
 .comment       0x0000000000000031       0x32 ./User/main.o
 .comment       0x0000000000000031       0x32 ./User/ns_com.o
 .comment       0x0000000000000031       0x32 ./User/ns_com_mux.o
 .comment       0x0000000000000031       0x32 ./User/pwr.o
 .comment       0x0000000000000031       0x32 ./User/ring_buffer.o
 .comment       0x0000000000000031       0x32 ./User/spi.o
 .comment       0x0000000000000031       0x32 ./User/system_ch32v10x.o
 .comment       0x0000000000000031       0x32 ./User/tick.o
 .comment       0x0000000000000031       0x32 ./User/uart.o
 .comment       0x0000000000000031       0x32 ./User/uart_com.o
 .comment       0x0000000000000031       0x32 ./User/usb_desc.o
 .comment       0x0000000000000031       0x32 ./User/usbd_compatibility_hid.o
 .comment       0x0000000000000031       0x32 ./Peripheral/src/ch32v10x_adc.o
 .comment       0x0000000000000031       0x32 ./Peripheral/src/ch32v10x_dma.o
 .comment       0x0000000000000031       0x32 ./Peripheral/src/ch32v10x_exti.o
 .comment       0x0000000000000031       0x32 ./Peripheral/src/ch32v10x_flash.o
 .comment       0x0000000000000031       0x32 ./Peripheral/src/ch32v10x_gpio.o
 .comment       0x0000000000000031       0x32 ./Peripheral/src/ch32v10x_i2c.o
 .comment       0x0000000000000031       0x32 ./Peripheral/src/ch32v10x_misc.o
 .comment       0x0000000000000031       0x32 ./Peripheral/src/ch32v10x_pwr.o
 .comment       0x0000000000000031       0x32 ./Peripheral/src/ch32v10x_rcc.o
 .comment       0x0000000000000031       0x32 ./Peripheral/src/ch32v10x_spi.o
 .comment       0x0000000000000031       0x32 ./Peripheral/src/ch32v10x_tim.o
 .comment       0x0000000000000031       0x32 ./Peripheral/src/ch32v10x_usart.o
 .comment       0x0000000000000031       0x32 ./Peripheral/src/ch32v10x_usb.o
 .comment       0x0000000000000031       0x32 ./Debug/debug.o
 .comment       0x0000000000000031       0x32 d:/mounriver_studio/toolchain/risc-v embedded gcc12/bin/../lib/gcc/riscv-none-elf/12.2.0/../../../../riscv-none-elf/lib\libm_nano.a(lib_a-wf_sqrt.o)
 .comment       0x0000000000000031       0x32 d:/mounriver_studio/toolchain/risc-v embedded gcc12/bin/../lib/gcc/riscv-none-elf/12.2.0/../../../../riscv-none-elf/lib\libm_nano.a(lib_a-ef_sqrt.o)
 .comment       0x0000000000000031       0x32 d:/mounriver_studio/toolchain/risc-v embedded gcc12/bin/../lib/gcc/riscv-none-elf/12.2.0\libgcc.a(_udivdi3.o)
 .comment       0x0000000000000031       0x32 d:/mounriver_studio/toolchain/risc-v embedded gcc12/bin/../lib/gcc/riscv-none-elf/12.2.0\libgcc.a(adddf3.o)
 .comment       0x0000000000000031       0x32 d:/mounriver_studio/toolchain/risc-v embedded gcc12/bin/../lib/gcc/riscv-none-elf/12.2.0\libgcc.a(divdf3.o)
 .comment       0x0000000000000031       0x32 d:/mounriver_studio/toolchain/risc-v embedded gcc12/bin/../lib/gcc/riscv-none-elf/12.2.0\libgcc.a(muldf3.o)
 .comment       0x0000000000000031       0x32 d:/mounriver_studio/toolchain/risc-v embedded gcc12/bin/../lib/gcc/riscv-none-elf/12.2.0\libgcc.a(subdf3.o)
 .comment       0x0000000000000031       0x32 d:/mounriver_studio/toolchain/risc-v embedded gcc12/bin/../lib/gcc/riscv-none-elf/12.2.0\libgcc.a(floatsidf.o)
 .comment       0x0000000000000031       0x32 d:/mounriver_studio/toolchain/risc-v embedded gcc12/bin/../lib/gcc/riscv-none-elf/12.2.0\libgcc.a(floatunsidf.o)
 .comment       0x0000000000000031       0x32 d:/mounriver_studio/toolchain/risc-v embedded gcc12/bin/../lib/gcc/riscv-none-elf/12.2.0\libgcc.a(addsf3.o)
 .comment       0x0000000000000031       0x32 d:/mounriver_studio/toolchain/risc-v embedded gcc12/bin/../lib/gcc/riscv-none-elf/12.2.0\libgcc.a(divsf3.o)
 .comment       0x0000000000000031       0x32 d:/mounriver_studio/toolchain/risc-v embedded gcc12/bin/../lib/gcc/riscv-none-elf/12.2.0\libgcc.a(gesf2.o)
 .comment       0x0000000000000031       0x32 d:/mounriver_studio/toolchain/risc-v embedded gcc12/bin/../lib/gcc/riscv-none-elf/12.2.0\libgcc.a(lesf2.o)
 .comment       0x0000000000000031       0x32 d:/mounriver_studio/toolchain/risc-v embedded gcc12/bin/../lib/gcc/riscv-none-elf/12.2.0\libgcc.a(mulsf3.o)
 .comment       0x0000000000000031       0x32 d:/mounriver_studio/toolchain/risc-v embedded gcc12/bin/../lib/gcc/riscv-none-elf/12.2.0\libgcc.a(subsf3.o)
 .comment       0x0000000000000031       0x32 d:/mounriver_studio/toolchain/risc-v embedded gcc12/bin/../lib/gcc/riscv-none-elf/12.2.0\libgcc.a(unordsf2.o)
 .comment       0x0000000000000031       0x32 d:/mounriver_studio/toolchain/risc-v embedded gcc12/bin/../lib/gcc/riscv-none-elf/12.2.0\libgcc.a(fixsfsi.o)
 .comment       0x0000000000000031       0x32 d:/mounriver_studio/toolchain/risc-v embedded gcc12/bin/../lib/gcc/riscv-none-elf/12.2.0\libgcc.a(floatsisf.o)
 .comment       0x0000000000000031       0x32 d:/mounriver_studio/toolchain/risc-v embedded gcc12/bin/../lib/gcc/riscv-none-elf/12.2.0\libgcc.a(fixsfdi.o)
 .comment       0x0000000000000031       0x32 d:/mounriver_studio/toolchain/risc-v embedded gcc12/bin/../lib/gcc/riscv-none-elf/12.2.0\libgcc.a(floatdisf.o)
 .comment       0x0000000000000031       0x32 d:/mounriver_studio/toolchain/risc-v embedded gcc12/bin/../lib/gcc/riscv-none-elf/12.2.0\libgcc.a(truncdfsf2.o)
 .comment       0x0000000000000031       0x32 d:/mounriver_studio/toolchain/risc-v embedded gcc12/bin/../lib/gcc/riscv-none-elf/12.2.0\libgcc.a(_clz.o)
 .comment       0x0000000000000031       0x32 d:/mounriver_studio/toolchain/risc-v embedded gcc12/bin/../lib/gcc/riscv-none-elf/12.2.0\libgcc.a(_clzsi2.o)
 .comment       0x0000000000000031       0x32 d:/mounriver_studio/toolchain/risc-v embedded gcc12/bin/../lib/gcc/riscv-none-elf/12.2.0/../../../../riscv-none-elf/lib\libg_nano.a(lib_a-errno.o)
 .comment       0x0000000000000031       0x32 d:/mounriver_studio/toolchain/risc-v embedded gcc12/bin/../lib/gcc/riscv-none-elf/12.2.0/../../../../riscv-none-elf/lib\libg_nano.a(lib_a-impure.o)
 .comment       0x0000000000000031       0x32 d:/mounriver_studio/toolchain/risc-v embedded gcc12/bin/../lib/gcc/riscv-none-elf/12.2.0/../../../../riscv-none-elf/lib\libg_nano.a(lib_a-printf.o)
 .comment       0x0000000000000031       0x32 d:/mounriver_studio/toolchain/risc-v embedded gcc12/bin/../lib/gcc/riscv-none-elf/12.2.0/../../../../riscv-none-elf/lib\libg_nano.a(lib_a-puts.o)
 .comment       0x0000000000000031       0x32 d:/mounriver_studio/toolchain/risc-v embedded gcc12/bin/../lib/gcc/riscv-none-elf/12.2.0/../../../../riscv-none-elf/lib\libg_nano.a(lib_a-wbuf.o)
 .comment       0x0000000000000031       0x32 d:/mounriver_studio/toolchain/risc-v embedded gcc12/bin/../lib/gcc/riscv-none-elf/12.2.0/../../../../riscv-none-elf/lib\libg_nano.a(lib_a-wsetup.o)
 .comment       0x0000000000000031       0x32 d:/mounriver_studio/toolchain/risc-v embedded gcc12/bin/../lib/gcc/riscv-none-elf/12.2.0/../../../../riscv-none-elf/lib\libg_nano.a(lib_a-fflush.o)
 .comment       0x0000000000000031       0x32 d:/mounriver_studio/toolchain/risc-v embedded gcc12/bin/../lib/gcc/riscv-none-elf/12.2.0/../../../../riscv-none-elf/lib\libg_nano.a(lib_a-findfp.o)
 .comment       0x0000000000000031       0x32 d:/mounriver_studio/toolchain/risc-v embedded gcc12/bin/../lib/gcc/riscv-none-elf/12.2.0/../../../../riscv-none-elf/lib\libg_nano.a(lib_a-fwalk.o)
 .comment       0x0000000000000031       0x32 d:/mounriver_studio/toolchain/risc-v embedded gcc12/bin/../lib/gcc/riscv-none-elf/12.2.0/../../../../riscv-none-elf/lib\libg_nano.a(lib_a-lock.o)
 .comment       0x0000000000000031       0x32 d:/mounriver_studio/toolchain/risc-v embedded gcc12/bin/../lib/gcc/riscv-none-elf/12.2.0/../../../../riscv-none-elf/lib\libg_nano.a(lib_a-makebuf.o)
 .comment       0x0000000000000031       0x32 d:/mounriver_studio/toolchain/risc-v embedded gcc12/bin/../lib/gcc/riscv-none-elf/12.2.0/../../../../riscv-none-elf/lib\libg_nano.a(lib_a-nano-freer.o)
 .comment       0x0000000000000031       0x32 d:/mounriver_studio/toolchain/risc-v embedded gcc12/bin/../lib/gcc/riscv-none-elf/12.2.0/../../../../riscv-none-elf/lib\libg_nano.a(lib_a-nano-mallocr.o)
 .comment       0x0000000000000031       0x32 d:/mounriver_studio/toolchain/risc-v embedded gcc12/bin/../lib/gcc/riscv-none-elf/12.2.0/../../../../riscv-none-elf/lib\libg_nano.a(lib_a-nano-vfprintf.o)
 .comment       0x0000000000000031       0x32 d:/mounriver_studio/toolchain/risc-v embedded gcc12/bin/../lib/gcc/riscv-none-elf/12.2.0/../../../../riscv-none-elf/lib\libg_nano.a(lib_a-sbrkr.o)
 .comment       0x0000000000000031       0x32 d:/mounriver_studio/toolchain/risc-v embedded gcc12/bin/../lib/gcc/riscv-none-elf/12.2.0/../../../../riscv-none-elf/lib\libg_nano.a(lib_a-stdio.o)
 .comment       0x0000000000000031       0x32 d:/mounriver_studio/toolchain/risc-v embedded gcc12/bin/../lib/gcc/riscv-none-elf/12.2.0/../../../../riscv-none-elf/lib\libg_nano.a(lib_a-writer.o)
 .comment       0x0000000000000031       0x32 d:/mounriver_studio/toolchain/risc-v embedded gcc12/bin/../lib/gcc/riscv-none-elf/12.2.0/../../../../riscv-none-elf/lib\libg_nano.a(lib_a-closer.o)
 .comment       0x0000000000000031       0x32 d:/mounriver_studio/toolchain/risc-v embedded gcc12/bin/../lib/gcc/riscv-none-elf/12.2.0/../../../../riscv-none-elf/lib\libg_nano.a(lib_a-fstatr.o)
 .comment       0x0000000000000031       0x32 d:/mounriver_studio/toolchain/risc-v embedded gcc12/bin/../lib/gcc/riscv-none-elf/12.2.0/../../../../riscv-none-elf/lib\libg_nano.a(lib_a-isattyr.o)
 .comment       0x0000000000000031       0x32 d:/mounriver_studio/toolchain/risc-v embedded gcc12/bin/../lib/gcc/riscv-none-elf/12.2.0/../../../../riscv-none-elf/lib\libg_nano.a(lib_a-lseekr.o)
 .comment       0x0000000000000031       0x32 d:/mounriver_studio/toolchain/risc-v embedded gcc12/bin/../lib/gcc/riscv-none-elf/12.2.0/../../../../riscv-none-elf/lib\libg_nano.a(lib_a-memchr.o)
 .comment       0x0000000000000031       0x32 d:/mounriver_studio/toolchain/risc-v embedded gcc12/bin/../lib/gcc/riscv-none-elf/12.2.0/../../../../riscv-none-elf/lib\libg_nano.a(lib_a-mlock.o)
 .comment       0x0000000000000031       0x32 d:/mounriver_studio/toolchain/risc-v embedded gcc12/bin/../lib/gcc/riscv-none-elf/12.2.0/../../../../riscv-none-elf/lib\libg_nano.a(lib_a-nano-vfprintf_i.o)
 .comment       0x0000000000000031       0x32 d:/mounriver_studio/toolchain/risc-v embedded gcc12/bin/../lib/gcc/riscv-none-elf/12.2.0/../../../../riscv-none-elf/lib\libg_nano.a(lib_a-readr.o)
 .comment       0x0000000000000031       0x32 d:/mounriver_studio/toolchain/risc-v embedded gcc12/bin/../lib/gcc/riscv-none-elf/12.2.0/../../../../riscv-none-elf/lib\libg_nano.a(lib_a-reent.o)
 .comment       0x0000000000000031       0x32 d:/mounriver_studio/toolchain/risc-v embedded gcc12/bin/../lib/gcc/riscv-none-elf/12.2.0/../../../../riscv-none-elf/lib\libnosys.a(close.o)
 .comment       0x0000000000000031       0x32 d:/mounriver_studio/toolchain/risc-v embedded gcc12/bin/../lib/gcc/riscv-none-elf/12.2.0/../../../../riscv-none-elf/lib\libnosys.a(fstat.o)
 .comment       0x0000000000000031       0x32 d:/mounriver_studio/toolchain/risc-v embedded gcc12/bin/../lib/gcc/riscv-none-elf/12.2.0/../../../../riscv-none-elf/lib\libnosys.a(isatty.o)
 .comment       0x0000000000000031       0x32 d:/mounriver_studio/toolchain/risc-v embedded gcc12/bin/../lib/gcc/riscv-none-elf/12.2.0/../../../../riscv-none-elf/lib\libnosys.a(lseek.o)
 .comment       0x0000000000000031       0x32 d:/mounriver_studio/toolchain/risc-v embedded gcc12/bin/../lib/gcc/riscv-none-elf/12.2.0/../../../../riscv-none-elf/lib\libnosys.a(read.o)

.riscv.attributes
                0x0000000000000000       0x34
 .riscv.attributes
                0x0000000000000000       0x34 ./User/ch32v10x_it.o
 .riscv.attributes
                0x0000000000000034       0x34 ./User/ch32v10x_usbfs_device.o
 .riscv.attributes
                0x0000000000000068       0x34 ./User/conf.o
 .riscv.attributes
                0x000000000000009c       0x34 ./User/flash.o
 .riscv.attributes
                0x00000000000000d0       0x34 ./User/global_api.o
 .riscv.attributes
                0x0000000000000104       0x34 ./User/gpio_adc.o
 .riscv.attributes
                0x0000000000000138       0x34 ./User/gpio_digit.o
 .riscv.attributes
                0x000000000000016c       0x34 ./User/hd_rumble.o
 .riscv.attributes
                0x00000000000001a0       0x34 ./User/hd_rumble2.o
 .riscv.attributes
                0x00000000000001d4       0x34 ./User/hd_rumble_high_accuracy.o
 .riscv.attributes
                0x0000000000000208       0x34 ./User/i2c.o
 .riscv.attributes
                0x000000000000023c       0x34 ./User/imu.o
 .riscv.attributes
                0x0000000000000270       0x34 ./User/imu_quaternion.o
 .riscv.attributes
                0x00000000000002a4       0x34 ./User/main.o
 .riscv.attributes
                0x00000000000002d8       0x34 ./User/ns_com.o
 .riscv.attributes
                0x000000000000030c       0x34 ./User/ns_com_mux.o
 .riscv.attributes
                0x0000000000000340       0x34 ./User/pwr.o
 .riscv.attributes
                0x0000000000000374       0x34 ./User/ring_buffer.o
 .riscv.attributes
                0x00000000000003a8       0x34 ./User/spi.o
 .riscv.attributes
                0x00000000000003dc       0x34 ./User/system_ch32v10x.o
 .riscv.attributes
                0x0000000000000410       0x34 ./User/tick.o
 .riscv.attributes
                0x0000000000000444       0x34 ./User/uart.o
 .riscv.attributes
                0x0000000000000478       0x34 ./User/uart_com.o
 .riscv.attributes
                0x00000000000004ac       0x34 ./User/usb_desc.o
 .riscv.attributes
                0x00000000000004e0       0x34 ./User/usbd_compatibility_hid.o
 .riscv.attributes
                0x0000000000000514       0x32 ./Startup/startup_ch32v10x.o
 .riscv.attributes
                0x0000000000000546       0x34 ./Peripheral/src/ch32v10x_adc.o
 .riscv.attributes
                0x000000000000057a       0x34 ./Peripheral/src/ch32v10x_dma.o
 .riscv.attributes
                0x00000000000005ae       0x34 ./Peripheral/src/ch32v10x_exti.o
 .riscv.attributes
                0x00000000000005e2       0x34 ./Peripheral/src/ch32v10x_flash.o
 .riscv.attributes
                0x0000000000000616       0x34 ./Peripheral/src/ch32v10x_gpio.o
 .riscv.attributes
                0x000000000000064a       0x34 ./Peripheral/src/ch32v10x_i2c.o
 .riscv.attributes
                0x000000000000067e       0x34 ./Peripheral/src/ch32v10x_misc.o
 .riscv.attributes
                0x00000000000006b2       0x34 ./Peripheral/src/ch32v10x_pwr.o
 .riscv.attributes
                0x00000000000006e6       0x34 ./Peripheral/src/ch32v10x_rcc.o
 .riscv.attributes
                0x000000000000071a       0x34 ./Peripheral/src/ch32v10x_spi.o
 .riscv.attributes
                0x000000000000074e       0x34 ./Peripheral/src/ch32v10x_tim.o
 .riscv.attributes
                0x0000000000000782       0x34 ./Peripheral/src/ch32v10x_usart.o
 .riscv.attributes
                0x00000000000007b6       0x34 ./Peripheral/src/ch32v10x_usb.o
 .riscv.attributes
                0x00000000000007ea       0x34 ./Debug/debug.o
 .riscv.attributes
                0x000000000000081e       0x34 d:/mounriver_studio/toolchain/risc-v embedded gcc12/bin/../lib/gcc/riscv-none-elf/12.2.0/../../../../riscv-none-elf/lib\libm_nano.a(lib_a-wf_sqrt.o)
 .riscv.attributes
                0x0000000000000852       0x34 d:/mounriver_studio/toolchain/risc-v embedded gcc12/bin/../lib/gcc/riscv-none-elf/12.2.0/../../../../riscv-none-elf/lib\libm_nano.a(lib_a-ef_sqrt.o)
 .riscv.attributes
                0x0000000000000886       0x34 d:/mounriver_studio/toolchain/risc-v embedded gcc12/bin/../lib/gcc/riscv-none-elf/12.2.0\libgcc.a(_udivdi3.o)
 .riscv.attributes
                0x00000000000008ba       0x34 d:/mounriver_studio/toolchain/risc-v embedded gcc12/bin/../lib/gcc/riscv-none-elf/12.2.0\libgcc.a(adddf3.o)
 .riscv.attributes
                0x00000000000008ee       0x34 d:/mounriver_studio/toolchain/risc-v embedded gcc12/bin/../lib/gcc/riscv-none-elf/12.2.0\libgcc.a(divdf3.o)
 .riscv.attributes
                0x0000000000000922       0x34 d:/mounriver_studio/toolchain/risc-v embedded gcc12/bin/../lib/gcc/riscv-none-elf/12.2.0\libgcc.a(muldf3.o)
 .riscv.attributes
                0x0000000000000956       0x34 d:/mounriver_studio/toolchain/risc-v embedded gcc12/bin/../lib/gcc/riscv-none-elf/12.2.0\libgcc.a(subdf3.o)
 .riscv.attributes
                0x000000000000098a       0x34 d:/mounriver_studio/toolchain/risc-v embedded gcc12/bin/../lib/gcc/riscv-none-elf/12.2.0\libgcc.a(floatsidf.o)
 .riscv.attributes
                0x00000000000009be       0x34 d:/mounriver_studio/toolchain/risc-v embedded gcc12/bin/../lib/gcc/riscv-none-elf/12.2.0\libgcc.a(floatunsidf.o)
 .riscv.attributes
                0x00000000000009f2       0x34 d:/mounriver_studio/toolchain/risc-v embedded gcc12/bin/../lib/gcc/riscv-none-elf/12.2.0\libgcc.a(addsf3.o)
 .riscv.attributes
                0x0000000000000a26       0x34 d:/mounriver_studio/toolchain/risc-v embedded gcc12/bin/../lib/gcc/riscv-none-elf/12.2.0\libgcc.a(divsf3.o)
 .riscv.attributes
                0x0000000000000a5a       0x34 d:/mounriver_studio/toolchain/risc-v embedded gcc12/bin/../lib/gcc/riscv-none-elf/12.2.0\libgcc.a(gesf2.o)
 .riscv.attributes
                0x0000000000000a8e       0x34 d:/mounriver_studio/toolchain/risc-v embedded gcc12/bin/../lib/gcc/riscv-none-elf/12.2.0\libgcc.a(lesf2.o)
 .riscv.attributes
                0x0000000000000ac2       0x34 d:/mounriver_studio/toolchain/risc-v embedded gcc12/bin/../lib/gcc/riscv-none-elf/12.2.0\libgcc.a(mulsf3.o)
 .riscv.attributes
                0x0000000000000af6       0x34 d:/mounriver_studio/toolchain/risc-v embedded gcc12/bin/../lib/gcc/riscv-none-elf/12.2.0\libgcc.a(subsf3.o)
 .riscv.attributes
                0x0000000000000b2a       0x34 d:/mounriver_studio/toolchain/risc-v embedded gcc12/bin/../lib/gcc/riscv-none-elf/12.2.0\libgcc.a(unordsf2.o)
 .riscv.attributes
                0x0000000000000b5e       0x34 d:/mounriver_studio/toolchain/risc-v embedded gcc12/bin/../lib/gcc/riscv-none-elf/12.2.0\libgcc.a(fixsfsi.o)
 .riscv.attributes
                0x0000000000000b92       0x34 d:/mounriver_studio/toolchain/risc-v embedded gcc12/bin/../lib/gcc/riscv-none-elf/12.2.0\libgcc.a(floatsisf.o)
 .riscv.attributes
                0x0000000000000bc6       0x34 d:/mounriver_studio/toolchain/risc-v embedded gcc12/bin/../lib/gcc/riscv-none-elf/12.2.0\libgcc.a(fixsfdi.o)
 .riscv.attributes
                0x0000000000000bfa       0x34 d:/mounriver_studio/toolchain/risc-v embedded gcc12/bin/../lib/gcc/riscv-none-elf/12.2.0\libgcc.a(floatdisf.o)
 .riscv.attributes
                0x0000000000000c2e       0x34 d:/mounriver_studio/toolchain/risc-v embedded gcc12/bin/../lib/gcc/riscv-none-elf/12.2.0\libgcc.a(truncdfsf2.o)
 .riscv.attributes
                0x0000000000000c62       0x32 d:/mounriver_studio/toolchain/risc-v embedded gcc12/bin/../lib/gcc/riscv-none-elf/12.2.0\libgcc.a(save-restore.o)
 .riscv.attributes
                0x0000000000000c94       0x34 d:/mounriver_studio/toolchain/risc-v embedded gcc12/bin/../lib/gcc/riscv-none-elf/12.2.0\libgcc.a(_clz.o)
 .riscv.attributes
                0x0000000000000cc8       0x34 d:/mounriver_studio/toolchain/risc-v embedded gcc12/bin/../lib/gcc/riscv-none-elf/12.2.0\libgcc.a(_clzsi2.o)
 .riscv.attributes
                0x0000000000000cfc       0x34 d:/mounriver_studio/toolchain/risc-v embedded gcc12/bin/../lib/gcc/riscv-none-elf/12.2.0/../../../../riscv-none-elf/lib\libg_nano.a(lib_a-errno.o)
 .riscv.attributes
                0x0000000000000d30       0x34 d:/mounriver_studio/toolchain/risc-v embedded gcc12/bin/../lib/gcc/riscv-none-elf/12.2.0/../../../../riscv-none-elf/lib\libg_nano.a(lib_a-impure.o)
 .riscv.attributes
                0x0000000000000d64       0x32 d:/mounriver_studio/toolchain/risc-v embedded gcc12/bin/../lib/gcc/riscv-none-elf/12.2.0/../../../../riscv-none-elf/lib\libg_nano.a(lib_a-memcpy-asm.o)
 .riscv.attributes
                0x0000000000000d96       0x32 d:/mounriver_studio/toolchain/risc-v embedded gcc12/bin/../lib/gcc/riscv-none-elf/12.2.0/../../../../riscv-none-elf/lib\libg_nano.a(lib_a-memset.o)
 .riscv.attributes
                0x0000000000000dc8       0x34 d:/mounriver_studio/toolchain/risc-v embedded gcc12/bin/../lib/gcc/riscv-none-elf/12.2.0/../../../../riscv-none-elf/lib\libg_nano.a(lib_a-printf.o)
 .riscv.attributes
                0x0000000000000dfc       0x34 d:/mounriver_studio/toolchain/risc-v embedded gcc12/bin/../lib/gcc/riscv-none-elf/12.2.0/../../../../riscv-none-elf/lib\libg_nano.a(lib_a-puts.o)
 .riscv.attributes
                0x0000000000000e30       0x34 d:/mounriver_studio/toolchain/risc-v embedded gcc12/bin/../lib/gcc/riscv-none-elf/12.2.0/../../../../riscv-none-elf/lib\libg_nano.a(lib_a-wbuf.o)
 .riscv.attributes
                0x0000000000000e64       0x34 d:/mounriver_studio/toolchain/risc-v embedded gcc12/bin/../lib/gcc/riscv-none-elf/12.2.0/../../../../riscv-none-elf/lib\libg_nano.a(lib_a-wsetup.o)
 .riscv.attributes
                0x0000000000000e98       0x34 d:/mounriver_studio/toolchain/risc-v embedded gcc12/bin/../lib/gcc/riscv-none-elf/12.2.0/../../../../riscv-none-elf/lib\libg_nano.a(lib_a-fflush.o)
 .riscv.attributes
                0x0000000000000ecc       0x34 d:/mounriver_studio/toolchain/risc-v embedded gcc12/bin/../lib/gcc/riscv-none-elf/12.2.0/../../../../riscv-none-elf/lib\libg_nano.a(lib_a-findfp.o)
 .riscv.attributes
                0x0000000000000f00       0x34 d:/mounriver_studio/toolchain/risc-v embedded gcc12/bin/../lib/gcc/riscv-none-elf/12.2.0/../../../../riscv-none-elf/lib\libg_nano.a(lib_a-fwalk.o)
 .riscv.attributes
                0x0000000000000f34       0x34 d:/mounriver_studio/toolchain/risc-v embedded gcc12/bin/../lib/gcc/riscv-none-elf/12.2.0/../../../../riscv-none-elf/lib\libg_nano.a(lib_a-lock.o)
 .riscv.attributes
                0x0000000000000f68       0x34 d:/mounriver_studio/toolchain/risc-v embedded gcc12/bin/../lib/gcc/riscv-none-elf/12.2.0/../../../../riscv-none-elf/lib\libg_nano.a(lib_a-makebuf.o)
 .riscv.attributes
                0x0000000000000f9c       0x34 d:/mounriver_studio/toolchain/risc-v embedded gcc12/bin/../lib/gcc/riscv-none-elf/12.2.0/../../../../riscv-none-elf/lib\libg_nano.a(lib_a-nano-freer.o)
 .riscv.attributes
                0x0000000000000fd0       0x34 d:/mounriver_studio/toolchain/risc-v embedded gcc12/bin/../lib/gcc/riscv-none-elf/12.2.0/../../../../riscv-none-elf/lib\libg_nano.a(lib_a-nano-mallocr.o)
 .riscv.attributes
                0x0000000000001004       0x34 d:/mounriver_studio/toolchain/risc-v embedded gcc12/bin/../lib/gcc/riscv-none-elf/12.2.0/../../../../riscv-none-elf/lib\libg_nano.a(lib_a-nano-vfprintf.o)
 .riscv.attributes
                0x0000000000001038       0x34 d:/mounriver_studio/toolchain/risc-v embedded gcc12/bin/../lib/gcc/riscv-none-elf/12.2.0/../../../../riscv-none-elf/lib\libg_nano.a(lib_a-sbrkr.o)
 .riscv.attributes
                0x000000000000106c       0x34 d:/mounriver_studio/toolchain/risc-v embedded gcc12/bin/../lib/gcc/riscv-none-elf/12.2.0/../../../../riscv-none-elf/lib\libg_nano.a(lib_a-stdio.o)
 .riscv.attributes
                0x00000000000010a0       0x34 d:/mounriver_studio/toolchain/risc-v embedded gcc12/bin/../lib/gcc/riscv-none-elf/12.2.0/../../../../riscv-none-elf/lib\libg_nano.a(lib_a-writer.o)
 .riscv.attributes
                0x00000000000010d4       0x34 d:/mounriver_studio/toolchain/risc-v embedded gcc12/bin/../lib/gcc/riscv-none-elf/12.2.0/../../../../riscv-none-elf/lib\libg_nano.a(lib_a-closer.o)
 .riscv.attributes
                0x0000000000001108       0x34 d:/mounriver_studio/toolchain/risc-v embedded gcc12/bin/../lib/gcc/riscv-none-elf/12.2.0/../../../../riscv-none-elf/lib\libg_nano.a(lib_a-fstatr.o)
 .riscv.attributes
                0x000000000000113c       0x34 d:/mounriver_studio/toolchain/risc-v embedded gcc12/bin/../lib/gcc/riscv-none-elf/12.2.0/../../../../riscv-none-elf/lib\libg_nano.a(lib_a-isattyr.o)
 .riscv.attributes
                0x0000000000001170       0x34 d:/mounriver_studio/toolchain/risc-v embedded gcc12/bin/../lib/gcc/riscv-none-elf/12.2.0/../../../../riscv-none-elf/lib\libg_nano.a(lib_a-lseekr.o)
 .riscv.attributes
                0x00000000000011a4       0x34 d:/mounriver_studio/toolchain/risc-v embedded gcc12/bin/../lib/gcc/riscv-none-elf/12.2.0/../../../../riscv-none-elf/lib\libg_nano.a(lib_a-memchr.o)
 .riscv.attributes
                0x00000000000011d8       0x34 d:/mounriver_studio/toolchain/risc-v embedded gcc12/bin/../lib/gcc/riscv-none-elf/12.2.0/../../../../riscv-none-elf/lib\libg_nano.a(lib_a-mlock.o)
 .riscv.attributes
                0x000000000000120c       0x34 d:/mounriver_studio/toolchain/risc-v embedded gcc12/bin/../lib/gcc/riscv-none-elf/12.2.0/../../../../riscv-none-elf/lib\libg_nano.a(lib_a-nano-vfprintf_i.o)
 .riscv.attributes
                0x0000000000001240       0x34 d:/mounriver_studio/toolchain/risc-v embedded gcc12/bin/../lib/gcc/riscv-none-elf/12.2.0/../../../../riscv-none-elf/lib\libg_nano.a(lib_a-readr.o)
 .riscv.attributes
                0x0000000000001274       0x34 d:/mounriver_studio/toolchain/risc-v embedded gcc12/bin/../lib/gcc/riscv-none-elf/12.2.0/../../../../riscv-none-elf/lib\libg_nano.a(lib_a-reent.o)
 .riscv.attributes
                0x00000000000012a8       0x34 d:/mounriver_studio/toolchain/risc-v embedded gcc12/bin/../lib/gcc/riscv-none-elf/12.2.0/../../../../riscv-none-elf/lib\libnosys.a(close.o)
 .riscv.attributes
                0x00000000000012dc       0x34 d:/mounriver_studio/toolchain/risc-v embedded gcc12/bin/../lib/gcc/riscv-none-elf/12.2.0/../../../../riscv-none-elf/lib\libnosys.a(fstat.o)
 .riscv.attributes
                0x0000000000001310       0x34 d:/mounriver_studio/toolchain/risc-v embedded gcc12/bin/../lib/gcc/riscv-none-elf/12.2.0/../../../../riscv-none-elf/lib\libnosys.a(isatty.o)
 .riscv.attributes
                0x0000000000001344       0x34 d:/mounriver_studio/toolchain/risc-v embedded gcc12/bin/../lib/gcc/riscv-none-elf/12.2.0/../../../../riscv-none-elf/lib\libnosys.a(lseek.o)
 .riscv.attributes
                0x0000000000001378       0x34 d:/mounriver_studio/toolchain/risc-v embedded gcc12/bin/../lib/gcc/riscv-none-elf/12.2.0/../../../../riscv-none-elf/lib\libnosys.a(read.o)

.debug_frame    0x0000000000000000     0x3730
 .debug_frame   0x0000000000000000       0x30 ./User/ch32v10x_it.o
 .debug_frame   0x0000000000000030       0xdc ./User/ch32v10x_usbfs_device.o
 .debug_frame   0x000000000000010c      0x110 ./User/conf.o
 .debug_frame   0x000000000000021c       0x58 ./User/flash.o
 .debug_frame   0x0000000000000274       0xc8 ./User/global_api.o
 .debug_frame   0x000000000000033c       0xa4 ./User/gpio_adc.o
 .debug_frame   0x00000000000003e0      0x12c ./User/gpio_digit.o
 .debug_frame   0x000000000000050c       0x44 ./User/hd_rumble.o
 .debug_frame   0x0000000000000550      0x188 ./User/hd_rumble2.o
 .debug_frame   0x00000000000006d8       0xf4 ./User/hd_rumble_high_accuracy.o
 .debug_frame   0x00000000000007cc      0x20c ./User/i2c.o
 .debug_frame   0x00000000000009d8      0x110 ./User/imu.o
 .debug_frame   0x0000000000000ae8      0x120 ./User/imu_quaternion.o
 .debug_frame   0x0000000000000c08      0x1e4 ./User/main.o
 .debug_frame   0x0000000000000dec      0x3d0 ./User/ns_com.o
 .debug_frame   0x00000000000011bc      0x25c ./User/ns_com_mux.o
 .debug_frame   0x0000000000001418       0x94 ./User/pwr.o
 .debug_frame   0x00000000000014ac       0x98 ./User/ring_buffer.o
 .debug_frame   0x0000000000001544      0x1e8 ./User/spi.o
 .debug_frame   0x000000000000172c       0x5c ./User/system_ch32v10x.o
 .debug_frame   0x0000000000001788      0x1d8 ./User/tick.o
 .debug_frame   0x0000000000001960      0x170 ./User/uart.o
 .debug_frame   0x0000000000001ad0      0x2d4 ./User/uart_com.o
 .debug_frame   0x0000000000001da4       0xec ./User/usbd_compatibility_hid.o
 .debug_frame   0x0000000000001e90      0x2a4 ./Peripheral/src/ch32v10x_adc.o
 .debug_frame   0x0000000000002134       0xc0 ./Peripheral/src/ch32v10x_dma.o
 .debug_frame   0x00000000000021f4       0x90 ./Peripheral/src/ch32v10x_exti.o
 .debug_frame   0x0000000000002284      0x358 ./Peripheral/src/ch32v10x_flash.o
 .debug_frame   0x00000000000025dc      0x158 ./Peripheral/src/ch32v10x_gpio.o
 .debug_frame   0x0000000000002734      0x25c ./Peripheral/src/ch32v10x_i2c.o
 .debug_frame   0x0000000000002990       0x30 ./Peripheral/src/ch32v10x_misc.o
 .debug_frame   0x00000000000029c0       0xcc ./Peripheral/src/ch32v10x_pwr.o
 .debug_frame   0x0000000000002a8c      0x224 ./Peripheral/src/ch32v10x_rcc.o
 .debug_frame   0x0000000000002cb0      0x1ac ./Peripheral/src/ch32v10x_spi.o
 .debug_frame   0x0000000000002e5c      0x610 ./Peripheral/src/ch32v10x_tim.o
 .debug_frame   0x000000000000346c      0x1e4 ./Peripheral/src/ch32v10x_usart.o
 .debug_frame   0x0000000000003650       0x90 ./Peripheral/src/ch32v10x_usb.o
 .debug_frame   0x00000000000036e0       0x50 ./Debug/debug.o

.debug_loclists
                0x0000000000000000     0x8085
 .debug_loclists
                0x0000000000000000      0x3a9 ./User/ch32v10x_usbfs_device.o
 .debug_loclists
                0x00000000000003a9      0x3ed ./User/conf.o
 .debug_loclists
                0x0000000000000796      0x124 ./User/flash.o
 .debug_loclists
                0x00000000000008ba       0xf2 ./User/global_api.o
 .debug_loclists
                0x00000000000009ac       0x85 ./User/gpio_adc.o
 .debug_loclists
                0x0000000000000a31      0x27f ./User/gpio_digit.o
 .debug_loclists
                0x0000000000000cb0       0x74 ./User/hd_rumble.o
 .debug_loclists
                0x0000000000000d24      0x3b4 ./User/hd_rumble2.o
 .debug_loclists
                0x00000000000010d8      0x28e ./User/hd_rumble_high_accuracy.o
 .debug_loclists
                0x0000000000001366      0x379 ./User/i2c.o
 .debug_loclists
                0x00000000000016df      0x1e0 ./User/imu.o
 .debug_loclists
                0x00000000000018bf      0x2e5 ./User/imu_quaternion.o
 .debug_loclists
                0x0000000000001ba4      0x2de ./User/main.o
 .debug_loclists
                0x0000000000001e82      0xa5a ./User/ns_com.o
 .debug_loclists
                0x00000000000028dc      0x506 ./User/ns_com_mux.o
 .debug_loclists
                0x0000000000002de2       0x26 ./User/pwr.o
 .debug_loclists
                0x0000000000002e08      0x280 ./User/ring_buffer.o
 .debug_loclists
                0x0000000000003088      0x2a7 ./User/spi.o
 .debug_loclists
                0x000000000000332f       0xbe ./User/system_ch32v10x.o
 .debug_loclists
                0x00000000000033ed      0x1c4 ./User/tick.o
 .debug_loclists
                0x00000000000035b1      0x2db ./User/uart.o
 .debug_loclists
                0x000000000000388c      0x241 ./User/uart_com.o
 .debug_loclists
                0x0000000000003acd       0xa7 ./User/usbd_compatibility_hid.o
 .debug_loclists
                0x0000000000003b74      0x8b6 ./Peripheral/src/ch32v10x_adc.o
 .debug_loclists
                0x000000000000442a      0x141 ./Peripheral/src/ch32v10x_dma.o
 .debug_loclists
                0x000000000000456b      0x118 ./Peripheral/src/ch32v10x_exti.o
 .debug_loclists
                0x0000000000004683      0xa15 ./Peripheral/src/ch32v10x_flash.o
 .debug_loclists
                0x0000000000005098      0x5c9 ./Peripheral/src/ch32v10x_gpio.o
 .debug_loclists
                0x0000000000005661      0x653 ./Peripheral/src/ch32v10x_i2c.o
 .debug_loclists
                0x0000000000005cb4       0x57 ./Peripheral/src/ch32v10x_misc.o
 .debug_loclists
                0x0000000000005d0b       0xfb ./Peripheral/src/ch32v10x_pwr.o
 .debug_loclists
                0x0000000000005e06      0x56e ./Peripheral/src/ch32v10x_rcc.o
 .debug_loclists
                0x0000000000006374      0x4e3 ./Peripheral/src/ch32v10x_spi.o
 .debug_loclists
                0x0000000000006857     0x11cc ./Peripheral/src/ch32v10x_tim.o
 .debug_loclists
                0x0000000000007a23      0x617 ./Peripheral/src/ch32v10x_usart.o
 .debug_loclists
                0x000000000000803a       0x4b ./Debug/debug.o
