
CH32V103C8T6_USB.elf:     file format elf32-littleriscv
CH32V103C8T6_USB.elf
architecture: riscv:rv32, flags 0x00000112:
EXEC_P, HAS_SYMS, D_PAGED
start address 0x00000000

Program Header:
0x70000003 off    0x0005885a vaddr 0x00000000 paddr 0x00000000 align 2**0
         filesz 0x00000034 memsz 0x00000000 flags r--
    LOAD off    0x00001000 vaddr 0x00000000 paddr 0x00000000 align 2**12
         filesz 0x0000bbe4 memsz 0x0000bbe4 flags r-x
    LOAD off    0x0000d000 vaddr 0x20000000 paddr 0x0000bbe4 align 2**12
         filesz 0x00001930 memsz 0x000042bc flags rw-
    LOAD off    0x00000600 vaddr 0x20004600 paddr 0x20004600 align 2**12
         filesz 0x00000000 memsz 0x00000a00 flags rw-

Sections:
Idx Name          Size      VMA       LMA       File off  Algn
  0 .init         00000038  00000000  00000000  00001000  2**1
                  CONTENTS, ALLOC, LOAD, READONLY, CODE
  1 .vector       00000108  00000038  00000038  00001038  2**1
                  CONTENTS, ALLOC, LOAD, READONLY, CODE
  2 .text         0000baa4  00000140  00000140  00001140  2**2
                  CONTENTS, ALLOC, LOAD, READONLY, CODE
  3 .fini         00000000  0000bbe4  0000bbe4  0000e930  2**0
                  CONTENTS, ALLOC, LOAD, CODE
  4 .dalign       00000000  20000000  20000000  0000e930  2**0
                  CONTENTS
  5 .dlalign      00000000  0000bbe4  0000bbe4  0000e930  2**0
                  CONTENTS
  6 .data         00001930  20000000  0000bbe4  0000d000  2**3
                  CONTENTS, ALLOC, LOAD, DATA
  7 .bss          0000298c  20001930  0000d514  0000e930  2**3
                  ALLOC
  8 .stack        00000a00  20004600  20004600  0000f600  2**0
                  ALLOC
  9 .debug_info   0001e4b1  00000000  00000000  0000e930  2**0
                  CONTENTS, READONLY, DEBUGGING, OCTETS
 10 .debug_abbrev 00006efe  00000000  00000000  0002cde1  2**0
                  CONTENTS, READONLY, DEBUGGING, OCTETS
 11 .debug_aranges 000015d8  00000000  00000000  00033ce0  2**3
                  CONTENTS, READONLY, DEBUGGING, OCTETS
 12 .debug_rnglists 00001c18  00000000  00000000  000352b8  2**0
                  CONTENTS, READONLY, DEBUGGING, OCTETS
 13 .debug_line   0001aaa3  00000000  00000000  00036ed0  2**0
                  CONTENTS, READONLY, DEBUGGING, OCTETS
 14 .debug_str    00006698  00000000  00000000  00051973  2**0
                  CONTENTS, READONLY, DEBUGGING, OCTETS
 15 .debug_line_str 0000081e  00000000  00000000  0005800b  2**0
                  CONTENTS, READONLY, DEBUGGING, OCTETS
 16 .comment      00000031  00000000  00000000  00058829  2**0
                  CONTENTS, READONLY
 17 .riscv.attributes 00000034  00000000  00000000  0005885a  2**0
                  CONTENTS, READONLY
 18 .debug_frame  00003528  00000000  00000000  00058890  2**2
                  CONTENTS, READONLY, DEBUGGING, OCTETS
 19 .debug_loclists 00007b49  00000000  00000000  0005bdb8  2**0
                  CONTENTS, READONLY, DEBUGGING, OCTETS
SYMBOL TABLE:
00000000 l    d  .init	00000000 .init
00000038 l    d  .vector	00000000 .vector
00000140 l    d  .text	00000000 .text
0000bbe4 l    d  .fini	00000000 .fini
20000000 l    d  .dalign	00000000 .dalign
0000bbe4 l    d  .dlalign	00000000 .dlalign
20000000 l    d  .data	00000000 .data
20001930 l    d  .bss	00000000 .bss
20004600 l    d  .stack	00000000 .stack
00000000 l    d  .debug_info	00000000 .debug_info
00000000 l    d  .debug_abbrev	00000000 .debug_abbrev
00000000 l    d  .debug_aranges	00000000 .debug_aranges
00000000 l    d  .debug_rnglists	00000000 .debug_rnglists
00000000 l    d  .debug_line	00000000 .debug_line
00000000 l    d  .debug_str	00000000 .debug_str
00000000 l    d  .debug_line_str	00000000 .debug_line_str
00000000 l    d  .comment	00000000 .comment
00000000 l    d  .riscv.attributes	00000000 .riscv.attributes
00000000 l    d  .debug_frame	00000000 .debug_frame
00000000 l    d  .debug_loclists	00000000 .debug_loclists
00000000 l    df *ABS*	00000000 startup_ch32v10x.o
00000038 l       .vector	00000000 _vector_base
00000000 l    df *ABS*	00000000 save-restore.o
00000000 l    df *ABS*	00000000 lib_a-memcpy-asm.o
00000000 l    df *ABS*	00000000 lib_a-memset.o
00000000 l    df *ABS*	00000000 ch32v10x_it.c
00000000 l    df *ABS*	00000000 ch32v10x_usbfs_device.c
00000000 l    df *ABS*	00000000 conf.c
20001954 l     O .bss	00000004 fac
00000000 l    df *ABS*	00000000 flash.c
20002aa4 l     O .bss	00000080 flash_buf
00000000 l    df *ABS*	00000000 global_api.c
00000000 l    df *ABS*	00000000 gpio_adc.c
00000000 l    df *ABS*	00000000 gpio_digit.c
00000000 l    df *ABS*	00000000 hd_rumble.c
00000000 l    df *ABS*	00000000 hd_rumble2.c
00000000 l    df *ABS*	00000000 hd_rumble_high_accuracy.c
20001984 l     O .bss	00000004 tim3_counter
20001994 l     O .bss	00000004 left_high_tick
20001990 l     O .bss	00000004 left_low_tick
2000198c l     O .bss	00000004 right_high_tick
20001988 l     O .bss	00000004 right_low_tick
00000000 l    df *ABS*	00000000 i2c.c
200019f8 l     O .bss	00000001 res.0
00000000 l    df *ABS*	00000000 imu.c
20001a00 l     O .bss	00000001 status.2
20001a04 l     O .bss	00000004 rep
20001a0c l     O .bss	00000004 last_imu_upd
20003240 l     O .bss	00000018 imu_sum
20001a09 l     O .bss	00000001 imu_sample_cnt
200019fc l     O .bss	00000004 last_upd.0
00000000 l    df *ABS*	00000000 imu_quaternion.c
20001a2c l     O .bss	00000004 prev_timestamp.5
20003264 l     O .bss	00000012 gyo_samples.3
20001a27 l     O .bss	00000001 pos.2
20001a28 l     O .bss	00000004 timestamp.4
20003258 l     O .bss	0000000c quaternion_30bit_components.0
00000000 l    df *ABS*	00000000 main.c
20001a4c l     O .bss	00000001 top_trigger
20001a48 l     O .bss	00000004 sts_ljoy
20001a44 l     O .bss	00000004 sts_rjoy
20001a38 l     O .bss	00000001 set.12
20001a37 l     O .bss	00000001 save.8
20001a36 l     O .bss	00000001 upd.7
20001a35 l     O .bss	00000001 f1.5
20001a34 l     O .bss	00000001 f2.4
20001a33 l     O .bss	00000001 f3.3
20001a32 l     O .bss	00000001 f4.2
20003278 l     O .bss	0000000d pkt
20001a31 l     O .bss	00000001 f5.1
20001a30 l     O .bss	00000001 f6.0
20001a40 l     O .bss	00000004 top_tick
20001a3c l     O .bss	00000004 routine_tick
00000000 l    df *ABS*	00000000 ns_com.c
200032c8 l     O .bss	00000034 pkt
00000000 l    df *ABS*	00000000 ns_com_mux.c
20003754 l     O .bss	00000040 usb_handshake_buf
200036fc l     O .bss	00000018 calibrate_imu_raw_buf
20003714 l     O .bss	00000040 fw_buf_raw
20001a56 l     O .bss	00000001 fw_red_cnt
00000000 l    df *ABS*	00000000 pwr.c
00000000 l    df *ABS*	00000000 ring_buffer.c
00000000 l    df *ABS*	00000000 spi.c
20001a60 l     O .bss	00000003 p.1
00000000 l    df *ABS*	00000000 system_ch32v10x.c
00004fe0 l     F .text	00000086 SetSysClockTo72_HSI
00000000 l    df *ABS*	00000000 tick.c
20001a64 l     O .bss	00000004 inited.0
20001a68 l     O .bss	00000001 p_us
00000000 l    df *ABS*	00000000 uart.c
0000526c l     F .text	00000052 decode_uart_pkt.part.0
200038e0 l     O .bss	0000000d send_buf
00000000 l    df *ABS*	00000000 uart_com.c
20004220 l     O .bss	0000000d pkt
20001a80 l     O .bss	00000004 input_update_tick
00000000 l    df *ABS*	00000000 usbd_compatibility_hid.c
20001a9c l     O .bss	00000001 ns_hid_pkt_cnt
20001a8c l     O .bss	00000004 rep
20004230 l     O .bss	00000040 usb_rx_buf
20001a84 l     O .bss	00000008 pkt.0
00000000 l    df *ABS*	00000000 watchdog.c
00000000 l    df *ABS*	00000000 ch32v10x_adc.c
00000000 l    df *ABS*	00000000 ch32v10x_dma.c
00000000 l    df *ABS*	00000000 ch32v10x_exti.c
00000000 l    df *ABS*	00000000 ch32v10x_flash.c
00006520 l     F .text	00000080 ROM_ERASE
00000000 l    df *ABS*	00000000 ch32v10x_gpio.c
00000000 l    df *ABS*	00000000 ch32v10x_i2c.c
00000000 l    df *ABS*	00000000 ch32v10x_misc.c
00000000 l    df *ABS*	00000000 ch32v10x_pwr.c
00000000 l    df *ABS*	00000000 ch32v10x_rcc.c
20001834 l     O .data	00000010 APBAHBPrescTable
200018c0 l     O .data	00000004 ADCPrescTable
00000000 l    df *ABS*	00000000 ch32v10x_spi.c
00000000 l    df *ABS*	00000000 ch32v10x_tim.c
00000000 l    df *ABS*	00000000 ch32v10x_usart.c
00000000 l    df *ABS*	00000000 debug.c
200018c4 l     O .data	00000004 curbrk.0
00000000 l    df *ABS*	00000000 lib_a-wf_sqrt.o
00000000 l    df *ABS*	00000000 lib_a-ef_sqrt.o
200018cc l     O .data	00000004 one
200018c8 l     O .data	00000004 tiny
00000000 l    df *ABS*	00000000 _udivdi3.o
00000000 l    df *ABS*	00000000 adddf3.o
00000000 l    df *ABS*	00000000 divdf3.o
00000000 l    df *ABS*	00000000 muldf3.o
00000000 l    df *ABS*	00000000 subdf3.o
00000000 l    df *ABS*	00000000 floatsidf.o
00000000 l    df *ABS*	00000000 floatunsidf.o
00000000 l    df *ABS*	00000000 addsf3.o
00000000 l    df *ABS*	00000000 divsf3.o
00000000 l    df *ABS*	00000000 gesf2.o
00000000 l    df *ABS*	00000000 lesf2.o
00000000 l    df *ABS*	00000000 mulsf3.o
00000000 l    df *ABS*	00000000 subsf3.o
00000000 l    df *ABS*	00000000 unordsf2.o
00000000 l    df *ABS*	00000000 fixsfsi.o
00000000 l    df *ABS*	00000000 floatsisf.o
00000000 l    df *ABS*	00000000 truncdfsf2.o
00000000 l    df *ABS*	00000000 _clzsi2.o
00000000 l    df *ABS*	00000000 lib_a-errno.o
00000000 l    df *ABS*	00000000 lib_a-printf.o
00000000 l    df *ABS*	00000000 lib_a-puts.o
00000000 l    df *ABS*	00000000 lib_a-wbuf.o
00000000 l    df *ABS*	00000000 lib_a-wsetup.o
00000000 l    df *ABS*	00000000 lib_a-fflush.o
00000000 l    df *ABS*	00000000 lib_a-findfp.o
0000a82a l     F .text	0000006a std
00000000 l    df *ABS*	00000000 lib_a-fwalk.o
00000000 l    df *ABS*	00000000 lib_a-lock.o
00000000 l    df *ABS*	00000000 lib_a-makebuf.o
00000000 l    df *ABS*	00000000 lib_a-nano-freer.o
00000000 l    df *ABS*	00000000 lib_a-nano-mallocr.o
0000ac2c l     F .text	00000054 sbrk_aligned
00000000 l    df *ABS*	00000000 lib_a-nano-vfprintf.o
0000ad8c l     F .text	0000002a __sfputc_r
00000000 l    df *ABS*	00000000 lib_a-sbrkr.o
00000000 l    df *ABS*	00000000 lib_a-stdio.o
00000000 l    df *ABS*	00000000 lib_a-writer.o
00000000 l    df *ABS*	00000000 lib_a-closer.o
00000000 l    df *ABS*	00000000 lib_a-fstatr.o
00000000 l    df *ABS*	00000000 lib_a-isattyr.o
00000000 l    df *ABS*	00000000 lib_a-lseekr.o
00000000 l    df *ABS*	00000000 lib_a-memchr.o
00000000 l    df *ABS*	00000000 lib_a-mlock.o
00000000 l    df *ABS*	00000000 lib_a-nano-vfprintf_i.o
00000000 l    df *ABS*	00000000 lib_a-readr.o
00000000 l    df *ABS*	00000000 close.o
00000000 l    df *ABS*	00000000 fstat.o
00000000 l    df *ABS*	00000000 isatty.o
00000000 l    df *ABS*	00000000 lseek.o
00000000 l    df *ABS*	00000000 read.o
00000000 l    df *ABS*	00000000 usb_desc.c
00000000 l    df *ABS*	00000000 lib_a-impure.o
20001844 l     O .data	00000060 impure_data
00000000 l    df *ABS*	00000000 ch32v10x_usb.c
00005fb6  w      .text	00000000 EXTI2_IRQHandler
00001050 g     F .text	00000044 flash_write
20003d60 g     O .bss	00000340 uart_rx_rb_buf
00003e44 g     F .text	0000007a ns_subcommand_spi_read
0000b230 g     F .text	00000026 _isatty_r
0000b7c4 g     O .text	00000016 MySerNumInfo
20004270 g     O .bss	00000009 global_input_data
00004696 g     F .text	00000020 fw_snd_pkt
00003e38 g     F .text	00000004 ns_subcommand_spi_erase
2000194a g     O .bss	00000002 USBFS_SetupReqValue
0000a396 g     F .text	0000010e _puts_r
20001a78 g     O .bss	00000002 UART1_RX_CurCnt
0000b256 g     F .text	0000002a _lseek_r
00004ca4 g     F .text	00000076 SPI_FullDuplex_Init
000071c8 g     F .text	00000006 TIM_SetCompare2
00006460 g     F .text	00000014 DMA_Cmd
00003c96 g     F .text	0000009c ns_subcommand_get_device_info
200038f0 g     O .bss	0000000d rx_filter_buf
00003314 g     F .text	00000044 imu_upd2
000010ec g     F .text	00000018 fetch_uint32
00005dec g     F .text	0000010c hid_tx_service
00002752 g     F .text	000000ac i2c_read_continuous
20001934 g     O .bss	00000004 EXC_CAUSE
0000a35c g     F .text	0000003a printf
200020a8 g       .data	00000000 __global_pointer$
00000148 g     F .text	00000028 .hidden __riscv_save_8
000064b6 g     F .text	00000004 DMA_GetITStatus
00005fb6  w      .text	00000000 TIM1_CC_IRQHandler
00006a92 g     F .text	0000000a I2C_ReceiveData
200018a8 g     O .data	00000001 rumble_state
0000b17a g     F .text	00000036 __sseek
0000a8fc g     F .text	00000072 __sinit
0000a4ae g     F .text	000000c0 __swbuf_r
00003f90 g     F .text	00000030 ns_subcommand_attachment_state
000001ee g     F .text	000000a4 HardFault_Handler
00000a46 g     F .text	00000056 conf_read
00003f56 g     F .text	00000004 ns_subcommand_write_charge_setting
00003062 g     F .text	000002b2 switch_motion_pack_quat
0000a89e g     F .text	00000046 __sfmoreglue
00000dde g     F .text	0000001a fac_conf_read
0000b2a2 g     F .text	00000008 __malloc_unlock
000060c0 g     F .text	00000012 ADC_DMACmd
00005b52 g     F .text	0000004c recv_esp32_pkg
0000109e g     F .text	00000002 raw_flash_write
00000194 g     F .text	0000000c .hidden __riscv_restore_3
00009598 g     F .text	000002ea .hidden __divsf3
0000716a g     F .text	00000012 TIM_OC1PreloadConfig
200019b5 g     O .bss	00000001 right_high_buf_rdy
00005fb6  w      .text	00000000 SysTick_Handler
000060e4 g     F .text	0000000a ADC_StartCalibration
0000497c g     F .text	00000096 fw_subcommand_dispatcher
00006b44 g     F .text	0000006e NVIC_Init
00005fb6  w      .text	00000000 PVD_IRQHandler
00004678 g     F .text	00000004 ns_mux_init
0000468a g     F .text	0000000c hid_send_full64byte_report
00000df8 g     F .text	00000078 conf_flush
20001a5c g     O .bss	00000001 is_rumble_start
0000365c g     F .text	00000210 func_switch_task
000051f8 g     F .text	0000003c wait_nonblocking_us
00000180 g     F .text	00000020 .hidden __riscv_restore_10
200019d8 g     O .bss	00000008 right_low
00005f4e g     F .text	00000010 soft_watchdog_feed
000001c6 g     F .text	00000028 NMI_Handler
200037bc g     O .bss	00000123 spi_tx_buf
0000a050 g     F .text	00000060 .hidden __fixsfsi
00005fb6  w      .text	00000000 EXTI3_IRQHandler
200040a0 g     O .bss	00000180 UART1_RxBuffer
20002b24 g     O .bss	00000060 hid_num_to_gpio
20002e9c g     O .bss	00000100 left_high_rb_buf
00000148 g     F .text	00000028 .hidden __riscv_save_11
200007c0 g     O .data	00001000 ccr_lookup_tb
00003914 g     F .text	00000092 set_peripherals_state
0000a356 g     F .text	00000006 __errno
00002a74 g     F .text	00000002 imu_init
00002012 g     F .text	00000040 step_forward
0000147c g     F .text	00000054 gpio_read
00000292 g     F .text	0000004a USBFS_RCC_Init
00006c46 g     F .text	00000042 PWR_VDD_SupplyVoltage
20001a90 g     O .bss	00000004 rpt
200018b8 g     O .data	00000002 spi_rgb_trans
000040b4 g     F .text	00000072 ns_subcommand_set_imu_conf
2000196c g     O .bss	00000004 sts_button
200018b0 g     O .data	00000001 input_mode
000072e4 g     F .text	0000000c USART_GetFlagStatus
0000b208 g     F .text	00000028 _fstat_r
00002328 g     F .text	0000001a i2c2_check_event
20001ac8 g     O .bss	00000004 errno
00004b6e g     F .text	00000046 ring_buffer_init
20001930 g       .bss	00000000 _sbss
00000a00 g       *ABS*	00000000 __stack_size
20001946 g     O .bss	00000002 USBFS_SetupReqLen
20001a10 g     O .bss	00000004 imu_read_fail_cnt
00000abc g     F .text	0000006c pack_fac_conf
00006428 g     F .text	00000038 DMA_Init
200029f0 g     O .bss	000000b1 factory_configuration
200019ac g     O .bss	00000002 left_low_pos
00009c88 g     F .text	0000038c .hidden __subsf3
000018e6 g     F .text	000000b8 decode_hd_rumble_format2
000003c6 g     F .text	00000680 USBFS_IRQHandler
00006474 g     F .text	00000008 DMA_GetCurrDataCounter
0000434e g     F .text	00000014 ns_rumble_handler
2000302c g     O .bss	00000090 right_high_rb
200031dc g     O .bss	0000004a imu_pack_buf
0000732e g     F .text	00000048 sqrtf
00000194 g     F .text	0000000c .hidden __riscv_restore_2
20002b84 g     O .bss	00000018 linear_samples
00003358 g     F .text	0000001e button_upd_all
00004c4c g     F .text	00000058 ring_buffer_pop
00004f2a g     F .text	00000044 flush_rgb
0000b8f4 g     O .text	00000012 MyDevDescr
00003b50 g     F .text	00000002 ns_subcommand_set_hci_state
00004af6 g     F .text	0000002e top_init
00007120 g     F .text	00000016 TIM_CtrlPWMOutputs
000059e4 g     F .text	00000024 recv_rumble_frame
000001a0 g     F .text	00000016 memcpy
000060b0 g     F .text	00000010 ADC_Cmd
0000a894 g     F .text	0000000a _cleanup_r
00002924 g     F .text	00000034 imu_set_reg
00009150 g     F .text	00000070 .hidden __floatsidf
20001940 g     O .bss	00000001 USBFS_HidProtocol
0000514c g     F .text	00000066 _systick_init
00005fb6  w      .text	00000000 EXTI0_IRQHandler
00005fb6  w      .text	00000000 I2C2_EV_IRQHandler
0000386c g     F .text	00000056 top_timer
20001960 g     O .bss	00000002 Calibrattion_Val
00007104 g     F .text	0000001c TIM_Cmd
0000a4a4 g     F .text	0000000a puts
000071a8 g     F .text	0000001a TIM_OC4PreloadConfig
0000162a g     F .text	0000003e ApplyCommand
00001104 g     F .text	00000012 i32_clamp
200018bc g     O .data	00000004 SystemCoreClock
2000286c g     O .bss	00000080 USBFS_EP1_Buf
200019b1 g     O .bss	00000001 right_high_buf_stdby
2000427c g     O .bss	00000040 HID_Report_Buffer
0000b676 g     F .text	0000000c _fstat
00003b62 g     F .text	00000002 ns_subcommand_reset_mcu
00004f6e g     F .text	00000044 spi_init
00000038 g       .init	00000000 _einit
200017dc g     O .data	0000000e default_et
00007202 g     F .text	0000000e TIM_ClearITPendingBit
00009918 g     F .text	00000098 .hidden __lesf2
00006da0 g     F .text	0000001e RCC_APB2PeriphClockCmd
00000140 g     F .text	00000030 .hidden __riscv_save_12
00005fb6  w      .text	00000000 ADC1_2_IRQHandler
000067d4 g     F .text	000000be GPIO_Init
00006cac g     F .text	00000012 RCC_ADCCLKConfig
00000180 g     F .text	00000020 .hidden __riscv_restore_11
20001aac g     O .bss	00000004 NVIC_Priority_Group
00005fb6  w      .text	00000000 SPI1_IRQHandler
000060d2 g     F .text	0000000a ADC_ResetCalibration
200019aa g     O .bss	00000002 right_high_pos
000072b6 g     F .text	00000018 USART_Cmd
0000b0d4 g     F .text	00000028 _sbrk_r
000046b6 g     F .text	000000a6 fw_subcommand_read_setting
20002f9c g     O .bss	00000090 right_low_rb
00005fb6  w      .text	00000000 TAMPER_IRQHandler
00000170 g     F .text	0000000c .hidden __riscv_save_1
20001928 g     O .data	00000004 MyLangDescr
00000194 g     F .text	0000000c .hidden __riscv_restore_0
00006fd4 g     F .text	000000b0 TIM_OC3Init
0000b640 g     F .text	0000002a _read_r
20003234 g     O .bss	0000000c imu_raw_buf
00000156 g     F .text	0000001a .hidden __riscv_save_7
000072fe g     F .text	00000002 USART_printf_Init
20001981 g     O .bss	00000001 decoded_cnt
000010e0 g     F .text	0000000c i32_min
200019ae g     O .bss	00000002 left_high_pos
000064ba g     F .text	00000004 DMA_ClearITPendingBit
00006dbe g     F .text	0000001e RCC_APB1PeriphClockCmd
00004dc6 g     F .text	0000007e set_led_rgb
0000783a g     F .text	000006e8 .hidden __adddf3
000052be g     F .text	000000ae UART1_DMA_Init
20001808 g     O .data	00000029 MyCfgDescr
20004600 g       .stack	00000000 _heap_end
00002e64 g     F .text	000001fe _imu_update_quaternion
00003b52 g     F .text	00000010 ns_subcommand_set_imu_register
0000b682 g     F .text	0000000c _isatty
200019a4 g     O .bss	00000004 left_high_sum
20001abc g     O .bss	00000001 __lock___sinit_recursive_mutex
00005234 g     F .text	00000020 Delay_Us
2000192c g     O .data	00000004 _global_impure_ptr
000041ca g     F .text	0000003a ns_subcommand_get_battery_voltage
0000018a g     F .text	00000016 .hidden __riscv_restore_5
000071da g     F .text	0000000c TIM_GetFlagStatus
200030bc g     O .bss	00000090 left_low_rb
00006d82 g     F .text	0000001e RCC_AHBPeriphClockCmd
0000748a g     F .text	000003b0 .hidden __udivdi3
00005fb6  w      .text	00000000 DMA1_Channel4_IRQHandler
0000610e g     F .text	000000b8 ADC_RegularChannelConfig
20001958 g     O .bss	00000008 joystick_snapback_deadzone_sq
00006a8c g     F .text	00000006 I2C_SendData
000091c0 g     F .text	00000070 .hidden __floatunsidf
00007304 g     F .text	0000002a _sbrk
200032b8 g     O .bss	00000010 adc_debounce
00005ccc g     F .text	00000062 uart_com_task
0000b808 g     O .text	0000000a MyManuInfo
00000b3a g     F .text	00000090 conf_write
20001a55 g     O .bss	00000001 indicate_led_status
0000418c g     F .text	0000003e ns_subcommand_set_rumble_state
000010a0 g     F .text	00000040 flash_read
00006904 g     F .text	00000112 I2C_Init
0000647c g     F .text	00000020 DMA_GetFlagStatus
00003bf6 g     F .text	000000a0 ns_subcommand_pair_by_wire
0000018a g     F .text	00000016 .hidden __riscv_restore_6
00005fb6  w      .text	00000000 USART3_IRQHandler
00005fb6  w      .text	00000000 RTC_IRQHandler
000060ee g     F .text	00000008 ADC_GetCalibrationStatus
20001945 g     O .bss	00000001 USBFS_DevConfig
200042bc g       .bss	00000000 _ebss
00003b7e g     F .text	00000040 ns_subcommand_set_mcu_conf
00005fb6  w      .text	00000000 DMA1_Channel7_IRQHandler
00006f4c g     F .text	00000088 TIM_OC1Init
00003bbe g     F .text	00000038 ns_subcommand_default
000060f6 g     F .text	00000018 ADC_SoftwareStartConvCmd
00007196 g     F .text	00000012 TIM_OC3PreloadConfig
000060dc g     F .text	00000008 ADC_GetResetCalibrationStatus
00006e18 g     F .text	0000002e RCC_GetFlagStatus
20001ab4 g     O .bss	00000001 __lock___malloc_recursive_mutex
000016ce g     F .text	00000060 deocde_hd_rumble_format1
20001a20 g     O .bss	00000004 imu_ratio_xf
000016b4 g     F .text	0000001a get_hd_rumble_pack
2000274c g     O .bss	00000090 ns_usb_recv_rb
2000292c g     O .bss	0000007c user_config
00004656 g     F .text	00000022 fw_subcommand_reboot
20001a94 g     O .bss	00000001 pkg_typ
20001998 g     O .bss	00000004 right_low_sum
0000128c g     F .text	000000b8 gpio_tb_init
00004a58 g     F .text	0000009e setup_exti
200018b4 g     O .data	00000004 rts_tcnt
00009882 g     F .text	00000096 .hidden __gtsf2
0000689e g     F .text	00000004 GPIO_SetBits
20001948 g     O .bss	00000002 USBFS_SetupReqIndex
200029a8 g     O .bss	00000048 user_calibration
00005f5e g     F .text	00000058 TIM4_IRQHandler
0000714c g     F .text	0000001e TIM_ARRPreloadConfig
00000148 g     F .text	00000028 .hidden __riscv_save_9
000039a6 g     F .text	000000d0 init_all
200032fc g     O .bss	00000400 ns_cmd_subcommand_cb_tb
20001980 g     O .bss	00000001 global_sample_channel
200002c0 g     O .data	00000500 exp2_lookup_tb
00006a32 g     F .text	0000001e I2C_GenerateSTART
2000194c g     O .bss	00000001 USBFS_SetupReqType
0000baf0 g     O .text	00000020 __sf_fake_stderr
00000156 g     F .text	0000001a .hidden __riscv_save_4
00003e40 g     F .text	00000004 ns_subcommand_disable_mcu_polling
00005fb6  w      .text	00000000 I2C1_EV_IRQHandler
0000581c g     F .text	00000040 send_input_with_uart
0000561a g     F .text	0000014c UART1_Rx_Service
0000aa8c g     F .text	00000002 __retarget_lock_release_recursive
0000258e g     F .text	00000140 i2c_read_start
00004d1a g     F .text	00000058 spi_DMA_Tx_Init
000071e6 g     F .text	0000001c TIM_GetITStatus
20003900 g     O .bss	00000090 uart_tx_rb
000029ba g     F .text	00000096 set_imu_awake
0000168c g     F .text	00000028 ApplyFmCommand
20001938 g     O .bss	00000008 USBFS_Endp_Busy
00006cd2 g     F .text	000000b0 RCC_GetClocksFreq
20001a95 g     O .bss	00000001 pkg_len
200019fb g     O .bss	00000001 i2c_status
00003f1e g     F .text	00000034 ns_subcommand_set_mcu_state
00005fb6  w      .text	00000000 DMA1_Channel6_IRQHandler
0000a2e8 g     F .text	0000006e .hidden __clzsi2
0000adb6 g     F .text	00000044 __sfputs_r
00006ac2 g     F .text	00000026 I2C_NACKPositionConfig
0000a8e4 g     F .text	00000006 __sfp_lock_acquire
0000b280 g     F .text	0000001a memchr
20002b9c g     O .bss	00000100 right_low_rb_buf
00007210 g     F .text	000000a6 USART_Init
20001a08 g     O .bss	00000001 imu_buf_pos
0000ab8e g     F .text	0000009e _free_r
000020ae g     F .text	00000260 TIM3_IRQHandler
00005fb6  w      .text	00000000 RCC_IRQHandler
00003b68 g     F .text	00000016 pkt_clr
00000170 g     F .text	0000000c .hidden __riscv_save_3
00003f5a g     F .text	00000036 ns_subcommand_attachmend_read
00005fb6  w      .text	00000000 TIM1_TRG_COM_IRQHandler
00003b66 g     F .text	00000002 ns_subcommand_reset_pairing_info
200019b3 g     O .bss	00000001 left_high_buf_stdby
20001a50 g     O .bss	00000005 imu_conf
00005fb6  w      .text	00000000 DMA1_Channel1_IRQHandler
0000467c g     F .text	0000000e ns_send_report
00000000 g       .init	00000000 _start
200017f8 g     O .data	00000010 AHBPrescTable
20001a26 g     O .bss	00000001 imu_upd_cnt
00006b02 g     F .text	00000032 I2C_GetFlagStatus
0000b68e g     F .text	0000000c _lseek
0000717c g     F .text	0000001a TIM_OC2PreloadConfig
20001aa8 g     O .bss	00000004 last_feed_ms
0000a0b0 g     F .text	000000cc .hidden __floatsisf
20001aa0 g     O .bss	00000004 get_peripheral_data
200019d0 g     O .bss	00000008 left_high_buf
00005fb6  w      .text	00000000 EXTI15_10_IRQHandler
0000585c g     F .text	0000006e start_connect
00007136 g     F .text	00000016 TIM_ITConfig
00001406 g     F .text	00000076 gpio_read_all
2000210c g     O .bss	00000640 ns_usb_send_buf
00003d32 g     F .text	0000004e ns_subcommand_set_input_mode
000064be g     F .text	00000062 EXTI_Init
2000194d g     O .bss	00000001 USBFS_SetupReqCode
200019e0 g     O .bss	00000008 right_high
00003e3c g     F .text	00000004 ns_subcommand_enable_mcu_polling
00005482 g     F .text	000000b6 UART1_Tx_Service
0000236c g     F .text	0000011e i2c_software_recovery
20001a70 g     O .bss	00000001 rx_ptr
00005d72 g     F .text	00000066 rpt_warpper
00005766 g     F .text	0000004c send_uart_pkt
20001a74 g     O .bss	00000002 UART1_Rx_RemainLen
20001a76 g     O .bss	00000002 UART1_RX_LastCnt
00003ff4 g     F .text	00000046 ns_subcommand_set_indicate_led
000068d2 g     F .text	00000032 I2C_DeInit
00006a16 g     F .text	0000001c I2C_Cmd
000068a2 g     F .text	00000004 GPIO_ResetBits
20001942 g     O .bss	00000001 USBFS_DevEnumStatus
0000b1e2 g     F .text	00000026 _close_r
20000000 g       .dalign	00000000 _data_vma
00005dde g     F .text	0000000e hid_init
200017ec g     O .data	0000000c default_device_info
000071ce g     F .text	00000006 TIM_SetCompare3
00007084 g     F .text	00000080 TIM_OC4Init
00005120 g     F .text	00000004 SetSysClock
20001aa5 g     O .bss	00000001 watchdog_pos
0000a56e g     F .text	000000fa __swsetup_r
00005fb6  w      .text	00000000 EXTI9_5_IRQHandler
00007f22 g     F .text	000005ae .hidden __divdf3
0000a96e g     F .text	000000b0 __sfp
00004e44 g     F .text	000000e6 flush_spi_tx_seq
200019b6 g     O .bss	00000001 left_low_buf_rdy
000068a6 g     F .text	0000002c GPIO_EXTILineConfig
0000a8f6 g     F .text	00000006 __sinit_lock_release
20001944 g     O .bss	00000001 USBFS_DevAddr
000084d0 g     F .text	0000054a .hidden __muldf3
00000148 g     F .text	00000028 .hidden __riscv_save_10
0000b0fc g     F .text	00000030 __sread
00006a9c g     F .text	00000010 I2C_Send7bitAddress
20003a20 g     O .bss	00000340 uart_tx_rb_buf
0000403a g     F .text	0000003c ns_subcommand_get_indicate_led
0000b29a g     F .text	00000008 __malloc_lock
00003376 g     F .text	00000056 get_peripheral_data_handler
0000018a g     F .text	00000016 .hidden __riscv_restore_4
00000180 g     F .text	00000020 .hidden __riscv_restore_8
0000a7a0 g     F .text	0000008a _fflush_r
200019b7 g     O .bss	00000001 left_high_buf_rdy
00000156 g     F .text	0000001a .hidden __riscv_save_6
00005fb6  w      .text	00000000 SPI2_IRQHandler
000058ca g     F .text	00000038 wake_esp32
0000bb30 g     O .text	00000020 __sf_fake_stdin
00006bd6 g     F .text	00000062 PWR_EnterSTOPMode
0000aa8a g     F .text	00000002 __retarget_lock_acquire_recursive
2000199c g     O .bss	00000004 right_high_sum
00001f02 g     F .text	00000110 push_waveform_into_buffer_task
000001b6 g     F .text	00000010 memset
00007376 g     F .text	00000114 __ieee754_sqrtf
000011c8 g     F .text	00000056 DMA_Tx_Init
00000180 g     F .text	00000020 .hidden __riscv_restore_9
0000018a g     F .text	00000016 .hidden __riscv_restore_7
00003a76 g     F .text	000000da main
0000199e g     F .text	000000fa decode_hd_rumble_format2long
200019b8 g     O .bss	00000008 right_low_buf
00003ebe g     F .text	00000060 ns_subcommand_spi_write
20001964 g     O .bss	00000008 adc_data
0000aa88 g     F .text	00000002 __retarget_lock_init_recursive
000051b2 g     F .text	00000012 SysTick_Init
00004d72 g     F .text	00000054 rgb_spi_pkg_gen
200001c0 g     O .data	00000100 amp_exp2_index_lookup_tb
20001978 g     O .bss	00000008 m_state
00009918 g     F .text	00000098 .hidden __ltsf2
00005d2e g     F .text	00000006 ns_set_peripheral_data_getter
00005ef8 g     F .text	00000056 hid_rx_service
2000314c g     O .bss	00000090 left_high_rb
0000b1b0 g     F .text	00000006 __sclose
200019b4 g     O .bss	00000001 right_low_buf_rdy
0000a17c g     F .text	0000016c .hidden __truncdfsf2
00006ebe g     F .text	00000016 SPI_I2S_DMACmd
000048f6 g     F .text	00000070 fw_subcommand_get_status
0000ac80 g     F .text	0000010c _malloc_r
000035d8 g     F .text	00000084 joystick_debounce_task
20001a7c g     O .bss	00000002 UART1_TimeOut
200019b2 g     O .bss	00000001 left_low_buf_stdby
20001943 g     O .bss	00000001 USBFS_DevSleepStatus
200019fa g     O .bss	00000001 i2c_error_code
000061c6 g     F .text	00000182 Get_CalibrationValue
00005fb6  w      .text	00000000 DMA1_Channel5_IRQHandler
00006c88 g     F .text	00000024 RCC_USBCLKConfig
0000b814 g     O .text	000000df MyHIDReportDesc
00005fb6  w      .text	00000000 EXTI4_IRQHandler
00005254 g     F .text	00000018 Delay_Ms
00000320 g     F .text	000000a6 USBFS_Device_Init
0000b7dc g     O .text	0000002a MyProdInfo
000099b0 g     F .text	000002d8 .hidden __mulsf3
000071d4 g     F .text	00000006 TIM_SetCompare4
200019f9 g     O .bss	00000001 i2c_intr_error
00004bb4 g     F .text	00000098 ring_buffer_push
00002cac g     F .text	00000090 _imu_quat_normalize
0000172e g     F .text	00000094 decode_hd_rumble_format1long
00006ea0 g     F .text	0000001e SPI_Cmd
00004126 g     F .text	00000066 ns_subcommand_read_imu_register
00002958 g     F .text	00000062 imu_read
0000230e g     F .text	0000001a i2c2_check_flag
20001aa4 g     O .bss	00000001 HID_Set_Report_Flag
000072f0 g     F .text	0000000e USART_ClearFlag
000002dc g     F .text	00000044 USBFS_Device_Endp_Init
20001a18 g     O .bss	00000004 imu_ratio_zf
00006aac g     F .text	00000016 I2C_SoftwareResetCmd
00005066 g     F .text	00000044 SystemInit
00002a50 g     F .text	00000024 set_imu_sleep
20001a98 g     O .bss	00000004 pkg_ptr
200000c0 g     O .data	00000100 freq_exp2_index_lookup_tb
00004076 g     F .text	0000003e ns_subcommand_set_imu_state
000047e8 g     F .text	0000004c fw_subcommand_read_emulate_rom
0000a35c g     F .text	0000003a iprintf
0000b9f0 g     O .text	00000100 .hidden __clz_tab
00000000 g       .init	00000000 _sinit
200019a0 g     O .bss	00000004 left_low_sum
20001a5d g     O .bss	00000001 force_esp32_active
00009882 g     F .text	00000096 .hidden __gesf2
0000b1b6 g     F .text	0000002c _write_r
000026ce g     F .text	00000084 i2c_read_byte
00004fb2 g     F .text	0000002e DMA1_Channel3_IRQHandler
200019c8 g     O .bss	00000008 left_low_buf
0000b2aa g     F .text	00000110 _printf_common
200018d0 g     O .data	00000004 _impure_ptr
00001116 g     F .text	000000b2 ADC_Function_Init
00005fb6  w      .text	00000000 TIM1_UP_IRQHandler
0000121e g     F .text	0000006e adc_init
0000a668 g     F .text	00000138 __sflush_r
000038c2 g     F .text	00000052 routine_service
00001e26 g     F .text	00000082 hd_rumble_high_accurary_init
20002d9c g     O .bss	00000100 left_low_rb_buf
00002914 g     F .text	00000010 i2c_init
20003288 g     O .bss	00000030 js_snapback_samples
00005fb6  w      .text	00000000 WWDG_IRQHandler
00006dfa g     F .text	0000001e RCC_APB1PeriphResetCmd
00000a9c g     F .text	00000010 custom_conf_read
200027dc g     O .bss	00000090 ns_usb_send_rb
000051e2 g     F .text	00000016 HighPrecisionTimer_Init
000051c4 g     F .text	00000018 Get_Systick_US
00000bca g     F .text	00000214 unpack_fac_conf
00005124 g     F .text	00000028 TIM2_IRQHandler
20005000 g       .stack	00000000 _eusrstack
20001a1c g     O .bss	00000004 imu_ratio_yf
000014d0 g     F .text	0000014c hd_rumble_init
00000170 g     F .text	0000000c .hidden __riscv_save_2
00005fb6  w      .text	00000000 SW_Handler
20003990 g     O .bss	00000090 uart_rx_rb
00001668 g     F .text	00000024 ApplyAmCommand
00001bc0 g     F .text	00000266 decode_hd_rumble_multiformat_high_acc
00004362 g     F .text	0000003c ns_cmd_subcommand_dispatcher
00002052 g     F .text	0000005c rumble_pattern_check
200019c0 g     O .bss	00000008 right_high_buf
000051dc g     F .text	00000006 Get_Systick_MS
20001941 g     O .bss	00000001 USBFS_HidIdle
00006036 g     F .text	0000002a ADC_DeInit
00003dc6 g     F .text	0000003a ns_subcommand_get_page_list_state
00004a12 g     F .text	00000046 hid_dispatch
00002a76 g     F .text	00000236 imu_upd
00005a08 g     F .text	00000058 recv_pwr_control
00005fb6  w      .text	00000000 TIM1_BRK_IRQHandler
0000aa8e g     F .text	0000005c __swhatbuf_r
00006060 g     F .text	00000050 ADC_Init
20001a7a g     O .bss	00000001 UART1_Tx_Flag
00005fb6  w      .text	00000000 EXTI1_IRQHandler
200017c0 g     O .data	0000001c _imu_quat_state
20003228 g     O .bss	0000000c imu_res
00004b24 g     F .text	0000004a set_pwr_mode_stop
00000156 g     F .text	0000001a .hidden __riscv_save_5
000024ce g     F .text	000000c0 i2c_hardware_init
200019f0 g     O .bss	00000008 left_high
00007300 g     F .text	00000004 _write
00003f52 g     F .text	00000004 ns_subcommand_attachmend_write
200028ec g     O .bss	00000040 USBFS_EP0_Buf
20001930 g       .data	00000000 _edata
00004204 g     F .text	00000038 ns_subcommand_read_charge_setting
20001950 g     O .bss	00000004 pUSBFS_Descr
200042bc g       .bss	00000000 _end
20001a6c g     O .bss	00000004 Systick_MS
0000a014 g     F .text	0000003c .hidden __unordsf2
200019a8 g     O .bss	00000002 right_low_pos
00002d3c g     F .text	00000128 _imu_rotate_quaternion
200019e8 g     O .bss	00000008 left_low
00006ed4 g     F .text	00000078 TIM_TimeBaseInit
00005fb6  w      .text	00000000 RTCAlarm_IRQHandler
00006c38 g     F .text	0000000e PWR_GetFlagStatus
0000bbe4 g       .dlalign	00000000 _data_lma
0000423c g     F .text	00000112 ns_subcommand_callback_init
00003fc0 g     F .text	00000034 ns_subcommand_get_attachment_info
00000b28 g     F .text	00000012 fac_conf_write
00005fb6  w      .text	00000000 USART2_IRQHandler
0000b12c g     F .text	0000004e __swrite
00006bc6 g     F .text	00000010 PWR_PVDLevelConfig
20003794 g     O .bss	00000025 connection_state
00000aac g     F .text	00000010 custom_conf_write
20001a14 g     O .bss	00000004 imu_read_cnt
0000adfa g     F .text	000002da _vfiprintf_r
000017c2 g     F .text	00000124 decode_hd_rumble_format1full
0000aa1e g     F .text	0000006a _fwalk_reent
000050aa g     F .text	00000076 SystemCoreClockUpdate
20001a58 g     O .bss	00000004 rts_cnt
00001a98 g     F .text	00000128 decode_hd_rumble_format3
20001acc g     O .bss	00000640 ns_usb_recv_buf
00005a60 g     F .text	000000f2 recv_flash_operation
00002342 g     F .text	0000002a I2C2_ER_IRQHandler
000066ba g     F .text	0000011a FLASH_ROM_WRITE
00005fb6  w      .text	00000000 DMA1_Channel2_IRQHandler
200018ac g     O .data	00000004 hliner
0000a8ea g     F .text	00000006 __sfp_lock_release
0000bb10 g     O .text	00000020 __sf_fake_stdout
0000017c g     F .text	00000024 .hidden __riscv_restore_12
0000649c g     F .text	0000001a DMA_ClearFlag
00001094 g     F .text	0000000a get_raw_flash_buf
0000b69a g     F .text	0000000c _read
00005fb8  w      .text	00000000 handle_reset
00004966 g     F .text	00000016 fw_subcommand_get_version
00005dd8 g     F .text	00000006 set_imu_available
20001a24 g     O .bss	00000001 imu_mode
00004862 g     F .text	0000002a fw_subcommand_calibrate_imu
00005fb6  w      .text	00000000 FLASH_IRQHandler
00000170 g     F .text	0000000c .hidden __riscv_save_0
00005b9e g     F .text	0000012e connection_state_handler
000057b2 g     F .text	0000006a uart_conf_write
00005fb6  w      .text	00000000 USART1_IRQHandler
0000aaea g     F .text	000000a4 __smakebuf_r
000033cc g     F .text	0000020c joystick_snapback_filter
0000442c g     F .text	000000ac _calibrate_imu_raw
0000488c g     F .text	0000006a fw_subcommand_calibrate_js_offset
00006cbe g     F .text	00000014 RCC_LSICmd
00006a6e g     F .text	0000001e I2C_AcknowledgeConfig
00004834 g     F .text	0000002e fw_subcommand_write_emulate_rom
0000b3ba g     F .text	00000286 _printf_i
200019b0 g     O .bss	00000001 right_low_buf_stdby
000055e6 g     F .text	00000034 check_uart_pkt
20001ac0 g     O .bss	00000004 __malloc_sbrk_start
00006ae8 g     F .text	0000001a I2C_CheckEvent
00005538 g     F .text	000000ae encode_uart_pkt
00006ddc g     F .text	0000001e RCC_APB2PeriphResetCmd
20001a25 g     O .bss	00000001 imu_rdy
00006a50 g     F .text	0000001e I2C_GenerateSTOP
00003b64 g     F .text	00000002 ns_subcommand_set_home_led
00005fb6  w      .text	00000000 I2C1_ER_IRQHandler
00006e46 g     F .text	0000005a SPI_Init
00006b34 g     F .text	00000010 NVIC_PriorityGroupConfig
00006348 g     F .text	000000e0 DMA_DeInit
00001344 g     F .text	000000c2 gpio_init
20001ac4 g     O .bss	00000004 __malloc_free_list
0000439e g     F .text	0000008e ns_mux_usb_handshake_handler
000044d8 g     F .text	0000017e calibrate_imu
00005902 g     F .text	000000e2 recv_esp32_connect_control
00000194 g     F .text	0000000c .hidden __riscv_restore_1
20001970 g     O .bss	00000008 sample
00005d34 g     F .text	0000003e ns_hid_get_packet_timer
000065a0 g     F .text	0000011a FLASH_ROM_ERASE
20001a72 g     O .bss	00000002 UART1_Rx_Deal_Ptr
00008a1a g     F .text	00000736 .hidden __subdf3
0000adfa g     F .text	000002da _vfprintf_r
000071c2 g     F .text	00000006 TIM_SetCompare1
00003d80 g     F .text	00000046 ns_subcommand_trigger_buttons_elapsed_time
20001ab0 g     O .bss	00000004 pEP1_RAM_Addr
00006892 g     F .text	0000000c GPIO_ReadInputDataBit
0000536c g     F .text	000000ce UART1_Init
20001930 g     O .bss	00000004 EXC_PC
00000ffe g     F .text	00000052 _flash_write
000072ce g     F .text	00000016 USART_DMACmd
0000543a g     F .text	00000048 UART1_DMA_Tx
20002c9c g     O .bss	00000100 right_high_rb_buf
0000475c g     F .text	0000008c fw_subcommand_write_setting
00009230 g     F .text	00000368 .hidden __addsf3
00000e70 g     F .text	0000018e conf_init
00003e00 g     F .text	00000038 ns_subcommand_set_shipping_mode
00005fb6  w      .text	00000000 USBWakeUp_IRQHandler
00006bb2 g     F .text	00000014 PWR_PVDCmd
00001ea8 g     F .text	0000005a push_waveform
20001ab8 g     O .bss	00000001 __lock___sfp_recursive_mutex
20000000 g     O .data	000000c0 CommandTable
0000b66a g     F .text	0000000c _close
000027fe g     F .text	00000116 i2c_write_byte
0000248a g     F .text	00000044 i2c2_reset
0000a8f0 g     F .text	00000006 __sinit_lock_acquire
0000161c g     F .text	0000000e hd_rumble_set_status



Disassembly of section .init:

00000000 <_sinit>:
   0:	7b90506f          	j	5fb8 <handle_reset>
   4:	00000013          	.word	0x00000013
   8:	00000013          	.word	0x00000013
   c:	00000013          	.word	0x00000013
  10:	00000013          	.word	0x00000013
  14:	00000013          	.word	0x00000013
  18:	00000013          	.word	0x00000013
  1c:	00000013          	.word	0x00000013
  20:	00000013          	.word	0x00000013
  24:	00000013          	.word	0x00000013
  28:	00000013          	.word	0x00000013
  2c:	00000013          	.word	0x00000013
  30:	00000013          	.word	0x00000013
  34:	00100073          	.word	0x00100073

Disassembly of section .vector:

00000038 <_vector_base>:
  38:	fc9ff06f          	j	0 <_sinit>
  3c:	00000000          	.word	0x00000000
  40:	1860006f          	j	1c6 <NMI_Handler>
  44:	1aa0006f          	j	1ee <HardFault_Handler>
	...
  68:	74f0506f          	j	5fb6 <ADC1_2_IRQHandler>
  6c:	00000000          	.word	0x00000000
  70:	7470506f          	j	5fb6 <ADC1_2_IRQHandler>
  74:	00000000          	.word	0x00000000
  78:	73f0506f          	j	5fb6 <ADC1_2_IRQHandler>
  7c:	73b0506f          	j	5fb6 <ADC1_2_IRQHandler>
  80:	7370506f          	j	5fb6 <ADC1_2_IRQHandler>
  84:	7330506f          	j	5fb6 <ADC1_2_IRQHandler>
  88:	72f0506f          	j	5fb6 <ADC1_2_IRQHandler>
  8c:	72b0506f          	j	5fb6 <ADC1_2_IRQHandler>
  90:	7270506f          	j	5fb6 <ADC1_2_IRQHandler>
  94:	7230506f          	j	5fb6 <ADC1_2_IRQHandler>
  98:	71f0506f          	j	5fb6 <ADC1_2_IRQHandler>
  9c:	71b0506f          	j	5fb6 <ADC1_2_IRQHandler>
  a0:	7170506f          	j	5fb6 <ADC1_2_IRQHandler>
  a4:	7130506f          	j	5fb6 <ADC1_2_IRQHandler>
  a8:	70f0506f          	j	5fb6 <ADC1_2_IRQHandler>
  ac:	7070406f          	j	4fb2 <DMA1_Channel3_IRQHandler>
  b0:	7070506f          	j	5fb6 <ADC1_2_IRQHandler>
  b4:	7030506f          	j	5fb6 <ADC1_2_IRQHandler>
  b8:	6ff0506f          	j	5fb6 <ADC1_2_IRQHandler>
  bc:	6fb0506f          	j	5fb6 <ADC1_2_IRQHandler>
  c0:	6f70506f          	j	5fb6 <ADC1_2_IRQHandler>
	...
  d4:	6e30506f          	j	5fb6 <ADC1_2_IRQHandler>
  d8:	6df0506f          	j	5fb6 <ADC1_2_IRQHandler>
  dc:	6db0506f          	j	5fb6 <ADC1_2_IRQHandler>
  e0:	6d70506f          	j	5fb6 <ADC1_2_IRQHandler>
  e4:	6d30506f          	j	5fb6 <ADC1_2_IRQHandler>
  e8:	03c0506f          	j	5124 <TIM2_IRQHandler>
  ec:	7c30106f          	j	20ae <TIM3_IRQHandler>
  f0:	66f0506f          	j	5f5e <TIM4_IRQHandler>
  f4:	6c30506f          	j	5fb6 <ADC1_2_IRQHandler>
  f8:	6bf0506f          	j	5fb6 <ADC1_2_IRQHandler>
  fc:	6bb0506f          	j	5fb6 <ADC1_2_IRQHandler>
 100:	2420206f          	j	2342 <I2C2_ER_IRQHandler>
 104:	6b30506f          	j	5fb6 <ADC1_2_IRQHandler>
 108:	6af0506f          	j	5fb6 <ADC1_2_IRQHandler>
 10c:	6ab0506f          	j	5fb6 <ADC1_2_IRQHandler>
 110:	6a70506f          	j	5fb6 <ADC1_2_IRQHandler>
 114:	6a30506f          	j	5fb6 <ADC1_2_IRQHandler>
 118:	69f0506f          	j	5fb6 <ADC1_2_IRQHandler>
 11c:	69b0506f          	j	5fb6 <ADC1_2_IRQHandler>
 120:	6970506f          	j	5fb6 <ADC1_2_IRQHandler>
 124:	2a20006f          	j	3c6 <USBFS_IRQHandler>
	...

Disassembly of section .text:

00000140 <__riscv_save_12>:
     140:	7139                	addi	sp,sp,-64
     142:	4301                	li	t1,0
     144:	c66e                	sw	s11,12(sp)
     146:	a019                	j	14c <__riscv_save_10+0x4>

00000148 <__riscv_save_10>:
     148:	7139                	addi	sp,sp,-64
     14a:	5341                	li	t1,-16
     14c:	c86a                	sw	s10,16(sp)
     14e:	ca66                	sw	s9,20(sp)
     150:	cc62                	sw	s8,24(sp)
     152:	ce5e                	sw	s7,28(sp)
     154:	a019                	j	15a <__riscv_save_4+0x4>

00000156 <__riscv_save_4>:
     156:	7139                	addi	sp,sp,-64
     158:	5301                	li	t1,-32
     15a:	d05a                	sw	s6,32(sp)
     15c:	d256                	sw	s5,36(sp)
     15e:	d452                	sw	s4,40(sp)
     160:	d64e                	sw	s3,44(sp)
     162:	d84a                	sw	s2,48(sp)
     164:	da26                	sw	s1,52(sp)
     166:	dc22                	sw	s0,56(sp)
     168:	de06                	sw	ra,60(sp)
     16a:	40610133          	sub	sp,sp,t1
     16e:	8282                	jr	t0

00000170 <__riscv_save_0>:
     170:	1141                	addi	sp,sp,-16
     172:	c04a                	sw	s2,0(sp)
     174:	c226                	sw	s1,4(sp)
     176:	c422                	sw	s0,8(sp)
     178:	c606                	sw	ra,12(sp)
     17a:	8282                	jr	t0

0000017c <__riscv_restore_12>:
     17c:	4db2                	lw	s11,12(sp)
     17e:	0141                	addi	sp,sp,16

00000180 <__riscv_restore_10>:
     180:	4d02                	lw	s10,0(sp)
     182:	4c92                	lw	s9,4(sp)
     184:	4c22                	lw	s8,8(sp)
     186:	4bb2                	lw	s7,12(sp)
     188:	0141                	addi	sp,sp,16

0000018a <__riscv_restore_4>:
     18a:	4b02                	lw	s6,0(sp)
     18c:	4a92                	lw	s5,4(sp)
     18e:	4a22                	lw	s4,8(sp)
     190:	49b2                	lw	s3,12(sp)
     192:	0141                	addi	sp,sp,16

00000194 <__riscv_restore_0>:
     194:	4902                	lw	s2,0(sp)
     196:	4492                	lw	s1,4(sp)
     198:	4422                	lw	s0,8(sp)
     19a:	40b2                	lw	ra,12(sp)
     19c:	0141                	addi	sp,sp,16
     19e:	8082                	ret

000001a0 <memcpy>:
     1a0:	832a                	mv	t1,a0
     1a2:	ca09                	beqz	a2,1b4 <memcpy+0x14>
     1a4:	00058383          	lb	t2,0(a1)
     1a8:	00730023          	sb	t2,0(t1)
     1ac:	167d                	addi	a2,a2,-1
     1ae:	0305                	addi	t1,t1,1
     1b0:	0585                	addi	a1,a1,1
     1b2:	fa6d                	bnez	a2,1a4 <memcpy+0x4>
     1b4:	8082                	ret

000001b6 <memset>:
     1b6:	832a                	mv	t1,a0
     1b8:	c611                	beqz	a2,1c4 <memset+0xe>
     1ba:	00b30023          	sb	a1,0(t1)
     1be:	167d                	addi	a2,a2,-1
     1c0:	0305                	addi	t1,t1,1
     1c2:	fe65                	bnez	a2,1ba <memset+0x4>
     1c4:	8082                	ret

000001c6 <NMI_Handler>:
     1c6:	4501                	li	a0,0
     1c8:	563040ef          	jal	ra,4f2a <flush_rgb>
     1cc:	40021737          	lui	a4,0x40021
     1d0:	471c                	lw	a5,8(a4)
     1d2:	008006b7          	lui	a3,0x800
     1d6:	8fd5                	or	a5,a5,a3
     1d8:	c71c                	sw	a5,8(a4)
     1da:	747040ef          	jal	ra,5120 <SetSysClock>
     1de:	e000e737          	lui	a4,0xe000e
     1e2:	473c                	lw	a5,72(a4)
     1e4:	0087e793          	ori	a5,a5,8
     1e8:	c73c                	sw	a5,72(a4)
     1ea:	30200073          	mret

000001ee <HardFault_Handler>:
     1ee:	1141                	addi	sp,sp,-16
     1f0:	4501                	li	a0,0
     1f2:	c622                	sw	s0,12(sp)
     1f4:	c426                	sw	s1,8(sp)
     1f6:	535040ef          	jal	ra,4f2a <flush_rgb>
     1fa:	342027f3          	csrr	a5,mcause
     1fe:	88f1a623          	sw	a5,-1908(gp) # 20001934 <EXC_CAUSE>
     202:	34102773          	csrr	a4,mepc
     206:	88c1a683          	lw	a3,-1908(gp) # 20001934 <EXC_CAUSE>
     20a:	200035b7          	lui	a1,0x20003
     20e:	9a858793          	addi	a5,a1,-1624 # 200029a8 <user_calibration>
     212:	0086d613          	srli	a2,a3,0x8
     216:	04d78023          	sb	a3,64(a5)
     21a:	04c780a3          	sb	a2,65(a5)
     21e:	0106d613          	srli	a2,a3,0x10
     222:	82e1                	srli	a3,a3,0x18
     224:	04d781a3          	sb	a3,67(a5)
     228:	00875693          	srli	a3,a4,0x8
     22c:	04c78123          	sb	a2,66(a5)
     230:	04e78223          	sb	a4,68(a5)
     234:	04d782a3          	sb	a3,69(a5)
     238:	88e1a423          	sw	a4,-1912(gp) # 20001930 <EXC_PC>
     23c:	01075693          	srli	a3,a4,0x10
     240:	04800613          	li	a2,72
     244:	8361                	srli	a4,a4,0x18
     246:	9a858593          	addi	a1,a1,-1624
     24a:	4501                	li	a0,0
     24c:	04d78323          	sb	a3,70(a5)
     250:	04e783a3          	sb	a4,71(a5)
     254:	5fd000ef          	jal	ra,1050 <flash_write>
     258:	88c1a783          	lw	a5,-1908(gp) # 20001934 <EXC_CAUSE>
     25c:	0007cf63          	bltz	a5,27a <HardFault_Handler+0x8c>
     260:	470d                	li	a4,3
     262:	02e78763          	beq	a5,a4,290 <HardFault_Handler+0xa2>
     266:	00f77563          	bgeu	a4,a5,270 <HardFault_Handler+0x82>
     26a:	17f1                	addi	a5,a5,-4
     26c:	00f76763          	bltu	a4,a5,27a <HardFault_Handler+0x8c>
     270:	8881a783          	lw	a5,-1912(gp) # 20001930 <EXC_PC>
     274:	0791                	addi	a5,a5,4
     276:	34179073          	csrw	mepc,a5
     27a:	e000e737          	lui	a4,0xe000e
     27e:	473c                	lw	a5,72(a4)
     280:	4432                	lw	s0,12(sp)
     282:	44a2                	lw	s1,8(sp)
     284:	0207e793          	ori	a5,a5,32
     288:	c73c                	sw	a5,72(a4)
     28a:	0141                	addi	sp,sp,16
     28c:	30200073          	mret
     290:	a001                	j	290 <HardFault_Handler+0xa2>

00000292 <USBFS_RCC_Init>:
     292:	edfff2ef          	jal	t0,170 <__riscv_save_0>
     296:	4511                	li	a0,4
     298:	4585                	li	a1,1
     29a:	307060ef          	jal	ra,6da0 <RCC_APB2PeriphClockCmd>
     29e:	400247b7          	lui	a5,0x40024
     2a2:	80078793          	addi	a5,a5,-2048 # 40023800 <_eusrstack+0x2001e800>
     2a6:	4398                	lw	a4,0(a5)
     2a8:	4501                	li	a0,0
     2aa:	00476713          	ori	a4,a4,4
     2ae:	c398                	sw	a4,0(a5)
     2b0:	8141a703          	lw	a4,-2028(gp) # 200018bc <SystemCoreClock>
     2b4:	044aa7b7          	lui	a5,0x44aa
     2b8:	20078793          	addi	a5,a5,512 # 44aa200 <_data_lma+0x449e61c>
     2bc:	00f70963          	beq	a4,a5,2ce <USBFS_RCC_Init+0x3c>
     2c0:	02dc77b7          	lui	a5,0x2dc7
     2c4:	c0078793          	addi	a5,a5,-1024 # 2dc6c00 <_data_lma+0x2dbb01c>
     2c8:	00f71563          	bne	a4,a5,2d2 <USBFS_RCC_Init+0x40>
     2cc:	4505                	li	a0,1
     2ce:	1bb060ef          	jal	ra,6c88 <RCC_USBCLKConfig>
     2d2:	4585                	li	a1,1
     2d4:	6505                	lui	a0,0x1
     2d6:	2ad060ef          	jal	ra,6d82 <RCC_AHBPeriphClockCmd>
     2da:	bd6d                	j	194 <__riscv_restore_0>

000002dc <USBFS_Device_Endp_Init>:
     2dc:	40023737          	lui	a4,0x40023
     2e0:	fc000793          	li	a5,-64
     2e4:	40f70623          	sb	a5,1036(a4) # 4002340c <_eusrstack+0x2001e40c>
     2e8:	200037b7          	lui	a5,0x20003
     2ec:	8ec78793          	addi	a5,a5,-1812 # 200028ec <USBFS_EP0_Buf>
     2f0:	07c2                	slli	a5,a5,0x10
     2f2:	83c1                	srli	a5,a5,0x10
     2f4:	40f71823          	sh	a5,1040(a4)
     2f8:	200037b7          	lui	a5,0x20003
     2fc:	86c78793          	addi	a5,a5,-1940 # 2000286c <USBFS_EP1_Buf>
     300:	a0f1a423          	sw	a5,-1528(gp) # 20001ab0 <pEP1_RAM_Addr>
     304:	07c2                	slli	a5,a5,0x10
     306:	83c1                	srli	a5,a5,0x10
     308:	40f71a23          	sh	a5,1044(a4)
     30c:	4789                	li	a5,2
     30e:	42f70923          	sb	a5,1074(a4)
     312:	42f70b23          	sb	a5,1078(a4)
     316:	89018793          	addi	a5,gp,-1904 # 20001938 <USBFS_Endp_Busy>
     31a:	000780a3          	sb	zero,1(a5)
     31e:	8082                	ret

00000320 <USBFS_Device_Init>:
     320:	e51ff2ef          	jal	t0,170 <__riscv_save_0>
     324:	400247b7          	lui	a5,0x40024
     328:	80078793          	addi	a5,a5,-2048 # 40023800 <_eusrstack+0x2001e800>
     32c:	4398                	lw	a4,0(a5)
     32e:	e9ad                	bnez	a1,3a0 <USBFS_Device_Init+0x80>
     330:	00876713          	ori	a4,a4,8
     334:	c398                	sw	a4,0(a5)
     336:	40023437          	lui	s0,0x40023
     33a:	4799                	li	a5,6
     33c:	40f40023          	sb	a5,1024(s0) # 40023400 <_eusrstack+0x2001e400>
     340:	c135                	beqz	a0,3a4 <USBFS_Device_Init+0x84>
     342:	4529                	li	a0,10
     344:	6f1040ef          	jal	ra,5234 <Delay_Us>
     348:	479d                	li	a5,7
     34a:	40040023          	sb	zero,1024(s0)
     34e:	40f40123          	sb	a5,1026(s0)
     352:	02900793          	li	a5,41
     356:	40f40023          	sb	a5,1024(s0)
     35a:	3749                	jal	2dc <USBFS_Device_Endp_Init>
     35c:	f8100793          	li	a5,-127
     360:	40f400a3          	sb	a5,1025(s0)
     364:	04000693          	li	a3,64
     368:	4661                	li	a2,24
     36a:	06418593          	addi	a1,gp,100 # 2000210c <ns_usb_send_buf>
     36e:	73418513          	addi	a0,gp,1844 # 200027dc <ns_usb_send_rb>
     372:	7fc040ef          	jal	ra,4b6e <ring_buffer_init>
     376:	200025b7          	lui	a1,0x20002
     37a:	04000693          	li	a3,64
     37e:	4661                	li	a2,24
     380:	acc58593          	addi	a1,a1,-1332 # 20001acc <ns_usb_recv_buf>
     384:	6a418513          	addi	a0,gp,1700 # 2000274c <ns_usb_recv_rb>
     388:	7e6040ef          	jal	ra,4b6e <ring_buffer_init>
     38c:	e000e7b7          	lui	a5,0xe000e
     390:	4741                	li	a4,16
     392:	42e78da3          	sb	a4,1083(a5) # e000e43b <_eusrstack+0xc000943b>
     396:	08000737          	lui	a4,0x8000
     39a:	10e7a223          	sw	a4,260(a5)
     39e:	bbdd                	j	194 <__riscv_restore_0>
     3a0:	9b5d                	andi	a4,a4,-9
     3a2:	bf49                	j	334 <USBFS_Device_Init+0x14>
     3a4:	4529                	li	a0,10
     3a6:	68f040ef          	jal	ra,5234 <Delay_Us>
     3aa:	e000e7b7          	lui	a5,0xe000e
     3ae:	40040023          	sb	zero,1024(s0)
     3b2:	43b8                	lw	a4,64(a5)
     3b4:	46c1                	li	a3,16
     3b6:	c3b4                	sw	a3,64(a5)
     3b8:	08000637          	lui	a2,0x8000
     3bc:	18078693          	addi	a3,a5,384 # e000e180 <_eusrstack+0xc0009180>
     3c0:	c2d0                	sw	a2,4(a3)
     3c2:	c3b8                	sw	a4,64(a5)
     3c4:	bfe9                	j	39e <USBFS_Device_Init+0x7e>

000003c6 <USBFS_IRQHandler>:
     3c6:	1101                	addi	sp,sp,-32
     3c8:	ce22                	sw	s0,28(sp)
     3ca:	cc26                	sw	s1,24(sp)
     3cc:	ca4a                	sw	s2,20(sp)
     3ce:	c84e                	sw	s3,16(sp)
     3d0:	c652                	sw	s4,12(sp)
     3d2:	c456                	sw	s5,8(sp)
     3d4:	40023437          	lui	s0,0x40023
     3d8:	40644703          	lbu	a4,1030(s0) # 40023406 <_eusrstack+0x2001e406>
     3dc:	40744783          	lbu	a5,1031(s0)
     3e0:	0ff77693          	zext.b	a3,a4
     3e4:	8b09                	andi	a4,a4,2
     3e6:	5e070b63          	beqz	a4,9dc <USBFS_IRQHandler+0x616>
     3ea:	0ff7f793          	zext.b	a5,a5
     3ee:	0307f713          	andi	a4,a5,48
     3f2:	02000593          	li	a1,32
     3f6:	04b70363          	beq	a4,a1,43c <USBFS_IRQHandler+0x76>
     3fa:	03000693          	li	a3,48
     3fe:	18d70463          	beq	a4,a3,586 <USBFS_IRQHandler+0x1c0>
     402:	e729                	bnez	a4,44c <USBFS_IRQHandler+0x86>
     404:	03f7f713          	andi	a4,a5,63
     408:	12070363          	beqz	a4,52e <USBFS_IRQHandler+0x168>
     40c:	4685                	li	a3,1
     40e:	02d71f63          	bne	a4,a3,44c <USBFS_IRQHandler+0x86>
     412:	0407f793          	andi	a5,a5,64
     416:	cb9d                	beqz	a5,44c <USBFS_IRQHandler+0x86>
     418:	43644783          	lbu	a5,1078(s0)
     41c:	4681                	li	a3,0
     41e:	0807c793          	xori	a5,a5,128
     422:	42f40b23          	sb	a5,1078(s0)
     426:	40845603          	lhu	a2,1032(s0)
     42a:	a081a583          	lw	a1,-1528(gp) # 20001ab0 <pEP1_RAM_Addr>
     42e:	0ff67613          	zext.b	a2,a2
     432:	6a418513          	addi	a0,gp,1700 # 2000274c <ns_usb_recv_rb>
     436:	77e040ef          	jal	ra,4bb4 <ring_buffer_push>
     43a:	a809                	j	44c <USBFS_IRQHandler+0x86>
     43c:	03f7f793          	andi	a5,a5,63
     440:	02e78463          	beq	a5,a4,468 <USBFS_IRQHandler+0xa2>
     444:	02100713          	li	a4,33
     448:	0ce78063          	beq	a5,a4,508 <USBFS_IRQHandler+0x142>
     44c:	400237b7          	lui	a5,0x40023
     450:	4709                	li	a4,2
     452:	40e78323          	sb	a4,1030(a5) # 40023406 <_eusrstack+0x2001e406>
     456:	4472                	lw	s0,28(sp)
     458:	44e2                	lw	s1,24(sp)
     45a:	4952                	lw	s2,20(sp)
     45c:	49c2                	lw	s3,16(sp)
     45e:	4a32                	lw	s4,12(sp)
     460:	4aa2                	lw	s5,8(sp)
     462:	6105                	addi	sp,sp,32
     464:	30200073          	mret
     468:	89e1d783          	lhu	a5,-1890(gp) # 20001946 <USBFS_SetupReqLen>
     46c:	e799                	bnez	a5,47a <USBFS_IRQHandler+0xb4>
     46e:	43244783          	lbu	a5,1074(s0)
     472:	0f37f793          	andi	a5,a5,243
     476:	42f40923          	sb	a5,1074(s0)
     47a:	8a41c783          	lbu	a5,-1884(gp) # 2000194c <USBFS_SetupReqType>
     47e:	0607f793          	andi	a5,a5,96
     482:	f7e9                	bnez	a5,44c <USBFS_IRQHandler+0x86>
     484:	8a51c783          	lbu	a5,-1883(gp) # 2000194d <USBFS_SetupReqCode>
     488:	4695                	li	a3,5
     48a:	0ff7f713          	zext.b	a4,a5
     48e:	06d78163          	beq	a5,a3,4f0 <USBFS_IRQHandler+0x12a>
     492:	4799                	li	a5,6
     494:	faf71ce3          	bne	a4,a5,44c <USBFS_IRQHandler+0x86>
     498:	89e1d703          	lhu	a4,-1890(gp) # 20001946 <USBFS_SetupReqLen>
     49c:	03f00793          	li	a5,63
     4a0:	04000413          	li	s0,64
     4a4:	00e7e663          	bltu	a5,a4,4b0 <USBFS_IRQHandler+0xea>
     4a8:	89e1d403          	lhu	s0,-1890(gp) # 20001946 <USBFS_SetupReqLen>
     4ac:	0442                	slli	s0,s0,0x10
     4ae:	8041                	srli	s0,s0,0x10
     4b0:	8a81a903          	lw	s2,-1880(gp) # 20001950 <pUSBFS_Descr>
     4b4:	20003537          	lui	a0,0x20003
     4b8:	8622                	mv	a2,s0
     4ba:	85ca                	mv	a1,s2
     4bc:	8ec50513          	addi	a0,a0,-1812 # 200028ec <USBFS_EP0_Buf>
     4c0:	31c5                	jal	1a0 <memcpy>
     4c2:	89e1d783          	lhu	a5,-1890(gp) # 20001946 <USBFS_SetupReqLen>
     4c6:	9922                	add	s2,s2,s0
     4c8:	8b21a423          	sw	s2,-1880(gp) # 20001950 <pUSBFS_Descr>
     4cc:	8f81                	sub	a5,a5,s0
     4ce:	07c2                	slli	a5,a5,0x10
     4d0:	83c1                	srli	a5,a5,0x10
     4d2:	88f19f23          	sh	a5,-1890(gp) # 20001946 <USBFS_SetupReqLen>
     4d6:	0ff47413          	zext.b	s0,s0
     4da:	400237b7          	lui	a5,0x40023
     4de:	42878823          	sb	s0,1072(a5) # 40023430 <_eusrstack+0x2001e430>
     4e2:	4327c703          	lbu	a4,1074(a5)
     4e6:	04074713          	xori	a4,a4,64
     4ea:	42e78923          	sb	a4,1074(a5)
     4ee:	bfb9                	j	44c <USBFS_IRQHandler+0x86>
     4f0:	400236b7          	lui	a3,0x40023
     4f4:	4036c703          	lbu	a4,1027(a3) # 40023403 <_eusrstack+0x2001e403>
     4f8:	89c1c783          	lbu	a5,-1892(gp) # 20001944 <USBFS_DevAddr>
     4fc:	08077713          	andi	a4,a4,128
     500:	8fd9                	or	a5,a5,a4
     502:	40f681a3          	sb	a5,1027(a3)
     506:	b799                	j	44c <USBFS_IRQHandler+0x86>
     508:	43644783          	lbu	a5,1078(s0)
     50c:	0fc7f793          	andi	a5,a5,252
     510:	0027e793          	ori	a5,a5,2
     514:	42f40b23          	sb	a5,1078(s0)
     518:	43644783          	lbu	a5,1078(s0)
     51c:	0407c793          	xori	a5,a5,64
     520:	42f40b23          	sb	a5,1078(s0)
     524:	89018793          	addi	a5,gp,-1904 # 20001938 <USBFS_Endp_Busy>
     528:	000780a3          	sb	zero,1(a5)
     52c:	b705                	j	44c <USBFS_IRQHandler+0x86>
     52e:	0407f793          	andi	a5,a5,64
     532:	f0078de3          	beqz	a5,44c <USBFS_IRQHandler+0x86>
     536:	8a41c783          	lbu	a5,-1884(gp) # 2000194c <USBFS_SetupReqType>
     53a:	0607f793          	andi	a5,a5,96
     53e:	f00787e3          	beqz	a5,44c <USBFS_IRQHandler+0x86>
     542:	8a41c783          	lbu	a5,-1884(gp) # 2000194c <USBFS_SetupReqType>
     546:	0607f793          	andi	a5,a5,96
     54a:	f0b791e3          	bne	a5,a1,44c <USBFS_IRQHandler+0x86>
     54e:	8a51c703          	lbu	a4,-1883(gp) # 2000194d <USBFS_SetupReqCode>
     552:	47a5                	li	a5,9
     554:	eef71ce3          	bne	a4,a5,44c <USBFS_IRQHandler+0x86>
     558:	200035b7          	lui	a1,0x20003
     55c:	20004537          	lui	a0,0x20004
     560:	04000613          	li	a2,64
     564:	8ec58593          	addi	a1,a1,-1812 # 200028ec <USBFS_EP0_Buf>
     568:	27c50513          	addi	a0,a0,636 # 2000427c <HID_Report_Buffer>
     56c:	3915                	jal	1a0 <memcpy>
     56e:	4705                	li	a4,1
     570:	9ee18e23          	sb	a4,-1540(gp) # 20001aa4 <HID_Set_Report_Flag>
     574:	43244783          	lbu	a5,1074(s0)
     578:	0fc7f793          	andi	a5,a5,252
     57c:	0027e793          	ori	a5,a5,2
     580:	42f40923          	sb	a5,1074(s0)
     584:	b5e1                	j	44c <USBFS_IRQHandler+0x86>
     586:	fca00793          	li	a5,-54
     58a:	20003537          	lui	a0,0x20003
     58e:	42f40923          	sb	a5,1074(s0)
     592:	8ec50713          	addi	a4,a0,-1812 # 200028ec <USBFS_EP0_Buf>
     596:	00074783          	lbu	a5,0(a4) # 8000000 <_data_lma+0x7ff441c>
     59a:	8af18223          	sb	a5,-1884(gp) # 2000194c <USBFS_SetupReqType>
     59e:	00174783          	lbu	a5,1(a4)
     5a2:	00275683          	lhu	a3,2(a4)
     5a6:	8af182a3          	sb	a5,-1883(gp) # 2000194d <USBFS_SetupReqCode>
     5aa:	00675783          	lhu	a5,6(a4)
     5ae:	88f19f23          	sh	a5,-1890(gp) # 20001946 <USBFS_SetupReqLen>
     5b2:	8ad19123          	sh	a3,-1886(gp) # 2000194a <USBFS_SetupReqValue>
     5b6:	00475683          	lhu	a3,4(a4)
     5ba:	8ad19023          	sh	a3,-1888(gp) # 20001948 <USBFS_SetupReqIndex>
     5be:	8a41c903          	lbu	s2,-1884(gp) # 2000194c <USBFS_SetupReqType>
     5c2:	8ec50693          	addi	a3,a0,-1812
     5c6:	06097913          	andi	s2,s2,96
     5ca:	0c090963          	beqz	s2,69c <USBFS_IRQHandler+0x2d6>
     5ce:	8a41c783          	lbu	a5,-1884(gp) # 2000194c <USBFS_SetupReqType>
     5d2:	0607f793          	andi	a5,a5,96
     5d6:	02b79e63          	bne	a5,a1,612 <USBFS_IRQHandler+0x24c>
     5da:	8a51c783          	lbu	a5,-1883(gp) # 2000194d <USBFS_SetupReqCode>
     5de:	4629                	li	a2,10
     5e0:	17fd                	addi	a5,a5,-1
     5e2:	0ff7f793          	zext.b	a5,a5
     5e6:	18f66363          	bltu	a2,a5,76c <USBFS_IRQHandler+0x3a6>
     5ea:	662d                	lui	a2,0xb
     5ec:	078a                	slli	a5,a5,0x2
     5ee:	6c060613          	addi	a2,a2,1728 # b6c0 <_read+0x26>
     5f2:	97b2                	add	a5,a5,a2
     5f4:	439c                	lw	a5,0(a5)
     5f6:	8782                	jr	a5
     5f8:	8a01d783          	lhu	a5,-1888(gp) # 20001948 <USBFS_SetupReqIndex>
     5fc:	16079863          	bnez	a5,76c <USBFS_IRQHandler+0x3a6>
     600:	200045b7          	lui	a1,0x20004
     604:	04000613          	li	a2,64
     608:	27c58593          	addi	a1,a1,636 # 2000427c <HID_Report_Buffer>
     60c:	8ec50513          	addi	a0,a0,-1812
     610:	3e41                	jal	1a0 <memcpy>
     612:	8a41c783          	lbu	a5,-1884(gp) # 2000194c <USBFS_SetupReqType>
     616:	07e2                	slli	a5,a5,0x18
     618:	87e1                	srai	a5,a5,0x18
     61a:	3807de63          	bgez	a5,9b6 <USBFS_IRQHandler+0x5f0>
     61e:	89e1d703          	lhu	a4,-1890(gp) # 20001946 <USBFS_SetupReqLen>
     622:	04000793          	li	a5,64
     626:	00e7e663          	bltu	a5,a4,632 <USBFS_IRQHandler+0x26c>
     62a:	89e1d783          	lhu	a5,-1890(gp) # 20001946 <USBFS_SetupReqLen>
     62e:	07c2                	slli	a5,a5,0x10
     630:	83c1                	srli	a5,a5,0x10
     632:	89e1d703          	lhu	a4,-1890(gp) # 20001946 <USBFS_SetupReqLen>
     636:	8f1d                	sub	a4,a4,a5
     638:	0742                	slli	a4,a4,0x10
     63a:	8341                	srli	a4,a4,0x10
     63c:	88e19f23          	sh	a4,-1890(gp) # 20001946 <USBFS_SetupReqLen>
     640:	0ff7f793          	zext.b	a5,a5
     644:	40023737          	lui	a4,0x40023
     648:	42f70823          	sb	a5,1072(a4) # 40023430 <_eusrstack+0x2001e430>
     64c:	43274783          	lbu	a5,1074(a4)
     650:	0fc7f793          	andi	a5,a5,252
     654:	42f70923          	sb	a5,1074(a4)
     658:	bbd5                	j	44c <USBFS_IRQHandler+0x86>
     65a:	8a01d783          	lhu	a5,-1888(gp) # 20001948 <USBFS_SetupReqIndex>
     65e:	10079763          	bnez	a5,76c <USBFS_IRQHandler+0x3a6>
     662:	0036c703          	lbu	a4,3(a3)
     666:	88e18ca3          	sb	a4,-1895(gp) # 20001941 <USBFS_HidIdle>
     66a:	b765                	j	612 <USBFS_IRQHandler+0x24c>
     66c:	8a01d783          	lhu	a5,-1888(gp) # 20001948 <USBFS_SetupReqIndex>
     670:	0e079e63          	bnez	a5,76c <USBFS_IRQHandler+0x3a6>
     674:	0026c703          	lbu	a4,2(a3)
     678:	88e18c23          	sb	a4,-1896(gp) # 20001940 <USBFS_HidProtocol>
     67c:	bf59                	j	612 <USBFS_IRQHandler+0x24c>
     67e:	8a01d783          	lhu	a5,-1888(gp) # 20001948 <USBFS_SetupReqIndex>
     682:	0e079563          	bnez	a5,76c <USBFS_IRQHandler+0x3a6>
     686:	8991c783          	lbu	a5,-1895(gp) # 20001941 <USBFS_HidIdle>
     68a:	00f68023          	sb	a5,0(a3)
     68e:	b751                	j	612 <USBFS_IRQHandler+0x24c>
     690:	8a01d783          	lhu	a5,-1888(gp) # 20001948 <USBFS_SetupReqIndex>
     694:	efe1                	bnez	a5,76c <USBFS_IRQHandler+0x3a6>
     696:	8981c783          	lbu	a5,-1896(gp) # 20001940 <USBFS_HidProtocol>
     69a:	bfc5                	j	68a <USBFS_IRQHandler+0x2c4>
     69c:	8a51c583          	lbu	a1,-1883(gp) # 2000194d <USBFS_SetupReqCode>
     6a0:	482d                	li	a6,11
     6a2:	0ff5f613          	zext.b	a2,a1
     6a6:	0cb86363          	bltu	a6,a1,76c <USBFS_IRQHandler+0x3a6>
     6aa:	65ad                	lui	a1,0xb
     6ac:	060a                	slli	a2,a2,0x2
     6ae:	6ec58593          	addi	a1,a1,1772 # b6ec <_read+0x52>
     6b2:	962e                	add	a2,a2,a1
     6b4:	4210                	lw	a2,0(a2)
     6b6:	8602                	jr	a2
     6b8:	8a21d683          	lhu	a3,-1886(gp) # 2000194a <USBFS_SetupReqValue>
     6bc:	460d                	li	a2,3
     6be:	82a1                	srli	a3,a3,0x8
     6c0:	0cc68663          	beq	a3,a2,78c <USBFS_IRQHandler+0x3c6>
     6c4:	00d66c63          	bltu	a2,a3,6dc <USBFS_IRQHandler+0x316>
     6c8:	4785                	li	a5,1
     6ca:	02f68c63          	beq	a3,a5,702 <USBFS_IRQHandler+0x33c>
     6ce:	4789                	li	a5,2
     6d0:	04f68163          	beq	a3,a5,712 <USBFS_IRQHandler+0x34c>
     6d4:	4781                	li	a5,0
     6d6:	0ff00913          	li	s2,255
     6da:	a881                	j	72a <USBFS_IRQHandler+0x364>
     6dc:	02100793          	li	a5,33
     6e0:	08f68b63          	beq	a3,a5,776 <USBFS_IRQHandler+0x3b0>
     6e4:	02200793          	li	a5,34
     6e8:	fef696e3          	bne	a3,a5,6d4 <USBFS_IRQHandler+0x30e>
     6ec:	8a01d783          	lhu	a5,-1888(gp) # 20001948 <USBFS_SetupReqIndex>
     6f0:	f3f5                	bnez	a5,6d4 <USBFS_IRQHandler+0x30e>
     6f2:	67b1                	lui	a5,0xc
     6f4:	81478793          	addi	a5,a5,-2028 # b814 <MyHIDReportDesc>
     6f8:	8af1a423          	sw	a5,-1880(gp) # 20001950 <pUSBFS_Descr>
     6fc:	0df00793          	li	a5,223
     700:	a02d                	j	72a <USBFS_IRQHandler+0x364>
     702:	67b1                	lui	a5,0xc
     704:	8f478793          	addi	a5,a5,-1804 # b8f4 <MyDevDescr>
     708:	8af1a423          	sw	a5,-1880(gp) # 20001950 <pUSBFS_Descr>
     70c:	0007c783          	lbu	a5,0(a5)
     710:	a829                	j	72a <USBFS_IRQHandler+0x364>
     712:	200027b7          	lui	a5,0x20002
     716:	80878793          	addi	a5,a5,-2040 # 20001808 <MyCfgDescr>
     71a:	8af1a423          	sw	a5,-1880(gp) # 20001950 <pUSBFS_Descr>
     71e:	0027c703          	lbu	a4,2(a5)
     722:	0037c783          	lbu	a5,3(a5)
     726:	07a2                	slli	a5,a5,0x8
     728:	8fd9                	or	a5,a5,a4
     72a:	89e1d703          	lhu	a4,-1890(gp) # 20001946 <USBFS_SetupReqLen>
     72e:	00e7f463          	bgeu	a5,a4,736 <USBFS_IRQHandler+0x370>
     732:	88f19f23          	sh	a5,-1890(gp) # 20001946 <USBFS_SetupReqLen>
     736:	89e1d703          	lhu	a4,-1890(gp) # 20001946 <USBFS_SetupReqLen>
     73a:	03f00793          	li	a5,63
     73e:	04000a13          	li	s4,64
     742:	00e7e763          	bltu	a5,a4,750 <USBFS_IRQHandler+0x38a>
     746:	89e1da03          	lhu	s4,-1890(gp) # 20001946 <USBFS_SetupReqLen>
     74a:	0a42                	slli	s4,s4,0x10
     74c:	010a5a13          	srli	s4,s4,0x10
     750:	8a81aa83          	lw	s5,-1880(gp) # 20001950 <pUSBFS_Descr>
     754:	8652                	mv	a2,s4
     756:	8ec50513          	addi	a0,a0,-1812
     75a:	85d6                	mv	a1,s5
     75c:	3491                	jal	1a0 <memcpy>
     75e:	9ad2                	add	s5,s5,s4
     760:	8b51a423          	sw	s5,-1880(gp) # 20001950 <pUSBFS_Descr>
     764:	0ff00793          	li	a5,255
     768:	eaf915e3          	bne	s2,a5,612 <USBFS_IRQHandler+0x24c>
     76c:	400237b7          	lui	a5,0x40023
     770:	fcf00713          	li	a4,-49
     774:	bb9d                	j	4ea <USBFS_IRQHandler+0x124>
     776:	8a01d783          	lhu	a5,-1888(gp) # 20001948 <USBFS_SetupReqIndex>
     77a:	ffa9                	bnez	a5,6d4 <USBFS_IRQHandler+0x30e>
     77c:	200027b7          	lui	a5,0x20002
     780:	81a78793          	addi	a5,a5,-2022 # 2000181a <MyCfgDescr+0x12>
     784:	8af1a423          	sw	a5,-1880(gp) # 20001950 <pUSBFS_Descr>
     788:	47a5                	li	a5,9
     78a:	b745                	j	72a <USBFS_IRQHandler+0x364>
     78c:	8a21d783          	lhu	a5,-1886(gp) # 2000194a <USBFS_SetupReqValue>
     790:	4709                	li	a4,2
     792:	0ff7f793          	zext.b	a5,a5
     796:	02e78763          	beq	a5,a4,7c4 <USBFS_IRQHandler+0x3fe>
     79a:	00f76b63          	bltu	a4,a5,7b0 <USBFS_IRQHandler+0x3ea>
     79e:	ef99                	bnez	a5,7bc <USBFS_IRQHandler+0x3f6>
     7a0:	88018793          	addi	a5,gp,-1920 # 20001928 <MyLangDescr>
     7a4:	8af1a423          	sw	a5,-1880(gp) # 20001950 <pUSBFS_Descr>
     7a8:	4901                	li	s2,0
     7aa:	0007c783          	lbu	a5,0(a5)
     7ae:	bfb5                	j	72a <USBFS_IRQHandler+0x364>
     7b0:	f2d792e3          	bne	a5,a3,6d4 <USBFS_IRQHandler+0x30e>
     7b4:	67ad                	lui	a5,0xb
     7b6:	7c478793          	addi	a5,a5,1988 # b7c4 <MySerNumInfo>
     7ba:	b7b9                	j	708 <USBFS_IRQHandler+0x342>
     7bc:	67b1                	lui	a5,0xc
     7be:	80878793          	addi	a5,a5,-2040 # b808 <MyManuInfo>
     7c2:	b799                	j	708 <USBFS_IRQHandler+0x342>
     7c4:	67ad                	lui	a5,0xb
     7c6:	7dc78793          	addi	a5,a5,2012 # b7dc <MyProdInfo>
     7ca:	bf3d                	j	708 <USBFS_IRQHandler+0x342>
     7cc:	8a21d783          	lhu	a5,-1886(gp) # 2000194a <USBFS_SetupReqValue>
     7d0:	0ff7f793          	zext.b	a5,a5
     7d4:	88f18e23          	sb	a5,-1892(gp) # 20001944 <USBFS_DevAddr>
     7d8:	bd2d                	j	612 <USBFS_IRQHandler+0x24c>
     7da:	89d1c783          	lbu	a5,-1891(gp) # 20001945 <USBFS_DevConfig>
     7de:	00f68023          	sb	a5,0(a3)
     7e2:	89e1d703          	lhu	a4,-1890(gp) # 20001946 <USBFS_SetupReqLen>
     7e6:	4785                	li	a5,1
     7e8:	e2e7f5e3          	bgeu	a5,a4,612 <USBFS_IRQHandler+0x24c>
     7ec:	88f19f23          	sh	a5,-1890(gp) # 20001946 <USBFS_SetupReqLen>
     7f0:	b50d                	j	612 <USBFS_IRQHandler+0x24c>
     7f2:	8a21d783          	lhu	a5,-1886(gp) # 2000194a <USBFS_SetupReqValue>
     7f6:	0ff7f793          	zext.b	a5,a5
     7fa:	88f18ea3          	sb	a5,-1891(gp) # 20001945 <USBFS_DevConfig>
     7fe:	4705                	li	a4,1
     800:	88e18d23          	sb	a4,-1894(gp) # 20001942 <USBFS_DevEnumStatus>
     804:	b539                	j	612 <USBFS_IRQHandler+0x24c>
     806:	8a41c683          	lbu	a3,-1884(gp) # 2000194c <USBFS_SetupReqType>
     80a:	8afd                	andi	a3,a3,31
     80c:	ee99                	bnez	a3,82a <USBFS_IRQHandler+0x464>
     80e:	8a21d783          	lhu	a5,-1886(gp) # 2000194a <USBFS_SetupReqValue>
     812:	4705                	li	a4,1
     814:	0ff7f793          	zext.b	a5,a5
     818:	dee79de3          	bne	a5,a4,612 <USBFS_IRQHandler+0x24c>
     81c:	89b1c783          	lbu	a5,-1893(gp) # 20001943 <USBFS_DevSleepStatus>
     820:	0fe7f793          	andi	a5,a5,254
     824:	88f18da3          	sb	a5,-1893(gp) # 20001943 <USBFS_DevSleepStatus>
     828:	b3ed                	j	612 <USBFS_IRQHandler+0x24c>
     82a:	8a41c683          	lbu	a3,-1884(gp) # 2000194c <USBFS_SetupReqType>
     82e:	4609                	li	a2,2
     830:	8afd                	andi	a3,a3,31
     832:	f2c69de3          	bne	a3,a2,76c <USBFS_IRQHandler+0x3a6>
     836:	8a21d783          	lhu	a5,-1886(gp) # 2000194a <USBFS_SetupReqValue>
     83a:	0ff7f793          	zext.b	a5,a5
     83e:	f79d                	bnez	a5,76c <USBFS_IRQHandler+0x3a6>
     840:	8a01d783          	lhu	a5,-1888(gp) # 20001948 <USBFS_SetupReqIndex>
     844:	4705                	li	a4,1
     846:	0ff7f793          	zext.b	a5,a5
     84a:	02e78163          	beq	a5,a4,86c <USBFS_IRQHandler+0x4a6>
     84e:	08200713          	li	a4,130
     852:	f0e79de3          	bne	a5,a4,76c <USBFS_IRQHandler+0x3a6>
     856:	40023737          	lui	a4,0x40023
     85a:	43a74783          	lbu	a5,1082(a4) # 4002343a <_eusrstack+0x2001e43a>
     85e:	0bc7f793          	andi	a5,a5,188
     862:	0027e793          	ori	a5,a5,2
     866:	42f70d23          	sb	a5,1082(a4)
     86a:	b365                	j	612 <USBFS_IRQHandler+0x24c>
     86c:	40023737          	lui	a4,0x40023
     870:	43674783          	lbu	a5,1078(a4) # 40023436 <_eusrstack+0x2001e436>
     874:	0737f793          	andi	a5,a5,115
     878:	42f70b23          	sb	a5,1078(a4)
     87c:	43674783          	lbu	a5,1078(a4)
     880:	0bc7f793          	andi	a5,a5,188
     884:	0027e793          	ori	a5,a5,2
     888:	42f70b23          	sb	a5,1078(a4)
     88c:	b359                	j	612 <USBFS_IRQHandler+0x24c>
     88e:	8a41c683          	lbu	a3,-1884(gp) # 2000194c <USBFS_SetupReqType>
     892:	8afd                	andi	a3,a3,31
     894:	e68d                	bnez	a3,8be <USBFS_IRQHandler+0x4f8>
     896:	8a21d783          	lhu	a5,-1886(gp) # 2000194a <USBFS_SetupReqValue>
     89a:	4705                	li	a4,1
     89c:	0ff7f793          	zext.b	a5,a5
     8a0:	ece796e3          	bne	a5,a4,76c <USBFS_IRQHandler+0x3a6>
     8a4:	200027b7          	lui	a5,0x20002
     8a8:	80f7c783          	lbu	a5,-2033(a5) # 2000180f <MyCfgDescr+0x7>
     8ac:	0207f793          	andi	a5,a5,32
     8b0:	ea078ee3          	beqz	a5,76c <USBFS_IRQHandler+0x3a6>
     8b4:	89b1c783          	lbu	a5,-1893(gp) # 20001943 <USBFS_DevSleepStatus>
     8b8:	0017e793          	ori	a5,a5,1
     8bc:	b7a5                	j	824 <USBFS_IRQHandler+0x45e>
     8be:	8a41c683          	lbu	a3,-1884(gp) # 2000194c <USBFS_SetupReqType>
     8c2:	4609                	li	a2,2
     8c4:	8afd                	andi	a3,a3,31
     8c6:	eac693e3          	bne	a3,a2,76c <USBFS_IRQHandler+0x3a6>
     8ca:	8a21d783          	lhu	a5,-1886(gp) # 2000194a <USBFS_SetupReqValue>
     8ce:	0ff7f793          	zext.b	a5,a5
     8d2:	e8079de3          	bnez	a5,76c <USBFS_IRQHandler+0x3a6>
     8d6:	8a01d783          	lhu	a5,-1888(gp) # 20001948 <USBFS_SetupReqIndex>
     8da:	08100713          	li	a4,129
     8de:	0ff7f793          	zext.b	a5,a5
     8e2:	00e78f63          	beq	a5,a4,900 <USBFS_IRQHandler+0x53a>
     8e6:	08200713          	li	a4,130
     8ea:	e8e791e3          	bne	a5,a4,76c <USBFS_IRQHandler+0x3a6>
     8ee:	40023737          	lui	a4,0x40023
     8f2:	43a74783          	lbu	a5,1082(a4) # 4002343a <_eusrstack+0x2001e43a>
     8f6:	0bc7f793          	andi	a5,a5,188
     8fa:	0037e793          	ori	a5,a5,3
     8fe:	b7a5                	j	866 <USBFS_IRQHandler+0x4a0>
     900:	40023737          	lui	a4,0x40023
     904:	43674783          	lbu	a5,1078(a4) # 40023436 <_eusrstack+0x2001e436>
     908:	0737f793          	andi	a5,a5,115
     90c:	00c7e793          	ori	a5,a5,12
     910:	42f70b23          	sb	a5,1078(a4)
     914:	43674783          	lbu	a5,1078(a4)
     918:	0bc7f793          	andi	a5,a5,188
     91c:	0037e793          	ori	a5,a5,3
     920:	b7a5                	j	888 <USBFS_IRQHandler+0x4c2>
     922:	00068023          	sb	zero,0(a3)
     926:	bd75                	j	7e2 <USBFS_IRQHandler+0x41c>
     928:	8a41c783          	lbu	a5,-1884(gp) # 2000194c <USBFS_SetupReqType>
     92c:	8e051623          	sh	zero,-1812(a0)
     930:	8bfd                	andi	a5,a5,31
     932:	eb99                	bnez	a5,948 <USBFS_IRQHandler+0x582>
     934:	89b1c783          	lbu	a5,-1893(gp) # 20001943 <USBFS_DevSleepStatus>
     938:	8b85                	andi	a5,a5,1
     93a:	c3bd                	beqz	a5,9a0 <USBFS_IRQHandler+0x5da>
     93c:	4789                	li	a5,2
     93e:	00f68023          	sb	a5,0(a3)
     942:	89e1d703          	lhu	a4,-1890(gp) # 20001946 <USBFS_SetupReqLen>
     946:	b54d                	j	7e8 <USBFS_IRQHandler+0x422>
     948:	8a41c783          	lbu	a5,-1884(gp) # 2000194c <USBFS_SetupReqType>
     94c:	4609                	li	a2,2
     94e:	8bfd                	andi	a5,a5,31
     950:	04c79c63          	bne	a5,a2,9a8 <USBFS_IRQHandler+0x5e2>
     954:	8a01d703          	lhu	a4,-1888(gp) # 20001948 <USBFS_SetupReqIndex>
     958:	08100613          	li	a2,129
     95c:	0ff77713          	zext.b	a4,a4
     960:	00c70d63          	beq	a4,a2,97a <USBFS_IRQHandler+0x5b4>
     964:	08200613          	li	a2,130
     968:	02c70563          	beq	a4,a2,992 <USBFS_IRQHandler+0x5cc>
     96c:	89e1d703          	lhu	a4,-1890(gp) # 20001946 <USBFS_SetupReqLen>
     970:	dee7fee3          	bgeu	a5,a4,76c <USBFS_IRQHandler+0x3a6>
     974:	88f19f23          	sh	a5,-1890(gp) # 20001946 <USBFS_SetupReqLen>
     978:	bbd5                	j	76c <USBFS_IRQHandler+0x3a6>
     97a:	40023737          	lui	a4,0x40023
     97e:	43674703          	lbu	a4,1078(a4) # 40023436 <_eusrstack+0x2001e436>
     982:	4631                	li	a2,12
     984:	8b31                	andi	a4,a4,12
     986:	fac71ee3          	bne	a4,a2,942 <USBFS_IRQHandler+0x57c>
     98a:	4705                	li	a4,1
     98c:	00e68023          	sb	a4,0(a3)
     990:	bf4d                	j	942 <USBFS_IRQHandler+0x57c>
     992:	40023737          	lui	a4,0x40023
     996:	43a74703          	lbu	a4,1082(a4) # 4002343a <_eusrstack+0x2001e43a>
     99a:	460d                	li	a2,3
     99c:	8b0d                	andi	a4,a4,3
     99e:	b7e5                	j	986 <USBFS_IRQHandler+0x5c0>
     9a0:	89e1d703          	lhu	a4,-1890(gp) # 20001946 <USBFS_SetupReqLen>
     9a4:	4789                	li	a5,2
     9a6:	b589                	j	7e8 <USBFS_IRQHandler+0x422>
     9a8:	89e1d783          	lhu	a5,-1890(gp) # 20001946 <USBFS_SetupReqLen>
     9ac:	dcf670e3          	bgeu	a2,a5,76c <USBFS_IRQHandler+0x3a6>
     9b0:	88c19f23          	sh	a2,-1890(gp) # 20001946 <USBFS_SetupReqLen>
     9b4:	bb65                	j	76c <USBFS_IRQHandler+0x3a6>
     9b6:	89e1d783          	lhu	a5,-1890(gp) # 20001946 <USBFS_SetupReqLen>
     9ba:	eb91                	bnez	a5,9ce <USBFS_IRQHandler+0x608>
     9bc:	400237b7          	lui	a5,0x40023
     9c0:	42078823          	sb	zero,1072(a5) # 40023430 <_eusrstack+0x2001e430>
     9c4:	4327c703          	lbu	a4,1074(a5)
     9c8:	0fc77713          	andi	a4,a4,252
     9cc:	be39                	j	4ea <USBFS_IRQHandler+0x124>
     9ce:	40023737          	lui	a4,0x40023
     9d2:	43274783          	lbu	a5,1074(a4) # 40023432 <_eusrstack+0x2001e432>
     9d6:	0f37f793          	andi	a5,a5,243
     9da:	b9ad                	j	654 <USBFS_IRQHandler+0x28e>
     9dc:	0016f793          	andi	a5,a3,1
     9e0:	c39d                	beqz	a5,a06 <__stack_size+0x6>
     9e2:	88018ea3          	sb	zero,-1891(gp) # 20001945 <USBFS_DevConfig>
     9e6:	88018e23          	sb	zero,-1892(gp) # 20001944 <USBFS_DevAddr>
     9ea:	88018da3          	sb	zero,-1893(gp) # 20001943 <USBFS_DevSleepStatus>
     9ee:	88018d23          	sb	zero,-1894(gp) # 20001942 <USBFS_DevEnumStatus>
     9f2:	400401a3          	sb	zero,1027(s0)
     9f6:	30dd                	jal	2dc <USBFS_Device_Endp_Init>
     9f8:	40644783          	lbu	a5,1030(s0)
     9fc:	0017e793          	ori	a5,a5,1
     a00:	40f40323          	sb	a5,1030(s0)
     a04:	bc89                	j	456 <USBFS_IRQHandler+0x90>
     a06:	0046f793          	andi	a5,a3,4
     a0a:	cb9d                	beqz	a5,a40 <__stack_size+0x40>
     a0c:	4791                	li	a5,4
     a0e:	40f40323          	sb	a5,1030(s0)
     a12:	4529                	li	a0,10
     a14:	021040ef          	jal	ra,5234 <Delay_Us>
     a18:	40544703          	lbu	a4,1029(s0)
     a1c:	8b11                	andi	a4,a4,4
     a1e:	cb11                	beqz	a4,a32 <__stack_size+0x32>
     a20:	89b1c703          	lbu	a4,-1893(gp) # 20001943 <USBFS_DevSleepStatus>
     a24:	00276713          	ori	a4,a4,2
     a28:	88e18da3          	sb	a4,-1893(gp) # 20001943 <USBFS_DevSleepStatus>
     a2c:	89b1c783          	lbu	a5,-1893(gp) # 20001943 <USBFS_DevSleepStatus>
     a30:	b41d                	j	456 <USBFS_IRQHandler+0x90>
     a32:	89b1c703          	lbu	a4,-1893(gp) # 20001943 <USBFS_DevSleepStatus>
     a36:	0fd77713          	andi	a4,a4,253
     a3a:	88e18da3          	sb	a4,-1893(gp) # 20001943 <USBFS_DevSleepStatus>
     a3e:	bc21                	j	456 <USBFS_IRQHandler+0x90>
     a40:	40d40323          	sb	a3,1030(s0)
     a44:	bc09                	j	456 <USBFS_IRQHandler+0x90>

00000a46 <conf_read>:
     a46:	f2aff2ef          	jal	t0,170 <__riscv_save_0>
     a4a:	01000737          	lui	a4,0x1000
     a4e:	87aa                	mv	a5,a0
     a50:	f0070713          	addi	a4,a4,-256 # ffff00 <_data_lma+0xff431c>
     a54:	8f7d                	and	a4,a4,a5
     a56:	66a1                	lui	a3,0x8
     a58:	852e                	mv	a0,a1
     a5a:	02d70363          	beq	a4,a3,a80 <conf_read+0x3a>
     a5e:	66bd                	lui	a3,0xf
     a60:	02d70763          	beq	a4,a3,a8e <conf_read+0x48>
     a64:	6699                	lui	a3,0x6
     a66:	00d71b63          	bne	a4,a3,a7c <conf_read+0x36>
     a6a:	200035b7          	lui	a1,0x20003
     a6e:	0ff7f793          	zext.b	a5,a5
     a72:	9f058593          	addi	a1,a1,-1552 # 200029f0 <factory_configuration>
     a76:	95be                	add	a1,a1,a5
     a78:	f28ff0ef          	jal	ra,1a0 <memcpy>
     a7c:	f18ff06f          	j	194 <__riscv_restore_0>
     a80:	200035b7          	lui	a1,0x20003
     a84:	0ff7f793          	zext.b	a5,a5
     a88:	9a858593          	addi	a1,a1,-1624 # 200029a8 <user_calibration>
     a8c:	b7ed                	j	a76 <conf_read+0x30>
     a8e:	200035b7          	lui	a1,0x20003
     a92:	0ff7f793          	zext.b	a5,a5
     a96:	92c58593          	addi	a1,a1,-1748 # 2000292c <user_config>
     a9a:	bff1                	j	a76 <conf_read+0x30>

00000a9c <custom_conf_read>:
     a9c:	200035b7          	lui	a1,0x20003
     aa0:	07c00613          	li	a2,124
     aa4:	92c58593          	addi	a1,a1,-1748 # 2000292c <user_config>
     aa8:	4505                	li	a0,1
     aaa:	abdd                	j	10a0 <flash_read>

00000aac <custom_conf_write>:
     aac:	200035b7          	lui	a1,0x20003
     ab0:	07c00613          	li	a2,124
     ab4:	92c58593          	addi	a1,a1,-1748 # 2000292c <user_config>
     ab8:	4505                	li	a0,1
     aba:	ab59                	j	1050 <flash_write>

00000abc <pack_fac_conf>:
     abc:	eb4ff2ef          	jal	t0,170 <__riscv_save_0>
     ac0:	8ac1a403          	lw	s0,-1876(gp) # 20001954 <fac>
     ac4:	c025                	beqz	s0,b24 <pack_fac_conf+0x68>
     ac6:	08000613          	li	a2,128
     aca:	55fd                	li	a1,-1
     acc:	8522                	mv	a0,s0
     ace:	200034b7          	lui	s1,0x20003
     ad2:	9f048493          	addi	s1,s1,-1552 # 200029f0 <factory_configuration>
     ad6:	ee0ff0ef          	jal	ra,1b6 <memset>
     ada:	4661                	li	a2,24
     adc:	02048593          	addi	a1,s1,32
     ae0:	00440513          	addi	a0,s0,4
     ae4:	ebcff0ef          	jal	ra,1a0 <memcpy>
     ae8:	4649                	li	a2,18
     aea:	03d48593          	addi	a1,s1,61
     aee:	01c40513          	addi	a0,s0,28
     af2:	eaeff0ef          	jal	ra,1a0 <memcpy>
     af6:	4635                	li	a2,13
     af8:	05048593          	addi	a1,s1,80
     afc:	02e40513          	addi	a0,s0,46
     b00:	ea0ff0ef          	jal	ra,1a0 <memcpy>
     b04:	4661                	li	a2,24
     b06:	08048593          	addi	a1,s1,128
     b0a:	03b40513          	addi	a0,s0,59
     b0e:	e92ff0ef          	jal	ra,1a0 <memcpy>
     b12:	4649                	li	a2,18
     b14:	09848593          	addi	a1,s1,152
     b18:	05340513          	addi	a0,s0,83
     b1c:	e84ff0ef          	jal	ra,1a0 <memcpy>
     b20:	00040023          	sb	zero,0(s0)
     b24:	e70ff06f          	j	194 <__riscv_restore_0>

00000b28 <fac_conf_write>:
     b28:	e48ff2ef          	jal	t0,170 <__riscv_save_0>
     b2c:	8ac1a503          	lw	a0,-1876(gp) # 20001954 <fac>
     b30:	3771                	jal	abc <pack_fac_conf>
     b32:	4509                	li	a0,2
     b34:	23ad                	jal	109e <raw_flash_write>
     b36:	e5eff06f          	j	194 <__riscv_restore_0>

00000b3a <conf_write>:
     b3a:	e1cff2ef          	jal	t0,156 <__riscv_save_4>
     b3e:	010007b7          	lui	a5,0x1000
     b42:	f0078793          	addi	a5,a5,-256 # ffff00 <_data_lma+0xff431c>
     b46:	8fe9                	and	a5,a5,a0
     b48:	6721                	lui	a4,0x8
     b4a:	842a                	mv	s0,a0
     b4c:	8932                	mv	s2,a2
     b4e:	02e78c63          	beq	a5,a4,b86 <conf_write+0x4c>
     b52:	673d                	lui	a4,0xf
     b54:	04e78a63          	beq	a5,a4,ba8 <conf_write+0x6e>
     b58:	6719                	lui	a4,0x6
     b5a:	06e79663          	bne	a5,a4,bc6 <conf_write+0x8c>
     b5e:	200037b7          	lui	a5,0x20003
     b62:	0ff57993          	zext.b	s3,a0
     b66:	9f078793          	addi	a5,a5,-1552 # 200029f0 <factory_configuration>
     b6a:	99be                	add	s3,s3,a5
     b6c:	854e                	mv	a0,s3
     b6e:	e32ff0ef          	jal	ra,1a0 <memcpy>
     b72:	3f5d                	jal	b28 <fac_conf_write>
     b74:	84aa                	mv	s1,a0
     b76:	864a                	mv	a2,s2
     b78:	85ce                	mv	a1,s3
     b7a:	8522                	mv	a0,s0
     b7c:	437040ef          	jal	ra,57b2 <uart_conf_write>
     b80:	8526                	mv	a0,s1
     b82:	e08ff06f          	j	18a <__riscv_restore_4>
     b86:	200034b7          	lui	s1,0x20003
     b8a:	9a848793          	addi	a5,s1,-1624 # 200029a8 <user_calibration>
     b8e:	0ff57993          	zext.b	s3,a0
     b92:	99be                	add	s3,s3,a5
     b94:	854e                	mv	a0,s3
     b96:	e0aff0ef          	jal	ra,1a0 <memcpy>
     b9a:	04800613          	li	a2,72
     b9e:	9a848593          	addi	a1,s1,-1624
     ba2:	4501                	li	a0,0
     ba4:	2175                	jal	1050 <flash_write>
     ba6:	b7f9                	j	b74 <conf_write+0x3a>
     ba8:	20003737          	lui	a4,0x20003
     bac:	0ff57793          	zext.b	a5,a0
     bb0:	92c70713          	addi	a4,a4,-1748 # 2000292c <user_config>
     bb4:	97ba                	add	a5,a5,a4
     bb6:	853e                	mv	a0,a5
     bb8:	de8ff0ef          	jal	ra,1a0 <memcpy>
     bbc:	85aa                	mv	a1,a0
     bbe:	864a                	mv	a2,s2
     bc0:	8522                	mv	a0,s0
     bc2:	3f1040ef          	jal	ra,57b2 <uart_conf_write>
     bc6:	4481                	li	s1,0
     bc8:	bf65                	j	b80 <conf_write+0x46>

00000bca <unpack_fac_conf>:
     bca:	d8cff2ef          	jal	t0,156 <__riscv_save_4>
     bce:	8ac1a403          	lw	s0,-1876(gp) # 20001954 <fac>
     bd2:	20040463          	beqz	s0,dda <unpack_fac_conf+0x210>
     bd6:	00044783          	lbu	a5,0(s0)
     bda:	01c40993          	addi	s3,s0,28
     bde:	05340913          	addi	s2,s0,83
     be2:	1a078163          	beqz	a5,d84 <unpack_fac_conf+0x1ba>
     be6:	fc400793          	li	a5,-60
     bea:	00f40ea3          	sb	a5,29(s0)
     bee:	04c00793          	li	a5,76
     bf2:	fcc00713          	li	a4,-52
     bf6:	00f40f23          	sb	a5,30(s0)
     bfa:	02f40223          	sb	a5,36(s0)
     bfe:	f8000793          	li	a5,-128
     c02:	00e40e23          	sb	a4,28(s0)
     c06:	02e40123          	sb	a4,34(s0)
     c0a:	02f400a3          	sb	a5,33(s0)
     c0e:	fc400713          	li	a4,-60
     c12:	47a1                	li	a5,8
     c14:	02e401a3          	sb	a4,35(s0)
     c18:	02f40023          	sb	a5,32(s0)
     c1c:	4625                	li	a2,9
     c1e:	85ce                	mv	a1,s3
     c20:	00040fa3          	sb	zero,31(s0)
     c24:	02540513          	addi	a0,s0,37
     c28:	d78ff0ef          	jal	ra,1a0 <memcpy>
     c2c:	03200793          	li	a5,50
     c30:	02f40723          	sb	a5,46(s0)
     c34:	02f40823          	sb	a5,48(s0)
     c38:	03000793          	li	a5,48
     c3c:	04f40123          	sb	a5,66(s0)
     c40:	06100793          	li	a5,97
     c44:	04f401a3          	sb	a5,67(s0)
     c48:	fae00793          	li	a5,-82
     c4c:	04f40223          	sb	a5,68(s0)
     c50:	f9000793          	li	a5,-112
     c54:	04f402a3          	sb	a5,69(s0)
     c58:	fd900793          	li	a5,-39
     c5c:	04f40323          	sb	a5,70(s0)
     c60:	fd400793          	li	a5,-44
     c64:	04f403a3          	sb	a5,71(s0)
     c68:	47d1                	li	a5,20
     c6a:	04f40423          	sb	a5,72(s0)
     c6e:	05400793          	li	a5,84
     c72:	04f404a3          	sb	a5,73(s0)
     c76:	04f40623          	sb	a5,76(s0)
     c7a:	fc700793          	li	a5,-57
     c7e:	04f406a3          	sb	a5,77(s0)
     c82:	07900793          	li	a5,121
     c86:	04f40723          	sb	a5,78(s0)
     c8a:	f9c00793          	li	a5,-100
     c8e:	03100713          	li	a4,49
     c92:	04f407a3          	sb	a5,79(s0)
     c96:	03300793          	li	a5,51
     c9a:	02e407a3          	sb	a4,47(s0)
     c9e:	04f40823          	sb	a5,80(s0)
     ca2:	04100713          	li	a4,65
     ca6:	03600793          	li	a5,54
     caa:	54fd                	li	s1,-1
     cac:	4a3d                	li	s4,15
     cae:	04e40523          	sb	a4,74(s0)
     cb2:	04f408a3          	sb	a5,81(s0)
     cb6:	4755                	li	a4,21
     cb8:	06300793          	li	a5,99
     cbc:	04e405a3          	sb	a4,75(s0)
     cc0:	04f40923          	sb	a5,82(s0)
     cc4:	029408a3          	sb	s1,49(s0)
     cc8:	02940923          	sb	s1,50(s0)
     ccc:	029409a3          	sb	s1,51(s0)
     cd0:	054400a3          	sb	s4,65(s0)
     cd4:	4649                	li	a2,18
     cd6:	04140593          	addi	a1,s0,65
     cda:	854a                	mv	a0,s2
     cdc:	cc4ff0ef          	jal	ra,1a0 <memcpy>
     ce0:	05b00793          	li	a5,91
     ce4:	00f40223          	sb	a5,4(s0)
     ce8:	f8b00793          	li	a5,-117
     cec:	00f40323          	sb	a5,6(s0)
     cf0:	f9600793          	li	a5,-106
     cf4:	00f40423          	sb	a5,8(s0)
     cf8:	4785                	li	a5,1
     cfa:	00f404a3          	sb	a5,9(s0)
     cfe:	04000793          	li	a5,64
     d02:	00f405a3          	sb	a5,11(s0)
     d06:	00f406a3          	sb	a5,13(s0)
     d0a:	00f407a3          	sb	a5,15(s0)
     d0e:	47f5                	li	a5,29
     d10:	00f40823          	sb	a5,16(s0)
     d14:	fbe00793          	li	a5,-66
     d18:	00f40923          	sb	a5,18(s0)
     d1c:	57b9                	li	a5,-18
     d1e:	00f40a23          	sb	a5,20(s0)
     d22:	03400793          	li	a5,52
     d26:	00f40ba3          	sb	a5,23(s0)
     d2a:	00f40ca3          	sb	a5,25(s0)
     d2e:	00f40da3          	sb	a5,27(s0)
     d32:	05000793          	li	a5,80
     d36:	02f40da3          	sb	a5,59(s0)
     d3a:	57f5                	li	a5,-3
     d3c:	03b00713          	li	a4,59
     d40:	02f40e23          	sb	a5,60(s0)
     d44:	fc600793          	li	a5,-58
     d48:	000402a3          	sb	zero,5(s0)
     d4c:	009403a3          	sb	s1,7(s0)
     d50:	00040523          	sb	zero,10(s0)
     d54:	00040623          	sb	zero,12(s0)
     d58:	00040723          	sb	zero,14(s0)
     d5c:	000408a3          	sb	zero,17(s0)
     d60:	009409a3          	sb	s1,19(s0)
     d64:	00940aa3          	sb	s1,21(s0)
     d68:	00e40b23          	sb	a4,22(s0)
     d6c:	00e40c23          	sb	a4,24(s0)
     d70:	00e40d23          	sb	a4,26(s0)
     d74:	02040ea3          	sb	zero,61(s0)
     d78:	02040f23          	sb	zero,62(s0)
     d7c:	02f40fa3          	sb	a5,63(s0)
     d80:	05440023          	sb	s4,64(s0)
     d84:	200034b7          	lui	s1,0x20003
     d88:	9f048493          	addi	s1,s1,-1552 # 200029f0 <factory_configuration>
     d8c:	4661                	li	a2,24
     d8e:	00440593          	addi	a1,s0,4
     d92:	02048513          	addi	a0,s1,32
     d96:	c0aff0ef          	jal	ra,1a0 <memcpy>
     d9a:	4649                	li	a2,18
     d9c:	85ce                	mv	a1,s3
     d9e:	03d48513          	addi	a0,s1,61
     da2:	bfeff0ef          	jal	ra,1a0 <memcpy>
     da6:	4635                	li	a2,13
     da8:	02e40593          	addi	a1,s0,46
     dac:	05048513          	addi	a0,s1,80
     db0:	bf0ff0ef          	jal	ra,1a0 <memcpy>
     db4:	4661                	li	a2,24
     db6:	03b40593          	addi	a1,s0,59
     dba:	08048513          	addi	a0,s1,128
     dbe:	be2ff0ef          	jal	ra,1a0 <memcpy>
     dc2:	4649                	li	a2,18
     dc4:	85ca                	mv	a1,s2
     dc6:	09848513          	addi	a0,s1,152
     dca:	bd6ff0ef          	jal	ra,1a0 <memcpy>
     dce:	00044783          	lbu	a5,0(s0)
     dd2:	c781                	beqz	a5,dda <unpack_fac_conf+0x210>
     dd4:	00040023          	sb	zero,0(s0)
     dd8:	3b81                	jal	b28 <fac_conf_write>
     dda:	bb0ff06f          	j	18a <__riscv_restore_4>

00000dde <fac_conf_read>:
     dde:	b92ff2ef          	jal	t0,170 <__riscv_save_0>
     de2:	8ac1a583          	lw	a1,-1876(gp) # 20001954 <fac>
     de6:	06500613          	li	a2,101
     dea:	4509                	li	a0,2
     dec:	2c55                	jal	10a0 <flash_read>
     dee:	8ac1a503          	lw	a0,-1876(gp) # 20001954 <fac>
     df2:	3be1                	jal	bca <unpack_fac_conf>
     df4:	ba0ff06f          	j	194 <__riscv_restore_0>

00000df8 <conf_flush>:
     df8:	b78ff2ef          	jal	t0,170 <__riscv_save_0>
     dfc:	4505                	li	a0,1
     dfe:	20003437          	lui	s0,0x20003
     e02:	128040ef          	jal	ra,4f2a <flush_rgb>
     e06:	92c40413          	addi	s0,s0,-1748 # 2000292c <user_config>
     e0a:	01944503          	lbu	a0,25(s0)
     e0e:	2a2090ef          	jal	ra,a0b0 <__floatsisf>
     e12:	8681a583          	lw	a1,-1944(gp) # 20001910 <_impure_ptr+0x40>
     e16:	782080ef          	jal	ra,9598 <__divsf3>
     e1a:	96a1ac23          	sw	a0,-1672(gp) # 20001a20 <imu_ratio_xf>
     e1e:	01a44503          	lbu	a0,26(s0)
     e22:	28e090ef          	jal	ra,a0b0 <__floatsisf>
     e26:	8681a583          	lw	a1,-1944(gp) # 20001910 <_impure_ptr+0x40>
     e2a:	76e080ef          	jal	ra,9598 <__divsf3>
     e2e:	96a1aa23          	sw	a0,-1676(gp) # 20001a1c <imu_ratio_yf>
     e32:	01b44503          	lbu	a0,27(s0)
     e36:	27a090ef          	jal	ra,a0b0 <__floatsisf>
     e3a:	8681a583          	lw	a1,-1944(gp) # 20001910 <_impure_ptr+0x40>
     e3e:	75a080ef          	jal	ra,9598 <__divsf3>
     e42:	4454                	lw	a3,12(s0)
     e44:	96a1a823          	sw	a0,-1680(gp) # 20001a18 <imu_ratio_zf>
     e48:	0086d793          	srli	a5,a3,0x8
     e4c:	07c2                	slli	a5,a5,0x10
     e4e:	83c1                	srli	a5,a5,0x10
     e50:	02f787b3          	mul	a5,a5,a5
     e54:	8b018713          	addi	a4,gp,-1872 # 20001958 <joystick_snapback_deadzone_sq>
     e58:	82e1                	srli	a3,a3,0x18
     e5a:	c31c                	sw	a5,0(a4)
     e5c:	01044783          	lbu	a5,16(s0)
     e60:	07a2                	slli	a5,a5,0x8
     e62:	8fd5                	or	a5,a5,a3
     e64:	02f787b3          	mul	a5,a5,a5
     e68:	c35c                	sw	a5,4(a4)
     e6a:	210d                	jal	128c <gpio_tb_init>
     e6c:	b28ff06f          	j	194 <__riscv_restore_0>

00000e70 <conf_init>:
     e70:	b00ff2ef          	jal	t0,170 <__riscv_save_0>
     e74:	20003437          	lui	s0,0x20003
     e78:	0b100613          	li	a2,177
     e7c:	55fd                	li	a1,-1
     e7e:	9f040513          	addi	a0,s0,-1552 # 200029f0 <factory_configuration>
     e82:	b34ff0ef          	jal	ra,1b6 <memset>
     e86:	2439                	jal	1094 <get_raw_flash_buf>
     e88:	8aa1a623          	sw	a0,-1876(gp) # 20001954 <fac>
     e8c:	3f89                	jal	dde <fac_conf_read>
     e8e:	9f040793          	addi	a5,s0,-1552
     e92:	f8000713          	li	a4,-128
     e96:	00e78023          	sb	a4,0(a5)
     e9a:	7769                	lui	a4,0xffffa
     e9c:	070d                	addi	a4,a4,3 # ffffa003 <_eusrstack+0xdfff5003>
     e9e:	20003437          	lui	s0,0x20003
     ea2:	00e79923          	sh	a4,18(a5)
     ea6:	04800613          	li	a2,72
     eaa:	4705                	li	a4,1
     eac:	9a840593          	addi	a1,s0,-1624 # 200029a8 <user_calibration>
     eb0:	4501                	li	a0,0
     eb2:	00e78da3          	sb	a4,27(a5)
     eb6:	22ed                	jal	10a0 <flash_read>
     eb8:	9a840793          	addi	a5,s0,-1624
     ebc:	0007c703          	lbu	a4,0(a5)
     ec0:	c315                	beqz	a4,ee4 <conf_init+0x74>
     ec2:	4721                	li	a4,8
     ec4:	000780a3          	sb	zero,1(a5)
     ec8:	00e78123          	sb	a4,2(a5)
     ecc:	000781a3          	sb	zero,3(a5)
     ed0:	00e78223          	sb	a4,4(a5)
     ed4:	000782a3          	sb	zero,5(a5)
     ed8:	00e78323          	sb	a4,6(a5)
     edc:	000783a3          	sb	zero,7(a5)
     ee0:	00e78423          	sb	a4,8(a5)
     ee4:	200034b7          	lui	s1,0x20003
     ee8:	07c00613          	li	a2,124
     eec:	55fd                	li	a1,-1
     eee:	92c48513          	addi	a0,s1,-1748 # 2000292c <user_config>
     ef2:	ac4ff0ef          	jal	ra,1b6 <memset>
     ef6:	365d                	jal	a9c <custom_conf_read>
     ef8:	92c4c783          	lbu	a5,-1748(s1)
     efc:	92c48413          	addi	s0,s1,-1748
     f00:	8b85                	andi	a5,a5,1
     f02:	c7f1                	beqz	a5,fce <conf_init+0x15e>
     f04:	07c00613          	li	a2,124
     f08:	4581                	li	a1,0
     f0a:	92c48513          	addi	a0,s1,-1748
     f0e:	aa8ff0ef          	jal	ra,1b6 <memset>
     f12:	20003537          	lui	a0,0x20003
     f16:	47a1                	li	a5,8
     f18:	4611                	li	a2,4
     f1a:	03800593          	li	a1,56
     f1e:	93350513          	addi	a0,a0,-1741 # 20002933 <user_config+0x7>
     f22:	00f400a3          	sb	a5,1(s0)
     f26:	00f40123          	sb	a5,2(s0)
     f2a:	a8cff0ef          	jal	ra,1b6 <memset>
     f2e:	20003537          	lui	a0,0x20003
     f32:	4611                	li	a2,4
     f34:	08000593          	li	a1,128
     f38:	92f50513          	addi	a0,a0,-1745 # 2000292f <user_config+0x3>
     f3c:	a7aff0ef          	jal	ra,1b6 <memset>
     f40:	200037b7          	lui	a5,0x20003
     f44:	6719                	lui	a4,0x6
     f46:	94a78793          	addi	a5,a5,-1718 # 2000294a <user_config+0x1e>
     f4a:	06070713          	addi	a4,a4,96 # 6060 <ADC_Init>
     f4e:	00e79123          	sh	a4,2(a5)
     f52:	00e79023          	sh	a4,0(a5)
     f56:	4795                	li	a5,5
     f58:	00f40723          	sb	a5,14(s0)
     f5c:	00f40823          	sb	a5,16(s0)
     f60:	6789                	lui	a5,0x2
     f62:	b0178793          	addi	a5,a5,-1279 # 1b01 <decode_hd_rumble_format3+0x69>
     f66:	02f41123          	sh	a5,34(s0)
     f6a:	fd600793          	li	a5,-42
     f6e:	07800713          	li	a4,120
     f72:	00f405a3          	sb	a5,11(s0)
     f76:	4799                	li	a5,6
     f78:	00e406a3          	sb	a4,13(s0)
     f7c:	00e407a3          	sb	a4,15(s0)
     f80:	00f40623          	sb	a5,12(s0)
     f84:	4701                	li	a4,0
     f86:	458d                	li	a1,3
     f88:	56fd                	li	a3,-1
     f8a:	466d                	li	a2,27
     f8c:	02b707b3          	mul	a5,a4,a1
     f90:	0705                	addi	a4,a4,1
     f92:	97a2                	add	a5,a5,s0
     f94:	02d78223          	sb	a3,36(a5)
     f98:	02d782a3          	sb	a3,37(a5)
     f9c:	02d78323          	sb	a3,38(a5)
     fa0:	fec716e3          	bne	a4,a2,f8c <conf_init+0x11c>
     fa4:	07f00793          	li	a5,127
     fa8:	00f40ca3          	sb	a5,25(s0)
     fac:	77e1                	lui	a5,0xffff8
     fae:	f7f7c793          	xori	a5,a5,-129
     fb2:	00f41d23          	sh	a5,26(s0)
     fb6:	4789                	li	a5,2
     fb8:	00f40e23          	sb	a5,28(s0)
     fbc:	fd400793          	li	a5,-44
     fc0:	00f408a3          	sb	a5,17(s0)
     fc4:	03000793          	li	a5,48
     fc8:	00f40923          	sb	a5,18(s0)
     fcc:	34c5                	jal	aac <custom_conf_write>
     fce:	352d                	jal	df8 <conf_flush>
     fd0:	00244703          	lbu	a4,2(s0)
     fd4:	200027b7          	lui	a5,0x20002
     fd8:	80878793          	addi	a5,a5,-2040 # 20001808 <MyCfgDescr>
     fdc:	02e780a3          	sb	a4,33(a5)
     fe0:	00144703          	lbu	a4,1(s0)
     fe4:	20003537          	lui	a0,0x20003
     fe8:	4619                	li	a2,6
     fea:	02e78423          	sb	a4,40(a5)
     fee:	01340593          	addi	a1,s0,19
     ff2:	79a50513          	addi	a0,a0,1946 # 2000379a <connection_state+0x6>
     ff6:	9aaff0ef          	jal	ra,1a0 <memcpy>
     ffa:	99aff06f          	j	194 <__riscv_restore_0>

00000ffe <_flash_write>:
     ffe:	478d                	li	a5,3
    1000:	04a7e563          	bltu	a5,a0,104a <_flash_write+0x4c>
    1004:	96cff2ef          	jal	t0,170 <__riscv_save_0>
    1008:	001007b7          	lui	a5,0x100
    100c:	1e078793          	addi	a5,a5,480 # 1001e0 <_data_lma+0xf45fc>
    1010:	953e                	add	a0,a0,a5
    1012:	00751413          	slli	s0,a0,0x7
    1016:	08000593          	li	a1,128
    101a:	8522                	mv	a0,s0
    101c:	584050ef          	jal	ra,65a0 <FLASH_ROM_ERASE>
    1020:	4711                	li	a4,4
    1022:	84aa                	mv	s1,a0
    1024:	4789                	li	a5,2
    1026:	00e51f63          	bne	a0,a4,1044 <_flash_write+0x46>
    102a:	200035b7          	lui	a1,0x20003
    102e:	08000613          	li	a2,128
    1032:	aa458593          	addi	a1,a1,-1372 # 20002aa4 <flash_buf>
    1036:	8522                	mv	a0,s0
    1038:	682050ef          	jal	ra,66ba <FLASH_ROM_WRITE>
    103c:	478d                	li	a5,3
    103e:	00951363          	bne	a0,s1,1044 <_flash_write+0x46>
    1042:	4781                	li	a5,0
    1044:	853e                	mv	a0,a5
    1046:	94eff06f          	j	194 <__riscv_restore_0>
    104a:	4785                	li	a5,1
    104c:	853e                	mv	a0,a5
    104e:	8082                	ret

00001050 <flash_write>:
    1050:	cd9d                	beqz	a1,108e <flash_write+0x3e>
    1052:	904ff2ef          	jal	t0,156 <__riscv_save_4>
    1056:	08000793          	li	a5,128
    105a:	892a                	mv	s2,a0
    105c:	84b2                	mv	s1,a2
    105e:	0fe00513          	li	a0,254
    1062:	02c7e463          	bltu	a5,a2,108a <flash_write+0x3a>
    1066:	200039b7          	lui	s3,0x20003
    106a:	842e                	mv	s0,a1
    106c:	08000613          	li	a2,128
    1070:	4581                	li	a1,0
    1072:	aa498513          	addi	a0,s3,-1372 # 20002aa4 <flash_buf>
    1076:	940ff0ef          	jal	ra,1b6 <memset>
    107a:	8626                	mv	a2,s1
    107c:	85a2                	mv	a1,s0
    107e:	aa498513          	addi	a0,s3,-1372
    1082:	91eff0ef          	jal	ra,1a0 <memcpy>
    1086:	854a                	mv	a0,s2
    1088:	3f9d                	jal	ffe <_flash_write>
    108a:	900ff06f          	j	18a <__riscv_restore_4>
    108e:	0ff00513          	li	a0,255
    1092:	8082                	ret

00001094 <get_raw_flash_buf>:
    1094:	20003537          	lui	a0,0x20003
    1098:	aa450513          	addi	a0,a0,-1372 # 20002aa4 <flash_buf>
    109c:	8082                	ret

0000109e <raw_flash_write>:
    109e:	b785                	j	ffe <_flash_write>

000010a0 <flash_read>:
    10a0:	470d                	li	a4,3
    10a2:	87aa                	mv	a5,a0
    10a4:	02a76b63          	bltu	a4,a0,10da <flash_read+0x3a>
    10a8:	852e                	mv	a0,a1
    10aa:	0ff00713          	li	a4,255
    10ae:	c59d                	beqz	a1,10dc <flash_read+0x3c>
    10b0:	08000593          	li	a1,128
    10b4:	0fe00713          	li	a4,254
    10b8:	02c5e263          	bltu	a1,a2,10dc <flash_read+0x3c>
    10bc:	8b4ff2ef          	jal	t0,170 <__riscv_save_0>
    10c0:	00100737          	lui	a4,0x100
    10c4:	1e070713          	addi	a4,a4,480 # 1001e0 <_data_lma+0xf45fc>
    10c8:	97ba                	add	a5,a5,a4
    10ca:	00779593          	slli	a1,a5,0x7
    10ce:	8d2ff0ef          	jal	ra,1a0 <memcpy>
    10d2:	4701                	li	a4,0
    10d4:	853a                	mv	a0,a4
    10d6:	8beff06f          	j	194 <__riscv_restore_0>
    10da:	4705                	li	a4,1
    10dc:	853a                	mv	a0,a4
    10de:	8082                	ret

000010e0 <i32_min>:
    10e0:	87aa                	mv	a5,a0
    10e2:	852e                	mv	a0,a1
    10e4:	00b7d363          	bge	a5,a1,10ea <i32_min+0xa>
    10e8:	853e                	mv	a0,a5
    10ea:	8082                	ret

000010ec <fetch_uint32>:
    10ec:	884ff2ef          	jal	t0,170 <__riscv_save_0>
    10f0:	1141                	addi	sp,sp,-16
    10f2:	85aa                	mv	a1,a0
    10f4:	4611                	li	a2,4
    10f6:	0068                	addi	a0,sp,12
    10f8:	8a8ff0ef          	jal	ra,1a0 <memcpy>
    10fc:	4532                	lw	a0,12(sp)
    10fe:	0141                	addi	sp,sp,16
    1100:	894ff06f          	j	194 <__riscv_restore_0>

00001104 <i32_clamp>:
    1104:	87aa                	mv	a5,a0
    1106:	852e                	mv	a0,a1
    1108:	00b7c663          	blt	a5,a1,1114 <i32_clamp+0x10>
    110c:	853e                	mv	a0,a5
    110e:	00f65363          	bge	a2,a5,1114 <i32_clamp+0x10>
    1112:	8532                	mv	a0,a2
    1114:	8082                	ret

00001116 <ADC_Function_Init>:
    1116:	85aff2ef          	jal	t0,170 <__riscv_save_0>
    111a:	7179                	addi	sp,sp,-48
    111c:	4661                	li	a2,24
    111e:	4581                	li	a1,0
    1120:	0828                	addi	a0,sp,24
    1122:	894ff0ef          	jal	ra,1b6 <memset>
    1126:	4501                	li	a0,0
    1128:	c602                	sw	zero,12(sp)
    112a:	c802                	sw	zero,16(sp)
    112c:	ca02                	sw	zero,20(sp)
    112e:	37f050ef          	jal	ra,6cac <RCC_ADCCLKConfig>
    1132:	40011537          	lui	a0,0x40011
    1136:	03a00793          	li	a5,58
    113a:	006c                	addi	a1,sp,12
    113c:	80050513          	addi	a0,a0,-2048 # 40010800 <_eusrstack+0x2000b800>
    1140:	40012437          	lui	s0,0x40012
    1144:	00f11623          	sh	a5,12(sp)
    1148:	ca02                	sw	zero,20(sp)
    114a:	68a050ef          	jal	ra,67d4 <GPIO_Init>
    114e:	40040513          	addi	a0,s0,1024 # 40012400 <_eusrstack+0x2000d400>
    1152:	6e5040ef          	jal	ra,6036 <ADC_DeInit>
    1156:	4785                	li	a5,1
    1158:	ce3e                	sw	a5,28(sp)
    115a:	d03e                	sw	a5,32(sp)
    115c:	000e07b7          	lui	a5,0xe0
    1160:	d23e                	sw	a5,36(sp)
    1162:	082c                	addi	a1,sp,24
    1164:	4791                	li	a5,4
    1166:	40040513          	addi	a0,s0,1024
    116a:	02f10623          	sb	a5,44(sp)
    116e:	cc02                	sw	zero,24(sp)
    1170:	d402                	sw	zero,40(sp)
    1172:	6ef040ef          	jal	ra,6060 <ADC_Init>
    1176:	4585                	li	a1,1
    1178:	40040513          	addi	a0,s0,1024
    117c:	745040ef          	jal	ra,60c0 <ADC_DMACmd>
    1180:	4585                	li	a1,1
    1182:	40040513          	addi	a0,s0,1024
    1186:	72b040ef          	jal	ra,60b0 <ADC_Cmd>
    118a:	40040513          	addi	a0,s0,1024
    118e:	745040ef          	jal	ra,60d2 <ADC_ResetCalibration>
    1192:	40040493          	addi	s1,s0,1024
    1196:	8526                	mv	a0,s1
    1198:	745040ef          	jal	ra,60dc <ADC_GetResetCalibrationStatus>
    119c:	fd6d                	bnez	a0,1196 <ADC_Function_Init+0x80>
    119e:	40040513          	addi	a0,s0,1024
    11a2:	40012437          	lui	s0,0x40012
    11a6:	73f040ef          	jal	ra,60e4 <ADC_StartCalibration>
    11aa:	40040493          	addi	s1,s0,1024 # 40012400 <_eusrstack+0x2000d400>
    11ae:	8526                	mv	a0,s1
    11b0:	73f040ef          	jal	ra,60ee <ADC_GetCalibrationStatus>
    11b4:	fd6d                	bnez	a0,11ae <ADC_Function_Init+0x98>
    11b6:	40040513          	addi	a0,s0,1024
    11ba:	00c050ef          	jal	ra,61c6 <Get_CalibrationValue>
    11be:	8aa19c23          	sh	a0,-1864(gp) # 20001960 <Calibrattion_Val>
    11c2:	6145                	addi	sp,sp,48
    11c4:	fd1fe06f          	j	194 <__riscv_restore_0>

000011c8 <DMA_Tx_Init>:
    11c8:	f8ffe2ef          	jal	t0,156 <__riscv_save_4>
    11cc:	7179                	addi	sp,sp,-48
    11ce:	842a                	mv	s0,a0
    11d0:	89ae                	mv	s3,a1
    11d2:	8932                	mv	s2,a2
    11d4:	4581                	li	a1,0
    11d6:	02c00613          	li	a2,44
    11da:	0048                	addi	a0,sp,4
    11dc:	84b6                	mv	s1,a3
    11de:	fd9fe0ef          	jal	ra,1b6 <memset>
    11e2:	8522                	mv	a0,s0
    11e4:	164050ef          	jal	ra,6348 <DMA_DeInit>
    11e8:	08000793          	li	a5,128
    11ec:	cc3e                	sw	a5,24(sp)
    11ee:	10000793          	li	a5,256
    11f2:	ce3e                	sw	a5,28(sp)
    11f4:	40000793          	li	a5,1024
    11f8:	d03e                	sw	a5,32(sp)
    11fa:	02000793          	li	a5,32
    11fe:	d23e                	sw	a5,36(sp)
    1200:	004c                	addi	a1,sp,4
    1202:	678d                	lui	a5,0x3
    1204:	8522                	mv	a0,s0
    1206:	c24e                	sw	s3,4(sp)
    1208:	c44a                	sw	s2,8(sp)
    120a:	c826                	sw	s1,16(sp)
    120c:	d43e                	sw	a5,40(sp)
    120e:	c602                	sw	zero,12(sp)
    1210:	ca02                	sw	zero,20(sp)
    1212:	d602                	sw	zero,44(sp)
    1214:	214050ef          	jal	ra,6428 <DMA_Init>
    1218:	6145                	addi	sp,sp,48
    121a:	f71fe06f          	j	18a <__riscv_restore_4>

0000121e <adc_init>:
    121e:	f53fe2ef          	jal	t0,170 <__riscv_save_0>
    1222:	3dd5                	jal	1116 <ADC_Function_Init>
    1224:	40012437          	lui	s0,0x40012
    1228:	400204b7          	lui	s1,0x40020
    122c:	44c40593          	addi	a1,s0,1100 # 4001244c <_eusrstack+0x2000d44c>
    1230:	00848513          	addi	a0,s1,8 # 40020008 <_eusrstack+0x2001b008>
    1234:	4691                	li	a3,4
    1236:	8bc18613          	addi	a2,gp,-1860 # 20001964 <adc_data>
    123a:	3779                	jal	11c8 <DMA_Tx_Init>
    123c:	40040513          	addi	a0,s0,1024
    1240:	469d                	li	a3,7
    1242:	4605                	li	a2,1
    1244:	4585                	li	a1,1
    1246:	6c9040ef          	jal	ra,610e <ADC_RegularChannelConfig>
    124a:	40040513          	addi	a0,s0,1024
    124e:	469d                	li	a3,7
    1250:	4609                	li	a2,2
    1252:	4595                	li	a1,5
    1254:	6bb040ef          	jal	ra,610e <ADC_RegularChannelConfig>
    1258:	40040513          	addi	a0,s0,1024
    125c:	469d                	li	a3,7
    125e:	460d                	li	a2,3
    1260:	458d                	li	a1,3
    1262:	6ad040ef          	jal	ra,610e <ADC_RegularChannelConfig>
    1266:	469d                	li	a3,7
    1268:	4611                	li	a2,4
    126a:	40040513          	addi	a0,s0,1024
    126e:	4591                	li	a1,4
    1270:	69f040ef          	jal	ra,610e <ADC_RegularChannelConfig>
    1274:	00848513          	addi	a0,s1,8
    1278:	4585                	li	a1,1
    127a:	1e6050ef          	jal	ra,6460 <DMA_Cmd>
    127e:	4585                	li	a1,1
    1280:	40040513          	addi	a0,s0,1024
    1284:	673040ef          	jal	ra,60f6 <ADC_SoftwareStartConvCmd>
    1288:	f0dfe06f          	j	194 <__riscv_restore_0>

0000128c <gpio_tb_init>:
    128c:	66c1                	lui	a3,0x10
    128e:	20003737          	lui	a4,0x20003
    1292:	b2470793          	addi	a5,a4,-1244 # 20002b24 <hid_num_to_gpio>
    1296:	10068613          	addi	a2,a3,256 # 10100 <_data_lma+0x451c>
    129a:	d7d0                	sw	a2,44(a5)
    129c:	00168613          	addi	a2,a3,1
    12a0:	04068693          	addi	a3,a3,64
    12a4:	c3d4                	sw	a3,4(a5)
    12a6:	000216b7          	lui	a3,0x21
    12aa:	c394                	sw	a3,0(a5)
    12ac:	000206b7          	lui	a3,0x20
    12b0:	00868513          	addi	a0,a3,8 # 20008 <_data_lma+0x14424>
    12b4:	c3e8                	sw	a0,68(a5)
    12b6:	02068513          	addi	a0,a3,32
    12ba:	c3a8                	sw	a0,64(a5)
    12bc:	6561                	lui	a0,0x18
    12be:	c7e8                	sw	a0,76(a5)
    12c0:	01068513          	addi	a0,a3,16
    12c4:	c7a8                	sw	a0,72(a5)
    12c6:	20068513          	addi	a0,a3,512
    12ca:	cfa8                	sw	a0,88(a5)
    12cc:	00042537          	lui	a0,0x42
    12d0:	cf88                	sw	a0,24(a5)
    12d2:	10068513          	addi	a0,a3,256
    12d6:	cfe8                	sw	a0,92(a5)
    12d8:	00044537          	lui	a0,0x44
    12dc:	cfc8                	sw	a0,28(a5)
    12de:	04068513          	addi	a0,a3,64
    12e2:	d388                	sw	a0,32(a5)
    12e4:	00048537          	lui	a0,0x48
    12e8:	d790                	sw	a2,40(a5)
    12ea:	d3c8                	sw	a0,36(a5)
    12ec:	08068693          	addi	a3,a3,128
    12f0:	00028537          	lui	a0,0x28
    12f4:	00022637          	lui	a2,0x22
    12f8:	000245b7          	lui	a1,0x24
    12fc:	db88                	sw	a0,48(a5)
    12fe:	dbd4                	sw	a3,52(a5)
    1300:	c7d0                	sw	a2,12(a5)
    1302:	c78c                	sw	a1,8(a5)
    1304:	200037b7          	lui	a5,0x20003
    1308:	92c7c683          	lbu	a3,-1748(a5) # 2000292c <user_config>
    130c:	b2470793          	addi	a5,a4,-1244
    1310:	0106f513          	andi	a0,a3,16
    1314:	c119                	beqz	a0,131a <gpio_tb_init+0x8e>
    1316:	c7cc                	sw	a1,12(a5)
    1318:	c790                	sw	a2,8(a5)
    131a:	0086f713          	andi	a4,a3,8
    131e:	cb01                	beqz	a4,132e <gpio_tb_init+0xa2>
    1320:	00021737          	lui	a4,0x21
    1324:	c3d8                	sw	a4,4(a5)
    1326:	6741                	lui	a4,0x10
    1328:	04070713          	addi	a4,a4,64 # 10040 <_data_lma+0x445c>
    132c:	c398                	sw	a4,0(a5)
    132e:	8a91                	andi	a3,a3,4
    1330:	ca89                	beqz	a3,1342 <gpio_tb_init+0xb6>
    1332:	0407a223          	sw	zero,68(a5)
    1336:	0407a023          	sw	zero,64(a5)
    133a:	0407a623          	sw	zero,76(a5)
    133e:	0407a423          	sw	zero,72(a5)
    1342:	8082                	ret

00001344 <gpio_init>:
    1344:	e2dfe2ef          	jal	t0,170 <__riscv_save_0>
    1348:	1141                	addi	sp,sp,-16
    134a:	3789                	jal	128c <gpio_tb_init>
    134c:	04800793          	li	a5,72
    1350:	c63e                	sw	a5,12(sp)
    1352:	200037b7          	lui	a5,0x20003
    1356:	b2478413          	addi	s0,a5,-1244 # 20002b24 <hid_num_to_gpio>
    135a:	c202                	sw	zero,4(sp)
    135c:	c402                	sw	zero,8(sp)
    135e:	06040493          	addi	s1,s0,96
    1362:	b2478793          	addi	a5,a5,-1244
    1366:	4681                	li	a3,0
    1368:	4701                	li	a4,0
    136a:	65c1                	lui	a1,0x10
    136c:	4390                	lw	a2,0(a5)
    136e:	00b67533          	and	a0,a2,a1
    1372:	c509                	beqz	a0,137c <gpio_init+0x38>
    1374:	8f51                	or	a4,a4,a2
    1376:	0742                	slli	a4,a4,0x10
    1378:	8341                	srli	a4,a4,0x10
    137a:	4685                	li	a3,1
    137c:	0791                	addi	a5,a5,4
    137e:	fe9797e3          	bne	a5,s1,136c <gpio_init+0x28>
    1382:	c299                	beqz	a3,1388 <gpio_init+0x44>
    1384:	00e11223          	sh	a4,4(sp)
    1388:	40011537          	lui	a0,0x40011
    138c:	004c                	addi	a1,sp,4
    138e:	80050513          	addi	a0,a0,-2048 # 40010800 <_eusrstack+0x2000b800>
    1392:	442050ef          	jal	ra,67d4 <GPIO_Init>
    1396:	8722                	mv	a4,s0
    1398:	00011223          	sh	zero,4(sp)
    139c:	4681                	li	a3,0
    139e:	4781                	li	a5,0
    13a0:	000205b7          	lui	a1,0x20
    13a4:	4310                	lw	a2,0(a4)
    13a6:	00b67533          	and	a0,a2,a1
    13aa:	c509                	beqz	a0,13b4 <gpio_init+0x70>
    13ac:	8fd1                	or	a5,a5,a2
    13ae:	07c2                	slli	a5,a5,0x10
    13b0:	83c1                	srli	a5,a5,0x10
    13b2:	4685                	li	a3,1
    13b4:	0711                	addi	a4,a4,4
    13b6:	fe9717e3          	bne	a4,s1,13a4 <gpio_init+0x60>
    13ba:	c299                	beqz	a3,13c0 <gpio_init+0x7c>
    13bc:	00f11223          	sh	a5,4(sp)
    13c0:	40011537          	lui	a0,0x40011
    13c4:	004c                	addi	a1,sp,4
    13c6:	c0050513          	addi	a0,a0,-1024 # 40010c00 <_eusrstack+0x2000bc00>
    13ca:	40a050ef          	jal	ra,67d4 <GPIO_Init>
    13ce:	4701                	li	a4,0
    13d0:	00011223          	sh	zero,4(sp)
    13d4:	4781                	li	a5,0
    13d6:	00040637          	lui	a2,0x40
    13da:	4014                	lw	a3,0(s0)
    13dc:	00c6f5b3          	and	a1,a3,a2
    13e0:	c589                	beqz	a1,13ea <gpio_init+0xa6>
    13e2:	8fd5                	or	a5,a5,a3
    13e4:	07c2                	slli	a5,a5,0x10
    13e6:	83c1                	srli	a5,a5,0x10
    13e8:	4705                	li	a4,1
    13ea:	0411                	addi	s0,s0,4
    13ec:	fe9417e3          	bne	s0,s1,13da <gpio_init+0x96>
    13f0:	c319                	beqz	a4,13f6 <gpio_init+0xb2>
    13f2:	00f11223          	sh	a5,4(sp)
    13f6:	004c                	addi	a1,sp,4
    13f8:	40011537          	lui	a0,0x40011
    13fc:	3d8050ef          	jal	ra,67d4 <GPIO_Init>
    1400:	0141                	addi	sp,sp,16
    1402:	d93fe06f          	j	194 <__riscv_restore_0>

00001406 <gpio_read_all>:
    1406:	d43fe2ef          	jal	t0,148 <__riscv_save_10>
    140a:	40011937          	lui	s2,0x40011
    140e:	20003437          	lui	s0,0x20003
    1412:	c0090b13          	addi	s6,s2,-1024 # 40010c00 <_eusrstack+0x2000bc00>
    1416:	b2440413          	addi	s0,s0,-1244 # 20002b24 <hid_num_to_gpio>
    141a:	4481                	li	s1,0
    141c:	4981                	li	s3,0
    141e:	00070a37          	lui	s4,0x70
    1422:	00020ab7          	lui	s5,0x20
    1426:	00040bb7          	lui	s7,0x40
    142a:	6c41                	lui	s8,0x10
    142c:	80090913          	addi	s2,s2,-2048
    1430:	400c                	lw	a1,0(s0)
    1432:	0145f7b3          	and	a5,a1,s4
    1436:	03578a63          	beq	a5,s5,146a <gpio_read_all+0x64>
    143a:	03778c63          	beq	a5,s7,1472 <gpio_read_all+0x6c>
    143e:	4505                	li	a0,1
    1440:	01879763          	bne	a5,s8,144e <gpio_read_all+0x48>
    1444:	05c2                	slli	a1,a1,0x10
    1446:	81c1                	srli	a1,a1,0x10
    1448:	854a                	mv	a0,s2
    144a:	448050ef          	jal	ra,6892 <GPIO_ReadInputDataBit>
    144e:	00153513          	seqz	a0,a0
    1452:	00951533          	sll	a0,a0,s1
    1456:	47e1                	li	a5,24
    1458:	0485                	addi	s1,s1,1
    145a:	00a9e9b3          	or	s3,s3,a0
    145e:	0411                	addi	s0,s0,4
    1460:	fcf498e3          	bne	s1,a5,1430 <gpio_read_all+0x2a>
    1464:	854e                	mv	a0,s3
    1466:	d1bfe06f          	j	180 <__riscv_restore_10>
    146a:	05c2                	slli	a1,a1,0x10
    146c:	81c1                	srli	a1,a1,0x10
    146e:	855a                	mv	a0,s6
    1470:	bfe9                	j	144a <gpio_read_all+0x44>
    1472:	05c2                	slli	a1,a1,0x10
    1474:	81c1                	srli	a1,a1,0x10
    1476:	40011537          	lui	a0,0x40011
    147a:	bfc1                	j	144a <gpio_read_all+0x44>

0000147c <gpio_read>:
    147c:	cf5fe2ef          	jal	t0,170 <__riscv_save_0>
    1480:	000707b7          	lui	a5,0x70
    1484:	8fe9                	and	a5,a5,a0
    1486:	00020737          	lui	a4,0x20
    148a:	85aa                	mv	a1,a0
    148c:	02e78463          	beq	a5,a4,14b4 <gpio_read+0x38>
    1490:	00040737          	lui	a4,0x40
    1494:	02e78863          	beq	a5,a4,14c4 <gpio_read+0x48>
    1498:	6741                	lui	a4,0x10
    149a:	4505                	li	a0,1
    149c:	00e79a63          	bne	a5,a4,14b0 <gpio_read+0x34>
    14a0:	05c2                	slli	a1,a1,0x10
    14a2:	40011537          	lui	a0,0x40011
    14a6:	81c1                	srli	a1,a1,0x10
    14a8:	80050513          	addi	a0,a0,-2048 # 40010800 <_eusrstack+0x2000b800>
    14ac:	3e6050ef          	jal	ra,6892 <GPIO_ReadInputDataBit>
    14b0:	ce5fe06f          	j	194 <__riscv_restore_0>
    14b4:	01051593          	slli	a1,a0,0x10
    14b8:	40011537          	lui	a0,0x40011
    14bc:	81c1                	srli	a1,a1,0x10
    14be:	c0050513          	addi	a0,a0,-1024 # 40010c00 <_eusrstack+0x2000bc00>
    14c2:	b7ed                	j	14ac <gpio_read+0x30>
    14c4:	01051593          	slli	a1,a0,0x10
    14c8:	81c1                	srli	a1,a1,0x10
    14ca:	40011537          	lui	a0,0x40011
    14ce:	bff9                	j	14ac <gpio_read+0x30>

000014d0 <hd_rumble_init>:
    14d0:	ca1fe2ef          	jal	t0,170 <__riscv_save_0>
    14d4:	7179                	addi	sp,sp,-48
    14d6:	842a                	mv	s0,a0
    14d8:	4585                	li	a1,1
    14da:	4531                	li	a0,12
    14dc:	ca02                	sw	zero,20(sp)
    14de:	cc02                	sw	zero,24(sp)
    14e0:	ce02                	sw	zero,28(sp)
    14e2:	d002                	sw	zero,32(sp)
    14e4:	d202                	sw	zero,36(sp)
    14e6:	d402                	sw	zero,40(sp)
    14e8:	d602                	sw	zero,44(sp)
    14ea:	c402                	sw	zero,8(sp)
    14ec:	c602                	sw	zero,12(sp)
    14ee:	00011823          	sh	zero,16(sp)
    14f2:	0af050ef          	jal	ra,6da0 <RCC_APB2PeriphClockCmd>
    14f6:	12041063          	bnez	s0,1616 <hd_rumble_init+0x146>
    14fa:	4585                	li	a1,1
    14fc:	4509                	li	a0,2
    14fe:	0c1050ef          	jal	ra,6dbe <RCC_APB1PeriphClockCmd>
    1502:	40011537          	lui	a0,0x40011
    1506:	4761                	li	a4,24
    1508:	478d                	li	a5,3
    150a:	084c                	addi	a1,sp,20
    150c:	c0050513          	addi	a0,a0,-1024 # 40010c00 <_eusrstack+0x2000bc00>
    1510:	ce3a                	sw	a4,28(sp)
    1512:	40000437          	lui	s0,0x40000
    1516:	00f11a23          	sh	a5,20(sp)
    151a:	cc3e                	sw	a5,24(sp)
    151c:	2b8050ef          	jal	ra,67d4 <GPIO_Init>
    1520:	5a000793          	li	a5,1440
    1524:	002c                	addi	a1,sp,8
    1526:	40040513          	addi	a0,s0,1024 # 40000400 <_eusrstack+0x1fffb400>
    152a:	c63e                	sw	a5,12(sp)
    152c:	c402                	sw	zero,8(sp)
    152e:	1a7050ef          	jal	ra,6ed4 <TIM_TimeBaseInit>
    1532:	4605                	li	a2,1
    1534:	4585                	li	a1,1
    1536:	40040513          	addi	a0,s0,1024
    153a:	3fd050ef          	jal	ra,7136 <TIM_ITConfig>
    153e:	67c1                	lui	a5,0x10
    1540:	06078793          	addi	a5,a5,96 # 10060 <_data_lma+0x447c>
    1544:	100c                	addi	a1,sp,32
    1546:	40040513          	addi	a0,s0,1024
    154a:	d03e                	sw	a5,32(sp)
    154c:	02011323          	sh	zero,38(sp)
    1550:	02011423          	sh	zero,40(sp)
    1554:	1f9050ef          	jal	ra,6f4c <TIM_OC1Init>
    1558:	100c                	addi	a1,sp,32
    155a:	40040513          	addi	a0,s0,1024
    155e:	277050ef          	jal	ra,6fd4 <TIM_OC3Init>
    1562:	100c                	addi	a1,sp,32
    1564:	40040513          	addi	a0,s0,1024
    1568:	31d050ef          	jal	ra,7084 <TIM_OC4Init>
    156c:	4585                	li	a1,1
    156e:	40040513          	addi	a0,s0,1024
    1572:	3af050ef          	jal	ra,7120 <TIM_CtrlPWMOutputs>
    1576:	45a1                	li	a1,8
    1578:	40040513          	addi	a0,s0,1024
    157c:	3ef050ef          	jal	ra,716a <TIM_OC1PreloadConfig>
    1580:	45a1                	li	a1,8
    1582:	40040513          	addi	a0,s0,1024
    1586:	3f7050ef          	jal	ra,717c <TIM_OC2PreloadConfig>
    158a:	45a1                	li	a1,8
    158c:	40040513          	addi	a0,s0,1024
    1590:	407050ef          	jal	ra,7196 <TIM_OC3PreloadConfig>
    1594:	45a1                	li	a1,8
    1596:	40040513          	addi	a0,s0,1024
    159a:	40f050ef          	jal	ra,71a8 <TIM_OC4PreloadConfig>
    159e:	4581                	li	a1,0
    15a0:	40040513          	addi	a0,s0,1024
    15a4:	3a9050ef          	jal	ra,714c <TIM_ARRPreloadConfig>
    15a8:	2d000593          	li	a1,720
    15ac:	40040513          	addi	a0,s0,1024
    15b0:	413050ef          	jal	ra,71c2 <TIM_SetCompare1>
    15b4:	2d000593          	li	a1,720
    15b8:	40040513          	addi	a0,s0,1024
    15bc:	40d050ef          	jal	ra,71c8 <TIM_SetCompare2>
    15c0:	2d000593          	li	a1,720
    15c4:	40040513          	addi	a0,s0,1024
    15c8:	407050ef          	jal	ra,71ce <TIM_SetCompare3>
    15cc:	2d000593          	li	a1,720
    15d0:	40040513          	addi	a0,s0,1024
    15d4:	401050ef          	jal	ra,71d4 <TIM_SetCompare4>
    15d8:	04f000ef          	jal	ra,1e26 <hd_rumble_high_accurary_init>
    15dc:	12d00793          	li	a5,301
    15e0:	00f11023          	sh	a5,0(sp)
    15e4:	4799                	li	a5,6
    15e6:	00f10123          	sb	a5,2(sp)
    15ea:	850a                	mv	a0,sp
    15ec:	4785                	li	a5,1
    15ee:	c23e                	sw	a5,4(sp)
    15f0:	554050ef          	jal	ra,6b44 <NVIC_Init>
    15f4:	6789                	lui	a5,0x2
    15f6:	0ae78793          	addi	a5,a5,174 # 20ae <TIM3_IRQHandler>
    15fa:	e000e737          	lui	a4,0xe000e
    15fe:	c37c                	sw	a5,68(a4)
    1600:	07b2                	slli	a5,a5,0xc
    1602:	83b1                	srli	a5,a5,0xc
    1604:	2d0006b7          	lui	a3,0x2d000
    1608:	8fd5                	or	a5,a5,a3
    160a:	d73c                	sw	a5,104(a4)
    160c:	4585                	li	a1,1
    160e:	40040513          	addi	a0,s0,1024
    1612:	2f3050ef          	jal	ra,7104 <TIM_Cmd>
    1616:	6145                	addi	sp,sp,48
    1618:	b7dfe06f          	j	194 <__riscv_restore_0>

0000161c <hd_rumble_set_status>:
    161c:	85aa                	mv	a1,a0
    161e:	40000537          	lui	a0,0x40000
    1622:	40050513          	addi	a0,a0,1024 # 40000400 <_eusrstack+0x1fffb400>
    1626:	2df0506f          	j	7104 <TIM_Cmd>

0000162a <ApplyCommand>:
    162a:	882a                	mv	a6,a0
    162c:	853a                	mv	a0,a4
    162e:	4709                	li	a4,2
    1630:	00e80a63          	beq	a6,a4,1644 <ApplyCommand+0x1a>
    1634:	470d                	li	a4,3
    1636:	00e80e63          	beq	a6,a4,1652 <ApplyCommand+0x28>
    163a:	8532                	mv	a0,a2
    163c:	02080563          	beqz	a6,1666 <ApplyCommand+0x3c>
    1640:	8536                	mv	a0,a3
    1642:	8082                	ret
    1644:	02a5c163          	blt	a1,a0,1666 <ApplyCommand+0x3c>
    1648:	852e                	mv	a0,a1
    164a:	00b7dc63          	bge	a5,a1,1662 <ApplyCommand+0x38>
    164e:	853e                	mv	a0,a5
    1650:	a809                	j	1662 <ApplyCommand+0x38>
    1652:	962e                	add	a2,a2,a1
    1654:	0642                	slli	a2,a2,0x10
    1656:	8641                	srai	a2,a2,0x10
    1658:	00a64763          	blt	a2,a0,1666 <ApplyCommand+0x3c>
    165c:	8532                	mv	a0,a2
    165e:	fec7c8e3          	blt	a5,a2,164e <ApplyCommand+0x24>
    1662:	0542                	slli	a0,a0,0x10
    1664:	8541                	srai	a0,a0,0x10
    1666:	8082                	ret

00001668 <ApplyAmCommand>:
    1668:	4719                	li	a4,6
    166a:	02e50533          	mul	a0,a0,a4
    166e:	200007b7          	lui	a5,0x20000
    1672:	00078793          	mv	a5,a5
    1676:	862e                	mv	a2,a1
    1678:	4701                	li	a4,0
    167a:	4681                	li	a3,0
    167c:	953e                	add	a0,a0,a5
    167e:	00251583          	lh	a1,2(a0)
    1682:	00054503          	lbu	a0,0(a0)
    1686:	10000793          	li	a5,256
    168a:	b745                	j	162a <ApplyCommand>

0000168c <ApplyFmCommand>:
    168c:	4719                	li	a4,6
    168e:	02e50533          	mul	a0,a0,a4
    1692:	200007b7          	lui	a5,0x20000
    1696:	00078793          	mv	a5,a5
    169a:	862e                	mv	a2,a1
    169c:	0c000713          	li	a4,192
    16a0:	10000693          	li	a3,256
    16a4:	953e                	add	a0,a0,a5
    16a6:	00451583          	lh	a1,4(a0)
    16aa:	00154503          	lbu	a0,1(a0)
    16ae:	14000793          	li	a5,320
    16b2:	bfa5                	j	162a <ApplyCommand>

000016b4 <get_hd_rumble_pack>:
    16b4:	8d018713          	addi	a4,gp,-1840 # 20001978 <m_state>
    16b8:	4314                	lw	a3,0(a4)
    16ba:	200037b7          	lui	a5,0x20003
    16be:	4358                	lw	a4,4(a4)
    16c0:	050e                	slli	a0,a0,0x3
    16c2:	b8478793          	addi	a5,a5,-1148 # 20002b84 <linear_samples>
    16c6:	97aa                	add	a5,a5,a0
    16c8:	c394                	sw	a3,0(a5)
    16ca:	c3d8                	sw	a4,4(a5)
    16cc:	8082                	ret

000016ce <deocde_hd_rumble_format1>:
    16ce:	aa3fe2ef          	jal	t0,170 <__riscv_save_0>
    16d2:	00354483          	lbu	s1,3(a0)
    16d6:	8d018413          	addi	s0,gp,-1840 # 20001978 <m_state>
    16da:	00041583          	lh	a1,0(s0)
    16de:	8085                	srli	s1,s1,0x1
    16e0:	88fd                	andi	s1,s1,31
    16e2:	892a                	mv	s2,a0
    16e4:	8526                	mv	a0,s1
    16e6:	3749                	jal	1668 <ApplyAmCommand>
    16e8:	00241583          	lh	a1,2(s0)
    16ec:	00a41023          	sh	a0,0(s0)
    16f0:	8526                	mv	a0,s1
    16f2:	3f69                	jal	168c <ApplyFmCommand>
    16f4:	00394483          	lbu	s1,3(s2)
    16f8:	00294783          	lbu	a5,2(s2)
    16fc:	00441583          	lh	a1,4(s0)
    1700:	8885                	andi	s1,s1,1
    1702:	8391                	srli	a5,a5,0x4
    1704:	0492                	slli	s1,s1,0x4
    1706:	8cdd                	or	s1,s1,a5
    1708:	00a41123          	sh	a0,2(s0)
    170c:	8526                	mv	a0,s1
    170e:	3fa9                	jal	1668 <ApplyAmCommand>
    1710:	00641583          	lh	a1,6(s0)
    1714:	00a41223          	sh	a0,4(s0)
    1718:	8526                	mv	a0,s1
    171a:	3f8d                	jal	168c <ApplyFmCommand>
    171c:	00a41323          	sh	a0,6(s0)
    1720:	4501                	li	a0,0
    1722:	3f49                	jal	16b4 <get_hd_rumble_pack>
    1724:	4705                	li	a4,1
    1726:	8ce18ca3          	sb	a4,-1831(gp) # 20001981 <decoded_cnt>
    172a:	a6bfe06f          	j	194 <__riscv_restore_0>

0000172e <decode_hd_rumble_format1long>:
    172e:	a43fe2ef          	jal	t0,170 <__riscv_save_0>
    1732:	00354703          	lbu	a4,3(a0)
    1736:	00254783          	lbu	a5,2(a0)
    173a:	20000637          	lui	a2,0x20000
    173e:	03f77713          	andi	a4,a4,63
    1742:	0077d693          	srli	a3,a5,0x7
    1746:	0706                	slli	a4,a4,0x1
    1748:	8f55                	or	a4,a4,a3
    174a:	00171593          	slli	a1,a4,0x1
    174e:	1c060693          	addi	a3,a2,448 # 200001c0 <amp_exp2_index_lookup_tb>
    1752:	96ae                	add	a3,a3,a1
    1754:	00069583          	lh	a1,0(a3) # 2d000000 <_eusrstack+0xcffb000>
    1758:	1c060613          	addi	a2,a2,448
    175c:	8cb19823          	sh	a1,-1840(gp) # 20001978 <m_state>
    1760:	8d018693          	addi	a3,gp,-1840 # 20001978 <m_state>
    1764:	c589                	beqz	a1,176e <decode_hd_rumble_format1long+0x40>
    1766:	200025b7          	lui	a1,0x20002
    176a:	8ae5a623          	sw	a4,-1876(a1) # 200018ac <hliner>
    176e:	20000737          	lui	a4,0x20000
    1772:	07f7f793          	andi	a5,a5,127
    1776:	0c070713          	addi	a4,a4,192 # 200000c0 <freq_exp2_index_lookup_tb>
    177a:	0786                	slli	a5,a5,0x1
    177c:	97ba                	add	a5,a5,a4
    177e:	0007d783          	lhu	a5,0(a5)
    1782:	00f69123          	sh	a5,2(a3)
    1786:	00154783          	lbu	a5,1(a0)
    178a:	0fe7f793          	andi	a5,a5,254
    178e:	963e                	add	a2,a2,a5
    1790:	00065783          	lhu	a5,0(a2)
    1794:	00054603          	lbu	a2,0(a0)
    1798:	00f69223          	sh	a5,4(a3)
    179c:	00154783          	lbu	a5,1(a0)
    17a0:	8209                	srli	a2,a2,0x2
    17a2:	4501                	li	a0,0
    17a4:	8b85                	andi	a5,a5,1
    17a6:	079a                	slli	a5,a5,0x6
    17a8:	8fd1                	or	a5,a5,a2
    17aa:	0786                	slli	a5,a5,0x1
    17ac:	973e                	add	a4,a4,a5
    17ae:	00075783          	lhu	a5,0(a4)
    17b2:	00f69323          	sh	a5,6(a3)
    17b6:	3dfd                	jal	16b4 <get_hd_rumble_pack>
    17b8:	4705                	li	a4,1
    17ba:	8ce18ca3          	sb	a4,-1831(gp) # 20001981 <decoded_cnt>
    17be:	9d7fe06f          	j	194 <__riscv_restore_0>

000017c2 <decode_hd_rumble_format1full>:
    17c2:	9affe2ef          	jal	t0,170 <__riscv_save_0>
    17c6:	00354783          	lbu	a5,3(a0)
    17ca:	00254683          	lbu	a3,2(a0)
    17ce:	00054703          	lbu	a4,0(a0)
    17d2:	03f7f793          	andi	a5,a5,63
    17d6:	829d                	srli	a3,a3,0x7
    17d8:	0786                	slli	a5,a5,0x1
    17da:	00477613          	andi	a2,a4,4
    17de:	8fd5                	or	a5,a5,a3
    17e0:	8b05                	andi	a4,a4,1
    17e2:	84aa                	mv	s1,a0
    17e4:	8d018413          	addi	s0,gp,-1840 # 20001978 <m_state>
    17e8:	0786                	slli	a5,a5,0x1
    17ea:	0c070963          	beqz	a4,18bc <decode_hd_rumble_format1full+0xfa>
    17ee:	0a060d63          	beqz	a2,18a8 <decode_hd_rumble_format1full+0xe6>
    17f2:	20000737          	lui	a4,0x20000
    17f6:	0c070713          	addi	a4,a4,192 # 200000c0 <freq_exp2_index_lookup_tb>
    17fa:	97ba                	add	a5,a5,a4
    17fc:	0007d783          	lhu	a5,0(a5)
    1800:	00f41323          	sh	a5,6(s0)
    1804:	4501                	li	a0,0
    1806:	357d                	jal	16b4 <get_hd_rumble_pack>
    1808:	0024c903          	lbu	s2,2(s1)
    180c:	00041583          	lh	a1,0(s0)
    1810:	00295913          	srli	s2,s2,0x2
    1814:	01f97913          	andi	s2,s2,31
    1818:	854a                	mv	a0,s2
    181a:	35b9                	jal	1668 <ApplyAmCommand>
    181c:	00241583          	lh	a1,2(s0)
    1820:	00a41023          	sh	a0,0(s0)
    1824:	854a                	mv	a0,s2
    1826:	359d                	jal	168c <ApplyFmCommand>
    1828:	0024c903          	lbu	s2,2(s1)
    182c:	0014c783          	lbu	a5,1(s1)
    1830:	00441583          	lh	a1,4(s0)
    1834:	00397913          	andi	s2,s2,3
    1838:	8395                	srli	a5,a5,0x5
    183a:	090e                	slli	s2,s2,0x3
    183c:	00f96933          	or	s2,s2,a5
    1840:	00a41123          	sh	a0,2(s0)
    1844:	854a                	mv	a0,s2
    1846:	350d                	jal	1668 <ApplyAmCommand>
    1848:	00641583          	lh	a1,6(s0)
    184c:	00a41223          	sh	a0,4(s0)
    1850:	854a                	mv	a0,s2
    1852:	3d2d                	jal	168c <ApplyFmCommand>
    1854:	00a41323          	sh	a0,6(s0)
    1858:	4505                	li	a0,1
    185a:	3da9                	jal	16b4 <get_hd_rumble_pack>
    185c:	0014c903          	lbu	s2,1(s1)
    1860:	00041583          	lh	a1,0(s0)
    1864:	01f97913          	andi	s2,s2,31
    1868:	854a                	mv	a0,s2
    186a:	3bfd                	jal	1668 <ApplyAmCommand>
    186c:	00241583          	lh	a1,2(s0)
    1870:	00a41023          	sh	a0,0(s0)
    1874:	854a                	mv	a0,s2
    1876:	3d19                	jal	168c <ApplyFmCommand>
    1878:	0004c483          	lbu	s1,0(s1)
    187c:	00441583          	lh	a1,4(s0)
    1880:	00a41123          	sh	a0,2(s0)
    1884:	808d                	srli	s1,s1,0x3
    1886:	8526                	mv	a0,s1
    1888:	33c5                	jal	1668 <ApplyAmCommand>
    188a:	00641583          	lh	a1,6(s0)
    188e:	00a41223          	sh	a0,4(s0)
    1892:	8526                	mv	a0,s1
    1894:	3be5                	jal	168c <ApplyFmCommand>
    1896:	00a41323          	sh	a0,6(s0)
    189a:	4509                	li	a0,2
    189c:	3d21                	jal	16b4 <get_hd_rumble_pack>
    189e:	470d                	li	a4,3
    18a0:	8ce18ca3          	sb	a4,-1831(gp) # 20001981 <decoded_cnt>
    18a4:	8f1fe06f          	j	194 <__riscv_restore_0>
    18a8:	20000737          	lui	a4,0x20000
    18ac:	1c070713          	addi	a4,a4,448 # 200001c0 <amp_exp2_index_lookup_tb>
    18b0:	97ba                	add	a5,a5,a4
    18b2:	0007d783          	lhu	a5,0(a5)
    18b6:	00f41223          	sh	a5,4(s0)
    18ba:	b7a9                	j	1804 <decode_hd_rumble_format1full+0x42>
    18bc:	ca19                	beqz	a2,18d2 <decode_hd_rumble_format1full+0x110>
    18be:	20000737          	lui	a4,0x20000
    18c2:	0c070713          	addi	a4,a4,192 # 200000c0 <freq_exp2_index_lookup_tb>
    18c6:	97ba                	add	a5,a5,a4
    18c8:	0007d783          	lhu	a5,0(a5)
    18cc:	00f41123          	sh	a5,2(s0)
    18d0:	bf15                	j	1804 <decode_hd_rumble_format1full+0x42>
    18d2:	20000737          	lui	a4,0x20000
    18d6:	1c070713          	addi	a4,a4,448 # 200001c0 <amp_exp2_index_lookup_tb>
    18da:	97ba                	add	a5,a5,a4
    18dc:	0007d783          	lhu	a5,0(a5)
    18e0:	00f41023          	sh	a5,0(s0)
    18e4:	b705                	j	1804 <decode_hd_rumble_format1full+0x42>

000018e6 <decode_hd_rumble_format2>:
    18e6:	88bfe2ef          	jal	t0,170 <__riscv_save_0>
    18ea:	00354903          	lbu	s2,3(a0)
    18ee:	8d018413          	addi	s0,gp,-1840 # 20001978 <m_state>
    18f2:	00041583          	lh	a1,0(s0)
    18f6:	00195913          	srli	s2,s2,0x1
    18fa:	01f97913          	andi	s2,s2,31
    18fe:	84aa                	mv	s1,a0
    1900:	854a                	mv	a0,s2
    1902:	339d                	jal	1668 <ApplyAmCommand>
    1904:	00241583          	lh	a1,2(s0)
    1908:	00a41023          	sh	a0,0(s0)
    190c:	854a                	mv	a0,s2
    190e:	3bbd                	jal	168c <ApplyFmCommand>
    1910:	0034c903          	lbu	s2,3(s1)
    1914:	0024c783          	lbu	a5,2(s1)
    1918:	00441583          	lh	a1,4(s0)
    191c:	00197913          	andi	s2,s2,1
    1920:	8391                	srli	a5,a5,0x4
    1922:	0912                	slli	s2,s2,0x4
    1924:	00f96933          	or	s2,s2,a5
    1928:	00a41123          	sh	a0,2(s0)
    192c:	854a                	mv	a0,s2
    192e:	3b2d                	jal	1668 <ApplyAmCommand>
    1930:	00641583          	lh	a1,6(s0)
    1934:	00a41223          	sh	a0,4(s0)
    1938:	854a                	mv	a0,s2
    193a:	3b89                	jal	168c <ApplyFmCommand>
    193c:	00a41323          	sh	a0,6(s0)
    1940:	4501                	li	a0,0
    1942:	3b8d                	jal	16b4 <get_hd_rumble_pack>
    1944:	0024c903          	lbu	s2,2(s1)
    1948:	0014c783          	lbu	a5,1(s1)
    194c:	00041583          	lh	a1,0(s0)
    1950:	00f97913          	andi	s2,s2,15
    1954:	839d                	srli	a5,a5,0x7
    1956:	0906                	slli	s2,s2,0x1
    1958:	00f96933          	or	s2,s2,a5
    195c:	854a                	mv	a0,s2
    195e:	3329                	jal	1668 <ApplyAmCommand>
    1960:	00241583          	lh	a1,2(s0)
    1964:	00a41023          	sh	a0,0(s0)
    1968:	854a                	mv	a0,s2
    196a:	330d                	jal	168c <ApplyFmCommand>
    196c:	0014c483          	lbu	s1,1(s1)
    1970:	00441583          	lh	a1,4(s0)
    1974:	00a41123          	sh	a0,2(s0)
    1978:	8089                	srli	s1,s1,0x2
    197a:	88fd                	andi	s1,s1,31
    197c:	8526                	mv	a0,s1
    197e:	31ed                	jal	1668 <ApplyAmCommand>
    1980:	00641583          	lh	a1,6(s0)
    1984:	00a41223          	sh	a0,4(s0)
    1988:	8526                	mv	a0,s1
    198a:	3309                	jal	168c <ApplyFmCommand>
    198c:	00a41323          	sh	a0,6(s0)
    1990:	4505                	li	a0,1
    1992:	330d                	jal	16b4 <get_hd_rumble_pack>
    1994:	4709                	li	a4,2
    1996:	8ce18ca3          	sb	a4,-1831(gp) # 20001981 <decoded_cnt>
    199a:	ffafe06f          	j	194 <__riscv_restore_0>

0000199e <decode_hd_rumble_format2long>:
    199e:	fd2fe2ef          	jal	t0,170 <__riscv_save_0>
    19a2:	00354783          	lbu	a5,3(a0)
    19a6:	00254483          	lbu	s1,2(a0)
    19aa:	20000737          	lui	a4,0x20000
    19ae:	03f7f793          	andi	a5,a5,63
    19b2:	0074d693          	srli	a3,s1,0x7
    19b6:	0786                	slli	a5,a5,0x1
    19b8:	8fd5                	or	a5,a5,a3
    19ba:	1c070713          	addi	a4,a4,448 # 200001c0 <amp_exp2_index_lookup_tb>
    19be:	0786                	slli	a5,a5,0x1
    19c0:	97ba                	add	a5,a5,a4
    19c2:	00054703          	lbu	a4,0(a0)
    19c6:	00079683          	lh	a3,0(a5)
    19ca:	200007b7          	lui	a5,0x20000
    19ce:	0fe77613          	andi	a2,a4,254
    19d2:	0c078793          	addi	a5,a5,192 # 200000c0 <freq_exp2_index_lookup_tb>
    19d6:	97b2                	add	a5,a5,a2
    19d8:	8089                	srli	s1,s1,0x2
    19da:	8b05                	andi	a4,a4,1
    19dc:	00079783          	lh	a5,0(a5)
    19e0:	892a                	mv	s2,a0
    19e2:	88fd                	andi	s1,s1,31
    19e4:	8d018413          	addi	s0,gp,-1840 # 20001978 <m_state>
    19e8:	c749                	beqz	a4,1a72 <decode_hd_rumble_format2long+0xd4>
    19ea:	00041583          	lh	a1,0(s0)
    19ee:	8526                	mv	a0,s1
    19f0:	00d41223          	sh	a3,4(s0)
    19f4:	00f41323          	sh	a5,6(s0)
    19f8:	c71ff0ef          	jal	ra,1668 <ApplyAmCommand>
    19fc:	00241583          	lh	a1,2(s0)
    1a00:	00a41023          	sh	a0,0(s0)
    1a04:	8526                	mv	a0,s1
    1a06:	c87ff0ef          	jal	ra,168c <ApplyFmCommand>
    1a0a:	00a41123          	sh	a0,2(s0)
    1a0e:	4501                	li	a0,0
    1a10:	ca5ff0ef          	jal	ra,16b4 <get_hd_rumble_pack>
    1a14:	00294483          	lbu	s1,2(s2)
    1a18:	00194783          	lbu	a5,1(s2)
    1a1c:	00041583          	lh	a1,0(s0)
    1a20:	888d                	andi	s1,s1,3
    1a22:	8395                	srli	a5,a5,0x5
    1a24:	048e                	slli	s1,s1,0x3
    1a26:	8cdd                	or	s1,s1,a5
    1a28:	8526                	mv	a0,s1
    1a2a:	c3fff0ef          	jal	ra,1668 <ApplyAmCommand>
    1a2e:	00241583          	lh	a1,2(s0)
    1a32:	00a41023          	sh	a0,0(s0)
    1a36:	8526                	mv	a0,s1
    1a38:	c55ff0ef          	jal	ra,168c <ApplyFmCommand>
    1a3c:	00194483          	lbu	s1,1(s2)
    1a40:	00441583          	lh	a1,4(s0)
    1a44:	00a41123          	sh	a0,2(s0)
    1a48:	88fd                	andi	s1,s1,31
    1a4a:	8526                	mv	a0,s1
    1a4c:	c1dff0ef          	jal	ra,1668 <ApplyAmCommand>
    1a50:	00641583          	lh	a1,6(s0)
    1a54:	00a41223          	sh	a0,4(s0)
    1a58:	8526                	mv	a0,s1
    1a5a:	c33ff0ef          	jal	ra,168c <ApplyFmCommand>
    1a5e:	00a41323          	sh	a0,6(s0)
    1a62:	4505                	li	a0,1
    1a64:	c51ff0ef          	jal	ra,16b4 <get_hd_rumble_pack>
    1a68:	4709                	li	a4,2
    1a6a:	8ce18ca3          	sb	a4,-1831(gp) # 20001981 <decoded_cnt>
    1a6e:	f26fe06f          	j	194 <__riscv_restore_0>
    1a72:	00441583          	lh	a1,4(s0)
    1a76:	8526                	mv	a0,s1
    1a78:	00d41023          	sh	a3,0(s0)
    1a7c:	00f41123          	sh	a5,2(s0)
    1a80:	be9ff0ef          	jal	ra,1668 <ApplyAmCommand>
    1a84:	00641583          	lh	a1,6(s0)
    1a88:	00a41223          	sh	a0,4(s0)
    1a8c:	8526                	mv	a0,s1
    1a8e:	bffff0ef          	jal	ra,168c <ApplyFmCommand>
    1a92:	00a41323          	sh	a0,6(s0)
    1a96:	bfa5                	j	1a0e <decode_hd_rumble_format2long+0x70>

00001a98 <decode_hd_rumble_format3>:
    1a98:	ed8fe2ef          	jal	t0,170 <__riscv_save_0>
    1a9c:	00354903          	lbu	s2,3(a0)
    1aa0:	8d018413          	addi	s0,gp,-1840 # 20001978 <m_state>
    1aa4:	00041583          	lh	a1,0(s0)
    1aa8:	00195913          	srli	s2,s2,0x1
    1aac:	01f97913          	andi	s2,s2,31
    1ab0:	84aa                	mv	s1,a0
    1ab2:	854a                	mv	a0,s2
    1ab4:	bb5ff0ef          	jal	ra,1668 <ApplyAmCommand>
    1ab8:	00241583          	lh	a1,2(s0)
    1abc:	00a41023          	sh	a0,0(s0)
    1ac0:	854a                	mv	a0,s2
    1ac2:	bcbff0ef          	jal	ra,168c <ApplyFmCommand>
    1ac6:	0034c903          	lbu	s2,3(s1)
    1aca:	0024c783          	lbu	a5,2(s1)
    1ace:	00441583          	lh	a1,4(s0)
    1ad2:	00197913          	andi	s2,s2,1
    1ad6:	8391                	srli	a5,a5,0x4
    1ad8:	0912                	slli	s2,s2,0x4
    1ada:	00f96933          	or	s2,s2,a5
    1ade:	00a41123          	sh	a0,2(s0)
    1ae2:	854a                	mv	a0,s2
    1ae4:	b85ff0ef          	jal	ra,1668 <ApplyAmCommand>
    1ae8:	00641583          	lh	a1,6(s0)
    1aec:	00a41223          	sh	a0,4(s0)
    1af0:	854a                	mv	a0,s2
    1af2:	b9bff0ef          	jal	ra,168c <ApplyFmCommand>
    1af6:	00a41323          	sh	a0,6(s0)
    1afa:	4501                	li	a0,0
    1afc:	bb9ff0ef          	jal	ra,16b4 <get_hd_rumble_pack>
    1b00:	0024c903          	lbu	s2,2(s1)
    1b04:	0014c783          	lbu	a5,1(s1)
    1b08:	00041583          	lh	a1,0(s0)
    1b0c:	00f97913          	andi	s2,s2,15
    1b10:	839d                	srli	a5,a5,0x7
    1b12:	0906                	slli	s2,s2,0x1
    1b14:	00f96933          	or	s2,s2,a5
    1b18:	854a                	mv	a0,s2
    1b1a:	b4fff0ef          	jal	ra,1668 <ApplyAmCommand>
    1b1e:	00241583          	lh	a1,2(s0)
    1b22:	00a41023          	sh	a0,0(s0)
    1b26:	854a                	mv	a0,s2
    1b28:	b65ff0ef          	jal	ra,168c <ApplyFmCommand>
    1b2c:	0014c903          	lbu	s2,1(s1)
    1b30:	00441583          	lh	a1,4(s0)
    1b34:	00a41123          	sh	a0,2(s0)
    1b38:	00295913          	srli	s2,s2,0x2
    1b3c:	01f97913          	andi	s2,s2,31
    1b40:	854a                	mv	a0,s2
    1b42:	b27ff0ef          	jal	ra,1668 <ApplyAmCommand>
    1b46:	00641583          	lh	a1,6(s0)
    1b4a:	00a41223          	sh	a0,4(s0)
    1b4e:	854a                	mv	a0,s2
    1b50:	b3dff0ef          	jal	ra,168c <ApplyFmCommand>
    1b54:	00a41323          	sh	a0,6(s0)
    1b58:	4505                	li	a0,1
    1b5a:	b5bff0ef          	jal	ra,16b4 <get_hd_rumble_pack>
    1b5e:	0014c903          	lbu	s2,1(s1)
    1b62:	0004c783          	lbu	a5,0(s1)
    1b66:	00041583          	lh	a1,0(s0)
    1b6a:	00397913          	andi	s2,s2,3
    1b6e:	8395                	srli	a5,a5,0x5
    1b70:	090e                	slli	s2,s2,0x3
    1b72:	00f96933          	or	s2,s2,a5
    1b76:	854a                	mv	a0,s2
    1b78:	af1ff0ef          	jal	ra,1668 <ApplyAmCommand>
    1b7c:	00241583          	lh	a1,2(s0)
    1b80:	00a41023          	sh	a0,0(s0)
    1b84:	854a                	mv	a0,s2
    1b86:	b07ff0ef          	jal	ra,168c <ApplyFmCommand>
    1b8a:	0004c483          	lbu	s1,0(s1)
    1b8e:	00441583          	lh	a1,4(s0)
    1b92:	00a41123          	sh	a0,2(s0)
    1b96:	88fd                	andi	s1,s1,31
    1b98:	8526                	mv	a0,s1
    1b9a:	acfff0ef          	jal	ra,1668 <ApplyAmCommand>
    1b9e:	00641583          	lh	a1,6(s0)
    1ba2:	00a41223          	sh	a0,4(s0)
    1ba6:	8526                	mv	a0,s1
    1ba8:	ae5ff0ef          	jal	ra,168c <ApplyFmCommand>
    1bac:	00a41323          	sh	a0,6(s0)
    1bb0:	4509                	li	a0,2
    1bb2:	b03ff0ef          	jal	ra,16b4 <get_hd_rumble_pack>
    1bb6:	470d                	li	a4,3
    1bb8:	8ce18ca3          	sb	a4,-1831(gp) # 20001981 <decoded_cnt>
    1bbc:	dd8fe06f          	j	194 <__riscv_restore_0>

00001bc0 <decode_hd_rumble_multiformat_high_acc>:
    1bc0:	d80fe2ef          	jal	t0,140 <__riscv_save_12>
    1bc4:	00354703          	lbu	a4,3(a0)
    1bc8:	8c018c23          	sb	zero,-1832(gp) # 20001980 <global_sample_channel>
    1bcc:	8c018ca3          	sb	zero,-1831(gp) # 20001981 <decoded_cnt>
    1bd0:	8319                	srli	a4,a4,0x6
    1bd2:	4689                	li	a3,2
    1bd4:	842e                	mv	s0,a1
    1bd6:	0ed70e63          	beq	a4,a3,1cd2 <decode_hd_rumble_multiformat_high_acc+0x112>
    1bda:	468d                	li	a3,3
    1bdc:	10d70963          	beq	a4,a3,1cee <decode_hd_rumble_multiformat_high_acc+0x12e>
    1be0:	4685                	li	a3,1
    1be2:	02d71063          	bne	a4,a3,1c02 <decode_hd_rumble_multiformat_high_acc+0x42>
    1be6:	00154703          	lbu	a4,1(a0)
    1bea:	00254783          	lbu	a5,2(a0)
    1bee:	00054683          	lbu	a3,0(a0)
    1bf2:	0722                	slli	a4,a4,0x8
    1bf4:	8bbd                	andi	a5,a5,15
    1bf6:	8f55                	or	a4,a4,a3
    1bf8:	07c2                	slli	a5,a5,0x10
    1bfa:	8fd9                	or	a5,a5,a4
    1bfc:	e3f9                	bnez	a5,1cc2 <decode_hd_rumble_multiformat_high_acc+0x102>
    1bfe:	ad1ff0ef          	jal	ra,16ce <deocde_hd_rumble_format1>
    1c02:	8d91c503          	lbu	a0,-1831(gp) # 20001981 <decoded_cnt>
    1c06:	460d                	li	a2,3
    1c08:	4581                	li	a1,0
    1c0a:	200034b7          	lui	s1,0x20003
    1c0e:	cf6ff0ef          	jal	ra,1104 <i32_clamp>
    1c12:	20000c37          	lui	s8,0x20000
    1c16:	20003cb7          	lui	s9,0x20003
    1c1a:	b8448b93          	addi	s7,s1,-1148 # 20002b84 <linear_samples>
    1c1e:	8ca18ca3          	sb	a0,-1831(gp) # 20001981 <decoded_cnt>
    1c22:	4d01                	li	s10,0
    1c24:	b8448493          	addi	s1,s1,-1148
    1c28:	8c818a93          	addi	s5,gp,-1848 # 20001970 <sample>
    1c2c:	2c0c0c13          	addi	s8,s8,704 # 200002c0 <exp2_lookup_tb>
    1c30:	92cc8c93          	addi	s9,s9,-1748 # 2000292c <user_config>
    1c34:	14000d93          	li	s11,320
    1c38:	502f9937          	lui	s2,0x502f9
    1c3c:	49a5                	li	s3,9
    1c3e:	8d91c783          	lbu	a5,-1831(gp) # 20001981 <decoded_cnt>
    1c42:	0afd4863          	blt	s10,a5,1cf2 <decode_hd_rumble_multiformat_high_acc+0x132>
    1c46:	00344783          	lbu	a5,3(s0)
    1c4a:	4705                	li	a4,1
    1c4c:	8ce18c23          	sb	a4,-1832(gp) # 20001980 <global_sample_channel>
    1c50:	8c018ca3          	sb	zero,-1831(gp) # 20001981 <decoded_cnt>
    1c54:	8399                	srli	a5,a5,0x6
    1c56:	4689                	li	a3,2
    1c58:	12d78763          	beq	a5,a3,1d86 <decode_hd_rumble_multiformat_high_acc+0x1c6>
    1c5c:	468d                	li	a3,3
    1c5e:	14d78363          	beq	a5,a3,1da4 <decode_hd_rumble_multiformat_high_acc+0x1e4>
    1c62:	02e79263          	bne	a5,a4,1c86 <decode_hd_rumble_multiformat_high_acc+0xc6>
    1c66:	00144703          	lbu	a4,1(s0)
    1c6a:	00244783          	lbu	a5,2(s0)
    1c6e:	00044683          	lbu	a3,0(s0)
    1c72:	0722                	slli	a4,a4,0x8
    1c74:	8bbd                	andi	a5,a5,15
    1c76:	8f55                	or	a4,a4,a3
    1c78:	07c2                	slli	a5,a5,0x10
    1c7a:	8fd9                	or	a5,a5,a4
    1c7c:	0e079c63          	bnez	a5,1d74 <decode_hd_rumble_multiformat_high_acc+0x1b4>
    1c80:	8522                	mv	a0,s0
    1c82:	a4dff0ef          	jal	ra,16ce <deocde_hd_rumble_format1>
    1c86:	8d91c503          	lbu	a0,-1831(gp) # 20001981 <decoded_cnt>
    1c8a:	460d                	li	a2,3
    1c8c:	4581                	li	a1,0
    1c8e:	c76ff0ef          	jal	ra,1104 <i32_clamp>
    1c92:	20000ab7          	lui	s5,0x20000
    1c96:	20003b37          	lui	s6,0x20003
    1c9a:	8ca18ca3          	sb	a0,-1831(gp) # 20001981 <decoded_cnt>
    1c9e:	4b81                	li	s7,0
    1ca0:	8c818413          	addi	s0,gp,-1848 # 20001970 <sample>
    1ca4:	2c0a8a93          	addi	s5,s5,704 # 200002c0 <exp2_lookup_tb>
    1ca8:	92cb0b13          	addi	s6,s6,-1748 # 2000292c <user_config>
    1cac:	14000c13          	li	s8,320
    1cb0:	502f9937          	lui	s2,0x502f9
    1cb4:	49a5                	li	s3,9
    1cb6:	8d91c783          	lbu	a5,-1831(gp) # 20001981 <decoded_cnt>
    1cba:	0efbc963          	blt	s7,a5,1dac <decode_hd_rumble_multiformat_high_acc+0x1ec>
    1cbe:	cbefe06f          	j	17c <__riscv_restore_12>
    1cc2:	8a8d                	andi	a3,a3,3
    1cc4:	e681                	bnez	a3,1ccc <decode_hd_rumble_multiformat_high_acc+0x10c>
    1cc6:	a69ff0ef          	jal	ra,172e <decode_hd_rumble_format1long>
    1cca:	bf25                	j	1c02 <decode_hd_rumble_multiformat_high_acc+0x42>
    1ccc:	af7ff0ef          	jal	ra,17c2 <decode_hd_rumble_format1full>
    1cd0:	bf0d                	j	1c02 <decode_hd_rumble_multiformat_high_acc+0x42>
    1cd2:	00154783          	lbu	a5,1(a0)
    1cd6:	00054703          	lbu	a4,0(a0)
    1cda:	8b8d                	andi	a5,a5,3
    1cdc:	07a2                	slli	a5,a5,0x8
    1cde:	8fd9                	or	a5,a5,a4
    1ce0:	e781                	bnez	a5,1ce8 <decode_hd_rumble_multiformat_high_acc+0x128>
    1ce2:	c05ff0ef          	jal	ra,18e6 <decode_hd_rumble_format2>
    1ce6:	bf31                	j	1c02 <decode_hd_rumble_multiformat_high_acc+0x42>
    1ce8:	cb7ff0ef          	jal	ra,199e <decode_hd_rumble_format2long>
    1cec:	bf19                	j	1c02 <decode_hd_rumble_multiformat_high_acc+0x42>
    1cee:	336d                	jal	1a98 <decode_hd_rumble_format3>
    1cf0:	bf09                	j	1c02 <decode_hd_rumble_multiformat_high_acc+0x42>
    1cf2:	004b9703          	lh	a4,4(s7) # 40004 <_data_lma+0x34420>
    1cf6:	003cc783          	lbu	a5,3(s9)
    1cfa:	4681                	li	a3,0
    1cfc:	070a                	slli	a4,a4,0x2
    1cfe:	9762                	add	a4,a4,s8
    1d00:	4318                	lw	a4,0(a4)
    1d02:	854a                	mv	a0,s2
    1d04:	85ce                	mv	a1,s3
    1d06:	02e787b3          	mul	a5,a5,a4
    1d0a:	0d05                	addi	s10,s10,1
    1d0c:	0ba1                	addi	s7,s7,8
    1d0e:	83ad                	srli	a5,a5,0xb
    1d10:	00faa223          	sw	a5,4(s5)
    1d14:	ffeb9783          	lh	a5,-2(s7)
    1d18:	078a                	slli	a5,a5,0x2
    1d1a:	97e2                	add	a5,a5,s8
    1d1c:	4390                	lw	a2,0(a5)
    1d1e:	02cd8633          	mul	a2,s11,a2
    1d22:	0605                	addi	a2,a2,1
    1d24:	766050ef          	jal	ra,748a <__udivdi3>
    1d28:	00aaa023          	sw	a0,0(s5)
    1d2c:	85d6                	mv	a1,s5
    1d2e:	4501                	li	a0,0
    1d30:	2aa5                	jal	1ea8 <push_waveform>
    1d32:	ff8b9703          	lh	a4,-8(s7)
    1d36:	005cc783          	lbu	a5,5(s9)
    1d3a:	0a000613          	li	a2,160
    1d3e:	070a                	slli	a4,a4,0x2
    1d40:	9762                	add	a4,a4,s8
    1d42:	4318                	lw	a4,0(a4)
    1d44:	4681                	li	a3,0
    1d46:	854a                	mv	a0,s2
    1d48:	02e787b3          	mul	a5,a5,a4
    1d4c:	85ce                	mv	a1,s3
    1d4e:	83ad                	srli	a5,a5,0xb
    1d50:	00faa223          	sw	a5,4(s5)
    1d54:	ffab9783          	lh	a5,-6(s7)
    1d58:	078a                	slli	a5,a5,0x2
    1d5a:	97e2                	add	a5,a5,s8
    1d5c:	439c                	lw	a5,0(a5)
    1d5e:	02f60633          	mul	a2,a2,a5
    1d62:	0605                	addi	a2,a2,1
    1d64:	726050ef          	jal	ra,748a <__udivdi3>
    1d68:	00aaa023          	sw	a0,0(s5)
    1d6c:	85d6                	mv	a1,s5
    1d6e:	4509                	li	a0,2
    1d70:	2a25                	jal	1ea8 <push_waveform>
    1d72:	b5f1                	j	1c3e <decode_hd_rumble_multiformat_high_acc+0x7e>
    1d74:	8a8d                	andi	a3,a3,3
    1d76:	8522                	mv	a0,s0
    1d78:	e681                	bnez	a3,1d80 <decode_hd_rumble_multiformat_high_acc+0x1c0>
    1d7a:	9b5ff0ef          	jal	ra,172e <decode_hd_rumble_format1long>
    1d7e:	b721                	j	1c86 <decode_hd_rumble_multiformat_high_acc+0xc6>
    1d80:	a43ff0ef          	jal	ra,17c2 <decode_hd_rumble_format1full>
    1d84:	b709                	j	1c86 <decode_hd_rumble_multiformat_high_acc+0xc6>
    1d86:	00144783          	lbu	a5,1(s0)
    1d8a:	00044703          	lbu	a4,0(s0)
    1d8e:	8522                	mv	a0,s0
    1d90:	8b8d                	andi	a5,a5,3
    1d92:	07a2                	slli	a5,a5,0x8
    1d94:	8fd9                	or	a5,a5,a4
    1d96:	e781                	bnez	a5,1d9e <decode_hd_rumble_multiformat_high_acc+0x1de>
    1d98:	b4fff0ef          	jal	ra,18e6 <decode_hd_rumble_format2>
    1d9c:	b5ed                	j	1c86 <decode_hd_rumble_multiformat_high_acc+0xc6>
    1d9e:	c01ff0ef          	jal	ra,199e <decode_hd_rumble_format2long>
    1da2:	b5d5                	j	1c86 <decode_hd_rumble_multiformat_high_acc+0xc6>
    1da4:	8522                	mv	a0,s0
    1da6:	cf3ff0ef          	jal	ra,1a98 <decode_hd_rumble_format3>
    1daa:	bdf1                	j	1c86 <decode_hd_rumble_multiformat_high_acc+0xc6>
    1dac:	00449703          	lh	a4,4(s1)
    1db0:	004b4783          	lbu	a5,4(s6)
    1db4:	4681                	li	a3,0
    1db6:	070a                	slli	a4,a4,0x2
    1db8:	9756                	add	a4,a4,s5
    1dba:	4318                	lw	a4,0(a4)
    1dbc:	854a                	mv	a0,s2
    1dbe:	85ce                	mv	a1,s3
    1dc0:	02e787b3          	mul	a5,a5,a4
    1dc4:	0b85                	addi	s7,s7,1
    1dc6:	04a1                	addi	s1,s1,8
    1dc8:	83ad                	srli	a5,a5,0xb
    1dca:	c05c                	sw	a5,4(s0)
    1dcc:	ffe49783          	lh	a5,-2(s1)
    1dd0:	078a                	slli	a5,a5,0x2
    1dd2:	97d6                	add	a5,a5,s5
    1dd4:	4390                	lw	a2,0(a5)
    1dd6:	02cc0633          	mul	a2,s8,a2
    1dda:	0605                	addi	a2,a2,1
    1ddc:	6ae050ef          	jal	ra,748a <__udivdi3>
    1de0:	c008                	sw	a0,0(s0)
    1de2:	85a2                	mv	a1,s0
    1de4:	4505                	li	a0,1
    1de6:	20c9                	jal	1ea8 <push_waveform>
    1de8:	ff849703          	lh	a4,-8(s1)
    1dec:	006b4783          	lbu	a5,6(s6)
    1df0:	0a000613          	li	a2,160
    1df4:	070a                	slli	a4,a4,0x2
    1df6:	9756                	add	a4,a4,s5
    1df8:	4318                	lw	a4,0(a4)
    1dfa:	4681                	li	a3,0
    1dfc:	854a                	mv	a0,s2
    1dfe:	02e787b3          	mul	a5,a5,a4
    1e02:	85ce                	mv	a1,s3
    1e04:	83ad                	srli	a5,a5,0xb
    1e06:	c05c                	sw	a5,4(s0)
    1e08:	ffa49783          	lh	a5,-6(s1)
    1e0c:	078a                	slli	a5,a5,0x2
    1e0e:	97d6                	add	a5,a5,s5
    1e10:	439c                	lw	a5,0(a5)
    1e12:	02f60633          	mul	a2,a2,a5
    1e16:	0605                	addi	a2,a2,1
    1e18:	672050ef          	jal	ra,748a <__udivdi3>
    1e1c:	c008                	sw	a0,0(s0)
    1e1e:	85a2                	mv	a1,s0
    1e20:	450d                	li	a0,3
    1e22:	2059                	jal	1ea8 <push_waveform>
    1e24:	bd49                	j	1cb6 <decode_hd_rumble_multiformat_high_acc+0xf6>

00001e26 <hd_rumble_high_accurary_init>:
    1e26:	b4afe2ef          	jal	t0,170 <__riscv_save_0>
    1e2a:	200035b7          	lui	a1,0x20003
    1e2e:	20003537          	lui	a0,0x20003
    1e32:	46a1                	li	a3,8
    1e34:	02000613          	li	a2,32
    1e38:	e9c58593          	addi	a1,a1,-356 # 20002e9c <left_high_rb_buf>
    1e3c:	14c50513          	addi	a0,a0,332 # 2000314c <left_high_rb>
    1e40:	52f020ef          	jal	ra,4b6e <ring_buffer_init>
    1e44:	200035b7          	lui	a1,0x20003
    1e48:	20003537          	lui	a0,0x20003
    1e4c:	46a1                	li	a3,8
    1e4e:	02000613          	li	a2,32
    1e52:	d9c58593          	addi	a1,a1,-612 # 20002d9c <left_low_rb_buf>
    1e56:	0bc50513          	addi	a0,a0,188 # 200030bc <left_low_rb>
    1e5a:	515020ef          	jal	ra,4b6e <ring_buffer_init>
    1e5e:	200035b7          	lui	a1,0x20003
    1e62:	20003537          	lui	a0,0x20003
    1e66:	46a1                	li	a3,8
    1e68:	02000613          	li	a2,32
    1e6c:	c9c58593          	addi	a1,a1,-868 # 20002c9c <right_high_rb_buf>
    1e70:	02c50513          	addi	a0,a0,44 # 2000302c <right_high_rb>
    1e74:	4fb020ef          	jal	ra,4b6e <ring_buffer_init>
    1e78:	200035b7          	lui	a1,0x20003
    1e7c:	20003537          	lui	a0,0x20003
    1e80:	46a1                	li	a3,8
    1e82:	02000613          	li	a2,32
    1e86:	b9c58593          	addi	a1,a1,-1124 # 20002b9c <right_low_rb_buf>
    1e8a:	f9c50513          	addi	a0,a0,-100 # 20002f9c <right_low_rb>
    1e8e:	4e1020ef          	jal	ra,4b6e <ring_buffer_init>
    1e92:	4785                	li	a5,1
    1e94:	90f18423          	sb	a5,-1784(gp) # 200019b0 <right_low_buf_stdby>
    1e98:	90f184a3          	sb	a5,-1783(gp) # 200019b1 <right_high_buf_stdby>
    1e9c:	90f18523          	sb	a5,-1782(gp) # 200019b2 <left_low_buf_stdby>
    1ea0:	90f185a3          	sb	a5,-1781(gp) # 200019b3 <left_high_buf_stdby>
    1ea4:	af0fe06f          	j	194 <__riscv_restore_0>

00001ea8 <push_waveform>:
    1ea8:	cda1                	beqz	a1,1f00 <push_waveform+0x58>
    1eaa:	ac6fe2ef          	jal	t0,170 <__riscv_save_0>
    1eae:	4789                	li	a5,2
    1eb0:	02f50363          	beq	a0,a5,1ed6 <push_waveform+0x2e>
    1eb4:	00a7ec63          	bltu	a5,a0,1ecc <push_waveform+0x24>
    1eb8:	e515                	bnez	a0,1ee4 <push_waveform+0x3c>
    1eba:	20003537          	lui	a0,0x20003
    1ebe:	4681                	li	a3,0
    1ec0:	4621                	li	a2,8
    1ec2:	14c50513          	addi	a0,a0,332 # 2000314c <left_high_rb>
    1ec6:	4ef020ef          	jal	ra,4bb4 <ring_buffer_push>
    1eca:	a021                	j	1ed2 <push_waveform+0x2a>
    1ecc:	478d                	li	a5,3
    1ece:	02f50263          	beq	a0,a5,1ef2 <push_waveform+0x4a>
    1ed2:	ac2fe06f          	j	194 <__riscv_restore_0>
    1ed6:	20003537          	lui	a0,0x20003
    1eda:	4681                	li	a3,0
    1edc:	4621                	li	a2,8
    1ede:	0bc50513          	addi	a0,a0,188 # 200030bc <left_low_rb>
    1ee2:	b7d5                	j	1ec6 <push_waveform+0x1e>
    1ee4:	20003537          	lui	a0,0x20003
    1ee8:	4681                	li	a3,0
    1eea:	4621                	li	a2,8
    1eec:	02c50513          	addi	a0,a0,44 # 2000302c <right_high_rb>
    1ef0:	bfd9                	j	1ec6 <push_waveform+0x1e>
    1ef2:	20003537          	lui	a0,0x20003
    1ef6:	4681                	li	a3,0
    1ef8:	4621                	li	a2,8
    1efa:	f9c50513          	addi	a0,a0,-100 # 20002f9c <right_low_rb>
    1efe:	b7e1                	j	1ec6 <push_waveform+0x1e>
    1f00:	8082                	ret

00001f02 <push_waveform_into_buffer_task>:
    1f02:	a6efe2ef          	jal	t0,170 <__riscv_save_0>
    1f06:	90b1c783          	lbu	a5,-1781(gp) # 200019b3 <left_high_buf_stdby>
    1f0a:	cf9d                	beqz	a5,1f48 <push_waveform_into_buffer_task+0x46>
    1f0c:	20003537          	lui	a0,0x20003
    1f10:	14c50793          	addi	a5,a0,332 # 2000314c <left_high_rb>
    1f14:	0887a683          	lw	a3,136(a5)
    1f18:	ca85                	beqz	a3,1f48 <push_waveform_into_buffer_task+0x46>
    1f1a:	0847c783          	lbu	a5,132(a5)
    1f1e:	200036b7          	lui	a3,0x20003
    1f22:	e9c68693          	addi	a3,a3,-356 # 20002e9c <left_high_rb_buf>
    1f26:	078e                	slli	a5,a5,0x3
    1f28:	97b6                	add	a5,a5,a3
    1f2a:	4394                	lw	a3,0(a5)
    1f2c:	43dc                	lw	a5,4(a5)
    1f2e:	900185a3          	sb	zero,-1781(gp) # 200019b3 <left_high_buf_stdby>
    1f32:	92818713          	addi	a4,gp,-1752 # 200019d0 <left_high_buf>
    1f36:	14c50513          	addi	a0,a0,332
    1f3a:	c35c                	sw	a5,4(a4)
    1f3c:	c314                	sw	a3,0(a4)
    1f3e:	50f020ef          	jal	ra,4c4c <ring_buffer_pop>
    1f42:	4705                	li	a4,1
    1f44:	90e187a3          	sb	a4,-1777(gp) # 200019b7 <left_high_buf_rdy>
    1f48:	90a1c783          	lbu	a5,-1782(gp) # 200019b2 <left_low_buf_stdby>
    1f4c:	cf9d                	beqz	a5,1f8a <push_waveform_into_buffer_task+0x88>
    1f4e:	20003537          	lui	a0,0x20003
    1f52:	0bc50793          	addi	a5,a0,188 # 200030bc <left_low_rb>
    1f56:	0887a683          	lw	a3,136(a5)
    1f5a:	ca85                	beqz	a3,1f8a <push_waveform_into_buffer_task+0x88>
    1f5c:	0847c783          	lbu	a5,132(a5)
    1f60:	200036b7          	lui	a3,0x20003
    1f64:	d9c68693          	addi	a3,a3,-612 # 20002d9c <left_low_rb_buf>
    1f68:	078e                	slli	a5,a5,0x3
    1f6a:	97b6                	add	a5,a5,a3
    1f6c:	4394                	lw	a3,0(a5)
    1f6e:	43dc                	lw	a5,4(a5)
    1f70:	90018523          	sb	zero,-1782(gp) # 200019b2 <left_low_buf_stdby>
    1f74:	92018713          	addi	a4,gp,-1760 # 200019c8 <left_low_buf>
    1f78:	0bc50513          	addi	a0,a0,188
    1f7c:	c35c                	sw	a5,4(a4)
    1f7e:	c314                	sw	a3,0(a4)
    1f80:	4cd020ef          	jal	ra,4c4c <ring_buffer_pop>
    1f84:	4705                	li	a4,1
    1f86:	90e18723          	sb	a4,-1778(gp) # 200019b6 <left_low_buf_rdy>
    1f8a:	9091c783          	lbu	a5,-1783(gp) # 200019b1 <right_high_buf_stdby>
    1f8e:	cf9d                	beqz	a5,1fcc <push_waveform_into_buffer_task+0xca>
    1f90:	20003537          	lui	a0,0x20003
    1f94:	02c50793          	addi	a5,a0,44 # 2000302c <right_high_rb>
    1f98:	0887a683          	lw	a3,136(a5)
    1f9c:	ca85                	beqz	a3,1fcc <push_waveform_into_buffer_task+0xca>
    1f9e:	0847c783          	lbu	a5,132(a5)
    1fa2:	200036b7          	lui	a3,0x20003
    1fa6:	c9c68693          	addi	a3,a3,-868 # 20002c9c <right_high_rb_buf>
    1faa:	078e                	slli	a5,a5,0x3
    1fac:	97b6                	add	a5,a5,a3
    1fae:	4394                	lw	a3,0(a5)
    1fb0:	43dc                	lw	a5,4(a5)
    1fb2:	900184a3          	sb	zero,-1783(gp) # 200019b1 <right_high_buf_stdby>
    1fb6:	91818713          	addi	a4,gp,-1768 # 200019c0 <right_high_buf>
    1fba:	02c50513          	addi	a0,a0,44
    1fbe:	c35c                	sw	a5,4(a4)
    1fc0:	c314                	sw	a3,0(a4)
    1fc2:	48b020ef          	jal	ra,4c4c <ring_buffer_pop>
    1fc6:	4705                	li	a4,1
    1fc8:	90e186a3          	sb	a4,-1779(gp) # 200019b5 <right_high_buf_rdy>
    1fcc:	9081c783          	lbu	a5,-1784(gp) # 200019b0 <right_low_buf_stdby>
    1fd0:	cf9d                	beqz	a5,200e <push_waveform_into_buffer_task+0x10c>
    1fd2:	20003537          	lui	a0,0x20003
    1fd6:	f9c50793          	addi	a5,a0,-100 # 20002f9c <right_low_rb>
    1fda:	0887a683          	lw	a3,136(a5)
    1fde:	ca85                	beqz	a3,200e <push_waveform_into_buffer_task+0x10c>
    1fe0:	0847c783          	lbu	a5,132(a5)
    1fe4:	200036b7          	lui	a3,0x20003
    1fe8:	b9c68693          	addi	a3,a3,-1124 # 20002b9c <right_low_rb_buf>
    1fec:	078e                	slli	a5,a5,0x3
    1fee:	97b6                	add	a5,a5,a3
    1ff0:	4394                	lw	a3,0(a5)
    1ff2:	43dc                	lw	a5,4(a5)
    1ff4:	90018423          	sb	zero,-1784(gp) # 200019b0 <right_low_buf_stdby>
    1ff8:	91018713          	addi	a4,gp,-1776 # 200019b8 <right_low_buf>
    1ffc:	f9c50513          	addi	a0,a0,-100
    2000:	c35c                	sw	a5,4(a4)
    2002:	c314                	sw	a3,0(a4)
    2004:	449020ef          	jal	ra,4c4c <ring_buffer_pop>
    2008:	4705                	li	a4,1
    200a:	90e18623          	sb	a4,-1780(gp) # 200019b4 <right_low_buf_rdy>
    200e:	986fe06f          	j	194 <__riscv_restore_0>

00002012 <step_forward>:
    2012:	ce15                	beqz	a2,204e <step_forward+0x3c>
    2014:	4198                	lw	a4,0(a1)
    2016:	67e1                	lui	a5,0x18
    2018:	6a078793          	addi	a5,a5,1696 # 186a0 <_data_lma+0xcabc>
    201c:	973e                	add	a4,a4,a5
    201e:	c198                	sw	a4,0(a1)
    2020:	00c77463          	bgeu	a4,a2,2028 <step_forward+0x16>
    2024:	4501                	li	a0,0
    2026:	8082                	ret
    2028:	02c756b3          	divu	a3,a4,a2
    202c:	00055783          	lhu	a5,0(a0)
    2030:	02c77733          	remu	a4,a4,a2
    2034:	97b6                	add	a5,a5,a3
    2036:	07c2                	slli	a5,a5,0x10
    2038:	83c1                	srli	a5,a5,0x10
    203a:	00f51023          	sh	a5,0(a0)
    203e:	c198                	sw	a4,0(a1)
    2040:	00b7d713          	srli	a4,a5,0xb
    2044:	d365                	beqz	a4,2024 <step_forward+0x12>
    2046:	7ff7f793          	andi	a5,a5,2047
    204a:	00f51023          	sh	a5,0(a0)
    204e:	4505                	li	a0,1
    2050:	8082                	ret

00002052 <rumble_pattern_check>:
    2052:	91efe2ef          	jal	t0,170 <__riscv_save_0>
    2056:	200037b7          	lui	a5,0x20003
    205a:	92c7c783          	lbu	a5,-1748(a5) # 2000292c <user_config>
    205e:	872a                	mv	a4,a0
    2060:	8436                	mv	s0,a3
    2062:	0407f793          	andi	a5,a5,64
    2066:	852e                	mv	a0,a1
    2068:	4354                	lw	a3,4(a4)
    206a:	85b2                	mv	a1,a2
    206c:	c395                	beqz	a5,2090 <rumble_pattern_check+0x3e>
    206e:	4785                	li	a5,1
    2070:	ce81                	beqz	a3,2088 <rumble_pattern_check+0x36>
    2072:	4310                	lw	a2,0(a4)
    2074:	3f79                	jal	2012 <step_forward>
    2076:	4781                	li	a5,0
    2078:	c901                	beqz	a0,2088 <rumble_pattern_check+0x36>
    207a:	8dc1a783          	lw	a5,-1828(gp) # 20001984 <tim3_counter>
    207e:	8f81                	sub	a5,a5,s0
    2080:	0fa7b793          	sltiu	a5,a5,250
    2084:	0017c793          	xori	a5,a5,1
    2088:	0ff7f513          	zext.b	a0,a5
    208c:	908fe06f          	j	194 <__riscv_restore_0>
    2090:	ea99                	bnez	a3,20a6 <rumble_pattern_check+0x54>
    2092:	8dc1a503          	lw	a0,-1828(gp) # 20001984 <tim3_counter>
    2096:	8d01                	sub	a0,a0,s0
    2098:	0fa53513          	sltiu	a0,a0,250
    209c:	00154513          	xori	a0,a0,1
    20a0:	0ff57513          	zext.b	a0,a0
    20a4:	b7e5                	j	208c <rumble_pattern_check+0x3a>
    20a6:	4310                	lw	a2,0(a4)
    20a8:	37ad                	jal	2012 <step_forward>
    20aa:	f565                	bnez	a0,2092 <rumble_pattern_check+0x40>
    20ac:	bfd5                	j	20a0 <rumble_pattern_check+0x4e>

000020ae <TIM3_IRQHandler>:
    20ae:	40000537          	lui	a0,0x40000
    20b2:	7179                	addi	sp,sp,-48
    20b4:	4585                	li	a1,1
    20b6:	40050513          	addi	a0,a0,1024 # 40000400 <_eusrstack+0x1fffb400>
    20ba:	d622                	sw	s0,44(sp)
    20bc:	d426                	sw	s1,40(sp)
    20be:	d24a                	sw	s2,36(sp)
    20c0:	d04e                	sw	s3,32(sp)
    20c2:	ce52                	sw	s4,28(sp)
    20c4:	cc56                	sw	s5,24(sp)
    20c6:	ca5a                	sw	s6,20(sp)
    20c8:	c85e                	sw	s7,16(sp)
    20ca:	c662                	sw	s8,12(sp)
    20cc:	c466                	sw	s9,8(sp)
    20ce:	c26a                	sw	s10,4(sp)
    20d0:	c06e                	sw	s11,0(sp)
    20d2:	114050ef          	jal	ra,71e6 <TIM_GetITStatus>
    20d6:	4785                	li	a5,1
    20d8:	1cf51863          	bne	a0,a5,22a8 <TIM3_IRQHandler+0x1fa>
    20dc:	8dc1a403          	lw	s0,-1828(gp) # 20001984 <tim3_counter>
    20e0:	8ec1a483          	lw	s1,-1812(gp) # 20001994 <left_high_tick>
    20e4:	892a                	mv	s2,a0
    20e6:	0405                	addi	s0,s0,1
    20e8:	94818513          	addi	a0,gp,-1720 # 200019f0 <left_high>
    20ec:	86a6                	mv	a3,s1
    20ee:	8fc18613          	addi	a2,gp,-1796 # 200019a4 <left_high_sum>
    20f2:	90618593          	addi	a1,gp,-1786 # 200019ae <left_high_pos>
    20f6:	8c81ae23          	sw	s0,-1828(gp) # 20001984 <tim3_counter>
    20fa:	3fa1                	jal	2052 <rumble_pattern_check>
    20fc:	94818a93          	addi	s5,gp,-1720 # 200019f0 <left_high>
    2100:	c51d                	beqz	a0,212e <TIM3_IRQHandler+0x80>
    2102:	90f1c703          	lbu	a4,-1777(gp) # 200019b7 <left_high_buf_rdy>
    2106:	1c070063          	beqz	a4,22c6 <TIM3_IRQHandler+0x218>
    210a:	900187a3          	sb	zero,-1777(gp) # 200019b7 <left_high_buf_rdy>
    210e:	92818793          	addi	a5,gp,-1752 # 200019d0 <left_high_buf>
    2112:	4398                	lw	a4,0(a5)
    2114:	43dc                	lw	a5,4(a5)
    2116:	90019323          	sh	zero,-1786(gp) # 200019ae <left_high_pos>
    211a:	00eaa023          	sw	a4,0(s5)
    211e:	00faa223          	sw	a5,4(s5)
    2122:	8e01ae23          	sw	zero,-1796(gp) # 200019a4 <left_high_sum>
    2126:	912185a3          	sb	s2,-1781(gp) # 200019b3 <left_high_buf_stdby>
    212a:	8e81a623          	sw	s0,-1812(gp) # 20001994 <left_high_tick>
    212e:	8e81a903          	lw	s2,-1816(gp) # 20001990 <left_low_tick>
    2132:	94018513          	addi	a0,gp,-1728 # 200019e8 <left_low>
    2136:	86ca                	mv	a3,s2
    2138:	8f818613          	addi	a2,gp,-1800 # 200019a0 <left_low_sum>
    213c:	90418593          	addi	a1,gp,-1788 # 200019ac <left_low_pos>
    2140:	3f09                	jal	2052 <rumble_pattern_check>
    2142:	94018493          	addi	s1,gp,-1728 # 200019e8 <left_low>
    2146:	c515                	beqz	a0,2172 <TIM3_IRQHandler+0xc4>
    2148:	90e1c703          	lbu	a4,-1778(gp) # 200019b6 <left_low_buf_rdy>
    214c:	18070663          	beqz	a4,22d8 <TIM3_IRQHandler+0x22a>
    2150:	90018723          	sb	zero,-1778(gp) # 200019b6 <left_low_buf_rdy>
    2154:	92018793          	addi	a5,gp,-1760 # 200019c8 <left_low_buf>
    2158:	4398                	lw	a4,0(a5)
    215a:	43dc                	lw	a5,4(a5)
    215c:	90019223          	sh	zero,-1788(gp) # 200019ac <left_low_pos>
    2160:	c098                	sw	a4,0(s1)
    2162:	c0dc                	sw	a5,4(s1)
    2164:	4705                	li	a4,1
    2166:	8e01ac23          	sw	zero,-1800(gp) # 200019a0 <left_low_sum>
    216a:	90e18523          	sb	a4,-1782(gp) # 200019b2 <left_low_buf_stdby>
    216e:	8e81a423          	sw	s0,-1816(gp) # 20001990 <left_low_tick>
    2172:	8e41a903          	lw	s2,-1820(gp) # 2000198c <right_high_tick>
    2176:	93818513          	addi	a0,gp,-1736 # 200019e0 <right_high>
    217a:	86ca                	mv	a3,s2
    217c:	8f418613          	addi	a2,gp,-1804 # 2000199c <right_high_sum>
    2180:	90218593          	addi	a1,gp,-1790 # 200019aa <right_high_pos>
    2184:	35f9                	jal	2052 <rumble_pattern_check>
    2186:	93818993          	addi	s3,gp,-1736 # 200019e0 <right_high>
    218a:	c905                	beqz	a0,21ba <TIM3_IRQHandler+0x10c>
    218c:	90d1c703          	lbu	a4,-1779(gp) # 200019b5 <right_high_buf_rdy>
    2190:	14070d63          	beqz	a4,22ea <TIM3_IRQHandler+0x23c>
    2194:	900186a3          	sb	zero,-1779(gp) # 200019b5 <right_high_buf_rdy>
    2198:	91818793          	addi	a5,gp,-1768 # 200019c0 <right_high_buf>
    219c:	4398                	lw	a4,0(a5)
    219e:	43dc                	lw	a5,4(a5)
    21a0:	90019123          	sh	zero,-1790(gp) # 200019aa <right_high_pos>
    21a4:	00e9a023          	sw	a4,0(s3)
    21a8:	00f9a223          	sw	a5,4(s3)
    21ac:	4705                	li	a4,1
    21ae:	8e01aa23          	sw	zero,-1804(gp) # 2000199c <right_high_sum>
    21b2:	90e184a3          	sb	a4,-1783(gp) # 200019b1 <right_high_buf_stdby>
    21b6:	8e81a223          	sw	s0,-1820(gp) # 2000198c <right_high_tick>
    21ba:	8e01ac83          	lw	s9,-1824(gp) # 20001988 <right_low_tick>
    21be:	93018513          	addi	a0,gp,-1744 # 200019d8 <right_low>
    21c2:	86e6                	mv	a3,s9
    21c4:	8f018613          	addi	a2,gp,-1808 # 20001998 <right_low_sum>
    21c8:	90018593          	addi	a1,gp,-1792 # 200019a8 <right_low_pos>
    21cc:	3559                	jal	2052 <rumble_pattern_check>
    21ce:	93018913          	addi	s2,gp,-1744 # 200019d8 <right_low>
    21d2:	c905                	beqz	a0,2202 <TIM3_IRQHandler+0x154>
    21d4:	90c1c703          	lbu	a4,-1780(gp) # 200019b4 <right_low_buf_rdy>
    21d8:	12070263          	beqz	a4,22fc <TIM3_IRQHandler+0x24e>
    21dc:	90018623          	sb	zero,-1780(gp) # 200019b4 <right_low_buf_rdy>
    21e0:	91018793          	addi	a5,gp,-1776 # 200019b8 <right_low_buf>
    21e4:	4398                	lw	a4,0(a5)
    21e6:	43dc                	lw	a5,4(a5)
    21e8:	90019023          	sh	zero,-1792(gp) # 200019a8 <right_low_pos>
    21ec:	00e92023          	sw	a4,0(s2) # 502f9000 <_eusrstack+0x302f4000>
    21f0:	00f92223          	sw	a5,4(s2)
    21f4:	4705                	li	a4,1
    21f6:	8e01a823          	sw	zero,-1808(gp) # 20001998 <right_low_sum>
    21fa:	90e18423          	sb	a4,-1784(gp) # 200019b0 <right_low_buf_stdby>
    21fe:	8e81a023          	sw	s0,-1824(gp) # 20001988 <right_low_tick>
    2202:	9061d783          	lhu	a5,-1786(gp) # 200019ae <left_high_pos>
    2206:	20000437          	lui	s0,0x20000
    220a:	7c040413          	addi	s0,s0,1984 # 200007c0 <ccr_lookup_tb>
    220e:	0786                	slli	a5,a5,0x1
    2210:	97a2                	add	a5,a5,s0
    2212:	00079503          	lh	a0,0(a5)
    2216:	004aa783          	lw	a5,4(s5)
    221a:	40d8                	lw	a4,4(s1)
    221c:	2d000a93          	li	s5,720
    2220:	02f50533          	mul	a0,a0,a5
    2224:	9041d783          	lhu	a5,-1788(gp) # 200019ac <left_low_pos>
    2228:	5a000613          	li	a2,1440
    222c:	4581                	li	a1,0
    222e:	0786                	slli	a5,a5,0x1
    2230:	97a2                	add	a5,a5,s0
    2232:	00079783          	lh	a5,0(a5)
    2236:	400004b7          	lui	s1,0x40000
    223a:	40048493          	addi	s1,s1,1024 # 40000400 <_eusrstack+0x1fffb400>
    223e:	02e787b3          	mul	a5,a5,a4
    2242:	953e                	add	a0,a0,a5
    2244:	03550533          	mul	a0,a0,s5
    2248:	8551                	srai	a0,a0,0x14
    224a:	2d050513          	addi	a0,a0,720
    224e:	eb7fe0ef          	jal	ra,1104 <i32_clamp>
    2252:	0542                	slli	a0,a0,0x10
    2254:	8141                	srli	a0,a0,0x10
    2256:	02a49e23          	sh	a0,60(s1)
    225a:	9021d783          	lhu	a5,-1790(gp) # 200019aa <right_high_pos>
    225e:	00492703          	lw	a4,4(s2)
    2262:	4581                	li	a1,0
    2264:	0786                	slli	a5,a5,0x1
    2266:	97a2                	add	a5,a5,s0
    2268:	00079503          	lh	a0,0(a5)
    226c:	0049a783          	lw	a5,4(s3)
    2270:	5a000613          	li	a2,1440
    2274:	02f50533          	mul	a0,a0,a5
    2278:	9001d783          	lhu	a5,-1792(gp) # 200019a8 <right_low_pos>
    227c:	0786                	slli	a5,a5,0x1
    227e:	943e                	add	s0,s0,a5
    2280:	00041783          	lh	a5,0(s0)
    2284:	02e787b3          	mul	a5,a5,a4
    2288:	953e                	add	a0,a0,a5
    228a:	03550533          	mul	a0,a0,s5
    228e:	8551                	srai	a0,a0,0x14
    2290:	2d050513          	addi	a0,a0,720
    2294:	e71fe0ef          	jal	ra,1104 <i32_clamp>
    2298:	0542                	slli	a0,a0,0x10
    229a:	8141                	srli	a0,a0,0x10
    229c:	04a49023          	sh	a0,64(s1)
    22a0:	4585                	li	a1,1
    22a2:	8526                	mv	a0,s1
    22a4:	75f040ef          	jal	ra,7202 <TIM_ClearITPendingBit>
    22a8:	5432                	lw	s0,44(sp)
    22aa:	54a2                	lw	s1,40(sp)
    22ac:	5912                	lw	s2,36(sp)
    22ae:	5982                	lw	s3,32(sp)
    22b0:	4a72                	lw	s4,28(sp)
    22b2:	4ae2                	lw	s5,24(sp)
    22b4:	4b52                	lw	s6,20(sp)
    22b6:	4bc2                	lw	s7,16(sp)
    22b8:	4c32                	lw	s8,12(sp)
    22ba:	4ca2                	lw	s9,8(sp)
    22bc:	4d12                	lw	s10,4(sp)
    22be:	4d82                	lw	s11,0(sp)
    22c0:	6145                	addi	sp,sp,48
    22c2:	30200073          	mret
    22c6:	409404b3          	sub	s1,s0,s1
    22ca:	63f00793          	li	a5,1599
    22ce:	e697f0e3          	bgeu	a5,s1,212e <TIM3_IRQHandler+0x80>
    22d2:	000aa223          	sw	zero,4(s5)
    22d6:	bda1                	j	212e <TIM3_IRQHandler+0x80>
    22d8:	41240933          	sub	s2,s0,s2
    22dc:	63f00793          	li	a5,1599
    22e0:	e927f9e3          	bgeu	a5,s2,2172 <TIM3_IRQHandler+0xc4>
    22e4:	0004a223          	sw	zero,4(s1)
    22e8:	b569                	j	2172 <TIM3_IRQHandler+0xc4>
    22ea:	41240933          	sub	s2,s0,s2
    22ee:	63f00793          	li	a5,1599
    22f2:	ed27f4e3          	bgeu	a5,s2,21ba <TIM3_IRQHandler+0x10c>
    22f6:	0009a223          	sw	zero,4(s3)
    22fa:	b5c1                	j	21ba <TIM3_IRQHandler+0x10c>
    22fc:	41940433          	sub	s0,s0,s9
    2300:	63f00793          	li	a5,1599
    2304:	ee87ffe3          	bgeu	a5,s0,2202 <TIM3_IRQHandler+0x154>
    2308:	00092223          	sw	zero,4(s2)
    230c:	bddd                	j	2202 <TIM3_IRQHandler+0x154>

0000230e <i2c2_check_flag>:
    230e:	e63fd2ef          	jal	t0,170 <__riscv_save_0>
    2312:	85aa                	mv	a1,a0
    2314:	40006537          	lui	a0,0x40006
    2318:	80050513          	addi	a0,a0,-2048 # 40005800 <_eusrstack+0x20000800>
    231c:	7e6040ef          	jal	ra,6b02 <I2C_GetFlagStatus>
    2320:	00153513          	seqz	a0,a0
    2324:	e71fd06f          	j	194 <__riscv_restore_0>

00002328 <i2c2_check_event>:
    2328:	e49fd2ef          	jal	t0,170 <__riscv_save_0>
    232c:	85aa                	mv	a1,a0
    232e:	40006537          	lui	a0,0x40006
    2332:	80050513          	addi	a0,a0,-2048 # 40005800 <_eusrstack+0x20000800>
    2336:	7b2040ef          	jal	ra,6ae8 <I2C_CheckEvent>
    233a:	0ff57513          	zext.b	a0,a0
    233e:	e57fd06f          	j	194 <__riscv_restore_0>

00002342 <I2C2_ER_IRQHandler>:
    2342:	40006737          	lui	a4,0x40006
    2346:	81475783          	lhu	a5,-2028(a4) # 40005814 <_eusrstack+0x20000814>
    234a:	80070713          	addi	a4,a4,-2048
    234e:	83a1                	srli	a5,a5,0x8
    2350:	94f188a3          	sb	a5,-1711(gp) # 200019f9 <i2c_intr_error>
    2354:	01475783          	lhu	a5,20(a4)
    2358:	07c2                	slli	a5,a5,0x10
    235a:	83c1                	srli	a5,a5,0x10
    235c:	f007f793          	andi	a5,a5,-256
    2360:	07c2                	slli	a5,a5,0x10
    2362:	83c1                	srli	a5,a5,0x10
    2364:	00f71a23          	sh	a5,20(a4)
    2368:	30200073          	mret

0000236c <i2c_software_recovery>:
    236c:	debfd2ef          	jal	t0,156 <__riscv_save_4>
    2370:	40006537          	lui	a0,0x40006
    2374:	1141                	addi	sp,sp,-16
    2376:	4581                	li	a1,0
    2378:	80050513          	addi	a0,a0,-2048 # 40005800 <_eusrstack+0x20000800>
    237c:	69a040ef          	jal	ra,6a16 <I2C_Cmd>
    2380:	40011437          	lui	s0,0x40011
    2384:	40000793          	li	a5,1024
    2388:	490d                	li	s2,3
    238a:	49d1                	li	s3,20
    238c:	004c                	addi	a1,sp,4
    238e:	c0040513          	addi	a0,s0,-1024 # 40010c00 <_eusrstack+0x2000bc00>
    2392:	c23e                	sw	a5,4(sp)
    2394:	c44a                	sw	s2,8(sp)
    2396:	c64e                	sw	s3,12(sp)
    2398:	6485                	lui	s1,0x1
    239a:	43a040ef          	jal	ra,67d4 <GPIO_Init>
    239e:	80048493          	addi	s1,s1,-2048 # 800 <USBFS_IRQHandler+0x43a>
    23a2:	004c                	addi	a1,sp,4
    23a4:	c0040513          	addi	a0,s0,-1024
    23a8:	c64e                	sw	s3,12(sp)
    23aa:	c44a                	sw	s2,8(sp)
    23ac:	00911223          	sh	s1,4(sp)
    23b0:	424040ef          	jal	ra,67d4 <GPIO_Init>
    23b4:	40000593          	li	a1,1024
    23b8:	c0040513          	addi	a0,s0,-1024
    23bc:	4e6040ef          	jal	ra,68a2 <GPIO_ResetBits>
    23c0:	85a6                	mv	a1,s1
    23c2:	c0040513          	addi	a0,s0,-1024
    23c6:	4d8040ef          	jal	ra,689e <GPIO_SetBits>
    23ca:	4505                	li	a0,1
    23cc:	669020ef          	jal	ra,5234 <Delay_Us>
    23d0:	40000593          	li	a1,1024
    23d4:	c0040513          	addi	a0,s0,-1024
    23d8:	4c6040ef          	jal	ra,689e <GPIO_SetBits>
    23dc:	4505                	li	a0,1
    23de:	657020ef          	jal	ra,5234 <Delay_Us>
    23e2:	85a6                	mv	a1,s1
    23e4:	c0040513          	addi	a0,s0,-1024
    23e8:	4ba040ef          	jal	ra,68a2 <GPIO_ResetBits>
    23ec:	4505                	li	a0,1
    23ee:	647020ef          	jal	ra,5234 <Delay_Us>
    23f2:	49a9                	li	s3,10
    23f4:	c0040a13          	addi	s4,s0,-1024
    23f8:	6905                	lui	s2,0x1
    23fa:	40000593          	li	a1,1024
    23fe:	8552                	mv	a0,s4
    2400:	4a2040ef          	jal	ra,68a2 <GPIO_ResetBits>
    2404:	85a6                	mv	a1,s1
    2406:	8552                	mv	a0,s4
    2408:	496040ef          	jal	ra,689e <GPIO_SetBits>
    240c:	4505                	li	a0,1
    240e:	627020ef          	jal	ra,5234 <Delay_Us>
    2412:	40000593          	li	a1,1024
    2416:	8552                	mv	a0,s4
    2418:	486040ef          	jal	ra,689e <GPIO_SetBits>
    241c:	4505                	li	a0,1
    241e:	19fd                	addi	s3,s3,-1
    2420:	615020ef          	jal	ra,5234 <Delay_Us>
    2424:	fc099be3          	bnez	s3,23fa <i2c_software_recovery+0x8e>
    2428:	c0040513          	addi	a0,s0,-1024
    242c:	40000593          	li	a1,1024
    2430:	472040ef          	jal	ra,68a2 <GPIO_ResetBits>
    2434:	80090593          	addi	a1,s2,-2048 # 800 <USBFS_IRQHandler+0x43a>
    2438:	c0040513          	addi	a0,s0,-1024
    243c:	466040ef          	jal	ra,68a2 <GPIO_ResetBits>
    2440:	4505                	li	a0,1
    2442:	5f3020ef          	jal	ra,5234 <Delay_Us>
    2446:	40000593          	li	a1,1024
    244a:	c0040513          	addi	a0,s0,-1024
    244e:	450040ef          	jal	ra,689e <GPIO_SetBits>
    2452:	4505                	li	a0,1
    2454:	5e1020ef          	jal	ra,5234 <Delay_Us>
    2458:	80090593          	addi	a1,s2,-2048
    245c:	c0040513          	addi	a0,s0,-1024
    2460:	43e040ef          	jal	ra,689e <GPIO_SetBits>
    2464:	4505                	li	a0,1
    2466:	5cf020ef          	jal	ra,5234 <Delay_Us>
    246a:	4791                	li	a5,4
    246c:	004c                	addi	a1,sp,4
    246e:	c0040513          	addi	a0,s0,-1024
    2472:	c63e                	sw	a5,12(sp)
    2474:	360040ef          	jal	ra,67d4 <GPIO_Init>
    2478:	80090593          	addi	a1,s2,-2048
    247c:	c0040513          	addi	a0,s0,-1024
    2480:	412040ef          	jal	ra,6892 <GPIO_ReadInputDataBit>
    2484:	0141                	addi	sp,sp,16
    2486:	d05fd06f          	j	18a <__riscv_restore_4>

0000248a <i2c2_reset>:
    248a:	ce7fd2ef          	jal	t0,170 <__riscv_save_0>
    248e:	40006437          	lui	s0,0x40006
    2492:	4581                	li	a1,0
    2494:	80040513          	addi	a0,s0,-2048 # 40005800 <_eusrstack+0x20000800>
    2498:	940189a3          	sb	zero,-1709(gp) # 200019fb <i2c_status>
    249c:	57a040ef          	jal	ra,6a16 <I2C_Cmd>
    24a0:	80040513          	addi	a0,s0,-2048
    24a4:	42e040ef          	jal	ra,68d2 <I2C_DeInit>
    24a8:	ec5ff0ef          	jal	ra,236c <i2c_software_recovery>
    24ac:	9511c783          	lbu	a5,-1711(gp) # 200019f9 <i2c_intr_error>
    24b0:	8d5d                	or	a0,a0,a5
    24b2:	0ff57513          	zext.b	a0,a0
    24b6:	c901                	beqz	a0,24c6 <i2c2_reset+0x3c>
    24b8:	000c3537          	lui	a0,0xc3
    24bc:	4601                	li	a2,0
    24be:	4581                	li	a1,0
    24c0:	50050513          	addi	a0,a0,1280 # c3500 <_data_lma+0xb791c>
    24c4:	2029                	jal	24ce <i2c_hardware_init>
    24c6:	4ff020ef          	jal	ra,51c4 <Get_Systick_US>
    24ca:	ccbfd06f          	j	194 <__riscv_restore_0>

000024ce <i2c_hardware_init>:
    24ce:	c89fd2ef          	jal	t0,156 <__riscv_save_4>
    24d2:	1101                	addi	sp,sp,-32
    24d4:	84ae                	mv	s1,a1
    24d6:	892a                	mv	s2,a0
    24d8:	4585                	li	a1,1
    24da:	4525                	li	a0,9
    24dc:	8432                	mv	s0,a2
    24de:	c202                	sw	zero,4(sp)
    24e0:	c402                	sw	zero,8(sp)
    24e2:	c602                	sw	zero,12(sp)
    24e4:	c802                	sw	zero,16(sp)
    24e6:	ca02                	sw	zero,20(sp)
    24e8:	cc02                	sw	zero,24(sp)
    24ea:	ce02                	sw	zero,28(sp)
    24ec:	0b5040ef          	jal	ra,6da0 <RCC_APB2PeriphClockCmd>
    24f0:	4585                	li	a1,1
    24f2:	00400537          	lui	a0,0x400
    24f6:	0c9040ef          	jal	ra,6dbe <RCC_APB1PeriphClockCmd>
    24fa:	40011a37          	lui	s4,0x40011
    24fe:	40000993          	li	s3,1024
    2502:	4b71                	li	s6,28
    2504:	4a8d                	li	s5,3
    2506:	004c                	addi	a1,sp,4
    2508:	c00a0513          	addi	a0,s4,-1024 # 40010c00 <_eusrstack+0x2000bc00>
    250c:	01311223          	sh	s3,4(sp)
    2510:	c65a                	sw	s6,12(sp)
    2512:	c456                	sw	s5,8(sp)
    2514:	2c0040ef          	jal	ra,67d4 <GPIO_Init>
    2518:	6785                	lui	a5,0x1
    251a:	80078793          	addi	a5,a5,-2048 # 800 <USBFS_IRQHandler+0x43a>
    251e:	004c                	addi	a1,sp,4
    2520:	c00a0513          	addi	a0,s4,-1024
    2524:	00f11223          	sh	a5,4(sp)
    2528:	c65a                	sw	s6,12(sp)
    252a:	c456                	sw	s5,8(sp)
    252c:	2a8040ef          	jal	ra,67d4 <GPIO_Init>
    2530:	400007b7          	lui	a5,0x40000
    2534:	00911c23          	sh	s1,24(sp)
    2538:	400064b7          	lui	s1,0x40006
    253c:	ca3e                	sw	a5,20(sp)
    253e:	080c                	addi	a1,sp,16
    2540:	6791                	lui	a5,0x4
    2542:	80048513          	addi	a0,s1,-2048 # 40005800 <_eusrstack+0x20000800>
    2546:	00f11e23          	sh	a5,28(sp)
    254a:	c84a                	sw	s2,16(sp)
    254c:	01311d23          	sh	s3,26(sp)
    2550:	3b4040ef          	jal	ra,6904 <I2C_Init>
    2554:	4585                	li	a1,1
    2556:	80048513          	addi	a0,s1,-2048
    255a:	4bc040ef          	jal	ra,6a16 <I2C_Cmd>
    255e:	6509                	lui	a0,0x2
    2560:	0c800613          	li	a2,200
    2564:	000205b7          	lui	a1,0x20
    2568:	30e50513          	addi	a0,a0,782 # 230e <i2c2_check_flag>
    256c:	48d020ef          	jal	ra,51f8 <wait_nonblocking_us>
    2570:	c909                	beqz	a0,2582 <i2c_hardware_init+0xb4>
    2572:	c809                	beqz	s0,2584 <i2c_hardware_init+0xb6>
    2574:	4585                	li	a1,1
    2576:	80048513          	addi	a0,s1,-2048
    257a:	532040ef          	jal	ra,6aac <I2C_SoftwareResetCmd>
    257e:	f0dff0ef          	jal	ra,248a <i2c2_reset>
    2582:	4405                	li	s0,1
    2584:	948189a3          	sb	s0,-1709(gp) # 200019fb <i2c_status>
    2588:	6105                	addi	sp,sp,32
    258a:	c01fd06f          	j	18a <__riscv_restore_4>

0000258e <i2c_read_start>:
    258e:	9531c783          	lbu	a5,-1709(gp) # 200019fb <i2c_status>
    2592:	12078c63          	beqz	a5,26ca <i2c_read_start+0x13c>
    2596:	bc1fd2ef          	jal	t0,156 <__riscv_save_4>
    259a:	40006437          	lui	s0,0x40006
    259e:	8aaa                	mv	s5,a0
    25a0:	8a2e                	mv	s4,a1
    25a2:	80040513          	addi	a0,s0,-2048 # 40005800 <_eusrstack+0x20000800>
    25a6:	4585                	li	a1,1
    25a8:	4c6040ef          	jal	ra,6a6e <I2C_AcknowledgeConfig>
    25ac:	6509                	lui	a0,0x2
    25ae:	0c800613          	li	a2,200
    25b2:	000205b7          	lui	a1,0x20
    25b6:	30e50513          	addi	a0,a0,782 # 230e <i2c2_check_flag>
    25ba:	43f020ef          	jal	ra,51f8 <wait_nonblocking_us>
    25be:	9511c783          	lbu	a5,-1711(gp) # 200019f9 <i2c_intr_error>
    25c2:	0ff57513          	zext.b	a0,a0
    25c6:	8fc9                	or	a5,a5,a0
    25c8:	c791                	beqz	a5,25d4 <i2c_read_start+0x46>
    25ca:	4705                	li	a4,1
    25cc:	94e18923          	sb	a4,-1710(gp) # 200019fa <i2c_error_code>
    25d0:	bbbfd06f          	j	18a <__riscv_restore_4>
    25d4:	4585                	li	a1,1
    25d6:	80040513          	addi	a0,s0,-2048
    25da:	458040ef          	jal	ra,6a32 <I2C_GenerateSTART>
    25de:	000309b7          	lui	s3,0x30
    25e2:	6909                	lui	s2,0x2
    25e4:	0c800613          	li	a2,200
    25e8:	00198593          	addi	a1,s3,1 # 30001 <_data_lma+0x2441d>
    25ec:	32890513          	addi	a0,s2,808 # 2328 <i2c2_check_event>
    25f0:	409020ef          	jal	ra,51f8 <wait_nonblocking_us>
    25f4:	9511c783          	lbu	a5,-1711(gp) # 200019f9 <i2c_intr_error>
    25f8:	0ff57513          	zext.b	a0,a0
    25fc:	8fc9                	or	a5,a5,a0
    25fe:	c399                	beqz	a5,2604 <i2c_read_start+0x76>
    2600:	4709                	li	a4,2
    2602:	b7e9                	j	25cc <i2c_read_start+0x3e>
    2604:	4601                	li	a2,0
    2606:	0d400593          	li	a1,212
    260a:	80040513          	addi	a0,s0,-2048
    260e:	48e040ef          	jal	ra,6a9c <I2C_Send7bitAddress>
    2612:	00070b37          	lui	s6,0x70
    2616:	0c800613          	li	a2,200
    261a:	082b0593          	addi	a1,s6,130 # 70082 <_data_lma+0x6449e>
    261e:	32890513          	addi	a0,s2,808
    2622:	3d7020ef          	jal	ra,51f8 <wait_nonblocking_us>
    2626:	9511c783          	lbu	a5,-1711(gp) # 200019f9 <i2c_intr_error>
    262a:	0ff57513          	zext.b	a0,a0
    262e:	8fc9                	or	a5,a5,a0
    2630:	c399                	beqz	a5,2636 <i2c_read_start+0xa8>
    2632:	470d                	li	a4,3
    2634:	bf61                	j	25cc <i2c_read_start+0x3e>
    2636:	85d6                	mv	a1,s5
    2638:	80040513          	addi	a0,s0,-2048
    263c:	450040ef          	jal	ra,6a8c <I2C_SendData>
    2640:	0c800613          	li	a2,200
    2644:	084b0593          	addi	a1,s6,132
    2648:	32890513          	addi	a0,s2,808
    264c:	3ad020ef          	jal	ra,51f8 <wait_nonblocking_us>
    2650:	9511c783          	lbu	a5,-1711(gp) # 200019f9 <i2c_intr_error>
    2654:	0ff57513          	zext.b	a0,a0
    2658:	8fc9                	or	a5,a5,a0
    265a:	c399                	beqz	a5,2660 <i2c_read_start+0xd2>
    265c:	4711                	li	a4,4
    265e:	b7bd                	j	25cc <i2c_read_start+0x3e>
    2660:	85d2                	mv	a1,s4
    2662:	80040513          	addi	a0,s0,-2048
    2666:	408040ef          	jal	ra,6a6e <I2C_AcknowledgeConfig>
    266a:	4585                	li	a1,1
    266c:	80040513          	addi	a0,s0,-2048
    2670:	3c2040ef          	jal	ra,6a32 <I2C_GenerateSTART>
    2674:	0c800613          	li	a2,200
    2678:	00198593          	addi	a1,s3,1
    267c:	32890513          	addi	a0,s2,808
    2680:	379020ef          	jal	ra,51f8 <wait_nonblocking_us>
    2684:	9511c783          	lbu	a5,-1711(gp) # 200019f9 <i2c_intr_error>
    2688:	0ff57513          	zext.b	a0,a0
    268c:	8fc9                	or	a5,a5,a0
    268e:	c399                	beqz	a5,2694 <i2c_read_start+0x106>
    2690:	4715                	li	a4,5
    2692:	bf2d                	j	25cc <i2c_read_start+0x3e>
    2694:	4605                	li	a2,1
    2696:	0d400593          	li	a1,212
    269a:	80040513          	addi	a0,s0,-2048
    269e:	3fe040ef          	jal	ra,6a9c <I2C_Send7bitAddress>
    26a2:	0c800613          	li	a2,200
    26a6:	00298593          	addi	a1,s3,2
    26aa:	32890513          	addi	a0,s2,808
    26ae:	34b020ef          	jal	ra,51f8 <wait_nonblocking_us>
    26b2:	0ff57793          	zext.b	a5,a0
    26b6:	9511c503          	lbu	a0,-1711(gp) # 200019f9 <i2c_intr_error>
    26ba:	8d5d                	or	a0,a0,a5
    26bc:	f0050ae3          	beqz	a0,25d0 <i2c_read_start+0x42>
    26c0:	4699                	li	a3,6
    26c2:	94d18923          	sb	a3,-1710(gp) # 200019fa <i2c_error_code>
    26c6:	853e                	mv	a0,a5
    26c8:	b721                	j	25d0 <i2c_read_start+0x42>
    26ca:	4505                	li	a0,1
    26cc:	8082                	ret

000026ce <i2c_read_byte>:
    26ce:	a89fd2ef          	jal	t0,156 <__riscv_save_4>
    26d2:	892e                	mv	s2,a1
    26d4:	0ff57513          	zext.b	a0,a0
    26d8:	4581                	li	a1,0
    26da:	eb5ff0ef          	jal	ra,258e <i2c_read_start>
    26de:	9511c783          	lbu	a5,-1711(gp) # 200019f9 <i2c_intr_error>
    26e2:	94a18823          	sb	a0,-1712(gp) # 200019f8 <res.0>
    26e6:	8d5d                	or	a0,a0,a5
    26e8:	e51d                	bnez	a0,2716 <i2c_read_byte+0x48>
    26ea:	000305b7          	lui	a1,0x30
    26ee:	6509                	lui	a0,0x2
    26f0:	0c800613          	li	a2,200
    26f4:	04058593          	addi	a1,a1,64 # 30040 <_data_lma+0x2445c>
    26f8:	32850513          	addi	a0,a0,808 # 2328 <i2c2_check_event>
    26fc:	2fd020ef          	jal	ra,51f8 <wait_nonblocking_us>
    2700:	9511c783          	lbu	a5,-1711(gp) # 200019f9 <i2c_intr_error>
    2704:	0ff57513          	zext.b	a0,a0
    2708:	94a18823          	sb	a0,-1712(gp) # 200019f8 <res.0>
    270c:	8d5d                	or	a0,a0,a5
    270e:	c519                	beqz	a0,271c <i2c_read_byte+0x4e>
    2710:	4725                	li	a4,9
    2712:	94e18923          	sb	a4,-1710(gp) # 200019fa <i2c_error_code>
    2716:	d75ff0ef          	jal	ra,248a <i2c2_reset>
    271a:	a025                	j	2742 <i2c_read_byte+0x74>
    271c:	400069b7          	lui	s3,0x40006
    2720:	80098513          	addi	a0,s3,-2048 # 40005800 <_eusrstack+0x20000800>
    2724:	36e040ef          	jal	ra,6a92 <I2C_ReceiveData>
    2728:	00a90023          	sb	a0,0(s2)
    272c:	4585                	li	a1,1
    272e:	80098513          	addi	a0,s3,-2048
    2732:	31e040ef          	jal	ra,6a50 <I2C_GenerateSTOP>
    2736:	9501c783          	lbu	a5,-1712(gp) # 200019f8 <res.0>
    273a:	9511c703          	lbu	a4,-1711(gp) # 200019f9 <i2c_intr_error>
    273e:	8fd9                	or	a5,a5,a4
    2740:	fbf9                	bnez	a5,2716 <i2c_read_byte+0x48>
    2742:	9501c503          	lbu	a0,-1712(gp) # 200019f8 <res.0>
    2746:	200037b7          	lui	a5,0x20003
    274a:	9aa78923          	sb	a0,-1614(a5) # 200029b2 <user_calibration+0xa>
    274e:	a3dfd06f          	j	18a <__riscv_restore_4>

00002752 <i2c_read_continuous>:
    2752:	9f7fd2ef          	jal	t0,148 <__riscv_save_10>
    2756:	4785                	li	a5,1
    2758:	00f61663          	bne	a2,a5,2764 <i2c_read_continuous+0x12>
    275c:	f73ff0ef          	jal	ra,26ce <i2c_read_byte>
    2760:	a21fd06f          	j	180 <__riscv_restore_10>
    2764:	892e                	mv	s2,a1
    2766:	4585                	li	a1,1
    2768:	8432                	mv	s0,a2
    276a:	e25ff0ef          	jal	ra,258e <i2c_read_start>
    276e:	84aa                	mv	s1,a0
    2770:	e135                	bnez	a0,27d4 <i2c_read_continuous+0x82>
    2772:	147d                	addi	s0,s0,-1
    2774:	00030a37          	lui	s4,0x30
    2778:	6a85                	lui	s5,0x1
    277a:	400069b7          	lui	s3,0x40006
    277e:	0ff47413          	zext.b	s0,s0
    2782:	040a0a13          	addi	s4,s4,64 # 30040 <_data_lma+0x2445c>
    2786:	6b89                	lui	s7,0x2
    2788:	800a8a93          	addi	s5,s5,-2048 # 800 <USBFS_IRQHandler+0x43a>
    278c:	80098993          	addi	s3,s3,-2048 # 40005800 <_eusrstack+0x20000800>
    2790:	0ff00793          	li	a5,255
    2794:	02f40363          	beq	s0,a5,27ba <i2c_read_continuous+0x68>
    2798:	0c800613          	li	a2,200
    279c:	85d2                	mv	a1,s4
    279e:	328b8513          	addi	a0,s7,808 # 2328 <i2c2_check_event>
    27a2:	257020ef          	jal	ra,51f8 <wait_nonblocking_us>
    27a6:	9511c783          	lbu	a5,-1711(gp) # 200019f9 <i2c_intr_error>
    27aa:	0ff57513          	zext.b	a0,a0
    27ae:	8fc9                	or	a5,a5,a0
    27b0:	c795                	beqz	a5,27dc <i2c_read_continuous+0x8a>
    27b2:	471d                	li	a4,7
    27b4:	94e18923          	sb	a4,-1710(gp) # 200019fa <i2c_error_code>
    27b8:	84aa                	mv	s1,a0
    27ba:	40006537          	lui	a0,0x40006
    27be:	80050513          	addi	a0,a0,-2048 # 40005800 <_eusrstack+0x20000800>
    27c2:	4585                	li	a1,1
    27c4:	28c040ef          	jal	ra,6a50 <I2C_GenerateSTOP>
    27c8:	9511c783          	lbu	a5,-1711(gp) # 200019f9 <i2c_intr_error>
    27cc:	8fc5                	or	a5,a5,s1
    27ce:	0ff7f513          	zext.b	a0,a5
    27d2:	d559                	beqz	a0,2760 <i2c_read_continuous+0xe>
    27d4:	cb7ff0ef          	jal	ra,248a <i2c2_reset>
    27d8:	8526                	mv	a0,s1
    27da:	b759                	j	2760 <i2c_read_continuous+0xe>
    27dc:	4785                	li	a5,1
    27de:	00f41663          	bne	s0,a5,27ea <i2c_read_continuous+0x98>
    27e2:	85d6                	mv	a1,s5
    27e4:	854e                	mv	a0,s3
    27e6:	2dc040ef          	jal	ra,6ac2 <I2C_NACKPositionConfig>
    27ea:	854e                	mv	a0,s3
    27ec:	2a6040ef          	jal	ra,6a92 <I2C_ReceiveData>
    27f0:	147d                	addi	s0,s0,-1
    27f2:	00a90023          	sb	a0,0(s2)
    27f6:	0ff47413          	zext.b	s0,s0
    27fa:	0905                	addi	s2,s2,1
    27fc:	bf51                	j	2790 <i2c_read_continuous+0x3e>

000027fe <i2c_write_byte>:
    27fe:	9531c783          	lbu	a5,-1709(gp) # 200019fb <i2c_status>
    2802:	e391                	bnez	a5,2806 <i2c_write_byte+0x8>
    2804:	8082                	ret
    2806:	951fd2ef          	jal	t0,156 <__riscv_save_4>
    280a:	8aaa                	mv	s5,a0
    280c:	6509                	lui	a0,0x2
    280e:	1141                	addi	sp,sp,-16
    2810:	89ae                	mv	s3,a1
    2812:	0c800613          	li	a2,200
    2816:	000205b7          	lui	a1,0x20
    281a:	30e50513          	addi	a0,a0,782 # 230e <i2c2_check_flag>
    281e:	1db020ef          	jal	ra,51f8 <wait_nonblocking_us>
    2822:	9511c783          	lbu	a5,-1711(gp) # 200019f9 <i2c_intr_error>
    2826:	0ff57513          	zext.b	a0,a0
    282a:	8fc9                	or	a5,a5,a0
    282c:	c38d                	beqz	a5,284e <i2c_write_byte+0x50>
    282e:	4729                	li	a4,10
    2830:	94e18923          	sb	a4,-1710(gp) # 200019fa <i2c_error_code>
    2834:	9511c783          	lbu	a5,-1711(gp) # 200019f9 <i2c_intr_error>
    2838:	8fc9                	or	a5,a5,a0
    283a:	0ff7f793          	zext.b	a5,a5
    283e:	c789                	beqz	a5,2848 <i2c_write_byte+0x4a>
    2840:	c62a                	sw	a0,12(sp)
    2842:	c49ff0ef          	jal	ra,248a <i2c2_reset>
    2846:	4532                	lw	a0,12(sp)
    2848:	0141                	addi	sp,sp,16
    284a:	941fd06f          	j	18a <__riscv_restore_4>
    284e:	40006937          	lui	s2,0x40006
    2852:	4585                	li	a1,1
    2854:	80090513          	addi	a0,s2,-2048 # 40005800 <_eusrstack+0x20000800>
    2858:	1da040ef          	jal	ra,6a32 <I2C_GenerateSTART>
    285c:	000305b7          	lui	a1,0x30
    2860:	6a09                	lui	s4,0x2
    2862:	0c800613          	li	a2,200
    2866:	0585                	addi	a1,a1,1 # 30001 <_data_lma+0x2441d>
    2868:	328a0513          	addi	a0,s4,808 # 2328 <i2c2_check_event>
    286c:	18d020ef          	jal	ra,51f8 <wait_nonblocking_us>
    2870:	9511c783          	lbu	a5,-1711(gp) # 200019f9 <i2c_intr_error>
    2874:	0ff57513          	zext.b	a0,a0
    2878:	8fc9                	or	a5,a5,a0
    287a:	c399                	beqz	a5,2880 <i2c_write_byte+0x82>
    287c:	472d                	li	a4,11
    287e:	bf4d                	j	2830 <i2c_write_byte+0x32>
    2880:	4601                	li	a2,0
    2882:	0d400593          	li	a1,212
    2886:	80090513          	addi	a0,s2,-2048
    288a:	212040ef          	jal	ra,6a9c <I2C_Send7bitAddress>
    288e:	00070b37          	lui	s6,0x70
    2892:	0c800613          	li	a2,200
    2896:	082b0593          	addi	a1,s6,130 # 70082 <_data_lma+0x6449e>
    289a:	328a0513          	addi	a0,s4,808
    289e:	15b020ef          	jal	ra,51f8 <wait_nonblocking_us>
    28a2:	9511c783          	lbu	a5,-1711(gp) # 200019f9 <i2c_intr_error>
    28a6:	0ff57513          	zext.b	a0,a0
    28aa:	8fc9                	or	a5,a5,a0
    28ac:	c399                	beqz	a5,28b2 <i2c_write_byte+0xb4>
    28ae:	4731                	li	a4,12
    28b0:	b741                	j	2830 <i2c_write_byte+0x32>
    28b2:	85d6                	mv	a1,s5
    28b4:	80090513          	addi	a0,s2,-2048
    28b8:	1d4040ef          	jal	ra,6a8c <I2C_SendData>
    28bc:	0c800613          	li	a2,200
    28c0:	084b0593          	addi	a1,s6,132
    28c4:	328a0513          	addi	a0,s4,808
    28c8:	131020ef          	jal	ra,51f8 <wait_nonblocking_us>
    28cc:	9511c783          	lbu	a5,-1711(gp) # 200019f9 <i2c_intr_error>
    28d0:	0ff57513          	zext.b	a0,a0
    28d4:	8fc9                	or	a5,a5,a0
    28d6:	c399                	beqz	a5,28dc <i2c_write_byte+0xde>
    28d8:	4735                	li	a4,13
    28da:	bf99                	j	2830 <i2c_write_byte+0x32>
    28dc:	85ce                	mv	a1,s3
    28de:	80090513          	addi	a0,s2,-2048
    28e2:	1aa040ef          	jal	ra,6a8c <I2C_SendData>
    28e6:	0c800613          	li	a2,200
    28ea:	084b0593          	addi	a1,s6,132
    28ee:	328a0513          	addi	a0,s4,808
    28f2:	107020ef          	jal	ra,51f8 <wait_nonblocking_us>
    28f6:	9511c783          	lbu	a5,-1711(gp) # 200019f9 <i2c_intr_error>
    28fa:	0ff57513          	zext.b	a0,a0
    28fe:	8fc9                	or	a5,a5,a0
    2900:	c399                	beqz	a5,2906 <i2c_write_byte+0x108>
    2902:	4739                	li	a4,14
    2904:	b735                	j	2830 <i2c_write_byte+0x32>
    2906:	80090513          	addi	a0,s2,-2048
    290a:	4585                	li	a1,1
    290c:	144040ef          	jal	ra,6a50 <I2C_GenerateSTOP>
    2910:	4501                	li	a0,0
    2912:	b70d                	j	2834 <i2c_write_byte+0x36>

00002914 <i2c_init>:
    2914:	000c3537          	lui	a0,0xc3
    2918:	4605                	li	a2,1
    291a:	4581                	li	a1,0
    291c:	50050513          	addi	a0,a0,1280 # c3500 <_data_lma+0xb791c>
    2920:	bafff06f          	j	24ce <i2c_hardware_init>

00002924 <imu_set_reg>:
    2924:	84dfd2ef          	jal	t0,170 <__riscv_save_0>
    2928:	1141                	addi	sp,sp,-16
    292a:	842e                	mv	s0,a1
    292c:	00f10593          	addi	a1,sp,15
    2930:	892a                	mv	s2,a0
    2932:	84b2                	mv	s1,a2
    2934:	d9bff0ef          	jal	ra,26ce <i2c_read_byte>
    2938:	ed09                	bnez	a0,2952 <imu_set_reg+0x2e>
    293a:	00f14783          	lbu	a5,15(sp)
    293e:	fff4c493          	not	s1,s1
    2942:	854a                	mv	a0,s2
    2944:	8fe5                	and	a5,a5,s1
    2946:	00f465b3          	or	a1,s0,a5
    294a:	00b107a3          	sb	a1,15(sp)
    294e:	eb1ff0ef          	jal	ra,27fe <i2c_write_byte>
    2952:	0141                	addi	sp,sp,16
    2954:	841fd06f          	j	194 <__riscv_restore_0>

00002958 <imu_read>:
    2958:	819fd2ef          	jal	t0,170 <__riscv_save_0>
    295c:	95818593          	addi	a1,gp,-1704 # 20001a00 <status.2>
    2960:	4579                	li	a0,30
    2962:	d6dff0ef          	jal	ra,26ce <i2c_read_byte>
    2966:	cd09                	beqz	a0,2980 <imu_read+0x28>
    2968:	96c1a783          	lw	a5,-1684(gp) # 20001a14 <imu_read_cnt>
    296c:	0785                	addi	a5,a5,1
    296e:	96f1a623          	sw	a5,-1684(gp) # 20001a14 <imu_read_cnt>
    2972:	9681a783          	lw	a5,-1688(gp) # 20001a10 <imu_read_fail_cnt>
    2976:	0785                	addi	a5,a5,1
    2978:	96f1a423          	sw	a5,-1688(gp) # 20001a10 <imu_read_fail_cnt>
    297c:	819fd06f          	j	194 <__riscv_restore_0>
    2980:	9581c783          	lbu	a5,-1704(gp) # 20001a00 <status.2>
    2984:	470d                	li	a4,3
    2986:	4509                	li	a0,2
    2988:	8b8d                	andi	a5,a5,3
    298a:	fee799e3          	bne	a5,a4,297c <imu_read+0x24>
    298e:	96c1a783          	lw	a5,-1684(gp) # 20001a14 <imu_read_cnt>
    2992:	200035b7          	lui	a1,0x20003
    2996:	4631                	li	a2,12
    2998:	0785                	addi	a5,a5,1
    299a:	23458593          	addi	a1,a1,564 # 20003234 <imu_raw_buf>
    299e:	02200513          	li	a0,34
    29a2:	96f1a623          	sw	a5,-1684(gp) # 20001a14 <imu_read_cnt>
    29a6:	dadff0ef          	jal	ra,2752 <i2c_read_continuous>
    29aa:	d969                	beqz	a0,297c <imu_read+0x24>
    29ac:	9681a783          	lw	a5,-1688(gp) # 20001a10 <imu_read_fail_cnt>
    29b0:	4505                	li	a0,1
    29b2:	0785                	addi	a5,a5,1
    29b4:	96f1a423          	sw	a5,-1688(gp) # 20001a10 <imu_read_fail_cnt>
    29b8:	b7d1                	j	297c <imu_read+0x24>

000029ba <set_imu_awake>:
    29ba:	fb6fd2ef          	jal	t0,170 <__riscv_save_0>
    29be:	4419                	li	s0,6
    29c0:	0ff00613          	li	a2,255
    29c4:	4585                	li	a1,1
    29c6:	4549                	li	a0,18
    29c8:	f5dff0ef          	jal	ra,2924 <imu_set_reg>
    29cc:	c509                	beqz	a0,29d6 <set_imu_awake+0x1c>
    29ce:	147d                	addi	s0,s0,-1
    29d0:	0ff47413          	zext.b	s0,s0
    29d4:	f475                	bnez	s0,29c0 <set_imu_awake+0x6>
    29d6:	4529                	li	a0,10
    29d8:	07d020ef          	jal	ra,5254 <Delay_Ms>
    29dc:	4419                	li	s0,6
    29de:	0ff00613          	li	a2,255
    29e2:	08000593          	li	a1,128
    29e6:	454d                	li	a0,19
    29e8:	f3dff0ef          	jal	ra,2924 <imu_set_reg>
    29ec:	c509                	beqz	a0,29f6 <set_imu_awake+0x3c>
    29ee:	147d                	addi	s0,s0,-1
    29f0:	0ff47413          	zext.b	s0,s0
    29f4:	f46d                	bnez	s0,29de <set_imu_awake+0x24>
    29f6:	4419                	li	s0,6
    29f8:	0ff00613          	li	a2,255
    29fc:	08e00593          	li	a1,142
    2a00:	4541                	li	a0,16
    2a02:	f23ff0ef          	jal	ra,2924 <imu_set_reg>
    2a06:	c509                	beqz	a0,2a10 <set_imu_awake+0x56>
    2a08:	147d                	addi	s0,s0,-1
    2a0a:	0ff47413          	zext.b	s0,s0
    2a0e:	f46d                	bnez	s0,29f8 <set_imu_awake+0x3e>
    2a10:	4419                	li	s0,6
    2a12:	0ff00613          	li	a2,255
    2a16:	05c00593          	li	a1,92
    2a1a:	4545                	li	a0,17
    2a1c:	f09ff0ef          	jal	ra,2924 <imu_set_reg>
    2a20:	c509                	beqz	a0,2a2a <set_imu_awake+0x70>
    2a22:	147d                	addi	s0,s0,-1
    2a24:	0ff47413          	zext.b	s0,s0
    2a28:	f46d                	bnez	s0,2a12 <set_imu_awake+0x58>
    2a2a:	4419                	li	s0,6
    2a2c:	0ff00613          	li	a2,255
    2a30:	04400593          	li	a1,68
    2a34:	4549                	li	a0,18
    2a36:	eefff0ef          	jal	ra,2924 <imu_set_reg>
    2a3a:	c509                	beqz	a0,2a44 <set_imu_awake+0x8a>
    2a3c:	147d                	addi	s0,s0,-1
    2a3e:	0ff47413          	zext.b	s0,s0
    2a42:	f46d                	bnez	s0,2a2c <set_imu_awake+0x72>
    2a44:	00153513          	seqz	a0,a0
    2a48:	96a18ea3          	sb	a0,-1667(gp) # 20001a25 <imu_rdy>
    2a4c:	f48fd06f          	j	194 <__riscv_restore_0>

00002a50 <set_imu_sleep>:
    2a50:	f20fd2ef          	jal	t0,170 <__riscv_save_0>
    2a54:	0f000613          	li	a2,240
    2a58:	4581                	li	a1,0
    2a5a:	4541                	li	a0,16
    2a5c:	96018ea3          	sb	zero,-1667(gp) # 20001a25 <imu_rdy>
    2a60:	ec5ff0ef          	jal	ra,2924 <imu_set_reg>
    2a64:	0f000613          	li	a2,240
    2a68:	4581                	li	a1,0
    2a6a:	4545                	li	a0,17
    2a6c:	eb9ff0ef          	jal	ra,2924 <imu_set_reg>
    2a70:	f24fd06f          	j	194 <__riscv_restore_0>

00002a74 <imu_init>:
    2a74:	8082                	ret

00002a76 <imu_upd>:
    2a76:	ecafd2ef          	jal	t0,140 <__riscv_save_12>
    2a7a:	9601c783          	lbu	a5,-1696(gp) # 20001a08 <imu_buf_pos>
    2a7e:	02500713          	li	a4,37
    2a82:	200039b7          	lui	s3,0x20003
    2a86:	02e787b3          	mul	a5,a5,a4
    2a8a:	20003437          	lui	s0,0x20003
    2a8e:	1dc98713          	addi	a4,s3,476 # 200031dc <imu_pack_buf>
    2a92:	1141                	addi	sp,sp,-16
    2a94:	1dc98693          	addi	a3,s3,476
    2a98:	c636                	sw	a3,12(sp)
    2a9a:	97ba                	add	a5,a5,a4
    2a9c:	92c40703          	lb	a4,-1748(s0) # 2000292c <user_config>
    2aa0:	94f1ae23          	sw	a5,-1700(gp) # 20001a04 <rep>
    2aa4:	00075d63          	bgez	a4,2abe <imu_upd+0x48>
    2aa8:	02400613          	li	a2,36
    2aac:	4581                	li	a1,0
    2aae:	853e                	mv	a0,a5
    2ab0:	f06fd0ef          	jal	ra,1b6 <memset>
    2ab4:	324030ef          	jal	ra,5dd8 <set_imu_available>
    2ab8:	0141                	addi	sp,sp,16
    2aba:	ec2fd06f          	j	17c <__riscv_restore_12>
    2abe:	9531c783          	lbu	a5,-1709(gp) # 200019fb <i2c_status>
    2ac2:	dbfd                	beqz	a5,2ab8 <imu_upd+0x42>
    2ac4:	97c1c783          	lbu	a5,-1668(gp) # 20001a24 <imu_mode>
    2ac8:	dbe5                	beqz	a5,2ab8 <imu_upd+0x42>
    2aca:	97e1c783          	lbu	a5,-1666(gp) # 20001a26 <imu_upd_cnt>
    2ace:	92c40413          	addi	s0,s0,-1748
    2ad2:	e781                	bnez	a5,2ada <imu_upd+0x64>
    2ad4:	478d                	li	a5,3
    2ad6:	96f18f23          	sb	a5,-1666(gp) # 20001a26 <imu_upd_cnt>
    2ada:	6ea020ef          	jal	ra,51c4 <Get_Systick_US>
    2ade:	00c44783          	lbu	a5,12(s0)
    2ae2:	9641a703          	lw	a4,-1692(gp) # 20001a0c <last_imu_upd>
    2ae6:	00b44683          	lbu	a3,11(s0)
    2aea:	07a2                	slli	a5,a5,0x8
    2aec:	40e50733          	sub	a4,a0,a4
    2af0:	8fd5                	or	a5,a5,a3
    2af2:	8b2a                	mv	s6,a0
    2af4:	fcf762e3          	bltu	a4,a5,2ab8 <imu_upd+0x42>
    2af8:	e61ff0ef          	jal	ra,2958 <imu_read>
    2afc:	fd55                	bnez	a0,2ab8 <imu_upd+0x42>
    2afe:	20003c37          	lui	s8,0x20003
    2b02:	240c0c93          	addi	s9,s8,576 # 20003240 <imu_sum>
    2b06:	20003737          	lui	a4,0x20003
    2b0a:	23470713          	addi	a4,a4,564 # 20003234 <imu_raw_buf>
    2b0e:	018c8613          	addi	a2,s9,24
    2b12:	240c0793          	addi	a5,s8,576
    2b16:	240c0493          	addi	s1,s8,576
    2b1a:	4394                	lw	a3,0(a5)
    2b1c:	00071583          	lh	a1,0(a4)
    2b20:	0709                	addi	a4,a4,2
    2b22:	96ae                	add	a3,a3,a1
    2b24:	c394                	sw	a3,0(a5)
    2b26:	0791                	addi	a5,a5,4
    2b28:	fec799e3          	bne	a5,a2,2b1a <imu_upd+0xa4>
    2b2c:	9611c403          	lbu	s0,-1695(gp) # 20001a09 <imu_sample_cnt>
    2b30:	9541a703          	lw	a4,-1708(gp) # 200019fc <last_upd.0>
    2b34:	0405                	addi	s0,s0,1
    2b36:	0ff47413          	zext.b	s0,s0
    2b3a:	6785                	lui	a5,0x1
    2b3c:	968180a3          	sb	s0,-1695(gp) # 20001a09 <imu_sample_cnt>
    2b40:	9761a223          	sw	s6,-1692(gp) # 20001a0c <last_imu_upd>
    2b44:	40eb0733          	sub	a4,s6,a4
    2b48:	38778793          	addi	a5,a5,903 # 1387 <gpio_init+0x43>
    2b4c:	f6e7f6e3          	bgeu	a5,a4,2ab8 <imu_upd+0x42>
    2b50:	4088                	lw	a0,0(s1)
    2b52:	20003d37          	lui	s10,0x20003
    2b56:	55a070ef          	jal	ra,a0b0 <__floatsisf>
    2b5a:	9781a583          	lw	a1,-1672(gp) # 20001a20 <imu_ratio_xf>
    2b5e:	653060ef          	jal	ra,99b0 <__mulsf3>
    2b62:	4ee070ef          	jal	ra,a050 <__fixsfsi>
    2b66:	c088                	sw	a0,0(s1)
    2b68:	40c8                	lw	a0,4(s1)
    2b6a:	546070ef          	jal	ra,a0b0 <__floatsisf>
    2b6e:	9741a583          	lw	a1,-1676(gp) # 20001a1c <imu_ratio_yf>
    2b72:	63f060ef          	jal	ra,99b0 <__mulsf3>
    2b76:	4da070ef          	jal	ra,a050 <__fixsfsi>
    2b7a:	c0c8                	sw	a0,4(s1)
    2b7c:	4488                	lw	a0,8(s1)
    2b7e:	532070ef          	jal	ra,a0b0 <__floatsisf>
    2b82:	9701a583          	lw	a1,-1680(gp) # 20001a18 <imu_ratio_zf>
    2b86:	62b060ef          	jal	ra,99b0 <__mulsf3>
    2b8a:	4c6070ef          	jal	ra,a050 <__fixsfsi>
    2b8e:	c488                	sw	a0,8(s1)
    2b90:	228d0493          	addi	s1,s10,552 # 20003228 <imu_res>
    2b94:	00c48613          	addi	a2,s1,12
    2b98:	228d0713          	addi	a4,s10,552
    2b9c:	4781                	li	a5,0
    2b9e:	c419                	beqz	s0,2bac <imu_upd+0x136>
    2ba0:	000ca783          	lw	a5,0(s9)
    2ba4:	0287c7b3          	div	a5,a5,s0
    2ba8:	07c2                	slli	a5,a5,0x10
    2baa:	87c1                	srai	a5,a5,0x10
    2bac:	00f71023          	sh	a5,0(a4)
    2bb0:	0709                	addi	a4,a4,2
    2bb2:	0c91                	addi	s9,s9,4
    2bb4:	fec714e3          	bne	a4,a2,2b9c <imu_upd+0x126>
    2bb8:	4661                	li	a2,24
    2bba:	4581                	li	a1,0
    2bbc:	240c0513          	addi	a0,s8,576
    2bc0:	960180a3          	sb	zero,-1695(gp) # 20001a09 <imu_sample_cnt>
    2bc4:	df2fd0ef          	jal	ra,1b6 <memset>
    2bc8:	95c1a403          	lw	s0,-1700(gp) # 20001a04 <rep>
    2bcc:	4619                	li	a2,6
    2bce:	9561aa23          	sw	s6,-1708(gp) # 200019fc <last_upd.0>
    2bd2:	00c40c13          	addi	s8,s0,12
    2bd6:	85e2                	mv	a1,s8
    2bd8:	8522                	mv	a0,s0
    2bda:	dc6fd0ef          	jal	ra,1a0 <memcpy>
    2bde:	01840b13          	addi	s6,s0,24
    2be2:	4619                	li	a2,6
    2be4:	85da                	mv	a1,s6
    2be6:	8562                	mv	a0,s8
    2be8:	db8fd0ef          	jal	ra,1a0 <memcpy>
    2bec:	200035b7          	lui	a1,0x20003
    2bf0:	4619                	li	a2,6
    2bf2:	23a58593          	addi	a1,a1,570 # 2000323a <imu_raw_buf+0x6>
    2bf6:	855a                	mv	a0,s6
    2bf8:	da8fd0ef          	jal	ra,1a0 <memcpy>
    2bfc:	97c1c783          	lbu	a5,-1668(gp) # 20001a24 <imu_mode>
    2c00:	4705                	li	a4,1
    2c02:	08e79e63          	bne	a5,a4,2c9e <imu_upd+0x228>
    2c06:	6799                	lui	a5,0x6
    2c08:	7769                	lui	a4,0xffffa
    2c0a:	00648613          	addi	a2,s1,6
    2c0e:	1a878793          	addi	a5,a5,424 # 61a8 <ADC_RegularChannelConfig+0x9a>
    2c12:	e5870713          	addi	a4,a4,-424 # ffff9e58 <_eusrstack+0xdfff4e58>
    2c16:	00049683          	lh	a3,0(s1)
    2c1a:	06d7dd63          	bge	a5,a3,2c94 <imu_upd+0x21e>
    2c1e:	00f49023          	sh	a5,0(s1)
    2c22:	0489                	addi	s1,s1,2
    2c24:	fec499e3          	bne	s1,a2,2c16 <imu_upd+0x1a0>
    2c28:	01240493          	addi	s1,s0,18
    2c2c:	4619                	li	a2,6
    2c2e:	85a6                	mv	a1,s1
    2c30:	00640513          	addi	a0,s0,6
    2c34:	d6cfd0ef          	jal	ra,1a0 <memcpy>
    2c38:	0479                	addi	s0,s0,30
    2c3a:	4619                	li	a2,6
    2c3c:	85a2                	mv	a1,s0
    2c3e:	8526                	mv	a0,s1
    2c40:	d60fd0ef          	jal	ra,1a0 <memcpy>
    2c44:	4619                	li	a2,6
    2c46:	228d0593          	addi	a1,s10,552
    2c4a:	8522                	mv	a0,s0
    2c4c:	d54fd0ef          	jal	ra,1a0 <memcpy>
    2c50:	97e1c783          	lbu	a5,-1666(gp) # 20001a26 <imu_upd_cnt>
    2c54:	17fd                	addi	a5,a5,-1
    2c56:	0ff7f793          	zext.b	a5,a5
    2c5a:	96f18f23          	sb	a5,-1666(gp) # 20001a26 <imu_upd_cnt>
    2c5e:	e4079de3          	bnez	a5,2ab8 <imu_upd+0x42>
    2c62:	95c1a503          	lw	a0,-1700(gp) # 20001a04 <rep>
    2c66:	172030ef          	jal	ra,5dd8 <set_imu_available>
    2c6a:	9601c503          	lbu	a0,-1696(gp) # 20001a08 <imu_buf_pos>
    2c6e:	02500793          	li	a5,37
    2c72:	02500613          	li	a2,37
    2c76:	00153513          	seqz	a0,a0
    2c7a:	96a18023          	sb	a0,-1696(gp) # 20001a08 <imu_buf_pos>
    2c7e:	02f50533          	mul	a0,a0,a5
    2c82:	47b2                	lw	a5,12(sp)
    2c84:	4581                	li	a1,0
    2c86:	953e                	add	a0,a0,a5
    2c88:	d2efd0ef          	jal	ra,1b6 <memset>
    2c8c:	478d                	li	a5,3
    2c8e:	96f18f23          	sb	a5,-1666(gp) # 20001a26 <imu_upd_cnt>
    2c92:	b51d                	j	2ab8 <imu_upd+0x42>
    2c94:	f8e6d7e3          	bge	a3,a4,2c22 <imu_upd+0x1ac>
    2c98:	00e49023          	sh	a4,0(s1)
    2c9c:	b759                	j	2c22 <imu_upd+0x1ac>
    2c9e:	4709                	li	a4,2
    2ca0:	fae798e3          	bne	a5,a4,2c50 <imu_upd+0x1da>
    2ca4:	8522                	mv	a0,s0
    2ca6:	66e000ef          	jal	ra,3314 <imu_upd2>
    2caa:	b75d                	j	2c50 <imu_upd+0x1da>

00002cac <_imu_quat_normalize>:
    2cac:	caafd2ef          	jal	t0,156 <__riscv_save_4>
    2cb0:	00052a83          	lw	s5,0(a0)
    2cb4:	00452a03          	lw	s4,4(a0)
    2cb8:	842a                	mv	s0,a0
    2cba:	00852983          	lw	s3,8(a0)
    2cbe:	00c52903          	lw	s2,12(a0)
    2cc2:	85d6                	mv	a1,s5
    2cc4:	8556                	mv	a0,s5
    2cc6:	4eb060ef          	jal	ra,99b0 <__mulsf3>
    2cca:	84aa                	mv	s1,a0
    2ccc:	85d2                	mv	a1,s4
    2cce:	8552                	mv	a0,s4
    2cd0:	4e1060ef          	jal	ra,99b0 <__mulsf3>
    2cd4:	85aa                	mv	a1,a0
    2cd6:	8526                	mv	a0,s1
    2cd8:	558060ef          	jal	ra,9230 <__addsf3>
    2cdc:	84aa                	mv	s1,a0
    2cde:	85ce                	mv	a1,s3
    2ce0:	854e                	mv	a0,s3
    2ce2:	4cf060ef          	jal	ra,99b0 <__mulsf3>
    2ce6:	85aa                	mv	a1,a0
    2ce8:	8526                	mv	a0,s1
    2cea:	546060ef          	jal	ra,9230 <__addsf3>
    2cee:	84aa                	mv	s1,a0
    2cf0:	85ca                	mv	a1,s2
    2cf2:	854a                	mv	a0,s2
    2cf4:	4bd060ef          	jal	ra,99b0 <__mulsf3>
    2cf8:	85aa                	mv	a1,a0
    2cfa:	8526                	mv	a0,s1
    2cfc:	534060ef          	jal	ra,9230 <__addsf3>
    2d00:	62e040ef          	jal	ra,732e <sqrtf>
    2d04:	85aa                	mv	a1,a0
    2d06:	86c1a503          	lw	a0,-1940(gp) # 20001914 <_impure_ptr+0x44>
    2d0a:	08f060ef          	jal	ra,9598 <__divsf3>
    2d0e:	84aa                	mv	s1,a0
    2d10:	85aa                	mv	a1,a0
    2d12:	8556                	mv	a0,s5
    2d14:	49d060ef          	jal	ra,99b0 <__mulsf3>
    2d18:	c008                	sw	a0,0(s0)
    2d1a:	85a6                	mv	a1,s1
    2d1c:	8552                	mv	a0,s4
    2d1e:	493060ef          	jal	ra,99b0 <__mulsf3>
    2d22:	c048                	sw	a0,4(s0)
    2d24:	85a6                	mv	a1,s1
    2d26:	854e                	mv	a0,s3
    2d28:	489060ef          	jal	ra,99b0 <__mulsf3>
    2d2c:	c408                	sw	a0,8(s0)
    2d2e:	85a6                	mv	a1,s1
    2d30:	854a                	mv	a0,s2
    2d32:	47f060ef          	jal	ra,99b0 <__mulsf3>
    2d36:	c448                	sw	a0,12(s0)
    2d38:	c52fd06f          	j	18a <__riscv_restore_4>

00002d3c <_imu_rotate_quaternion>:
    2d3c:	c0cfd2ef          	jal	t0,148 <__riscv_save_10>
    2d40:	00c52b83          	lw	s7,12(a0)
    2d44:	45c4                	lw	s1,12(a1)
    2d46:	00052a83          	lw	s5,0(a0)
    2d4a:	0005a983          	lw	s3,0(a1)
    2d4e:	00452a03          	lw	s4,4(a0)
    2d52:	0045ab03          	lw	s6,4(a1)
    2d56:	00852903          	lw	s2,8(a0)
    2d5a:	0085ac03          	lw	s8,8(a1)
    2d5e:	842a                	mv	s0,a0
    2d60:	85a6                	mv	a1,s1
    2d62:	855e                	mv	a0,s7
    2d64:	44d060ef          	jal	ra,99b0 <__mulsf3>
    2d68:	8caa                	mv	s9,a0
    2d6a:	85ce                	mv	a1,s3
    2d6c:	8556                	mv	a0,s5
    2d6e:	443060ef          	jal	ra,99b0 <__mulsf3>
    2d72:	85aa                	mv	a1,a0
    2d74:	8566                	mv	a0,s9
    2d76:	713060ef          	jal	ra,9c88 <__subsf3>
    2d7a:	8caa                	mv	s9,a0
    2d7c:	85da                	mv	a1,s6
    2d7e:	8552                	mv	a0,s4
    2d80:	431060ef          	jal	ra,99b0 <__mulsf3>
    2d84:	85aa                	mv	a1,a0
    2d86:	8566                	mv	a0,s9
    2d88:	701060ef          	jal	ra,9c88 <__subsf3>
    2d8c:	8caa                	mv	s9,a0
    2d8e:	85e2                	mv	a1,s8
    2d90:	854a                	mv	a0,s2
    2d92:	41f060ef          	jal	ra,99b0 <__mulsf3>
    2d96:	85aa                	mv	a1,a0
    2d98:	8566                	mv	a0,s9
    2d9a:	6ef060ef          	jal	ra,9c88 <__subsf3>
    2d9e:	c448                	sw	a0,12(s0)
    2da0:	85ce                	mv	a1,s3
    2da2:	855e                	mv	a0,s7
    2da4:	40d060ef          	jal	ra,99b0 <__mulsf3>
    2da8:	8caa                	mv	s9,a0
    2daa:	85d6                	mv	a1,s5
    2dac:	8526                	mv	a0,s1
    2dae:	403060ef          	jal	ra,99b0 <__mulsf3>
    2db2:	85aa                	mv	a1,a0
    2db4:	8566                	mv	a0,s9
    2db6:	47a060ef          	jal	ra,9230 <__addsf3>
    2dba:	8caa                	mv	s9,a0
    2dbc:	85e2                	mv	a1,s8
    2dbe:	8552                	mv	a0,s4
    2dc0:	3f1060ef          	jal	ra,99b0 <__mulsf3>
    2dc4:	85aa                	mv	a1,a0
    2dc6:	8566                	mv	a0,s9
    2dc8:	468060ef          	jal	ra,9230 <__addsf3>
    2dcc:	8caa                	mv	s9,a0
    2dce:	85ca                	mv	a1,s2
    2dd0:	855a                	mv	a0,s6
    2dd2:	3df060ef          	jal	ra,99b0 <__mulsf3>
    2dd6:	85aa                	mv	a1,a0
    2dd8:	8566                	mv	a0,s9
    2dda:	6af060ef          	jal	ra,9c88 <__subsf3>
    2dde:	c008                	sw	a0,0(s0)
    2de0:	85da                	mv	a1,s6
    2de2:	855e                	mv	a0,s7
    2de4:	3cd060ef          	jal	ra,99b0 <__mulsf3>
    2de8:	8caa                	mv	s9,a0
    2dea:	85e2                	mv	a1,s8
    2dec:	8556                	mv	a0,s5
    2dee:	3c3060ef          	jal	ra,99b0 <__mulsf3>
    2df2:	85aa                	mv	a1,a0
    2df4:	8566                	mv	a0,s9
    2df6:	693060ef          	jal	ra,9c88 <__subsf3>
    2dfa:	8caa                	mv	s9,a0
    2dfc:	85d2                	mv	a1,s4
    2dfe:	8526                	mv	a0,s1
    2e00:	3b1060ef          	jal	ra,99b0 <__mulsf3>
    2e04:	85aa                	mv	a1,a0
    2e06:	8566                	mv	a0,s9
    2e08:	428060ef          	jal	ra,9230 <__addsf3>
    2e0c:	8caa                	mv	s9,a0
    2e0e:	85ca                	mv	a1,s2
    2e10:	854e                	mv	a0,s3
    2e12:	39f060ef          	jal	ra,99b0 <__mulsf3>
    2e16:	85aa                	mv	a1,a0
    2e18:	8566                	mv	a0,s9
    2e1a:	416060ef          	jal	ra,9230 <__addsf3>
    2e1e:	c048                	sw	a0,4(s0)
    2e20:	85e2                	mv	a1,s8
    2e22:	855e                	mv	a0,s7
    2e24:	38d060ef          	jal	ra,99b0 <__mulsf3>
    2e28:	8baa                	mv	s7,a0
    2e2a:	85da                	mv	a1,s6
    2e2c:	8556                	mv	a0,s5
    2e2e:	383060ef          	jal	ra,99b0 <__mulsf3>
    2e32:	85aa                	mv	a1,a0
    2e34:	855e                	mv	a0,s7
    2e36:	3fa060ef          	jal	ra,9230 <__addsf3>
    2e3a:	8aaa                	mv	s5,a0
    2e3c:	85d2                	mv	a1,s4
    2e3e:	854e                	mv	a0,s3
    2e40:	371060ef          	jal	ra,99b0 <__mulsf3>
    2e44:	85aa                	mv	a1,a0
    2e46:	8556                	mv	a0,s5
    2e48:	641060ef          	jal	ra,9c88 <__subsf3>
    2e4c:	89aa                	mv	s3,a0
    2e4e:	85ca                	mv	a1,s2
    2e50:	8526                	mv	a0,s1
    2e52:	35f060ef          	jal	ra,99b0 <__mulsf3>
    2e56:	85aa                	mv	a1,a0
    2e58:	854e                	mv	a0,s3
    2e5a:	3d6060ef          	jal	ra,9230 <__addsf3>
    2e5e:	c408                	sw	a0,8(s0)
    2e60:	b20fd06f          	j	180 <__riscv_restore_10>

00002e64 <_imu_update_quaternion>:
    2e64:	adcfd2ef          	jal	t0,140 <__riscv_save_12>
    2e68:	842a                	mv	s0,a0
    2e6a:	9841a503          	lw	a0,-1660(gp) # 20001a2c <prev_timestamp.5>
    2e6e:	7179                	addi	sp,sp,-48
    2e70:	84ae                	mv	s1,a1
    2e72:	40a60533          	sub	a0,a2,a0
    2e76:	8a32                	mv	s4,a2
    2e78:	348060ef          	jal	ra,91c0 <__floatunsidf>
    2e7c:	89aa                	mv	s3,a0
    2e7e:	0014c503          	lbu	a0,1(s1)
    2e82:	0004c783          	lbu	a5,0(s1)
    2e86:	892e                	mv	s2,a1
    2e88:	0522                	slli	a0,a0,0x8
    2e8a:	8d5d                	or	a0,a0,a5
    2e8c:	0542                	slli	a0,a0,0x10
    2e8e:	8541                	srai	a0,a0,0x10
    2e90:	9941a223          	sw	s4,-1660(gp) # 20001a2c <prev_timestamp.5>
    2e94:	2bc060ef          	jal	ra,9150 <__floatsidf>
    2e98:	864e                	mv	a2,s3
    2e9a:	86ca                	mv	a3,s2
    2e9c:	634050ef          	jal	ra,84d0 <__muldf3>
    2ea0:	8301a603          	lw	a2,-2000(gp) # 200018d8 <_impure_ptr+0x8>
    2ea4:	8341a683          	lw	a3,-1996(gp) # 200018dc <_impure_ptr+0xc>
    2ea8:	628050ef          	jal	ra,84d0 <__muldf3>
    2eac:	8d2a                	mv	s10,a0
    2eae:	0034c503          	lbu	a0,3(s1)
    2eb2:	0024c783          	lbu	a5,2(s1)
    2eb6:	8cae                	mv	s9,a1
    2eb8:	0522                	slli	a0,a0,0x8
    2eba:	8d5d                	or	a0,a0,a5
    2ebc:	0542                	slli	a0,a0,0x10
    2ebe:	8541                	srai	a0,a0,0x10
    2ec0:	290060ef          	jal	ra,9150 <__floatsidf>
    2ec4:	864e                	mv	a2,s3
    2ec6:	86ca                	mv	a3,s2
    2ec8:	608050ef          	jal	ra,84d0 <__muldf3>
    2ecc:	8301a603          	lw	a2,-2000(gp) # 200018d8 <_impure_ptr+0x8>
    2ed0:	8341a683          	lw	a3,-1996(gp) # 200018dc <_impure_ptr+0xc>
    2ed4:	5fc050ef          	jal	ra,84d0 <__muldf3>
    2ed8:	8c2a                	mv	s8,a0
    2eda:	0054c503          	lbu	a0,5(s1)
    2ede:	0044c783          	lbu	a5,4(s1)
    2ee2:	8bae                	mv	s7,a1
    2ee4:	0522                	slli	a0,a0,0x8
    2ee6:	8d5d                	or	a0,a0,a5
    2ee8:	0542                	slli	a0,a0,0x10
    2eea:	8541                	srai	a0,a0,0x10
    2eec:	264060ef          	jal	ra,9150 <__floatsidf>
    2ef0:	864e                	mv	a2,s3
    2ef2:	86ca                	mv	a3,s2
    2ef4:	5dc050ef          	jal	ra,84d0 <__muldf3>
    2ef8:	8301a603          	lw	a2,-2000(gp) # 200018d8 <_impure_ptr+0x8>
    2efc:	8341a683          	lw	a3,-1996(gp) # 200018dc <_impure_ptr+0xc>
    2f00:	5d0050ef          	jal	ra,84d0 <__muldf3>
    2f04:	8a2a                	mv	s4,a0
    2f06:	89ae                	mv	s3,a1
    2f08:	866a                	mv	a2,s10
    2f0a:	86e6                	mv	a3,s9
    2f0c:	856a                	mv	a0,s10
    2f0e:	85e6                	mv	a1,s9
    2f10:	5c0050ef          	jal	ra,84d0 <__muldf3>
    2f14:	892a                	mv	s2,a0
    2f16:	84ae                	mv	s1,a1
    2f18:	8662                	mv	a2,s8
    2f1a:	86de                	mv	a3,s7
    2f1c:	8562                	mv	a0,s8
    2f1e:	85de                	mv	a1,s7
    2f20:	5b0050ef          	jal	ra,84d0 <__muldf3>
    2f24:	862a                	mv	a2,a0
    2f26:	86ae                	mv	a3,a1
    2f28:	854a                	mv	a0,s2
    2f2a:	85a6                	mv	a1,s1
    2f2c:	10f040ef          	jal	ra,783a <__adddf3>
    2f30:	892a                	mv	s2,a0
    2f32:	84ae                	mv	s1,a1
    2f34:	8652                	mv	a2,s4
    2f36:	86ce                	mv	a3,s3
    2f38:	8552                	mv	a0,s4
    2f3a:	85ce                	mv	a1,s3
    2f3c:	594050ef          	jal	ra,84d0 <__muldf3>
    2f40:	862a                	mv	a2,a0
    2f42:	86ae                	mv	a3,a1
    2f44:	854a                	mv	a0,s2
    2f46:	85a6                	mv	a1,s1
    2f48:	0f3040ef          	jal	ra,783a <__adddf3>
    2f4c:	862a                	mv	a2,a0
    2f4e:	86ae                	mv	a3,a1
    2f50:	892a                	mv	s2,a0
    2f52:	84ae                	mv	s1,a1
    2f54:	57c050ef          	jal	ra,84d0 <__muldf3>
    2f58:	8381a603          	lw	a2,-1992(gp) # 200018e0 <_impure_ptr+0x10>
    2f5c:	83c1a683          	lw	a3,-1988(gp) # 200018e4 <_impure_ptr+0x14>
    2f60:	8dae                	mv	s11,a1
    2f62:	c62a                	sw	a0,12(sp)
    2f64:	7bf040ef          	jal	ra,7f22 <__divdf3>
    2f68:	8401a603          	lw	a2,-1984(gp) # 200018e8 <_impure_ptr+0x18>
    2f6c:	8441a683          	lw	a3,-1980(gp) # 200018ec <_impure_ptr+0x1c>
    2f70:	8b2a                	mv	s6,a0
    2f72:	8aae                	mv	s5,a1
    2f74:	854a                	mv	a0,s2
    2f76:	85a6                	mv	a1,s1
    2f78:	7ab040ef          	jal	ra,7f22 <__divdf3>
    2f7c:	862a                	mv	a2,a0
    2f7e:	86ae                	mv	a3,a1
    2f80:	855a                	mv	a0,s6
    2f82:	85d6                	mv	a1,s5
    2f84:	297050ef          	jal	ra,8a1a <__subdf3>
    2f88:	8481a603          	lw	a2,-1976(gp) # 200018f0 <_impure_ptr+0x20>
    2f8c:	84c1a683          	lw	a3,-1972(gp) # 200018f4 <_impure_ptr+0x24>
    2f90:	0ab040ef          	jal	ra,783a <__adddf3>
    2f94:	8b2a                	mv	s6,a0
    2f96:	8aae                	mv	s5,a1
    2f98:	862a                	mv	a2,a0
    2f9a:	86ae                	mv	a3,a1
    2f9c:	856a                	mv	a0,s10
    2f9e:	85e6                	mv	a1,s9
    2fa0:	530050ef          	jal	ra,84d0 <__muldf3>
    2fa4:	1d8070ef          	jal	ra,a17c <__truncdfsf2>
    2fa8:	865a                	mv	a2,s6
    2faa:	86d6                	mv	a3,s5
    2fac:	ca2a                	sw	a0,20(sp)
    2fae:	85de                	mv	a1,s7
    2fb0:	8562                	mv	a0,s8
    2fb2:	51e050ef          	jal	ra,84d0 <__muldf3>
    2fb6:	1c6070ef          	jal	ra,a17c <__truncdfsf2>
    2fba:	865a                	mv	a2,s6
    2fbc:	86d6                	mv	a3,s5
    2fbe:	cc2a                	sw	a0,24(sp)
    2fc0:	85ce                	mv	a1,s3
    2fc2:	8552                	mv	a0,s4
    2fc4:	50c050ef          	jal	ra,84d0 <__muldf3>
    2fc8:	1b4070ef          	jal	ra,a17c <__truncdfsf2>
    2fcc:	47b2                	lw	a5,12(sp)
    2fce:	8501a603          	lw	a2,-1968(gp) # 200018f8 <_impure_ptr+0x28>
    2fd2:	8541a683          	lw	a3,-1964(gp) # 200018fc <_impure_ptr+0x2c>
    2fd6:	ce2a                	sw	a0,28(sp)
    2fd8:	85ee                	mv	a1,s11
    2fda:	853e                	mv	a0,a5
    2fdc:	747040ef          	jal	ra,7f22 <__divdf3>
    2fe0:	8581a603          	lw	a2,-1960(gp) # 20001900 <_impure_ptr+0x30>
    2fe4:	85c1a683          	lw	a3,-1956(gp) # 20001904 <_impure_ptr+0x34>
    2fe8:	8a2a                	mv	s4,a0
    2fea:	89ae                	mv	s3,a1
    2fec:	854a                	mv	a0,s2
    2fee:	85a6                	mv	a1,s1
    2ff0:	4e0050ef          	jal	ra,84d0 <__muldf3>
    2ff4:	862a                	mv	a2,a0
    2ff6:	86ae                	mv	a3,a1
    2ff8:	8552                	mv	a0,s4
    2ffa:	85ce                	mv	a1,s3
    2ffc:	21f050ef          	jal	ra,8a1a <__subdf3>
    3000:	8601a603          	lw	a2,-1952(gp) # 20001908 <_impure_ptr+0x38>
    3004:	8641a683          	lw	a3,-1948(gp) # 2000190c <_impure_ptr+0x3c>
    3008:	200014b7          	lui	s1,0x20001
    300c:	02f040ef          	jal	ra,783a <__adddf3>
    3010:	16c070ef          	jal	ra,a17c <__truncdfsf2>
    3014:	084c                	addi	a1,sp,20
    3016:	d02a                	sw	a0,32(sp)
    3018:	7c048513          	addi	a0,s1,1984 # 200017c0 <_imu_quat_state>
    301c:	d21ff0ef          	jal	ra,2d3c <_imu_rotate_quaternion>
    3020:	7c048513          	addi	a0,s1,1984
    3024:	c89ff0ef          	jal	ra,2cac <_imu_quat_normalize>
    3028:	00144783          	lbu	a5,1(s0)
    302c:	00044703          	lbu	a4,0(s0)
    3030:	7c048493          	addi	s1,s1,1984
    3034:	07a2                	slli	a5,a5,0x8
    3036:	8fd9                	or	a5,a5,a4
    3038:	00f49823          	sh	a5,16(s1)
    303c:	00344783          	lbu	a5,3(s0)
    3040:	00244703          	lbu	a4,2(s0)
    3044:	07a2                	slli	a5,a5,0x8
    3046:	8fd9                	or	a5,a5,a4
    3048:	00f49923          	sh	a5,18(s1)
    304c:	00544783          	lbu	a5,5(s0)
    3050:	00444703          	lbu	a4,4(s0)
    3054:	07a2                	slli	a5,a5,0x8
    3056:	8fd9                	or	a5,a5,a4
    3058:	00f49a23          	sh	a5,20(s1)
    305c:	6145                	addi	sp,sp,48
    305e:	91efd06f          	j	17c <__riscv_restore_12>

00003062 <switch_motion_pack_quat>:
    3062:	8e6fd2ef          	jal	t0,148 <__riscv_save_10>
    3066:	0065c783          	lbu	a5,6(a1)
    306a:	200034b7          	lui	s1,0x20003
    306e:	89aa                	mv	s3,a0
    3070:	9bf1                	andi	a5,a5,-4
    3072:	0027e793          	ori	a5,a5,2
    3076:	00f58323          	sb	a5,6(a1)
    307a:	97e1c703          	lbu	a4,-1666(gp) # 20001a26 <imu_upd_cnt>
    307e:	478d                	li	a5,3
    3080:	842e                	mv	s0,a1
    3082:	26448493          	addi	s1,s1,612 # 20003264 <gyo_samples.3>
    3086:	02f71263          	bne	a4,a5,30aa <switch_motion_pack_quat+0x48>
    308a:	152020ef          	jal	ra,51dc <Get_Systick_MS>
    308e:	98a1a023          	sw	a0,-1664(gp) # 20001a28 <timestamp.4>
    3092:	0004a023          	sw	zero,0(s1)
    3096:	0004a223          	sw	zero,4(s1)
    309a:	0004a423          	sw	zero,8(s1)
    309e:	0004a623          	sw	zero,12(s1)
    30a2:	00049823          	sh	zero,16(s1)
    30a6:	96018fa3          	sb	zero,-1665(gp) # 20001a27 <pos.2>
    30aa:	97f1c503          	lbu	a0,-1665(gp) # 20001a27 <pos.2>
    30ae:	4799                	li	a5,6
    30b0:	4619                	li	a2,6
    30b2:	00150a13          	addi	s4,a0,1
    30b6:	02f50533          	mul	a0,a0,a5
    30ba:	0ffa7a13          	zext.b	s4,s4
    30be:	97418fa3          	sb	s4,-1665(gp) # 20001a27 <pos.2>
    30c2:	20003937          	lui	s2,0x20003
    30c6:	22890593          	addi	a1,s2,552 # 20003228 <imu_res>
    30ca:	9526                	add	a0,a0,s1
    30cc:	8d4fd0ef          	jal	ra,1a0 <memcpy>
    30d0:	478d                	li	a5,3
    30d2:	22fa1c63          	bne	s4,a5,330a <switch_motion_pack_quat+0x2a8>
    30d6:	00644783          	lbu	a5,6(s0)
    30da:	80000b37          	lui	s6,0x80000
    30de:	4a85                	li	s5,1
    30e0:	9bcd                	andi	a5,a5,-13
    30e2:	00f40323          	sb	a5,6(s0)
    30e6:	1b7d                	addi	s6,s6,-1 # 7fffffff <_eusrstack+0x5fffafff>
    30e8:	4b91                	li	s7,4
    30ea:	00644a03          	lbu	s4,6(s0)
    30ee:	002a9793          	slli	a5,s5,0x2
    30f2:	97ce                	add	a5,a5,s3
    30f4:	4388                	lw	a0,0(a5)
    30f6:	00ca7793          	andi	a5,s4,12
    30fa:	97ce                	add	a5,a5,s3
    30fc:	438c                	lw	a1,0(a5)
    30fe:	01657533          	and	a0,a0,s6
    3102:	0165f5b3          	and	a1,a1,s6
    3106:	77c060ef          	jal	ra,9882 <__gesf2>
    310a:	00a05b63          	blez	a0,3120 <switch_motion_pack_quat+0xbe>
    310e:	003af793          	andi	a5,s5,3
    3112:	078a                	slli	a5,a5,0x2
    3114:	ff3a7a13          	andi	s4,s4,-13
    3118:	00fa6a33          	or	s4,s4,a5
    311c:	01440323          	sb	s4,6(s0)
    3120:	0a85                	addi	s5,s5,1
    3122:	fd7a94e3          	bne	s5,s7,30ea <switch_motion_pack_quat+0x88>
    3126:	0009a503          	lw	a0,0(s3)
    312a:	00000593          	li	a1,0
    312e:	7ea060ef          	jal	ra,9918 <__lesf2>
    3132:	1c055e63          	bgez	a0,330e <switch_motion_pack_quat+0x2ac>
    3136:	8701ab83          	lw	s7,-1936(gp) # 20001918 <_impure_ptr+0x48>
    313a:	8741ac03          	lw	s8,-1932(gp) # 2000191c <_impure_ptr+0x4c>
    313e:	20003a37          	lui	s4,0x20003
    3142:	00498a93          	addi	s5,s3,4
    3146:	258a0b13          	addi	s6,s4,600 # 20003258 <quaternion_30bit_components.0>
    314a:	09c1                	addi	s3,s3,16
    314c:	258a0a13          	addi	s4,s4,600
    3150:	000aa503          	lw	a0,0(s5)
    3154:	85e2                	mv	a1,s8
    3156:	0a91                	addi	s5,s5,4
    3158:	059060ef          	jal	ra,99b0 <__mulsf3>
    315c:	85de                	mv	a1,s7
    315e:	053060ef          	jal	ra,99b0 <__mulsf3>
    3162:	6ef060ef          	jal	ra,a050 <__fixsfsi>
    3166:	00ab2023          	sw	a0,0(s6)
    316a:	0b11                	addi	s6,s6,4
    316c:	ff5992e3          	bne	s3,s5,3150 <switch_motion_pack_quat+0xee>
    3170:	000a2783          	lw	a5,0(s4)
    3174:	00644703          	lbu	a4,6(s0)
    3178:	22890913          	addi	s2,s2,552
    317c:	87a9                	srai	a5,a5,0xa
    317e:	00f7f693          	andi	a3,a5,15
    3182:	0692                	slli	a3,a3,0x4
    3184:	8b3d                	andi	a4,a4,15
    3186:	8f55                	or	a4,a4,a3
    3188:	00e40323          	sb	a4,6(s0)
    318c:	0047d713          	srli	a4,a5,0x4
    3190:	00e403a3          	sb	a4,7(s0)
    3194:	00c7d713          	srli	a4,a5,0xc
    3198:	00e40423          	sb	a4,8(s0)
    319c:	00944703          	lbu	a4,9(s0)
    31a0:	83d1                	srli	a5,a5,0x14
    31a2:	8b85                	andi	a5,a5,1
    31a4:	9b79                	andi	a4,a4,-2
    31a6:	8fd9                	or	a5,a5,a4
    31a8:	00f404a3          	sb	a5,9(s0)
    31ac:	004a2783          	lw	a5,4(s4)
    31b0:	00944703          	lbu	a4,9(s0)
    31b4:	87a9                	srai	a5,a5,0xa
    31b6:	07f7f693          	andi	a3,a5,127
    31ba:	0686                	slli	a3,a3,0x1
    31bc:	8b05                	andi	a4,a4,1
    31be:	8f55                	or	a4,a4,a3
    31c0:	00e404a3          	sb	a4,9(s0)
    31c4:	0077d713          	srli	a4,a5,0x7
    31c8:	00e40523          	sb	a4,10(s0)
    31cc:	00b44703          	lbu	a4,11(s0)
    31d0:	83bd                	srli	a5,a5,0xf
    31d2:	03f7f793          	andi	a5,a5,63
    31d6:	fc077713          	andi	a4,a4,-64
    31da:	8fd9                	or	a5,a5,a4
    31dc:	00f405a3          	sb	a5,11(s0)
    31e0:	008a2783          	lw	a5,8(s4)
    31e4:	00b44703          	lbu	a4,11(s0)
    31e8:	40a7d693          	srai	a3,a5,0xa
    31ec:	069a                	slli	a3,a3,0x6
    31ee:	03f77713          	andi	a4,a4,63
    31f2:	8f55                	or	a4,a4,a3
    31f4:	87b1                	srai	a5,a5,0xc
    31f6:	00e405a3          	sb	a4,11(s0)
    31fa:	0087d713          	srli	a4,a5,0x8
    31fe:	00e409a3          	sb	a4,19(s0)
    3202:	9801d703          	lhu	a4,-1664(gp) # 20001a28 <timestamp.4>
    3206:	00049803          	lh	a6,0(s1)
    320a:	00f40923          	sb	a5,18(s0)
    320e:	02e40123          	sb	a4,34(s0)
    3212:	8321                	srli	a4,a4,0x8
    3214:	02e401a3          	sb	a4,35(s0)
    3218:	02444703          	lbu	a4,36(s0)
    321c:	83c1                	srli	a5,a5,0x10
    321e:	8b9d                	andi	a5,a5,7
    3220:	fc077713          	andi	a4,a4,-64
    3224:	00376713          	ori	a4,a4,3
    3228:	02e40223          	sb	a4,36(s0)
    322c:	00091703          	lh	a4,0(s2)
    3230:	410706b3          	sub	a3,a4,a6
    3234:	0f86f613          	andi	a2,a3,248
    3238:	8fd1                	or	a5,a5,a2
    323a:	82a1                	srli	a3,a3,0x8
    323c:	00f40a23          	sb	a5,20(s0)
    3240:	00d40aa3          	sb	a3,21(s0)
    3244:	00291603          	lh	a2,2(s2)
    3248:	00249883          	lh	a7,2(s1)
    324c:	01744683          	lbu	a3,23(s0)
    3250:	411607b3          	sub	a5,a2,a7
    3254:	878d                	srai	a5,a5,0x3
    3256:	00f40b23          	sb	a5,22(s0)
    325a:	83a1                	srli	a5,a5,0x8
    325c:	9a81                	andi	a3,a3,-32
    325e:	8bfd                	andi	a5,a5,31
    3260:	8fd5                	or	a5,a5,a3
    3262:	00f40ba3          	sb	a5,23(s0)
    3266:	00491683          	lh	a3,4(s2)
    326a:	00449503          	lh	a0,4(s1)
    326e:	01744583          	lbu	a1,23(s0)
    3272:	40a687b3          	sub	a5,a3,a0
    3276:	4037d313          	srai	t1,a5,0x3
    327a:	0316                	slli	t1,t1,0x5
    327c:	89fd                	andi	a1,a1,31
    327e:	0065e5b3          	or	a1,a1,t1
    3282:	00b40ba3          	sb	a1,23(s0)
    3286:	00649303          	lh	t1,6(s1)
    328a:	8799                	srai	a5,a5,0x6
    328c:	0087d593          	srli	a1,a5,0x8
    3290:	00f40f23          	sb	a5,30(s0)
    3294:	010707b3          	add	a5,a4,a6
    3298:	979a                	add	a5,a5,t1
    329a:	5875                	li	a6,-3
    329c:	0307c7b3          	div	a5,a5,a6
    32a0:	0035f713          	andi	a4,a1,3
    32a4:	979a                	add	a5,a5,t1
    32a6:	87a5                	srai	a5,a5,0x9
    32a8:	03f7f313          	andi	t1,a5,63
    32ac:	030a                	slli	t1,t1,0x2
    32ae:	00676733          	or	a4,a4,t1
    32b2:	00e40fa3          	sb	a4,31(s0)
    32b6:	02044703          	lbu	a4,32(s0)
    32ba:	8399                	srli	a5,a5,0x6
    32bc:	8b85                	andi	a5,a5,1
    32be:	9b79                	andi	a4,a4,-2
    32c0:	8fd9                	or	a5,a5,a4
    32c2:	02f40023          	sb	a5,32(s0)
    32c6:	00849703          	lh	a4,8(s1)
    32ca:	011607b3          	add	a5,a2,a7
    32ce:	97ba                	add	a5,a5,a4
    32d0:	0307c7b3          	div	a5,a5,a6
    32d4:	97ba                	add	a5,a5,a4
    32d6:	02044703          	lbu	a4,32(s0)
    32da:	87a5                	srai	a5,a5,0x9
    32dc:	0786                	slli	a5,a5,0x1
    32de:	8b05                	andi	a4,a4,1
    32e0:	8fd9                	or	a5,a5,a4
    32e2:	02f40023          	sb	a5,32(s0)
    32e6:	00a49703          	lh	a4,10(s1)
    32ea:	00a687b3          	add	a5,a3,a0
    32ee:	97ba                	add	a5,a5,a4
    32f0:	0307c7b3          	div	a5,a5,a6
    32f4:	97ba                	add	a5,a5,a4
    32f6:	02144703          	lbu	a4,33(s0)
    32fa:	87a5                	srai	a5,a5,0x9
    32fc:	07f7f793          	andi	a5,a5,127
    3300:	f8077713          	andi	a4,a4,-128
    3304:	8fd9                	or	a5,a5,a4
    3306:	02f400a3          	sb	a5,33(s0)
    330a:	e77fc06f          	j	180 <__riscv_restore_10>
    330e:	86c1ab83          	lw	s7,-1940(gp) # 20001914 <_impure_ptr+0x44>
    3312:	b525                	j	313a <switch_motion_pack_quat+0xd8>

00003314 <imu_upd2>:
    3314:	e5dfc2ef          	jal	t0,170 <__riscv_save_0>
    3318:	6ad010ef          	jal	ra,51c4 <Get_Systick_US>
    331c:	862a                	mv	a2,a0
    331e:	200035b7          	lui	a1,0x20003
    3322:	20003537          	lui	a0,0x20003
    3326:	22858593          	addi	a1,a1,552 # 20003228 <imu_res>
    332a:	22e50513          	addi	a0,a0,558 # 2000322e <imu_res+0x6>
    332e:	b37ff0ef          	jal	ra,2e64 <_imu_update_quaternion>
    3332:	9601c783          	lbu	a5,-1696(gp) # 20001a08 <imu_buf_pos>
    3336:	02500713          	li	a4,37
    333a:	200035b7          	lui	a1,0x20003
    333e:	02e787b3          	mul	a5,a5,a4
    3342:	1dc58593          	addi	a1,a1,476 # 200031dc <imu_pack_buf>
    3346:	20001537          	lui	a0,0x20001
    334a:	7c050513          	addi	a0,a0,1984 # 200017c0 <_imu_quat_state>
    334e:	95be                	add	a1,a1,a5
    3350:	d13ff0ef          	jal	ra,3062 <switch_motion_pack_quat>
    3354:	e41fc06f          	j	194 <__riscv_restore_0>

00003358 <button_upd_all>:
    3358:	9a41c783          	lbu	a5,-1628(gp) # 20001a4c <top_trigger>
    335c:	eb89                	bnez	a5,336e <button_upd_all+0x16>
    335e:	e13fc2ef          	jal	t0,170 <__riscv_save_0>
    3362:	8a4fe0ef          	jal	ra,1406 <gpio_read_all>
    3366:	8ca1a223          	sw	a0,-1852(gp) # 2000196c <sts_button>
    336a:	e2bfc06f          	j	194 <__riscv_restore_0>
    336e:	4501                	li	a0,0
    3370:	8ca1a223          	sw	a0,-1852(gp) # 2000196c <sts_button>
    3374:	8082                	ret

00003376 <get_peripheral_data_handler>:
    3376:	c931                	beqz	a0,33ca <get_peripheral_data_handler+0x54>
    3378:	df9fc2ef          	jal	t0,170 <__riscv_save_0>
    337c:	842a                	mv	s0,a0
    337e:	fdbff0ef          	jal	ra,3358 <button_upd_all>
    3382:	8c41c703          	lbu	a4,-1852(gp) # 2000196c <sts_button>
    3386:	00e40023          	sb	a4,0(s0)
    338a:	8c51c703          	lbu	a4,-1851(gp) # 2000196d <sts_button+0x1>
    338e:	8c61c783          	lbu	a5,-1850(gp) # 2000196e <sts_button+0x2>
    3392:	00e400a3          	sb	a4,1(s0)
    3396:	00f40123          	sb	a5,2(s0)
    339a:	9a01a783          	lw	a5,-1632(gp) # 20001a48 <sts_ljoy>
    339e:	00f401a3          	sb	a5,3(s0)
    33a2:	0087d713          	srli	a4,a5,0x8
    33a6:	83c1                	srli	a5,a5,0x10
    33a8:	00f402a3          	sb	a5,5(s0)
    33ac:	99c1a783          	lw	a5,-1636(gp) # 20001a44 <sts_rjoy>
    33b0:	00e40223          	sb	a4,4(s0)
    33b4:	00f40323          	sb	a5,6(s0)
    33b8:	0087d713          	srli	a4,a5,0x8
    33bc:	83c1                	srli	a5,a5,0x10
    33be:	00e403a3          	sb	a4,7(s0)
    33c2:	00f40423          	sb	a5,8(s0)
    33c6:	dcffc06f          	j	194 <__riscv_restore_0>
    33ca:	8082                	ret

000033cc <joystick_snapback_filter>:
    33cc:	d8bfc2ef          	jal	t0,156 <__riscv_save_4>
    33d0:	200034b7          	lui	s1,0x20003
    33d4:	92c48793          	addi	a5,s1,-1748 # 2000292c <user_config>
    33d8:	0227c703          	lbu	a4,34(a5)
    33dc:	4689                	li	a3,2
    33de:	8a32                	mv	s4,a2
    33e0:	92c48493          	addi	s1,s1,-1748
    33e4:	00161793          	slli	a5,a2,0x1
    33e8:	10d70563          	beq	a4,a3,34f2 <joystick_snapback_filter+0x126>
    33ec:	468d                	li	a3,3
    33ee:	12d70b63          	beq	a4,a3,3524 <joystick_snapback_filter+0x158>
    33f2:	4685                	li	a3,1
    33f4:	02d71863          	bne	a4,a3,3424 <joystick_snapback_filter+0x58>
    33f8:	41f55693          	srai	a3,a0,0x1f
    33fc:	00a6c733          	xor	a4,a3,a0
    3400:	8f15                	sub	a4,a4,a3
    3402:	00f486b3          	add	a3,s1,a5
    3406:	01e6c603          	lbu	a2,30(a3)
    340a:	00c75d63          	bge	a4,a2,3424 <joystick_snapback_filter+0x58>
    340e:	41f5d613          	srai	a2,a1,0x1f
    3412:	01f6c683          	lbu	a3,31(a3)
    3416:	00b64733          	xor	a4,a2,a1
    341a:	8f11                	sub	a4,a4,a2
    341c:	00d75463          	bge	a4,a3,3424 <joystick_snapback_filter+0x58>
    3420:	4581                	li	a1,0
    3422:	4501                	li	a0,0
    3424:	97a6                	add	a5,a5,s1
    3426:	00778983          	lb	s3,7(a5)
    342a:	00878903          	lb	s2,8(a5)
    342e:	0124c783          	lbu	a5,18(s1)
    3432:	02a989b3          	mul	s3,s3,a0
    3436:	0114c703          	lbu	a4,17(s1)
    343a:	07a2                	slli	a5,a5,0x8
    343c:	8fd9                	or	a5,a5,a4
    343e:	02b90933          	mul	s2,s2,a1
    3442:	4059d993          	srai	s3,s3,0x5
    3446:	40595913          	srai	s2,s2,0x5
    344a:	cfbd                	beqz	a5,34c8 <joystick_snapback_filter+0xfc>
    344c:	032907b3          	mul	a5,s2,s2
    3450:	002a1713          	slli	a4,s4,0x2
    3454:	98018823          	sb	zero,-1648(gp) # 20001a38 <set.12>
    3458:	03398433          	mul	s0,s3,s3
    345c:	943e                	add	s0,s0,a5
    345e:	8b018793          	addi	a5,gp,-1872 # 20001958 <joystick_snapback_deadzone_sq>
    3462:	97ba                	add	a5,a5,a4
    3464:	439c                	lw	a5,0(a5)
    3466:	00f46563          	bltu	s0,a5,3470 <joystick_snapback_filter+0xa4>
    346a:	4785                	li	a5,1
    346c:	98f18823          	sb	a5,-1648(gp) # 20001a38 <set.12>
    3470:	555010ef          	jal	ra,51c4 <Get_Systick_US>
    3474:	e111                	bnez	a0,3478 <joystick_snapback_filter+0xac>
    3476:	4505                	li	a0,1
    3478:	47e1                	li	a5,24
    347a:	02fa07b3          	mul	a5,s4,a5
    347e:	20003637          	lui	a2,0x20003
    3482:	28860693          	addi	a3,a2,648 # 20003288 <js_snapback_samples>
    3486:	28860593          	addi	a1,a2,648
    348a:	96be                	add	a3,a3,a5
    348c:	429c                	lw	a5,0(a3)
    348e:	cf89                	beqz	a5,34a8 <joystick_snapback_filter+0xdc>
    3490:	40f50733          	sub	a4,a0,a5
    3494:	0124c783          	lbu	a5,18(s1)
    3498:	0114c603          	lbu	a2,17(s1)
    349c:	07a2                	slli	a5,a5,0x8
    349e:	8fd1                	or	a5,a5,a2
    34a0:	0cf76963          	bltu	a4,a5,3572 <joystick_snapback_filter+0x1a6>
    34a4:	0006a023          	sw	zero,0(a3)
    34a8:	9901c783          	lbu	a5,-1648(gp) # 20001a38 <set.12>
    34ac:	cf91                	beqz	a5,34c8 <joystick_snapback_filter+0xfc>
    34ae:	47e1                	li	a5,24
    34b0:	02fa0a33          	mul	s4,s4,a5
    34b4:	01458633          	add	a2,a1,s4
    34b8:	ca00                	sw	s0,16(a2)
    34ba:	847d                	srai	s0,s0,0x1f
    34bc:	01362223          	sw	s3,4(a2)
    34c0:	01262423          	sw	s2,8(a2)
    34c4:	ca40                	sw	s0,20(a2)
    34c6:	c208                	sw	a0,0(a2)
    34c8:	6485                	lui	s1,0x1
    34ca:	80048513          	addi	a0,s1,-2048 # 800 <USBFS_IRQHandler+0x43a>
    34ce:	992a                	add	s2,s2,a0
    34d0:	fff48613          	addi	a2,s1,-1
    34d4:	4581                	li	a1,0
    34d6:	954e                	add	a0,a0,s3
    34d8:	c2dfd0ef          	jal	ra,1104 <i32_clamp>
    34dc:	842a                	mv	s0,a0
    34de:	fff48613          	addi	a2,s1,-1
    34e2:	4581                	li	a1,0
    34e4:	854a                	mv	a0,s2
    34e6:	c1ffd0ef          	jal	ra,1104 <i32_clamp>
    34ea:	0532                	slli	a0,a0,0xc
    34ec:	9522                	add	a0,a0,s0
    34ee:	c9dfc06f          	j	18a <__riscv_restore_4>
    34f2:	41f55693          	srai	a3,a0,0x1f
    34f6:	00a6c733          	xor	a4,a3,a0
    34fa:	8f15                	sub	a4,a4,a3
    34fc:	00f486b3          	add	a3,s1,a5
    3500:	01e6c683          	lbu	a3,30(a3)
    3504:	00d75363          	bge	a4,a3,350a <joystick_snapback_filter+0x13e>
    3508:	4501                	li	a0,0
    350a:	41f5d693          	srai	a3,a1,0x1f
    350e:	00b6c733          	xor	a4,a3,a1
    3512:	8f15                	sub	a4,a4,a3
    3514:	00f486b3          	add	a3,s1,a5
    3518:	01f6c683          	lbu	a3,31(a3)
    351c:	f0d754e3          	bge	a4,a3,3424 <joystick_snapback_filter+0x58>
    3520:	4581                	li	a1,0
    3522:	b709                	j	3424 <joystick_snapback_filter+0x58>
    3524:	00f48733          	add	a4,s1,a5
    3528:	41f55613          	srai	a2,a0,0x1f
    352c:	01e74703          	lbu	a4,30(a4)
    3530:	00a646b3          	xor	a3,a2,a0
    3534:	8e91                	sub	a3,a3,a2
    3536:	02e6cc63          	blt	a3,a4,356e <joystick_snapback_filter+0x1a2>
    353a:	56fd                	li	a3,-1
    353c:	00a04363          	bgtz	a0,3542 <joystick_snapback_filter+0x176>
    3540:	4685                	li	a3,1
    3542:	02d70733          	mul	a4,a4,a3
    3546:	953a                	add	a0,a0,a4
    3548:	00f48733          	add	a4,s1,a5
    354c:	41f5d613          	srai	a2,a1,0x1f
    3550:	01f74703          	lbu	a4,31(a4)
    3554:	00b646b3          	xor	a3,a2,a1
    3558:	8e91                	sub	a3,a3,a2
    355a:	fce6c3e3          	blt	a3,a4,3520 <joystick_snapback_filter+0x154>
    355e:	56fd                	li	a3,-1
    3560:	00b04363          	bgtz	a1,3566 <joystick_snapback_filter+0x19a>
    3564:	4685                	li	a3,1
    3566:	02d70733          	mul	a4,a4,a3
    356a:	95ba                	add	a1,a1,a4
    356c:	bd65                	j	3424 <joystick_snapback_filter+0x58>
    356e:	4501                	li	a0,0
    3570:	bfe1                	j	3548 <joystick_snapback_filter+0x17c>
    3572:	42d8                	lw	a4,4(a3)
    3574:	469c                	lw	a5,8(a3)
    3576:	02e98733          	mul	a4,s3,a4
    357a:	02f907b3          	mul	a5,s2,a5
    357e:	973e                	add	a4,a4,a5
    3580:	f20754e3          	bgez	a4,34a8 <joystick_snapback_filter+0xdc>
    3584:	4a90                	lw	a2,16(a3)
    3586:	4ad4                	lw	a3,20(a3)
    3588:	41f45793          	srai	a5,s0,0x1f
    358c:	02f607b3          	mul	a5,a2,a5
    3590:	028686b3          	mul	a3,a3,s0
    3594:	02860833          	mul	a6,a2,s0
    3598:	97b6                	add	a5,a5,a3
    359a:	02863633          	mulhu	a2,a2,s0
    359e:	97b2                	add	a5,a5,a2
    35a0:	460d                	li	a2,3
    35a2:	02f607b3          	mul	a5,a2,a5
    35a6:	030606b3          	mul	a3,a2,a6
    35aa:	03063633          	mulhu	a2,a2,a6
    35ae:	828d                	srli	a3,a3,0x3
    35b0:	97b2                	add	a5,a5,a2
    35b2:	01d79613          	slli	a2,a5,0x1d
    35b6:	8ed1                	or	a3,a3,a2
    35b8:	02e70633          	mul	a2,a4,a4
    35bc:	878d                	srai	a5,a5,0x3
    35be:	02e71733          	mulh	a4,a4,a4
    35c2:	eef763e3          	bltu	a4,a5,34a8 <joystick_snapback_filter+0xdc>
    35c6:	00e79463          	bne	a5,a4,35ce <joystick_snapback_filter+0x202>
    35ca:	ecd66fe3          	bltu	a2,a3,34a8 <joystick_snapback_filter+0xdc>
    35ce:	98018823          	sb	zero,-1648(gp) # 20001a38 <set.12>
    35d2:	4901                	li	s2,0
    35d4:	4981                	li	s3,0
    35d6:	bdc9                	j	34a8 <joystick_snapback_filter+0xdc>

000035d8 <joystick_debounce_task>:
    35d8:	b99fc2ef          	jal	t0,170 <__riscv_save_0>
    35dc:	8bc18793          	addi	a5,gp,-1860 # 20001964 <adc_data>
    35e0:	0047d703          	lhu	a4,4(a5)
    35e4:	0007d503          	lhu	a0,0(a5)
    35e8:	0027d583          	lhu	a1,2(a5)
    35ec:	200034b7          	lui	s1,0x20003
    35f0:	0067d783          	lhu	a5,6(a5)
    35f4:	20003437          	lui	s0,0x20003
    35f8:	9a840413          	addi	s0,s0,-1624 # 200029a8 <user_calibration>
    35fc:	2b848493          	addi	s1,s1,696 # 200032b8 <adc_debounce>
    3600:	c498                	sw	a4,8(s1)
    3602:	00444703          	lbu	a4,4(s0)
    3606:	c4dc                	sw	a5,12(s1)
    3608:	00344783          	lbu	a5,3(s0)
    360c:	0722                	slli	a4,a4,0x8
    360e:	00144683          	lbu	a3,1(s0)
    3612:	8f5d                	or	a4,a4,a5
    3614:	00244783          	lbu	a5,2(s0)
    3618:	c088                	sw	a0,0(s1)
    361a:	c0cc                	sw	a1,4(s1)
    361c:	07a2                	slli	a5,a5,0x8
    361e:	8fd5                	or	a5,a5,a3
    3620:	8d99                	sub	a1,a1,a4
    3622:	4601                	li	a2,0
    3624:	8d1d                	sub	a0,a0,a5
    3626:	da7ff0ef          	jal	ra,33cc <joystick_snapback_filter>
    362a:	00844703          	lbu	a4,8(s0)
    362e:	9aa1a023          	sw	a0,-1632(gp) # 20001a48 <sts_ljoy>
    3632:	00744783          	lbu	a5,7(s0)
    3636:	0722                	slli	a4,a4,0x8
    3638:	00544683          	lbu	a3,5(s0)
    363c:	8f5d                	or	a4,a4,a5
    363e:	00644783          	lbu	a5,6(s0)
    3642:	44cc                	lw	a1,12(s1)
    3644:	4488                	lw	a0,8(s1)
    3646:	07a2                	slli	a5,a5,0x8
    3648:	8fd5                	or	a5,a5,a3
    364a:	4605                	li	a2,1
    364c:	8d99                	sub	a1,a1,a4
    364e:	8d1d                	sub	a0,a0,a5
    3650:	d7dff0ef          	jal	ra,33cc <joystick_snapback_filter>
    3654:	98a1ae23          	sw	a0,-1636(gp) # 20001a44 <sts_rjoy>
    3658:	b3dfc06f          	j	194 <__riscv_restore_0>

0000365c <func_switch_task>:
    365c:	9a41c783          	lbu	a5,-1628(gp) # 20001a4c <top_trigger>
    3660:	20078563          	beqz	a5,386a <func_switch_task+0x20e>
    3664:	af3fc2ef          	jal	t0,156 <__riscv_save_4>
    3668:	00022537          	lui	a0,0x22
    366c:	980187a3          	sb	zero,-1649(gp) # 20001a37 <save.8>
    3670:	98018723          	sb	zero,-1650(gp) # 20001a36 <upd.7>
    3674:	e09fd0ef          	jal	ra,147c <gpio_read>
    3678:	00020537          	lui	a0,0x20
    367c:	04050513          	addi	a0,a0,64 # 20040 <_data_lma+0x1445c>
    3680:	dfdfd0ef          	jal	ra,147c <gpio_read>
    3684:	1c051763          	bnez	a0,3852 <func_switch_task+0x1f6>
    3688:	98d1c783          	lbu	a5,-1651(gp) # 20001a35 <f1.5>
    368c:	c78d                	beqz	a5,36b6 <func_switch_task+0x5a>
    368e:	20003737          	lui	a4,0x20003
    3692:	92c70713          	addi	a4,a4,-1748 # 2000292c <user_config>
    3696:	00074783          	lbu	a5,0(a4)
    369a:	0807c693          	xori	a3,a5,128
    369e:	0806f693          	andi	a3,a3,128
    36a2:	07f7f793          	andi	a5,a5,127
    36a6:	8fd5                	or	a5,a5,a3
    36a8:	00f70023          	sb	a5,0(a4)
    36ac:	4785                	li	a5,1
    36ae:	98f187a3          	sb	a5,-1649(gp) # 20001a37 <save.8>
    36b2:	98f18723          	sb	a5,-1650(gp) # 20001a36 <upd.7>
    36b6:	98a186a3          	sb	a0,-1651(gp) # 20001a35 <f1.5>
    36ba:	00048537          	lui	a0,0x48
    36be:	dbffd0ef          	jal	ra,147c <gpio_read>
    36c2:	892a                	mv	s2,a0
    36c4:	18051963          	bnez	a0,3856 <func_switch_task+0x1fa>
    36c8:	98c1c783          	lbu	a5,-1652(gp) # 20001a34 <f2.4>
    36cc:	cf85                	beqz	a5,3704 <func_switch_task+0xa8>
    36ce:	20003737          	lui	a4,0x20003
    36d2:	92c70713          	addi	a4,a4,-1748 # 2000292c <user_config>
    36d6:	00074783          	lbu	a5,0(a4)
    36da:	fff7c693          	not	a3,a5
    36de:	0206f693          	andi	a3,a3,32
    36e2:	fdf7f793          	andi	a5,a5,-33
    36e6:	8fd5                	or	a5,a5,a3
    36e8:	00f70023          	sb	a5,0(a4)
    36ec:	8395                	srli	a5,a5,0x5
    36ee:	0017c793          	xori	a5,a5,1
    36f2:	0017f513          	andi	a0,a5,1
    36f6:	f27fd0ef          	jal	ra,161c <hd_rumble_set_status>
    36fa:	4785                	li	a5,1
    36fc:	98f187a3          	sb	a5,-1649(gp) # 20001a37 <save.8>
    3700:	98f18723          	sb	a5,-1650(gp) # 20001a36 <upd.7>
    3704:	00020537          	lui	a0,0x20
    3708:	08050513          	addi	a0,a0,128 # 20080 <_data_lma+0x1449c>
    370c:	99218623          	sb	s2,-1652(gp) # 20001a34 <f2.4>
    3710:	d6dfd0ef          	jal	ra,147c <gpio_read>
    3714:	14051363          	bnez	a0,385a <func_switch_task+0x1fe>
    3718:	98b1c783          	lbu	a5,-1653(gp) # 20001a33 <f3.3>
    371c:	c39d                	beqz	a5,3742 <func_switch_task+0xe6>
    371e:	20003737          	lui	a4,0x20003
    3722:	92c70713          	addi	a4,a4,-1748 # 2000292c <user_config>
    3726:	00074783          	lbu	a5,0(a4)
    372a:	fff7c693          	not	a3,a5
    372e:	8a89                	andi	a3,a3,2
    3730:	9bf5                	andi	a5,a5,-3
    3732:	8fd5                	or	a5,a5,a3
    3734:	00f70023          	sb	a5,0(a4)
    3738:	4785                	li	a5,1
    373a:	98f187a3          	sb	a5,-1649(gp) # 20001a37 <save.8>
    373e:	98f18723          	sb	a5,-1650(gp) # 20001a36 <upd.7>
    3742:	98a185a3          	sb	a0,-1653(gp) # 20001a33 <f3.3>
    3746:	00028537          	lui	a0,0x28
    374a:	d33fd0ef          	jal	ra,147c <gpio_read>
    374e:	892a                	mv	s2,a0
    3750:	10051763          	bnez	a0,385e <func_switch_task+0x202>
    3754:	98a1c783          	lbu	a5,-1654(gp) # 20001a32 <f4.2>
    3758:	cf85                	beqz	a5,3790 <func_switch_task+0x134>
    375a:	20003537          	lui	a0,0x20003
    375e:	27855783          	lhu	a5,632(a0) # 20003278 <pkt>
    3762:	7779                	lui	a4,0xffffe
    3764:	08070713          	addi	a4,a4,128 # ffffe080 <_eusrstack+0xdfff9080>
    3768:	8ff9                	and	a5,a5,a4
    376a:	6007e793          	ori	a5,a5,1536
    376e:	26f51c23          	sh	a5,632(a0)
    3772:	9b51c783          	lbu	a5,-1611(gp) # 20001a5d <force_esp32_active>
    3776:	27850713          	addi	a4,a0,632
    377a:	27850513          	addi	a0,a0,632
    377e:	0017b793          	seqz	a5,a5
    3782:	00f701a3          	sb	a5,3(a4)
    3786:	7e1010ef          	jal	ra,5766 <send_uart_pkt>
    378a:	4785                	li	a5,1
    378c:	98f18723          	sb	a5,-1650(gp) # 20001a36 <upd.7>
    3790:	6541                	lui	a0,0x10
    3792:	10050513          	addi	a0,a0,256 # 10100 <_data_lma+0x451c>
    3796:	99218523          	sb	s2,-1654(gp) # 20001a32 <f4.2>
    379a:	ce3fd0ef          	jal	ra,147c <gpio_read>
    379e:	892a                	mv	s2,a0
    37a0:	e169                	bnez	a0,3862 <func_switch_task+0x206>
    37a2:	9891c783          	lbu	a5,-1655(gp) # 20001a31 <f5.1>
    37a6:	c3a1                	beqz	a5,37e6 <func_switch_task+0x18a>
    37a8:	200035b7          	lui	a1,0x20003
    37ac:	92c58793          	addi	a5,a1,-1748 # 2000292c <user_config>
    37b0:	ffa78513          	addi	a0,a5,-6
    37b4:	92c58593          	addi	a1,a1,-1748
    37b8:	0ff00693          	li	a3,255
    37bc:	0187c703          	lbu	a4,24(a5)
    37c0:	00170613          	addi	a2,a4,1
    37c4:	00c78c23          	sb	a2,24(a5)
    37c8:	00d71563          	bne	a4,a3,37d2 <func_switch_task+0x176>
    37cc:	17fd                	addi	a5,a5,-1
    37ce:	fea797e3          	bne	a5,a0,37bc <func_switch_task+0x160>
    37d2:	20003537          	lui	a0,0x20003
    37d6:	4619                	li	a2,6
    37d8:	05cd                	addi	a1,a1,19
    37da:	79a50513          	addi	a0,a0,1946 # 2000379a <connection_state+0x6>
    37de:	9c3fc0ef          	jal	ra,1a0 <memcpy>
    37e2:	acafd0ef          	jal	ra,aac <custom_conf_write>
    37e6:	200037b7          	lui	a5,0x20003
    37ea:	7997c783          	lbu	a5,1945(a5) # 20003799 <connection_state+0x5>
    37ee:	992184a3          	sb	s2,-1655(gp) # 20001a31 <f5.1>
    37f2:	ebb5                	bnez	a5,3866 <func_switch_task+0x20a>
    37f4:	6541                	lui	a0,0x10
    37f6:	0505                	addi	a0,a0,1 # 10001 <_data_lma+0x441d>
    37f8:	c85fd0ef          	jal	ra,147c <gpio_read>
    37fc:	892a                	mv	s2,a0
    37fe:	e525                	bnez	a0,3866 <func_switch_task+0x20a>
    3800:	9881c783          	lbu	a5,-1656(gp) # 20001a30 <f6.0>
    3804:	cb85                	beqz	a5,3834 <func_switch_task+0x1d8>
    3806:	20003537          	lui	a0,0x20003
    380a:	27852783          	lw	a5,632(a0) # 20003278 <pkt>
    380e:	00ffe737          	lui	a4,0xffe
    3812:	08070713          	addi	a4,a4,128 # ffe080 <_data_lma+0xff249c>
    3816:	8ff9                	and	a5,a5,a4
    3818:	01000737          	lui	a4,0x1000
    381c:	30570713          	addi	a4,a4,773 # 1000305 <_data_lma+0xff4721>
    3820:	8fd9                	or	a5,a5,a4
    3822:	26f52c23          	sw	a5,632(a0)
    3826:	27850513          	addi	a0,a0,632
    382a:	73d010ef          	jal	ra,5766 <send_uart_pkt>
    382e:	4785                	li	a5,1
    3830:	98f18723          	sb	a5,-1650(gp) # 20001a36 <upd.7>
    3834:	98e1c783          	lbu	a5,-1650(gp) # 20001a36 <upd.7>
    3838:	99218423          	sb	s2,-1656(gp) # 20001a30 <f6.0>
    383c:	c781                	beqz	a5,3844 <func_switch_task+0x1e8>
    383e:	4505                	li	a0,1
    3840:	6ea010ef          	jal	ra,4f2a <flush_rgb>
    3844:	98f1c783          	lbu	a5,-1649(gp) # 20001a37 <save.8>
    3848:	c399                	beqz	a5,384e <func_switch_task+0x1f2>
    384a:	a62fd0ef          	jal	ra,aac <custom_conf_write>
    384e:	93dfc06f          	j	18a <__riscv_restore_4>
    3852:	4505                	li	a0,1
    3854:	b58d                	j	36b6 <func_switch_task+0x5a>
    3856:	4905                	li	s2,1
    3858:	b575                	j	3704 <func_switch_task+0xa8>
    385a:	4505                	li	a0,1
    385c:	b5dd                	j	3742 <func_switch_task+0xe6>
    385e:	4905                	li	s2,1
    3860:	bf05                	j	3790 <func_switch_task+0x134>
    3862:	4905                	li	s2,1
    3864:	b749                	j	37e6 <func_switch_task+0x18a>
    3866:	4905                	li	s2,1
    3868:	b7f1                	j	3834 <func_switch_task+0x1d8>
    386a:	8082                	ret

0000386c <top_timer>:
    386c:	905fc2ef          	jal	t0,170 <__riscv_save_0>
    3870:	00020537          	lui	a0,0x20
    3874:	0511                	addi	a0,a0,4 # 20004 <_data_lma+0x14420>
    3876:	c07fd0ef          	jal	ra,147c <gpio_read>
    387a:	ed1d                	bnez	a0,38b8 <top_timer+0x4c>
    387c:	9981a783          	lw	a5,-1640(gp) # 20001a40 <top_tick>
    3880:	c79d                	beqz	a5,38ae <top_timer+0x42>
    3882:	15b010ef          	jal	ra,51dc <Get_Systick_MS>
    3886:	9981a783          	lw	a5,-1640(gp) # 20001a40 <top_tick>
    388a:	8d1d                	sub	a0,a0,a5
    388c:	06400793          	li	a5,100
    3890:	00a7fd63          	bgeu	a5,a0,38aa <top_timer+0x3e>
    3894:	9a41c783          	lbu	a5,-1628(gp) # 20001a4c <top_trigger>
    3898:	e791                	bnez	a5,38a4 <top_timer+0x38>
    389a:	652d                	lui	a0,0xb
    389c:	71c50513          	addi	a0,a0,1820 # b71c <_read+0x82>
    38a0:	405060ef          	jal	ra,a4a4 <puts>
    38a4:	4785                	li	a5,1
    38a6:	9af18223          	sb	a5,-1628(gp) # 20001a4c <top_trigger>
    38aa:	8ebfc06f          	j	194 <__riscv_restore_0>
    38ae:	12f010ef          	jal	ra,51dc <Get_Systick_MS>
    38b2:	98a1ac23          	sw	a0,-1640(gp) # 20001a40 <top_tick>
    38b6:	bfd5                	j	38aa <top_timer+0x3e>
    38b8:	9a018223          	sb	zero,-1628(gp) # 20001a4c <top_trigger>
    38bc:	9801ac23          	sw	zero,-1640(gp) # 20001a40 <top_tick>
    38c0:	b7ed                	j	38aa <top_timer+0x3e>

000038c2 <routine_service>:
    38c2:	8affc2ef          	jal	t0,170 <__riscv_save_0>
    38c6:	9b01a783          	lw	a5,-1616(gp) # 20001a58 <rts_cnt>
    38ca:	0785                	addi	a5,a5,1
    38cc:	9af1a823          	sw	a5,-1616(gp) # 20001a58 <rts_cnt>
    38d0:	e781                	bnez	a5,38d8 <routine_service+0x16>
    38d2:	4705                	li	a4,1
    38d4:	80e1a623          	sw	a4,-2036(gp) # 200018b4 <rts_tcnt>
    38d8:	105010ef          	jal	ra,51dc <Get_Systick_MS>
    38dc:	9941a783          	lw	a5,-1644(gp) # 20001a3c <routine_tick>
    38e0:	02f50063          	beq	a0,a5,3900 <routine_service+0x3e>
    38e4:	0f9010ef          	jal	ra,51dc <Get_Systick_MS>
    38e8:	80c1a783          	lw	a5,-2036(gp) # 200018b4 <rts_tcnt>
    38ec:	9941a683          	lw	a3,-1644(gp) # 20001a3c <routine_tick>
    38f0:	8f95                	sub	a5,a5,a3
    38f2:	97aa                	add	a5,a5,a0
    38f4:	80f1a623          	sw	a5,-2036(gp) # 200018b4 <rts_tcnt>
    38f8:	0e5010ef          	jal	ra,51dc <Get_Systick_MS>
    38fc:	98a1aa23          	sw	a0,-1644(gp) # 20001a3c <routine_tick>
    3900:	f6dff0ef          	jal	ra,386c <top_timer>
    3904:	dfefe0ef          	jal	ra,1f02 <push_waveform_into_buffer_task>
    3908:	96eff0ef          	jal	ra,2a76 <imu_upd>
    390c:	d51ff0ef          	jal	ra,365c <func_switch_task>
    3910:	885fc06f          	j	194 <__riscv_restore_0>

00003914 <set_peripherals_state>:
    3914:	85dfc2ef          	jal	t0,170 <__riscv_save_0>
    3918:	842a                	mv	s0,a0
    391a:	85aa                	mv	a1,a0
    391c:	20000513          	li	a0,512
    3920:	480030ef          	jal	ra,6da0 <RCC_APB2PeriphClockCmd>
    3924:	85a2                	mv	a1,s0
    3926:	4505                	li	a0,1
    3928:	45a030ef          	jal	ra,6d82 <RCC_AHBPeriphClockCmd>
    392c:	85a2                	mv	a1,s0
    392e:	4505                	li	a0,1
    3930:	48e030ef          	jal	ra,6dbe <RCC_APB1PeriphClockCmd>
    3934:	85a2                	mv	a1,s0
    3936:	4509                	li	a0,2
    3938:	486030ef          	jal	ra,6dbe <RCC_APB1PeriphClockCmd>
    393c:	85a2                	mv	a1,s0
    393e:	6505                	lui	a0,0x1
    3940:	460030ef          	jal	ra,6da0 <RCC_APB2PeriphClockCmd>
    3944:	85a2                	mv	a1,s0
    3946:	6511                	lui	a0,0x4
    3948:	458030ef          	jal	ra,6da0 <RCC_APB2PeriphClockCmd>
    394c:	400204b7          	lui	s1,0x40020
    3950:	85a2                	mv	a1,s0
    3952:	04448513          	addi	a0,s1,68 # 40020044 <_eusrstack+0x2001b044>
    3956:	30b020ef          	jal	ra,6460 <DMA_Cmd>
    395a:	85a2                	mv	a1,s0
    395c:	05848513          	addi	a0,s1,88
    3960:	301020ef          	jal	ra,6460 <DMA_Cmd>
    3964:	85a2                	mv	a1,s0
    3966:	00848513          	addi	a0,s1,8
    396a:	2f7020ef          	jal	ra,6460 <DMA_Cmd>
    396e:	85a2                	mv	a1,s0
    3970:	40000537          	lui	a0,0x40000
    3974:	790030ef          	jal	ra,7104 <TIM_Cmd>
    3978:	40000537          	lui	a0,0x40000
    397c:	85a2                	mv	a1,s0
    397e:	40050513          	addi	a0,a0,1024 # 40000400 <_eusrstack+0x1fffb400>
    3982:	782030ef          	jal	ra,7104 <TIM_Cmd>
    3986:	400144b7          	lui	s1,0x40014
    398a:	85a2                	mv	a1,s0
    398c:	80048513          	addi	a0,s1,-2048 # 40013800 <_eusrstack+0x2000e800>
    3990:	127030ef          	jal	ra,72b6 <USART_Cmd>
    3994:	8622                	mv	a2,s0
    3996:	04000593          	li	a1,64
    399a:	80048513          	addi	a0,s1,-2048
    399e:	131030ef          	jal	ra,72ce <USART_DMACmd>
    39a2:	ff2fc06f          	j	194 <__riscv_restore_0>

000039a6 <init_all>:
    39a6:	fcafc2ef          	jal	t0,170 <__riscv_save_0>
    39aa:	40021737          	lui	a4,0x40021
    39ae:	431c                	lw	a5,0(a4)
    39b0:	000806b7          	lui	a3,0x80
    39b4:	1101                	addi	sp,sp,-32
    39b6:	8fd5                	or	a5,a5,a3
    39b8:	c31c                	sw	a5,0(a4)
    39ba:	4505                	li	a0,1
    39bc:	302030ef          	jal	ra,6cbe <RCC_LSICmd>
    39c0:	6571                	lui	a0,0x1c
    39c2:	20050513          	addi	a0,a0,512 # 1c200 <_data_lma+0x1061c>
    39c6:	139030ef          	jal	ra,72fe <USART_printf_Init>
    39ca:	20003537          	lui	a0,0x20003
    39ce:	02500613          	li	a2,37
    39d2:	4581                	li	a1,0
    39d4:	79450513          	addi	a0,a0,1940 # 20003794 <connection_state>
    39d8:	fdefc0ef          	jal	ra,1b6 <memset>
    39dc:	652d                	lui	a0,0xb
    39de:	72c50513          	addi	a0,a0,1836 # b72c <_read+0x92>
    39e2:	2c3060ef          	jal	ra,a4a4 <puts>
    39e6:	4585                	li	a1,1
    39e8:	4571                	li	a0,28
    39ea:	3b6030ef          	jal	ra,6da0 <RCC_APB2PeriphClockCmd>
    39ee:	4585                	li	a1,1
    39f0:	20000513          	li	a0,512
    39f4:	3ac030ef          	jal	ra,6da0 <RCC_APB2PeriphClockCmd>
    39f8:	4585                	li	a1,1
    39fa:	4505                	li	a0,1
    39fc:	386030ef          	jal	ra,6d82 <RCC_AHBPeriphClockCmd>
    3a00:	4585                	li	a1,1
    3a02:	4505                	li	a0,1
    3a04:	3ba030ef          	jal	ra,6dbe <RCC_APB1PeriphClockCmd>
    3a08:	4585                	li	a1,1
    3a0a:	4509                	li	a0,2
    3a0c:	3b2030ef          	jal	ra,6dbe <RCC_APB1PeriphClockCmd>
    3a10:	4585                	li	a1,1
    3a12:	6505                	lui	a0,0x1
    3a14:	38c030ef          	jal	ra,6da0 <RCC_APB2PeriphClockCmd>
    3a18:	4585                	li	a1,1
    3a1a:	6511                	lui	a0,0x4
    3a1c:	384030ef          	jal	ra,6da0 <RCC_APB2PeriphClockCmd>
    3a20:	7c2010ef          	jal	ra,51e2 <HighPrecisionTimer_Init>
    3a24:	78e010ef          	jal	ra,51b2 <SysTick_Init>
    3a28:	4529                	li	a0,10
    3a2a:	02b010ef          	jal	ra,5254 <Delay_Ms>
    3a2e:	c42fd0ef          	jal	ra,e70 <conf_init>
    3a32:	0068                	addi	a0,sp,12
    3a34:	29e030ef          	jal	ra,6cd2 <RCC_GetClocksFreq>
    3a38:	90dfd0ef          	jal	ra,1344 <gpio_init>
    3a3c:	131010ef          	jal	ra,536c <UART1_Init>
    3a40:	07f010ef          	jal	ra,52be <UART1_DMA_Init>
    3a44:	fdafd0ef          	jal	ra,121e <adc_init>
    3a48:	683010ef          	jal	ra,58ca <wake_esp32>
    3a4c:	0aa010ef          	jal	ra,4af6 <top_init>
    3a50:	51e010ef          	jal	ra,4f6e <spi_init>
    3a54:	ec1fe0ef          	jal	ra,2914 <i2c_init>
    3a58:	81cff0ef          	jal	ra,2a74 <imu_init>
    3a5c:	f5ffe0ef          	jal	ra,29ba <set_imu_awake>
    3a60:	833fc0ef          	jal	ra,292 <USBFS_RCC_Init>
    3a64:	1e2030ef          	jal	ra,6c46 <PWR_VDD_SupplyVoltage>
    3a68:	85aa                	mv	a1,a0
    3a6a:	4505                	li	a0,1
    3a6c:	8b5fc0ef          	jal	ra,320 <USBFS_Device_Init>
    3a70:	6105                	addi	sp,sp,32
    3a72:	f22fc06f          	j	194 <__riscv_restore_0>

00003a76 <main>:
    3a76:	ee0fc2ef          	jal	t0,156 <__riscv_save_4>
    3a7a:	4505                	li	a0,1
    3a7c:	0b8030ef          	jal	ra,6b34 <NVIC_PriorityGroupConfig>
    3a80:	62a010ef          	jal	ra,50aa <SystemCoreClockUpdate>
    3a84:	f23ff0ef          	jal	ra,39a6 <init_all>
    3a88:	8141a583          	lw	a1,-2028(gp) # 200018bc <SystemCoreClock>
    3a8c:	652d                	lui	a0,0xb
    3a8e:	74050513          	addi	a0,a0,1856 # b740 <_read+0xa6>
    3a92:	0cb060ef          	jal	ra,a35c <iprintf>
    3a96:	4531                	li	a0,12
    3a98:	9e5fd0ef          	jal	ra,147c <gpio_read>
    3a9c:	9aa18a23          	sb	a0,-1612(gp) # 20001a5c <is_rumble_start>
    3aa0:	3d9000ef          	jal	ra,4678 <ns_mux_init>
    3aa4:	650d                	lui	a0,0x3
    3aa6:	37650513          	addi	a0,a0,886 # 3376 <get_peripheral_data_handler>
    3aaa:	284020ef          	jal	ra,5d2e <ns_set_peripheral_data_getter>
    3aae:	330020ef          	jal	ra,5dde <hid_init>
    3ab2:	9b41c503          	lbu	a0,-1612(gp) # 20001a5c <is_rumble_start>
    3ab6:	200034b7          	lui	s1,0x20003
    3aba:	20004437          	lui	s0,0x20004
    3abe:	00153513          	seqz	a0,a0
    3ac2:	a0ffd0ef          	jal	ra,14d0 <hd_rumble_init>
    3ac6:	030010ef          	jal	ra,4af6 <top_init>
    3aca:	27040413          	addi	s0,s0,624 # 20004270 <global_input_data>
    3ace:	79448493          	addi	s1,s1,1940 # 20003794 <connection_state>
    3ad2:	4b05                	li	s6,1
    3ad4:	347010ef          	jal	ra,561a <UART1_Rx_Service>
    3ad8:	b01ff0ef          	jal	ra,35d8 <joystick_debounce_task>
    3adc:	87dff0ef          	jal	ra,3358 <button_upd_all>
    3ae0:	8c41a783          	lw	a5,-1852(gp) # 2000196c <sts_button>
    3ae4:	0087d713          	srli	a4,a5,0x8
    3ae8:	00f40023          	sb	a5,0(s0)
    3aec:	83c1                	srli	a5,a5,0x10
    3aee:	00f40123          	sb	a5,2(s0)
    3af2:	9a01a783          	lw	a5,-1632(gp) # 20001a48 <sts_ljoy>
    3af6:	00e400a3          	sb	a4,1(s0)
    3afa:	00f401a3          	sb	a5,3(s0)
    3afe:	0087d713          	srli	a4,a5,0x8
    3b02:	83c1                	srli	a5,a5,0x10
    3b04:	00f402a3          	sb	a5,5(s0)
    3b08:	99c1a783          	lw	a5,-1636(gp) # 20001a44 <sts_rjoy>
    3b0c:	00e40223          	sb	a4,4(s0)
    3b10:	00f40323          	sb	a5,6(s0)
    3b14:	0087d713          	srli	a4,a5,0x8
    3b18:	83c1                	srli	a5,a5,0x10
    3b1a:	00f40423          	sb	a5,8(s0)
    3b1e:	00e403a3          	sb	a4,7(s0)
    3b22:	da1ff0ef          	jal	ra,38c2 <routine_service>
    3b26:	89a1c783          	lbu	a5,-1894(gp) # 20001942 <USBFS_DevEnumStatus>
    3b2a:	cf91                	beqz	a5,3b46 <main+0xd0>
    3b2c:	01648223          	sb	s6,4(s1)
    3b30:	3c8020ef          	jal	ra,5ef8 <hid_rx_service>
    3b34:	2b8020ef          	jal	ra,5dec <hid_tx_service>
    3b38:	194020ef          	jal	ra,5ccc <uart_com_task>
    3b3c:	147010ef          	jal	ra,5482 <UART1_Tx_Service>
    3b40:	40e020ef          	jal	ra,5f4e <soft_watchdog_feed>
    3b44:	bf41                	j	3ad4 <main+0x5e>
    3b46:	000482a3          	sb	zero,5(s1)
    3b4a:	00048223          	sb	zero,4(s1)
    3b4e:	b7ed                	j	3b38 <main+0xc2>

00003b50 <ns_subcommand_set_hci_state>:
    3b50:	8082                	ret

00003b52 <ns_subcommand_set_imu_register>:
    3b52:	00d54583          	lbu	a1,13(a0)
    3b56:	00b54503          	lbu	a0,11(a0)
    3b5a:	0ff00613          	li	a2,255
    3b5e:	dc7fe06f          	j	2924 <imu_set_reg>

00003b62 <ns_subcommand_reset_mcu>:
    3b62:	8082                	ret

00003b64 <ns_subcommand_set_home_led>:
    3b64:	8082                	ret

00003b66 <ns_subcommand_reset_pairing_info>:
    3b66:	8082                	ret

00003b68 <pkt_clr>:
    3b68:	200037b7          	lui	a5,0x20003
    3b6c:	2c878793          	addi	a5,a5,712 # 200032c8 <pkt>
    3b70:	0207a823          	sw	zero,48(a5)
    3b74:	02079623          	sh	zero,44(a5)
    3b78:	0207a423          	sw	zero,40(a5)
    3b7c:	8082                	ret

00003b7e <ns_subcommand_set_mcu_conf>:
    3b7e:	df2fc2ef          	jal	t0,170 <__riscv_save_0>
    3b82:	20003437          	lui	s0,0x20003
    3b86:	84aa                	mv	s1,a0
    3b88:	fe1ff0ef          	jal	ra,3b68 <pkt_clr>
    3b8c:	2c840913          	addi	s2,s0,712 # 200032c8 <pkt>
    3b90:	6789                	lui	a5,0x2
    3b92:	1a078793          	addi	a5,a5,416 # 21a0 <TIM3_IRQHandler+0xf2>
    3b96:	02200613          	li	a2,34
    3b9a:	00b48593          	addi	a1,s1,11
    3b9e:	00290513          	addi	a0,s2,2
    3ba2:	2cf41423          	sh	a5,712(s0)
    3ba6:	dfafc0ef          	jal	ra,1a0 <memcpy>
    3baa:	02400793          	li	a5,36
    3bae:	2c840513          	addi	a0,s0,712
    3bb2:	02f91623          	sh	a5,44(s2)
    3bb6:	2c7000ef          	jal	ra,467c <ns_send_report>
    3bba:	ddafc06f          	j	194 <__riscv_restore_0>

00003bbe <ns_subcommand_default>:
    3bbe:	db2fc2ef          	jal	t0,170 <__riscv_save_0>
    3bc2:	842a                	mv	s0,a0
    3bc4:	fa5ff0ef          	jal	ra,3b68 <pkt_clr>
    3bc8:	00a44703          	lbu	a4,10(s0)
    3bcc:	20003537          	lui	a0,0x20003
    3bd0:	2c850793          	addi	a5,a0,712 # 200032c8 <pkt>
    3bd4:	f8000693          	li	a3,-128
    3bd8:	00e780a3          	sb	a4,1(a5)
    3bdc:	2c850513          	addi	a0,a0,712
    3be0:	470d                	li	a4,3
    3be2:	00d78023          	sb	a3,0(a5)
    3be6:	00e78123          	sb	a4,2(a5)
    3bea:	02e79623          	sh	a4,44(a5)
    3bee:	28f000ef          	jal	ra,467c <ns_send_report>
    3bf2:	da2fc06f          	j	194 <__riscv_restore_0>

00003bf6 <ns_subcommand_pair_by_wire>:
    3bf6:	d60fc2ef          	jal	t0,156 <__riscv_save_4>
    3bfa:	84aa                	mv	s1,a0
    3bfc:	f6dff0ef          	jal	ra,3b68 <pkt_clr>
    3c00:	00a4c703          	lbu	a4,10(s1)
    3c04:	00b4c983          	lbu	s3,11(s1)
    3c08:	20003a37          	lui	s4,0x20003
    3c0c:	2c8a0793          	addi	a5,s4,712 # 200032c8 <pkt>
    3c10:	f8100693          	li	a3,-127
    3c14:	00d78023          	sb	a3,0(a5)
    3c18:	00e780a3          	sb	a4,1(a5)
    3c1c:	01378123          	sb	s3,2(a5)
    3c20:	4785                	li	a5,1
    3c22:	2c8a0913          	addi	s2,s4,712
    3c26:	00f98e63          	beq	s3,a5,3c42 <ns_subcommand_pair_by_wire+0x4c>
    3c2a:	4789                	li	a5,2
    3c2c:	04f98a63          	beq	s3,a5,3c80 <ns_subcommand_pair_by_wire+0x8a>
    3c30:	478d                	li	a5,3
    3c32:	2c8a0513          	addi	a0,s4,712
    3c36:	02f91623          	sh	a5,44(s2)
    3c3a:	243000ef          	jal	ra,467c <ns_send_report>
    3c3e:	d4cfc06f          	j	18a <__riscv_restore_4>
    3c42:	20003437          	lui	s0,0x20003
    3c46:	79440413          	addi	s0,s0,1940 # 20003794 <connection_state>
    3c4a:	4619                	li	a2,6
    3c4c:	00c48593          	addi	a1,s1,12
    3c50:	00c40513          	addi	a0,s0,12
    3c54:	d4cfc0ef          	jal	ra,1a0 <memcpy>
    3c58:	4619                	li	a2,6
    3c5a:	00640593          	addi	a1,s0,6
    3c5e:	00390513          	addi	a0,s2,3
    3c62:	013409a3          	sb	s3,19(s0)
    3c66:	d3afc0ef          	jal	ra,1a0 <memcpy>
    3c6a:	65ad                	lui	a1,0xb
    3c6c:	4661                	li	a2,24
    3c6e:	6a858593          	addi	a1,a1,1704 # b6a8 <_read+0xe>
    3c72:	00990513          	addi	a0,s2,9
    3c76:	d2afc0ef          	jal	ra,1a0 <memcpy>
    3c7a:	02100793          	li	a5,33
    3c7e:	bf55                	j	3c32 <ns_subcommand_pair_by_wire+0x3c>
    3c80:	200035b7          	lui	a1,0x20003
    3c84:	4641                	li	a2,16
    3c86:	7a858593          	addi	a1,a1,1960 # 200037a8 <connection_state+0x14>
    3c8a:	00390513          	addi	a0,s2,3
    3c8e:	d12fc0ef          	jal	ra,1a0 <memcpy>
    3c92:	47cd                	li	a5,19
    3c94:	bf79                	j	3c32 <ns_subcommand_pair_by_wire+0x3c>

00003c96 <ns_subcommand_get_device_info>:
    3c96:	cdafc2ef          	jal	t0,170 <__riscv_save_0>
    3c9a:	842a                	mv	s0,a0
    3c9c:	ecdff0ef          	jal	ra,3b68 <pkt_clr>
    3ca0:	200037b7          	lui	a5,0x20003
    3ca4:	9487c783          	lbu	a5,-1720(a5) # 20002948 <user_config+0x1c>
    3ca8:	cfad                	beqz	a5,3d22 <ns_subcommand_get_device_info+0x8c>
    3caa:	4705                	li	a4,1
    3cac:	06e78f63          	beq	a5,a4,3d2a <ns_subcommand_get_device_info+0x94>
    3cb0:	470d                	li	a4,3
    3cb2:	04900793          	li	a5,73
    3cb6:	200015b7          	lui	a1,0x20001
    3cba:	7ec58693          	addi	a3,a1,2028 # 200017ec <default_device_info>
    3cbe:	00e68023          	sb	a4,0(a3) # 80000 <_data_lma+0x7441c>
    3cc2:	00a44703          	lbu	a4,10(s0)
    3cc6:	20003437          	lui	s0,0x20003
    3cca:	00f680a3          	sb	a5,1(a3)
    3cce:	2c840793          	addi	a5,s0,712 # 200032c8 <pkt>
    3cd2:	f8200693          	li	a3,-126
    3cd6:	00d78023          	sb	a3,0(a5)
    3cda:	00e780a3          	sb	a4,1(a5)
    3cde:	200037b7          	lui	a5,0x20003
    3ce2:	79478793          	addi	a5,a5,1940 # 20003794 <connection_state>
    3ce6:	7ec58713          	addi	a4,a1,2028
    3cea:	ffa78693          	addi	a3,a5,-6
    3cee:	2c840493          	addi	s1,s0,712
    3cf2:	00b7c603          	lbu	a2,11(a5)
    3cf6:	17fd                	addi	a5,a5,-1
    3cf8:	0705                	addi	a4,a4,1 # 40021001 <_eusrstack+0x2001c001>
    3cfa:	00c701a3          	sb	a2,3(a4)
    3cfe:	fed79ae3          	bne	a5,a3,3cf2 <ns_subcommand_get_device_info+0x5c>
    3d02:	4631                	li	a2,12
    3d04:	7ec58593          	addi	a1,a1,2028
    3d08:	00248513          	addi	a0,s1,2
    3d0c:	c94fc0ef          	jal	ra,1a0 <memcpy>
    3d10:	47b9                	li	a5,14
    3d12:	2c840513          	addi	a0,s0,712
    3d16:	02f49623          	sh	a5,44(s1)
    3d1a:	163000ef          	jal	ra,467c <ns_send_report>
    3d1e:	c76fc06f          	j	194 <__riscv_restore_0>
    3d22:	470d                	li	a4,3
    3d24:	04800793          	li	a5,72
    3d28:	b779                	j	3cb6 <ns_subcommand_get_device_info+0x20>
    3d2a:	4711                	li	a4,4
    3d2c:	03300793          	li	a5,51
    3d30:	b759                	j	3cb6 <ns_subcommand_get_device_info+0x20>

00003d32 <ns_subcommand_set_input_mode>:
    3d32:	c3efc2ef          	jal	t0,170 <__riscv_save_0>
    3d36:	842a                	mv	s0,a0
    3d38:	e31ff0ef          	jal	ra,3b68 <pkt_clr>
    3d3c:	00b44703          	lbu	a4,11(s0)
    3d40:	468d                	li	a3,3
    3d42:	fd070793          	addi	a5,a4,-48
    3d46:	0ff7f793          	zext.b	a5,a5
    3d4a:	00f6e663          	bltu	a3,a5,3d56 <ns_subcommand_set_input_mode+0x24>
    3d4e:	200027b7          	lui	a5,0x20002
    3d52:	8ae78823          	sb	a4,-1872(a5) # 200018b0 <input_mode>
    3d56:	00a44703          	lbu	a4,10(s0)
    3d5a:	20003537          	lui	a0,0x20003
    3d5e:	2c850793          	addi	a5,a0,712 # 200032c8 <pkt>
    3d62:	f8000693          	li	a3,-128
    3d66:	00e780a3          	sb	a4,1(a5)
    3d6a:	2c850513          	addi	a0,a0,712
    3d6e:	4709                	li	a4,2
    3d70:	00d78023          	sb	a3,0(a5)
    3d74:	02e79623          	sh	a4,44(a5)
    3d78:	105000ef          	jal	ra,467c <ns_send_report>
    3d7c:	c18fc06f          	j	194 <__riscv_restore_0>

00003d80 <ns_subcommand_trigger_buttons_elapsed_time>:
    3d80:	bf0fc2ef          	jal	t0,170 <__riscv_save_0>
    3d84:	842a                	mv	s0,a0
    3d86:	de3ff0ef          	jal	ra,3b68 <pkt_clr>
    3d8a:	00a44783          	lbu	a5,10(s0)
    3d8e:	200034b7          	lui	s1,0x20003
    3d92:	2c848413          	addi	s0,s1,712 # 200032c8 <pkt>
    3d96:	200015b7          	lui	a1,0x20001
    3d9a:	f8300713          	li	a4,-125
    3d9e:	4639                	li	a2,14
    3da0:	7dc58593          	addi	a1,a1,2012 # 200017dc <default_et>
    3da4:	00240513          	addi	a0,s0,2
    3da8:	00e40023          	sb	a4,0(s0)
    3dac:	00f400a3          	sb	a5,1(s0)
    3db0:	bf0fc0ef          	jal	ra,1a0 <memcpy>
    3db4:	47c1                	li	a5,16
    3db6:	2c848513          	addi	a0,s1,712
    3dba:	02f41623          	sh	a5,44(s0)
    3dbe:	0bf000ef          	jal	ra,467c <ns_send_report>
    3dc2:	bd2fc06f          	j	194 <__riscv_restore_0>

00003dc6 <ns_subcommand_get_page_list_state>:
    3dc6:	baafc2ef          	jal	t0,170 <__riscv_save_0>
    3dca:	842a                	mv	s0,a0
    3dcc:	d9dff0ef          	jal	ra,3b68 <pkt_clr>
    3dd0:	00a44703          	lbu	a4,10(s0)
    3dd4:	20003537          	lui	a0,0x20003
    3dd8:	2c850793          	addi	a5,a0,712 # 200032c8 <pkt>
    3ddc:	00e780a3          	sb	a4,1(a5)
    3de0:	4705                	li	a4,1
    3de2:	f8000693          	li	a3,-128
    3de6:	00e78123          	sb	a4,2(a5)
    3dea:	2c850513          	addi	a0,a0,712
    3dee:	470d                	li	a4,3
    3df0:	00d78023          	sb	a3,0(a5)
    3df4:	02e79623          	sh	a4,44(a5)
    3df8:	085000ef          	jal	ra,467c <ns_send_report>
    3dfc:	b98fc06f          	j	194 <__riscv_restore_0>

00003e00 <ns_subcommand_set_shipping_mode>:
    3e00:	b70fc2ef          	jal	t0,170 <__riscv_save_0>
    3e04:	842a                	mv	s0,a0
    3e06:	d63ff0ef          	jal	ra,3b68 <pkt_clr>
    3e0a:	00a44703          	lbu	a4,10(s0)
    3e0e:	20003537          	lui	a0,0x20003
    3e12:	2c850793          	addi	a5,a0,712 # 200032c8 <pkt>
    3e16:	f8000693          	li	a3,-128
    3e1a:	00e780a3          	sb	a4,1(a5)
    3e1e:	2c850513          	addi	a0,a0,712
    3e22:	470d                	li	a4,3
    3e24:	00d78023          	sb	a3,0(a5)
    3e28:	00078123          	sb	zero,2(a5)
    3e2c:	02e79623          	sh	a4,44(a5)
    3e30:	04d000ef          	jal	ra,467c <ns_send_report>
    3e34:	b60fc06f          	j	194 <__riscv_restore_0>

00003e38 <ns_subcommand_spi_erase>:
    3e38:	fc9ff06f          	j	3e00 <ns_subcommand_set_shipping_mode>

00003e3c <ns_subcommand_enable_mcu_polling>:
    3e3c:	fc5ff06f          	j	3e00 <ns_subcommand_set_shipping_mode>

00003e40 <ns_subcommand_disable_mcu_polling>:
    3e40:	fc1ff06f          	j	3e00 <ns_subcommand_set_shipping_mode>

00003e44 <ns_subcommand_spi_read>:
    3e44:	b12fc2ef          	jal	t0,156 <__riscv_save_4>
    3e48:	1141                	addi	sp,sp,-16
    3e4a:	84aa                	mv	s1,a0
    3e4c:	d1dff0ef          	jal	ra,3b68 <pkt_clr>
    3e50:	00b48593          	addi	a1,s1,11
    3e54:	852e                	mv	a0,a1
    3e56:	c62e                	sw	a1,12(sp)
    3e58:	a94fd0ef          	jal	ra,10ec <fetch_uint32>
    3e5c:	00f4c783          	lbu	a5,15(s1)
    3e60:	4775                	li	a4,29
    3e62:	45b2                	lw	a1,12(sp)
    3e64:	892a                	mv	s2,a0
    3e66:	4475                	li	s0,29
    3e68:	00f76463          	bltu	a4,a5,3e70 <ns_subcommand_spi_read+0x2c>
    3e6c:	0ff7f413          	zext.b	s0,a5
    3e70:	00a4c783          	lbu	a5,10(s1)
    3e74:	200039b7          	lui	s3,0x20003
    3e78:	20003537          	lui	a0,0x20003
    3e7c:	f9000713          	li	a4,-112
    3e80:	2c898493          	addi	s1,s3,712 # 200032c8 <pkt>
    3e84:	4615                	li	a2,5
    3e86:	2ca50513          	addi	a0,a0,714 # 200032ca <pkt+0x2>
    3e8a:	00e48023          	sb	a4,0(s1)
    3e8e:	00f480a3          	sb	a5,1(s1)
    3e92:	b0efc0ef          	jal	ra,1a0 <memcpy>
    3e96:	200035b7          	lui	a1,0x20003
    3e9a:	8622                	mv	a2,s0
    3e9c:	2cf58593          	addi	a1,a1,719 # 200032cf <pkt+0x7>
    3ea0:	854a                	mv	a0,s2
    3ea2:	ba5fc0ef          	jal	ra,a46 <conf_read>
    3ea6:	041d                	addi	s0,s0,7
    3ea8:	0ff47413          	zext.b	s0,s0
    3eac:	2c898513          	addi	a0,s3,712
    3eb0:	02849623          	sh	s0,44(s1)
    3eb4:	7c8000ef          	jal	ra,467c <ns_send_report>
    3eb8:	0141                	addi	sp,sp,16
    3eba:	ad0fc06f          	j	18a <__riscv_restore_4>

00003ebe <ns_subcommand_spi_write>:
    3ebe:	ab2fc2ef          	jal	t0,170 <__riscv_save_0>
    3ec2:	1141                	addi	sp,sp,-16
    3ec4:	842a                	mv	s0,a0
    3ec6:	ca3ff0ef          	jal	ra,3b68 <pkt_clr>
    3eca:	00b40513          	addi	a0,s0,11
    3ece:	a1efd0ef          	jal	ra,10ec <fetch_uint32>
    3ed2:	00f44603          	lbu	a2,15(s0)
    3ed6:	01040593          	addi	a1,s0,16
    3eda:	84aa                	mv	s1,a0
    3edc:	c632                	sw	a2,12(sp)
    3ede:	c42e                	sw	a1,8(sp)
    3ee0:	c5bfc0ef          	jal	ra,b3a <conf_write>
    3ee4:	4632                	lw	a2,12(sp)
    3ee6:	45a2                	lw	a1,8(sp)
    3ee8:	8526                	mv	a0,s1
    3eea:	0c9010ef          	jal	ra,57b2 <uart_conf_write>
    3eee:	00a44703          	lbu	a4,10(s0)
    3ef2:	20003537          	lui	a0,0x20003
    3ef6:	2c850793          	addi	a5,a0,712 # 200032c8 <pkt>
    3efa:	f8000693          	li	a3,-128
    3efe:	00e780a3          	sb	a4,1(a5)
    3f02:	2c850513          	addi	a0,a0,712
    3f06:	470d                	li	a4,3
    3f08:	00d78023          	sb	a3,0(a5)
    3f0c:	00078123          	sb	zero,2(a5)
    3f10:	02e79623          	sh	a4,44(a5)
    3f14:	768000ef          	jal	ra,467c <ns_send_report>
    3f18:	0141                	addi	sp,sp,16
    3f1a:	a7afc06f          	j	194 <__riscv_restore_0>

00003f1e <ns_subcommand_set_mcu_state>:
    3f1e:	a52fc2ef          	jal	t0,170 <__riscv_save_0>
    3f22:	842a                	mv	s0,a0
    3f24:	c45ff0ef          	jal	ra,3b68 <pkt_clr>
    3f28:	00a44703          	lbu	a4,10(s0)
    3f2c:	20003537          	lui	a0,0x20003
    3f30:	2c850793          	addi	a5,a0,712 # 200032c8 <pkt>
    3f34:	f8000693          	li	a3,-128
    3f38:	00e780a3          	sb	a4,1(a5)
    3f3c:	2c850513          	addi	a0,a0,712
    3f40:	4709                	li	a4,2
    3f42:	00d78023          	sb	a3,0(a5)
    3f46:	02e79623          	sh	a4,44(a5)
    3f4a:	732000ef          	jal	ra,467c <ns_send_report>
    3f4e:	a46fc06f          	j	194 <__riscv_restore_0>

00003f52 <ns_subcommand_attachmend_write>:
    3f52:	fcdff06f          	j	3f1e <ns_subcommand_set_mcu_state>

00003f56 <ns_subcommand_write_charge_setting>:
    3f56:	fc9ff06f          	j	3f1e <ns_subcommand_set_mcu_state>

00003f5a <ns_subcommand_attachmend_read>:
    3f5a:	a16fc2ef          	jal	t0,170 <__riscv_save_0>
    3f5e:	842a                	mv	s0,a0
    3f60:	c09ff0ef          	jal	ra,3b68 <pkt_clr>
    3f64:	00a44703          	lbu	a4,10(s0)
    3f68:	20003537          	lui	a0,0x20003
    3f6c:	2c850793          	addi	a5,a0,712 # 200032c8 <pkt>
    3f70:	f8000693          	li	a3,-128
    3f74:	00e780a3          	sb	a4,1(a5)
    3f78:	2c850513          	addi	a0,a0,712
    3f7c:	02400713          	li	a4,36
    3f80:	00d78023          	sb	a3,0(a5)
    3f84:	02e79623          	sh	a4,44(a5)
    3f88:	6f4000ef          	jal	ra,467c <ns_send_report>
    3f8c:	a08fc06f          	j	194 <__riscv_restore_0>

00003f90 <ns_subcommand_attachment_state>:
    3f90:	9e0fc2ef          	jal	t0,170 <__riscv_save_0>
    3f94:	842a                	mv	s0,a0
    3f96:	bd3ff0ef          	jal	ra,3b68 <pkt_clr>
    3f9a:	00a44703          	lbu	a4,10(s0)
    3f9e:	20003537          	lui	a0,0x20003
    3fa2:	2c850793          	addi	a5,a0,712 # 200032c8 <pkt>
    3fa6:	00e780a3          	sb	a4,1(a5)
    3faa:	2c850513          	addi	a0,a0,712
    3fae:	4709                	li	a4,2
    3fb0:	00078023          	sb	zero,0(a5)
    3fb4:	02e79623          	sh	a4,44(a5)
    3fb8:	6c4000ef          	jal	ra,467c <ns_send_report>
    3fbc:	9d8fc06f          	j	194 <__riscv_restore_0>

00003fc0 <ns_subcommand_get_attachment_info>:
    3fc0:	9b0fc2ef          	jal	t0,170 <__riscv_save_0>
    3fc4:	842a                	mv	s0,a0
    3fc6:	ba3ff0ef          	jal	ra,3b68 <pkt_clr>
    3fca:	00a44703          	lbu	a4,10(s0)
    3fce:	20003537          	lui	a0,0x20003
    3fd2:	2c850793          	addi	a5,a0,712 # 200032c8 <pkt>
    3fd6:	f8000693          	li	a3,-128
    3fda:	00e780a3          	sb	a4,1(a5)
    3fde:	2c850513          	addi	a0,a0,712
    3fe2:	4759                	li	a4,22
    3fe4:	00d78023          	sb	a3,0(a5)
    3fe8:	02e79623          	sh	a4,44(a5)
    3fec:	690000ef          	jal	ra,467c <ns_send_report>
    3ff0:	9a4fc06f          	j	194 <__riscv_restore_0>

00003ff4 <ns_subcommand_set_indicate_led>:
    3ff4:	97cfc2ef          	jal	t0,170 <__riscv_save_0>
    3ff8:	842a                	mv	s0,a0
    3ffa:	b6fff0ef          	jal	ra,3b68 <pkt_clr>
    3ffe:	00b44703          	lbu	a4,11(s0)
    4002:	20003537          	lui	a0,0x20003
    4006:	9ae186a3          	sb	a4,-1619(gp) # 20001a55 <indicate_led_status>
    400a:	00a44703          	lbu	a4,10(s0)
    400e:	2c850793          	addi	a5,a0,712 # 200032c8 <pkt>
    4012:	f8000693          	li	a3,-128
    4016:	00e780a3          	sb	a4,1(a5)
    401a:	2c850513          	addi	a0,a0,712
    401e:	4709                	li	a4,2
    4020:	00d78023          	sb	a3,0(a5)
    4024:	02e79623          	sh	a4,44(a5)
    4028:	654000ef          	jal	ra,467c <ns_send_report>
    402c:	200037b7          	lui	a5,0x20003
    4030:	4705                	li	a4,1
    4032:	78e78ca3          	sb	a4,1945(a5) # 20003799 <connection_state+0x5>
    4036:	95efc06f          	j	194 <__riscv_restore_0>

0000403a <ns_subcommand_get_indicate_led>:
    403a:	936fc2ef          	jal	t0,170 <__riscv_save_0>
    403e:	842a                	mv	s0,a0
    4040:	b29ff0ef          	jal	ra,3b68 <pkt_clr>
    4044:	00a44703          	lbu	a4,10(s0)
    4048:	20003537          	lui	a0,0x20003
    404c:	2c850793          	addi	a5,a0,712 # 200032c8 <pkt>
    4050:	00e780a3          	sb	a4,1(a5)
    4054:	9ad1c703          	lbu	a4,-1619(gp) # 20001a55 <indicate_led_status>
    4058:	fb000693          	li	a3,-80
    405c:	2c850513          	addi	a0,a0,712
    4060:	00e78123          	sb	a4,2(a5)
    4064:	470d                	li	a4,3
    4066:	00d78023          	sb	a3,0(a5)
    406a:	02e79623          	sh	a4,44(a5)
    406e:	60e000ef          	jal	ra,467c <ns_send_report>
    4072:	922fc06f          	j	194 <__riscv_restore_0>

00004076 <ns_subcommand_set_imu_state>:
    4076:	8fafc2ef          	jal	t0,170 <__riscv_save_0>
    407a:	842a                	mv	s0,a0
    407c:	aedff0ef          	jal	ra,3b68 <pkt_clr>
    4080:	00b44783          	lbu	a5,11(s0)
    4084:	20003537          	lui	a0,0x20003
    4088:	9af18423          	sb	a5,-1624(gp) # 20001a50 <imu_conf>
    408c:	96f18e23          	sb	a5,-1668(gp) # 20001a24 <imu_mode>
    4090:	00a44703          	lbu	a4,10(s0)
    4094:	2c850793          	addi	a5,a0,712 # 200032c8 <pkt>
    4098:	f8000693          	li	a3,-128
    409c:	00e780a3          	sb	a4,1(a5)
    40a0:	2c850513          	addi	a0,a0,712
    40a4:	4709                	li	a4,2
    40a6:	00d78023          	sb	a3,0(a5)
    40aa:	02e79623          	sh	a4,44(a5)
    40ae:	23f9                	jal	467c <ns_send_report>
    40b0:	8e4fc06f          	j	194 <__riscv_restore_0>

000040b4 <ns_subcommand_set_imu_conf>:
    40b4:	8bcfc2ef          	jal	t0,170 <__riscv_save_0>
    40b8:	84aa                	mv	s1,a0
    40ba:	aafff0ef          	jal	ra,3b68 <pkt_clr>
    40be:	00b4c703          	lbu	a4,11(s1)
    40c2:	9a818513          	addi	a0,gp,-1624 # 20001a50 <imu_conf>
    40c6:	96e18e23          	sb	a4,-1668(gp) # 20001a24 <imu_mode>
    40ca:	00054783          	lbu	a5,0(a0)
    40ce:	20003937          	lui	s2,0x20003
    40d2:	2c890413          	addi	s0,s2,712 # 200032c8 <pkt>
    40d6:	eb85                	bnez	a5,4106 <ns_subcommand_set_imu_conf+0x52>
    40d8:	00a4c783          	lbu	a5,10(s1)
    40dc:	4705                	li	a4,1
    40de:	00e50023          	sb	a4,0(a0)
    40e2:	00f400a3          	sb	a5,1(s0)
    40e6:	f8000713          	li	a4,-128
    40ea:	14000793          	li	a5,320
    40ee:	00f41123          	sh	a5,2(s0)
    40f2:	00e40023          	sb	a4,0(s0)
    40f6:	478d                	li	a5,3
    40f8:	2c890513          	addi	a0,s2,712
    40fc:	02f41623          	sh	a5,44(s0)
    4100:	2bb5                	jal	467c <ns_send_report>
    4102:	892fc06f          	j	194 <__riscv_restore_0>
    4106:	4611                	li	a2,4
    4108:	00b48593          	addi	a1,s1,11
    410c:	0505                	addi	a0,a0,1
    410e:	892fc0ef          	jal	ra,1a0 <memcpy>
    4112:	00a4c783          	lbu	a5,10(s1)
    4116:	f8000713          	li	a4,-128
    411a:	00e40023          	sb	a4,0(s0)
    411e:	00f400a3          	sb	a5,1(s0)
    4122:	4789                	li	a5,2
    4124:	bfd1                	j	40f8 <ns_subcommand_set_imu_conf+0x44>

00004126 <ns_subcommand_read_imu_register>:
    4126:	84afc2ef          	jal	t0,170 <__riscv_save_0>
    412a:	84aa                	mv	s1,a0
    412c:	a3dff0ef          	jal	ra,3b68 <pkt_clr>
    4130:	00c4c703          	lbu	a4,12(s1)
    4134:	02000693          	li	a3,32
    4138:	00b4c503          	lbu	a0,11(s1)
    413c:	02000793          	li	a5,32
    4140:	00e6e363          	bltu	a3,a4,4146 <ns_subcommand_read_imu_register+0x20>
    4144:	87ba                	mv	a5,a4
    4146:	00a4c703          	lbu	a4,10(s1)
    414a:	0ff7f413          	zext.b	s0,a5
    414e:	20003937          	lui	s2,0x20003
    4152:	200035b7          	lui	a1,0x20003
    4156:	2c890493          	addi	s1,s2,712 # 200032c8 <pkt>
    415a:	fc000693          	li	a3,-64
    415e:	8622                	mv	a2,s0
    4160:	2cc58593          	addi	a1,a1,716 # 200032cc <pkt+0x4>
    4164:	00d48023          	sb	a3,0(s1)
    4168:	00e480a3          	sb	a4,1(s1)
    416c:	00f481a3          	sb	a5,3(s1)
    4170:	00a48123          	sb	a0,2(s1)
    4174:	0411                	addi	s0,s0,4
    4176:	ddcfe0ef          	jal	ra,2752 <i2c_read_continuous>
    417a:	0ff47413          	zext.b	s0,s0
    417e:	2c890513          	addi	a0,s2,712
    4182:	02849623          	sh	s0,44(s1)
    4186:	29dd                	jal	467c <ns_send_report>
    4188:	80cfc06f          	j	194 <__riscv_restore_0>

0000418c <ns_subcommand_set_rumble_state>:
    418c:	fe5fb2ef          	jal	t0,170 <__riscv_save_0>
    4190:	842a                	mv	s0,a0
    4192:	9d7ff0ef          	jal	ra,3b68 <pkt_clr>
    4196:	00b44703          	lbu	a4,11(s0)
    419a:	200027b7          	lui	a5,0x20002
    419e:	20003537          	lui	a0,0x20003
    41a2:	8ae78423          	sb	a4,-1880(a5) # 200018a8 <rumble_state>
    41a6:	00a44703          	lbu	a4,10(s0)
    41aa:	2c850793          	addi	a5,a0,712 # 200032c8 <pkt>
    41ae:	f8000693          	li	a3,-128
    41b2:	00e780a3          	sb	a4,1(a5)
    41b6:	2c850513          	addi	a0,a0,712
    41ba:	4709                	li	a4,2
    41bc:	00d78023          	sb	a3,0(a5)
    41c0:	02e79623          	sh	a4,44(a5)
    41c4:	2965                	jal	467c <ns_send_report>
    41c6:	fcffb06f          	j	194 <__riscv_restore_0>

000041ca <ns_subcommand_get_battery_voltage>:
    41ca:	fa7fb2ef          	jal	t0,170 <__riscv_save_0>
    41ce:	842a                	mv	s0,a0
    41d0:	999ff0ef          	jal	ra,3b68 <pkt_clr>
    41d4:	00a44703          	lbu	a4,10(s0)
    41d8:	20003537          	lui	a0,0x20003
    41dc:	2c850793          	addi	a5,a0,712 # 200032c8 <pkt>
    41e0:	00e780a3          	sb	a4,1(a5)
    41e4:	61800713          	li	a4,1560
    41e8:	fd000693          	li	a3,-48
    41ec:	00e79123          	sh	a4,2(a5)
    41f0:	2c850513          	addi	a0,a0,712
    41f4:	4711                	li	a4,4
    41f6:	00d78023          	sb	a3,0(a5)
    41fa:	02e79623          	sh	a4,44(a5)
    41fe:	29bd                	jal	467c <ns_send_report>
    4200:	f95fb06f          	j	194 <__riscv_restore_0>

00004204 <ns_subcommand_read_charge_setting>:
    4204:	f6dfb2ef          	jal	t0,170 <__riscv_save_0>
    4208:	842a                	mv	s0,a0
    420a:	95fff0ef          	jal	ra,3b68 <pkt_clr>
    420e:	00a44703          	lbu	a4,10(s0)
    4212:	20003537          	lui	a0,0x20003
    4216:	2c850793          	addi	a5,a0,712 # 200032c8 <pkt>
    421a:	00e780a3          	sb	a4,1(a5)
    421e:	4751                	li	a4,20
    4220:	fd100693          	li	a3,-47
    4224:	00e78123          	sb	a4,2(a5)
    4228:	2c850513          	addi	a0,a0,712
    422c:	470d                	li	a4,3
    422e:	00d78023          	sb	a3,0(a5)
    4232:	02e79623          	sh	a4,44(a5)
    4236:	2199                	jal	467c <ns_send_report>
    4238:	f5dfb06f          	j	194 <__riscv_restore_0>

0000423c <ns_subcommand_callback_init>:
    423c:	200037b7          	lui	a5,0x20003
    4240:	6711                	lui	a4,0x4
    4242:	2fc78793          	addi	a5,a5,764 # 200032fc <ns_cmd_subcommand_cb_tb>
    4246:	bbe70713          	addi	a4,a4,-1090 # 3bbe <ns_subcommand_default>
    424a:	c398                	sw	a4,0(a5)
    424c:	6711                	lui	a4,0x4
    424e:	bf670713          	addi	a4,a4,-1034 # 3bf6 <ns_subcommand_pair_by_wire>
    4252:	c3d8                	sw	a4,4(a5)
    4254:	6711                	lui	a4,0x4
    4256:	c9670713          	addi	a4,a4,-874 # 3c96 <ns_subcommand_get_device_info>
    425a:	c798                	sw	a4,8(a5)
    425c:	6711                	lui	a4,0x4
    425e:	d3270713          	addi	a4,a4,-718 # 3d32 <ns_subcommand_set_input_mode>
    4262:	c7d8                	sw	a4,12(a5)
    4264:	6711                	lui	a4,0x4
    4266:	d8070713          	addi	a4,a4,-640 # 3d80 <ns_subcommand_trigger_buttons_elapsed_time>
    426a:	cb98                	sw	a4,16(a5)
    426c:	6711                	lui	a4,0x4
    426e:	dc670713          	addi	a4,a4,-570 # 3dc6 <ns_subcommand_get_page_list_state>
    4272:	cbd8                	sw	a4,20(a5)
    4274:	6711                	lui	a4,0x4
    4276:	b5070713          	addi	a4,a4,-1200 # 3b50 <ns_subcommand_set_hci_state>
    427a:	cf98                	sw	a4,24(a5)
    427c:	6711                	lui	a4,0x4
    427e:	b6670713          	addi	a4,a4,-1178 # 3b66 <ns_subcommand_reset_pairing_info>
    4282:	cfd8                	sw	a4,28(a5)
    4284:	6711                	lui	a4,0x4
    4286:	e0070713          	addi	a4,a4,-512 # 3e00 <ns_subcommand_set_shipping_mode>
    428a:	d398                	sw	a4,32(a5)
    428c:	6711                	lui	a4,0x4
    428e:	e4470713          	addi	a4,a4,-444 # 3e44 <ns_subcommand_spi_read>
    4292:	c3b8                	sw	a4,64(a5)
    4294:	6711                	lui	a4,0x4
    4296:	ebe70713          	addi	a4,a4,-322 # 3ebe <ns_subcommand_spi_write>
    429a:	c3f8                	sw	a4,68(a5)
    429c:	6711                	lui	a4,0x4
    429e:	e3870713          	addi	a4,a4,-456 # 3e38 <ns_subcommand_spi_erase>
    42a2:	6691                	lui	a3,0x4
    42a4:	c7b8                	sw	a4,72(a5)
    42a6:	b6268693          	addi	a3,a3,-1182 # 3b62 <ns_subcommand_reset_mcu>
    42aa:	08078713          	addi	a4,a5,128
    42ae:	c314                	sw	a3,0(a4)
    42b0:	6691                	lui	a3,0x4
    42b2:	b7e68693          	addi	a3,a3,-1154 # 3b7e <ns_subcommand_set_mcu_conf>
    42b6:	c354                	sw	a3,4(a4)
    42b8:	6691                	lui	a3,0x4
    42ba:	f1e68693          	addi	a3,a3,-226 # 3f1e <ns_subcommand_set_mcu_state>
    42be:	c714                	sw	a3,8(a4)
    42c0:	6691                	lui	a3,0x4
    42c2:	e3c68693          	addi	a3,a3,-452 # 3e3c <ns_subcommand_enable_mcu_polling>
    42c6:	cb14                	sw	a3,16(a4)
    42c8:	6691                	lui	a3,0x4
    42ca:	e4068693          	addi	a3,a3,-448 # 3e40 <ns_subcommand_disable_mcu_polling>
    42ce:	cb54                	sw	a3,20(a4)
    42d0:	6691                	lui	a3,0x4
    42d2:	f5268693          	addi	a3,a3,-174 # 3f52 <ns_subcommand_attachmend_write>
    42d6:	d314                	sw	a3,32(a4)
    42d8:	6691                	lui	a3,0x4
    42da:	f5a68693          	addi	a3,a3,-166 # 3f5a <ns_subcommand_attachmend_read>
    42de:	d354                	sw	a3,36(a4)
    42e0:	6691                	lui	a3,0x4
    42e2:	f9068693          	addi	a3,a3,-112 # 3f90 <ns_subcommand_attachment_state>
    42e6:	d714                	sw	a3,40(a4)
    42e8:	6691                	lui	a3,0x4
    42ea:	fc068693          	addi	a3,a3,-64 # 3fc0 <ns_subcommand_get_attachment_info>
    42ee:	d754                	sw	a3,44(a4)
    42f0:	6691                	lui	a3,0x4
    42f2:	ff468693          	addi	a3,a3,-12 # 3ff4 <ns_subcommand_set_indicate_led>
    42f6:	c334                	sw	a3,64(a4)
    42f8:	6691                	lui	a3,0x4
    42fa:	03a68693          	addi	a3,a3,58 # 403a <ns_subcommand_get_indicate_led>
    42fe:	c374                	sw	a3,68(a4)
    4300:	6691                	lui	a3,0x4
    4302:	b6468693          	addi	a3,a3,-1180 # 3b64 <ns_subcommand_set_home_led>
    4306:	d334                	sw	a3,96(a4)
    4308:	6711                	lui	a4,0x4
    430a:	10078793          	addi	a5,a5,256
    430e:	07670713          	addi	a4,a4,118 # 4076 <ns_subcommand_set_imu_state>
    4312:	c398                	sw	a4,0(a5)
    4314:	6711                	lui	a4,0x4
    4316:	0b470713          	addi	a4,a4,180 # 40b4 <ns_subcommand_set_imu_conf>
    431a:	c3d8                	sw	a4,4(a5)
    431c:	6711                	lui	a4,0x4
    431e:	b5270713          	addi	a4,a4,-1198 # 3b52 <ns_subcommand_set_imu_register>
    4322:	c798                	sw	a4,8(a5)
    4324:	6711                	lui	a4,0x4
    4326:	12670713          	addi	a4,a4,294 # 4126 <ns_subcommand_read_imu_register>
    432a:	c7d8                	sw	a4,12(a5)
    432c:	6711                	lui	a4,0x4
    432e:	18c70713          	addi	a4,a4,396 # 418c <ns_subcommand_set_rumble_state>
    4332:	d398                	sw	a4,32(a5)
    4334:	6711                	lui	a4,0x4
    4336:	1ca70713          	addi	a4,a4,458 # 41ca <ns_subcommand_get_battery_voltage>
    433a:	c3b8                	sw	a4,64(a5)
    433c:	6711                	lui	a4,0x4
    433e:	f5670713          	addi	a4,a4,-170 # 3f56 <ns_subcommand_write_charge_setting>
    4342:	c3f8                	sw	a4,68(a5)
    4344:	6711                	lui	a4,0x4
    4346:	20470713          	addi	a4,a4,516 # 4204 <ns_subcommand_read_charge_setting>
    434a:	c7b8                	sw	a4,72(a5)
    434c:	8082                	ret

0000434e <ns_rumble_handler>:
    434e:	9b41c783          	lbu	a5,-1612(gp) # 20001a5c <is_rumble_start>
    4352:	c799                	beqz	a5,4360 <ns_rumble_handler+0x12>
    4354:	4108                	lw	a0,0(a0)
    4356:	00650593          	addi	a1,a0,6
    435a:	0509                	addi	a0,a0,2
    435c:	865fd06f          	j	1bc0 <decode_hd_rumble_multiformat_high_acc>
    4360:	8082                	ret

00004362 <ns_cmd_subcommand_dispatcher>:
    4362:	e0ffb2ef          	jal	t0,170 <__riscv_save_0>
    4366:	842a                	mv	s0,a0
    4368:	00444583          	lbu	a1,4(s0)
    436c:	4108                	lw	a0,0(a0)
    436e:	20003737          	lui	a4,0x20003
    4372:	15d1                	addi	a1,a1,-12
    4374:	0ff5f593          	zext.b	a1,a1
    4378:	00b40223          	sb	a1,4(s0)
    437c:	00a54783          	lbu	a5,10(a0)
    4380:	2fc70713          	addi	a4,a4,764 # 200032fc <ns_cmd_subcommand_cb_tb>
    4384:	078a                	slli	a5,a5,0x2
    4386:	97ba                	add	a5,a5,a4
    4388:	439c                	lw	a5,0(a5)
    438a:	c399                	beqz	a5,4390 <ns_cmd_subcommand_dispatcher+0x2e>
    438c:	9782                	jalr	a5
    438e:	a019                	j	4394 <ns_cmd_subcommand_dispatcher+0x32>
    4390:	431c                	lw	a5,0(a4)
    4392:	ffed                	bnez	a5,438c <ns_cmd_subcommand_dispatcher+0x2a>
    4394:	8522                	mv	a0,s0
    4396:	fb9ff0ef          	jal	ra,434e <ns_rumble_handler>
    439a:	dfbfb06f          	j	194 <__riscv_restore_0>

0000439e <ns_mux_usb_handshake_handler>:
    439e:	00454703          	lbu	a4,4(a0)
    43a2:	4785                	li	a5,1
    43a4:	08e7f363          	bgeu	a5,a4,442a <ns_mux_usb_handshake_handler+0x8c>
    43a8:	411c                	lw	a5,0(a0)
    43aa:	c3c1                	beqz	a5,442a <ns_mux_usb_handshake_handler+0x8c>
    43ac:	0017c783          	lbu	a5,1(a5)
    43b0:	4715                	li	a4,5
    43b2:	17fd                	addi	a5,a5,-1
    43b4:	0ff7f793          	zext.b	a5,a5
    43b8:	06f76963          	bltu	a4,a5,442a <ns_mux_usb_handshake_handler+0x8c>
    43bc:	db5fb2ef          	jal	t0,170 <__riscv_save_0>
    43c0:	672d                	lui	a4,0xb
    43c2:	078a                	slli	a5,a5,0x2
    43c4:	75070713          	addi	a4,a4,1872 # b750 <_read+0xb6>
    43c8:	97ba                	add	a5,a5,a4
    43ca:	439c                	lw	a5,0(a5)
    43cc:	20003437          	lui	s0,0x20003
    43d0:	8782                	jr	a5
    43d2:	030007b7          	lui	a5,0x3000
    43d6:	75440513          	addi	a0,s0,1876 # 20003754 <usb_handshake_buf>
    43da:	18178793          	addi	a5,a5,385 # 3000181 <_data_lma+0x2ff459d>
    43de:	200035b7          	lui	a1,0x20003
    43e2:	c11c                	sw	a5,0(a0)
    43e4:	4619                	li	a2,6
    43e6:	79a58593          	addi	a1,a1,1946 # 2000379a <connection_state+0x6>
    43ea:	0511                	addi	a0,a0,4
    43ec:	db5fb0ef          	jal	ra,1a0 <memcpy>
    43f0:	4685                	li	a3,1
    43f2:	4629                	li	a2,10
    43f4:	75440593          	addi	a1,s0,1876
    43f8:	73418513          	addi	a0,gp,1844 # 200027dc <ns_usb_send_rb>
    43fc:	7b8000ef          	jal	ra,4bb4 <ring_buffer_push>
    4400:	d95fb06f          	j	194 <__riscv_restore_0>
    4404:	28100793          	li	a5,641
    4408:	74f41a23          	sh	a5,1876(s0)
    440c:	4685                	li	a3,1
    440e:	4609                	li	a2,2
    4410:	b7d5                	j	43f4 <ns_mux_usb_handshake_handler+0x56>
    4412:	38100793          	li	a5,897
    4416:	bfcd                	j	4408 <ns_mux_usb_handshake_handler+0x6a>
    4418:	48100793          	li	a5,1153
    441c:	b7f5                	j	4408 <ns_mux_usb_handshake_handler+0x6a>
    441e:	58100793          	li	a5,1409
    4422:	b7dd                	j	4408 <ns_mux_usb_handshake_handler+0x6a>
    4424:	68100793          	li	a5,1665
    4428:	b7c5                	j	4408 <ns_mux_usb_handshake_handler+0x6a>
    442a:	8082                	ret

0000442c <_calibrate_imu_raw>:
    442c:	d2bfb2ef          	jal	t0,156 <__riscv_save_4>
    4430:	20003437          	lui	s0,0x20003
    4434:	89aa                	mv	s3,a0
    4436:	4661                	li	a2,24
    4438:	4581                	li	a1,0
    443a:	6fc40513          	addi	a0,s0,1788 # 200036fc <calibrate_imu_raw_buf>
    443e:	d79fb0ef          	jal	ra,1b6 <memset>
    4442:	4a01                	li	s4,0
    4444:	20003ab7          	lui	s5,0x20003
    4448:	013a1463          	bne	s4,s3,4450 <_calibrate_imu_raw+0x24>
    444c:	4481                	li	s1,0
    444e:	a00d                	j	4470 <_calibrate_imu_raw+0x44>
    4450:	4515                	li	a0,5
    4452:	603000ef          	jal	ra,5254 <Delay_Ms>
    4456:	4919                	li	s2,6
    4458:	d00fe0ef          	jal	ra,2958 <imu_read>
    445c:	84aa                	mv	s1,a0
    445e:	4515                	li	a0,5
    4460:	5f5000ef          	jal	ra,5254 <Delay_Ms>
    4464:	c8a9                	beqz	s1,44b6 <_calibrate_imu_raw+0x8a>
    4466:	197d                	addi	s2,s2,-1
    4468:	0ff97913          	zext.b	s2,s2
    446c:	fe0916e3          	bnez	s2,4458 <_calibrate_imu_raw+0x2c>
    4470:	6fc40413          	addi	s0,s0,1788
    4474:	4008                	lw	a0,0(s0)
    4476:	43b050ef          	jal	ra,a0b0 <__floatsisf>
    447a:	9781a583          	lw	a1,-1672(gp) # 20001a20 <imu_ratio_xf>
    447e:	532050ef          	jal	ra,99b0 <__mulsf3>
    4482:	3cf050ef          	jal	ra,a050 <__fixsfsi>
    4486:	c008                	sw	a0,0(s0)
    4488:	4048                	lw	a0,4(s0)
    448a:	427050ef          	jal	ra,a0b0 <__floatsisf>
    448e:	9741a583          	lw	a1,-1676(gp) # 20001a1c <imu_ratio_yf>
    4492:	51e050ef          	jal	ra,99b0 <__mulsf3>
    4496:	3bb050ef          	jal	ra,a050 <__fixsfsi>
    449a:	c048                	sw	a0,4(s0)
    449c:	4408                	lw	a0,8(s0)
    449e:	413050ef          	jal	ra,a0b0 <__floatsisf>
    44a2:	9701a583          	lw	a1,-1680(gp) # 20001a18 <imu_ratio_zf>
    44a6:	50a050ef          	jal	ra,99b0 <__mulsf3>
    44aa:	3a7050ef          	jal	ra,a050 <__fixsfsi>
    44ae:	c408                	sw	a0,8(s0)
    44b0:	8526                	mv	a0,s1
    44b2:	cd9fb06f          	j	18a <__riscv_restore_4>
    44b6:	6fc40793          	addi	a5,s0,1788
    44ba:	234a8713          	addi	a4,s5,564 # 20003234 <imu_raw_buf>
    44be:	01878613          	addi	a2,a5,24
    44c2:	4394                	lw	a3,0(a5)
    44c4:	00071583          	lh	a1,0(a4)
    44c8:	0709                	addi	a4,a4,2
    44ca:	96ae                	add	a3,a3,a1
    44cc:	c394                	sw	a3,0(a5)
    44ce:	0791                	addi	a5,a5,4
    44d0:	fef619e3          	bne	a2,a5,44c2 <_calibrate_imu_raw+0x96>
    44d4:	0a05                	addi	s4,s4,1
    44d6:	bf8d                	j	4448 <_calibrate_imu_raw+0x1c>

000044d8 <calibrate_imu>:
    44d8:	c7ffb2ef          	jal	t0,156 <__riscv_save_4>
    44dc:	f51ff0ef          	jal	ra,442c <_calibrate_imu_raw>
    44e0:	8a2a                	mv	s4,a0
    44e2:	16051763          	bnez	a0,4650 <calibrate_imu+0x178>
    44e6:	200034b7          	lui	s1,0x20003
    44ea:	6fc48493          	addi	s1,s1,1788 # 200036fc <calibrate_imu_raw_buf>
    44ee:	44c8                	lw	a0,12(s1)
    44f0:	3c1050ef          	jal	ra,a0b0 <__floatsisf>
    44f4:	8781a583          	lw	a1,-1928(gp) # 20001920 <_impure_ptr+0x50>
    44f8:	20003437          	lui	s0,0x20003
    44fc:	9f040413          	addi	s0,s0,-1552 # 200029f0 <factory_configuration>
    4500:	098050ef          	jal	ra,9598 <__divsf3>
    4504:	87c1a583          	lw	a1,-1924(gp) # 20001924 <_impure_ptr+0x54>
    4508:	529040ef          	jal	ra,9230 <__addsf3>
    450c:	08144783          	lbu	a5,129(s0)
    4510:	08044703          	lbu	a4,128(s0)
    4514:	8aaa                	mv	s5,a0
    4516:	07a2                	slli	a5,a5,0x8
    4518:	8fd9                	or	a5,a5,a4
    451a:	40f00533          	neg	a0,a5
    451e:	393050ef          	jal	ra,a0b0 <__floatsisf>
    4522:	85aa                	mv	a1,a0
    4524:	8556                	mv	a0,s5
    4526:	50b040ef          	jal	ra,9230 <__addsf3>
    452a:	327050ef          	jal	ra,a050 <__fixsfsi>
    452e:	01051793          	slli	a5,a0,0x10
    4532:	02a40023          	sb	a0,32(s0)
    4536:	4888                	lw	a0,16(s1)
    4538:	83c1                	srli	a5,a5,0x10
    453a:	83a1                	srli	a5,a5,0x8
    453c:	02f400a3          	sb	a5,33(s0)
    4540:	371050ef          	jal	ra,a0b0 <__floatsisf>
    4544:	8781a583          	lw	a1,-1928(gp) # 20001920 <_impure_ptr+0x50>
    4548:	050050ef          	jal	ra,9598 <__divsf3>
    454c:	87c1a583          	lw	a1,-1924(gp) # 20001924 <_impure_ptr+0x54>
    4550:	4e1040ef          	jal	ra,9230 <__addsf3>
    4554:	08344783          	lbu	a5,131(s0)
    4558:	08244703          	lbu	a4,130(s0)
    455c:	8aaa                	mv	s5,a0
    455e:	07a2                	slli	a5,a5,0x8
    4560:	8fd9                	or	a5,a5,a4
    4562:	40f00533          	neg	a0,a5
    4566:	34b050ef          	jal	ra,a0b0 <__floatsisf>
    456a:	85aa                	mv	a1,a0
    456c:	8556                	mv	a0,s5
    456e:	4c3040ef          	jal	ra,9230 <__addsf3>
    4572:	2df050ef          	jal	ra,a050 <__fixsfsi>
    4576:	01051793          	slli	a5,a0,0x10
    457a:	02a40123          	sb	a0,34(s0)
    457e:	48c8                	lw	a0,20(s1)
    4580:	83c1                	srli	a5,a5,0x10
    4582:	83a1                	srli	a5,a5,0x8
    4584:	02f401a3          	sb	a5,35(s0)
    4588:	329050ef          	jal	ra,a0b0 <__floatsisf>
    458c:	8781a583          	lw	a1,-1928(gp) # 20001920 <_impure_ptr+0x50>
    4590:	008050ef          	jal	ra,9598 <__divsf3>
    4594:	87c1a583          	lw	a1,-1924(gp) # 20001924 <_impure_ptr+0x54>
    4598:	499040ef          	jal	ra,9230 <__addsf3>
    459c:	08544783          	lbu	a5,133(s0)
    45a0:	08444703          	lbu	a4,132(s0)
    45a4:	8aaa                	mv	s5,a0
    45a6:	07a2                	slli	a5,a5,0x8
    45a8:	8fd9                	or	a5,a5,a4
    45aa:	40f00533          	neg	a0,a5
    45ae:	303050ef          	jal	ra,a0b0 <__floatsisf>
    45b2:	85aa                	mv	a1,a0
    45b4:	8556                	mv	a0,s5
    45b6:	47b040ef          	jal	ra,9230 <__addsf3>
    45ba:	297050ef          	jal	ra,a050 <__fixsfsi>
    45be:	01051793          	slli	a5,a0,0x10
    45c2:	02a40223          	sb	a0,36(s0)
    45c6:	4088                	lw	a0,0(s1)
    45c8:	83c1                	srli	a5,a5,0x10
    45ca:	83a1                	srli	a5,a5,0x8
    45cc:	02f402a3          	sb	a5,37(s0)
    45d0:	2e1050ef          	jal	ra,a0b0 <__floatsisf>
    45d4:	8781a583          	lw	a1,-1928(gp) # 20001920 <_impure_ptr+0x50>
    45d8:	7c1040ef          	jal	ra,9598 <__divsf3>
    45dc:	87c1a583          	lw	a1,-1924(gp) # 20001924 <_impure_ptr+0x54>
    45e0:	451040ef          	jal	ra,9230 <__addsf3>
    45e4:	26d050ef          	jal	ra,a050 <__fixsfsi>
    45e8:	01051793          	slli	a5,a0,0x10
    45ec:	02a40623          	sb	a0,44(s0)
    45f0:	40c8                	lw	a0,4(s1)
    45f2:	83c1                	srli	a5,a5,0x10
    45f4:	83a1                	srli	a5,a5,0x8
    45f6:	02f406a3          	sb	a5,45(s0)
    45fa:	2b7050ef          	jal	ra,a0b0 <__floatsisf>
    45fe:	8781a583          	lw	a1,-1928(gp) # 20001920 <_impure_ptr+0x50>
    4602:	797040ef          	jal	ra,9598 <__divsf3>
    4606:	87c1a583          	lw	a1,-1924(gp) # 20001924 <_impure_ptr+0x54>
    460a:	427040ef          	jal	ra,9230 <__addsf3>
    460e:	243050ef          	jal	ra,a050 <__fixsfsi>
    4612:	01051793          	slli	a5,a0,0x10
    4616:	02a40723          	sb	a0,46(s0)
    461a:	4488                	lw	a0,8(s1)
    461c:	83c1                	srli	a5,a5,0x10
    461e:	83a1                	srli	a5,a5,0x8
    4620:	02f407a3          	sb	a5,47(s0)
    4624:	28d050ef          	jal	ra,a0b0 <__floatsisf>
    4628:	8781a583          	lw	a1,-1928(gp) # 20001920 <_impure_ptr+0x50>
    462c:	76d040ef          	jal	ra,9598 <__divsf3>
    4630:	87c1a583          	lw	a1,-1924(gp) # 20001924 <_impure_ptr+0x54>
    4634:	3fd040ef          	jal	ra,9230 <__addsf3>
    4638:	219050ef          	jal	ra,a050 <__fixsfsi>
    463c:	01051793          	slli	a5,a0,0x10
    4640:	83c1                	srli	a5,a5,0x10
    4642:	83a1                	srli	a5,a5,0x8
    4644:	02a40823          	sb	a0,48(s0)
    4648:	02f408a3          	sb	a5,49(s0)
    464c:	cdcfc0ef          	jal	ra,b28 <fac_conf_write>
    4650:	8552                	mv	a0,s4
    4652:	b39fb06f          	j	18a <__riscv_restore_4>

00004656 <fw_subcommand_reboot>:
    4656:	b1bfb2ef          	jal	t0,170 <__riscv_save_0>
    465a:	4501                	li	a0,0
    465c:	0cf000ef          	jal	ra,4f2a <flush_rgb>
    4660:	4529                	li	a0,10
    4662:	3f3000ef          	jal	ra,5254 <Delay_Ms>
    4666:	beef07b7          	lui	a5,0xbeef0
    466a:	e000e737          	lui	a4,0xe000e
    466e:	08078793          	addi	a5,a5,128 # beef0080 <_eusrstack+0x9eeeb080>
    4672:	c73c                	sw	a5,72(a4)
    4674:	b21fb06f          	j	194 <__riscv_restore_0>

00004678 <ns_mux_init>:
    4678:	bc5ff06f          	j	423c <ns_subcommand_callback_init>

0000467c <ns_send_report>:
    467c:	02c54603          	lbu	a2,44(a0)
    4680:	85aa                	mv	a1,a0
    4682:	4681                	li	a3,0
    4684:	73418513          	addi	a0,gp,1844 # 200027dc <ns_usb_send_rb>
    4688:	a335                	j	4bb4 <ring_buffer_push>

0000468a <hid_send_full64byte_report>:
    468a:	862e                	mv	a2,a1
    468c:	85aa                	mv	a1,a0
    468e:	468d                	li	a3,3
    4690:	73418513          	addi	a0,gp,1844 # 200027dc <ns_usb_send_rb>
    4694:	a305                	j	4bb4 <ring_buffer_push>

00004696 <fw_snd_pkt>:
    4696:	200037b7          	lui	a5,0x20003
    469a:	71478713          	addi	a4,a5,1812 # 20003714 <fw_buf_raw>
    469e:	0589                	addi	a1,a1,2
    46a0:	56f9                	li	a3,-2
    46a2:	00a700a3          	sb	a0,1(a4) # e000e001 <_eusrstack+0xc0009001>
    46a6:	0ff5f593          	zext.b	a1,a1
    46aa:	71478513          	addi	a0,a5,1812
    46ae:	00d70023          	sb	a3,0(a4)
    46b2:	fd9ff06f          	j	468a <hid_send_full64byte_report>

000046b6 <fw_subcommand_read_setting>:
    46b6:	abbfb2ef          	jal	t0,170 <__riscv_save_0>
    46ba:	200034b7          	lui	s1,0x20003
    46be:	20003437          	lui	s0,0x20003
    46c2:	200035b7          	lui	a1,0x20003
    46c6:	71440413          	addi	s0,s0,1812 # 20003714 <fw_buf_raw>
    46ca:	03d00613          	li	a2,61
    46ce:	92c58593          	addi	a1,a1,-1748 # 2000292c <user_config>
    46d2:	71748513          	addi	a0,s1,1815 # 20003717 <fw_buf_raw+0x3>
    46d6:	00040123          	sb	zero,2(s0)
    46da:	ac7fb0ef          	jal	ra,1a0 <memcpy>
    46de:	03e00593          	li	a1,62
    46e2:	4505                	li	a0,1
    46e4:	fb3ff0ef          	jal	ra,4696 <fw_snd_pkt>
    46e8:	200035b7          	lui	a1,0x20003
    46ec:	4785                	li	a5,1
    46ee:	03d00613          	li	a2,61
    46f2:	96958593          	addi	a1,a1,-1687 # 20002969 <user_config+0x3d>
    46f6:	71748513          	addi	a0,s1,1815
    46fa:	00f40123          	sb	a5,2(s0)
    46fe:	aa3fb0ef          	jal	ra,1a0 <memcpy>
    4702:	03e00593          	li	a1,62
    4706:	4505                	li	a0,1
    4708:	f8fff0ef          	jal	ra,4696 <fw_snd_pkt>
    470c:	20003537          	lui	a0,0x20003
    4710:	03b00613          	li	a2,59
    4714:	4581                	li	a1,0
    4716:	71950513          	addi	a0,a0,1817 # 20003719 <fw_buf_raw+0x5>
    471a:	a9dfb0ef          	jal	ra,1b6 <memset>
    471e:	4789                	li	a5,2
    4720:	00f40123          	sb	a5,2(s0)
    4724:	200037b7          	lui	a5,0x20003
    4728:	9a678793          	addi	a5,a5,-1626 # 200029a6 <user_config+0x7a>
    472c:	0007c703          	lbu	a4,0(a5)
    4730:	0017c783          	lbu	a5,1(a5)
    4734:	71748913          	addi	s2,s1,1815
    4738:	458d                	li	a1,3
    473a:	4505                	li	a0,1
    473c:	00e90023          	sb	a4,0(s2)
    4740:	00f900a3          	sb	a5,1(s2)
    4744:	f53ff0ef          	jal	ra,4696 <fw_snd_pkt>
    4748:	3ff00793          	li	a5,1023
    474c:	4589                	li	a1,2
    474e:	4505                	li	a0,1
    4750:	00f41123          	sh	a5,2(s0)
    4754:	f43ff0ef          	jal	ra,4696 <fw_snd_pkt>
    4758:	a3dfb06f          	j	194 <__riscv_restore_0>

0000475c <fw_subcommand_write_setting>:
    475c:	a15fb2ef          	jal	t0,170 <__riscv_save_0>
    4760:	410c                	lw	a1,0(a0)
    4762:	0ff00713          	li	a4,255
    4766:	0015c783          	lbu	a5,1(a1)
    476a:	9ae1c403          	lbu	s0,-1618(gp) # 20001a56 <fw_red_cnt>
    476e:	04e79663          	bne	a5,a4,47ba <fw_subcommand_write_setting+0x5e>
    4772:	0025c783          	lbu	a5,2(a1)
    4776:	892a                	mv	s2,a0
    4778:	4701                	li	a4,0
    477a:	00879c63          	bne	a5,s0,4792 <fw_subcommand_write_setting+0x36>
    477e:	0035c703          	lbu	a4,3(a1)
    4782:	4785                	li	a5,1
    4784:	00f71463          	bne	a4,a5,478c <fw_subcommand_write_setting+0x30>
    4788:	b24fc0ef          	jal	ra,aac <custom_conf_write>
    478c:	e6cfc0ef          	jal	ra,df8 <conf_flush>
    4790:	4705                	li	a4,1
    4792:	200037b7          	lui	a5,0x20003
    4796:	71478793          	addi	a5,a5,1812 # 20003714 <fw_buf_raw>
    479a:	00e78123          	sb	a4,2(a5)
    479e:	00092703          	lw	a4,0(s2)
    47a2:	4589                	li	a1,2
    47a4:	4509                	li	a0,2
    47a6:	00374703          	lbu	a4,3(a4)
    47aa:	9a018723          	sb	zero,-1618(gp) # 20001a56 <fw_red_cnt>
    47ae:	00e781a3          	sb	a4,3(a5)
    47b2:	ee5ff0ef          	jal	ra,4696 <fw_snd_pkt>
    47b6:	9dffb06f          	j	194 <__riscv_restore_0>
    47ba:	03d00713          	li	a4,61
    47be:	02e787b3          	mul	a5,a5,a4
    47c2:	20003537          	lui	a0,0x20003
    47c6:	07c00613          	li	a2,124
    47ca:	92c50513          	addi	a0,a0,-1748 # 2000292c <user_config>
    47ce:	8e1d                	sub	a2,a2,a5
    47d0:	953e                	add	a0,a0,a5
    47d2:	00c77463          	bgeu	a4,a2,47da <fw_subcommand_write_setting+0x7e>
    47d6:	03d00613          	li	a2,61
    47da:	0589                	addi	a1,a1,2
    47dc:	0405                	addi	s0,s0,1
    47de:	9c3fb0ef          	jal	ra,1a0 <memcpy>
    47e2:	9a818723          	sb	s0,-1618(gp) # 20001a56 <fw_red_cnt>
    47e6:	bfc1                	j	47b6 <fw_subcommand_write_setting+0x5a>

000047e8 <fw_subcommand_read_emulate_rom>:
    47e8:	989fb2ef          	jal	t0,170 <__riscv_save_0>
    47ec:	842a                	mv	s0,a0
    47ee:	4108                	lw	a0,0(a0)
    47f0:	0505                	addi	a0,a0,1
    47f2:	8fbfc0ef          	jal	ra,10ec <fetch_uint32>
    47f6:	400c                	lw	a1,0(s0)
    47f8:	84aa                	mv	s1,a0
    47fa:	20003537          	lui	a0,0x20003
    47fe:	4615                	li	a2,5
    4800:	0585                	addi	a1,a1,1
    4802:	71650513          	addi	a0,a0,1814 # 20003716 <fw_buf_raw+0x2>
    4806:	99bfb0ef          	jal	ra,1a0 <memcpy>
    480a:	401c                	lw	a5,0(s0)
    480c:	200035b7          	lui	a1,0x20003
    4810:	8526                	mv	a0,s1
    4812:	0057c603          	lbu	a2,5(a5)
    4816:	71b58593          	addi	a1,a1,1819 # 2000371b <fw_buf_raw+0x7>
    481a:	a2cfc0ef          	jal	ra,a46 <conf_read>
    481e:	401c                	lw	a5,0(s0)
    4820:	450d                	li	a0,3
    4822:	0057c583          	lbu	a1,5(a5)
    4826:	0595                	addi	a1,a1,5
    4828:	0ff5f593          	zext.b	a1,a1
    482c:	e6bff0ef          	jal	ra,4696 <fw_snd_pkt>
    4830:	965fb06f          	j	194 <__riscv_restore_0>

00004834 <fw_subcommand_write_emulate_rom>:
    4834:	93dfb2ef          	jal	t0,170 <__riscv_save_0>
    4838:	842a                	mv	s0,a0
    483a:	4108                	lw	a0,0(a0)
    483c:	0505                	addi	a0,a0,1
    483e:	8affc0ef          	jal	ra,10ec <fetch_uint32>
    4842:	400c                	lw	a1,0(s0)
    4844:	0055c603          	lbu	a2,5(a1)
    4848:	0599                	addi	a1,a1,6
    484a:	af0fc0ef          	jal	ra,b3a <conf_write>
    484e:	200037b7          	lui	a5,0x20003
    4852:	70a78b23          	sb	a0,1814(a5) # 20003716 <fw_buf_raw+0x2>
    4856:	4585                	li	a1,1
    4858:	4511                	li	a0,4
    485a:	e3dff0ef          	jal	ra,4696 <fw_snd_pkt>
    485e:	937fb06f          	j	194 <__riscv_restore_0>

00004862 <fw_subcommand_calibrate_imu>:
    4862:	90ffb2ef          	jal	t0,170 <__riscv_save_0>
    4866:	4551                	li	a0,20
    4868:	c71ff0ef          	jal	ra,44d8 <calibrate_imu>
    486c:	9521c703          	lbu	a4,-1710(gp) # 200019fa <i2c_error_code>
    4870:	200037b7          	lui	a5,0x20003
    4874:	71478793          	addi	a5,a5,1812 # 20003714 <fw_buf_raw>
    4878:	00a78123          	sb	a0,2(a5)
    487c:	4589                	li	a1,2
    487e:	4515                	li	a0,5
    4880:	00e781a3          	sb	a4,3(a5)
    4884:	e13ff0ef          	jal	ra,4696 <fw_snd_pkt>
    4888:	90dfb06f          	j	194 <__riscv_restore_0>

0000488c <fw_subcommand_calibrate_js_offset>:
    488c:	8e5fb2ef          	jal	t0,170 <__riscv_save_0>
    4890:	8bc18713          	addi	a4,gp,-1860 # 20001964 <adc_data>
    4894:	00075683          	lhu	a3,0(a4)
    4898:	200037b7          	lui	a5,0x20003
    489c:	9a878793          	addi	a5,a5,-1624 # 200029a8 <user_calibration>
    48a0:	00d780a3          	sb	a3,1(a5)
    48a4:	82a1                	srli	a3,a3,0x8
    48a6:	00d78123          	sb	a3,2(a5)
    48aa:	00275683          	lhu	a3,2(a4)
    48ae:	4601                	li	a2,0
    48b0:	4581                	li	a1,0
    48b2:	00d781a3          	sb	a3,3(a5)
    48b6:	82a1                	srli	a3,a3,0x8
    48b8:	00d78223          	sb	a3,4(a5)
    48bc:	00475683          	lhu	a3,4(a4)
    48c0:	00675703          	lhu	a4,6(a4)
    48c4:	6521                	lui	a0,0x8
    48c6:	00d782a3          	sb	a3,5(a5)
    48ca:	00e783a3          	sb	a4,7(a5)
    48ce:	82a1                	srli	a3,a3,0x8
    48d0:	8321                	srli	a4,a4,0x8
    48d2:	00d78323          	sb	a3,6(a5)
    48d6:	00e78423          	sb	a4,8(a5)
    48da:	00078023          	sb	zero,0(a5)
    48de:	a5cfc0ef          	jal	ra,b3a <conf_write>
    48e2:	200037b7          	lui	a5,0x20003
    48e6:	70a78b23          	sb	a0,1814(a5) # 20003716 <fw_buf_raw+0x2>
    48ea:	4585                	li	a1,1
    48ec:	451d                	li	a0,7
    48ee:	da9ff0ef          	jal	ra,4696 <fw_snd_pkt>
    48f2:	8a3fb06f          	j	194 <__riscv_restore_0>

000048f6 <fw_subcommand_get_status>:
    48f6:	87bfb2ef          	jal	t0,170 <__riscv_save_0>
    48fa:	200035b7          	lui	a1,0x20003
    48fe:	71758593          	addi	a1,a1,1815 # 20003717 <fw_buf_raw+0x3>
    4902:	453d                	li	a0,15
    4904:	dcbfd0ef          	jal	ra,26ce <i2c_read_byte>
    4908:	200037b7          	lui	a5,0x20003
    490c:	71478713          	addi	a4,a5,1812 # 20003714 <fw_buf_raw>
    4910:	00a70123          	sb	a0,2(a4)
    4914:	80c1a703          	lw	a4,-2036(gp) # 200018b4 <rts_tcnt>
    4918:	71478793          	addi	a5,a5,1812
    491c:	e701                	bnez	a4,4924 <fw_subcommand_get_status+0x2e>
    491e:	4705                	li	a4,1
    4920:	80e1a623          	sw	a4,-2036(gp) # 200018b4 <rts_tcnt>
    4924:	80c1a683          	lw	a3,-2036(gp) # 200018b4 <rts_tcnt>
    4928:	9b01a703          	lw	a4,-1616(gp) # 20001a58 <rts_cnt>
    492c:	20003537          	lui	a0,0x20003
    4930:	02d75733          	divu	a4,a4,a3
    4934:	4611                	li	a2,4
    4936:	96c18593          	addi	a1,gp,-1684 # 20001a14 <imu_read_cnt>
    493a:	71950513          	addi	a0,a0,1817 # 20003719 <fw_buf_raw+0x5>
    493e:	00e78223          	sb	a4,4(a5)
    4942:	85ffb0ef          	jal	ra,1a0 <memcpy>
    4946:	20003537          	lui	a0,0x20003
    494a:	4611                	li	a2,4
    494c:	96818593          	addi	a1,gp,-1688 # 20001a10 <imu_read_fail_cnt>
    4950:	71d50513          	addi	a0,a0,1821 # 2000371d <fw_buf_raw+0x9>
    4954:	84dfb0ef          	jal	ra,1a0 <memcpy>
    4958:	45ad                	li	a1,11
    495a:	0fd00513          	li	a0,253
    495e:	d39ff0ef          	jal	ra,4696 <fw_snd_pkt>
    4962:	833fb06f          	j	194 <__riscv_restore_0>

00004966 <fw_subcommand_get_version>:
    4966:	200037b7          	lui	a5,0x20003
    496a:	30000713          	li	a4,768
    496e:	4589                	li	a1,2
    4970:	0ff00513          	li	a0,255
    4974:	70e79b23          	sh	a4,1814(a5) # 20003716 <fw_buf_raw+0x2>
    4978:	d1fff06f          	j	4696 <fw_snd_pkt>

0000497c <fw_subcommand_dispatcher>:
    497c:	4114                	lw	a3,0(a0)
    497e:	4605                	li	a2,1
    4980:	00168793          	addi	a5,a3,1
    4984:	c11c                	sw	a5,0(a0)
    4986:	00454783          	lbu	a5,4(a0)
    498a:	08f67363          	bgeu	a2,a5,4a10 <fw_subcommand_dispatcher+0x94>
    498e:	fe2fb2ef          	jal	t0,170 <__riscv_save_0>
    4992:	17fd                	addi	a5,a5,-1
    4994:	00f50223          	sb	a5,4(a0)
    4998:	0016c783          	lbu	a5,1(a3)
    499c:	469d                	li	a3,7
    499e:	02f6e063          	bltu	a3,a5,49be <fw_subcommand_dispatcher+0x42>
    49a2:	cb95                	beqz	a5,49d6 <fw_subcommand_dispatcher+0x5a>
    49a4:	17fd                	addi	a5,a5,-1
    49a6:	0ff7f793          	zext.b	a5,a5
    49aa:	4699                	li	a3,6
    49ac:	02f6e563          	bltu	a3,a5,49d6 <fw_subcommand_dispatcher+0x5a>
    49b0:	66ad                	lui	a3,0xb
    49b2:	078a                	slli	a5,a5,0x2
    49b4:	76868693          	addi	a3,a3,1896 # b768 <_read+0xce>
    49b8:	97b6                	add	a5,a5,a3
    49ba:	439c                	lw	a5,0(a5)
    49bc:	8782                	jr	a5
    49be:	0fe00713          	li	a4,254
    49c2:	02e78e63          	beq	a5,a4,49fe <fw_subcommand_dispatcher+0x82>
    49c6:	0ff00713          	li	a4,255
    49ca:	02e78763          	beq	a5,a4,49f8 <fw_subcommand_dispatcher+0x7c>
    49ce:	0fd00713          	li	a4,253
    49d2:	02e78963          	beq	a5,a4,4a04 <fw_subcommand_dispatcher+0x88>
    49d6:	fbefb06f          	j	194 <__riscv_restore_0>
    49da:	cddff0ef          	jal	ra,46b6 <fw_subcommand_read_setting>
    49de:	bfe5                	j	49d6 <fw_subcommand_dispatcher+0x5a>
    49e0:	d7dff0ef          	jal	ra,475c <fw_subcommand_write_setting>
    49e4:	bfcd                	j	49d6 <fw_subcommand_dispatcher+0x5a>
    49e6:	e03ff0ef          	jal	ra,47e8 <fw_subcommand_read_emulate_rom>
    49ea:	b7f5                	j	49d6 <fw_subcommand_dispatcher+0x5a>
    49ec:	e49ff0ef          	jal	ra,4834 <fw_subcommand_write_emulate_rom>
    49f0:	b7dd                	j	49d6 <fw_subcommand_dispatcher+0x5a>
    49f2:	e71ff0ef          	jal	ra,4862 <fw_subcommand_calibrate_imu>
    49f6:	b7c5                	j	49d6 <fw_subcommand_dispatcher+0x5a>
    49f8:	f6fff0ef          	jal	ra,4966 <fw_subcommand_get_version>
    49fc:	bfe9                	j	49d6 <fw_subcommand_dispatcher+0x5a>
    49fe:	c59ff0ef          	jal	ra,4656 <fw_subcommand_reboot>
    4a02:	bfd1                	j	49d6 <fw_subcommand_dispatcher+0x5a>
    4a04:	ef3ff0ef          	jal	ra,48f6 <fw_subcommand_get_status>
    4a08:	b7f9                	j	49d6 <fw_subcommand_dispatcher+0x5a>
    4a0a:	e83ff0ef          	jal	ra,488c <fw_subcommand_calibrate_js_offset>
    4a0e:	b7e1                	j	49d6 <fw_subcommand_dispatcher+0x5a>
    4a10:	8082                	ret

00004a12 <hid_dispatch>:
    4a12:	f5efb2ef          	jal	t0,170 <__riscv_save_0>
    4a16:	411c                	lw	a5,0(a0)
    4a18:	08000713          	li	a4,128
    4a1c:	0007c783          	lbu	a5,0(a5)
    4a20:	02e78963          	beq	a5,a4,4a52 <hid_dispatch+0x40>
    4a24:	00f76a63          	bltu	a4,a5,4a38 <hid_dispatch+0x26>
    4a28:	4705                	li	a4,1
    4a2a:	00e78e63          	beq	a5,a4,4a46 <hid_dispatch+0x34>
    4a2e:	4741                	li	a4,16
    4a30:	00e78e63          	beq	a5,a4,4a4c <hid_dispatch+0x3a>
    4a34:	f60fb06f          	j	194 <__riscv_restore_0>
    4a38:	0fe00713          	li	a4,254
    4a3c:	fee79ce3          	bne	a5,a4,4a34 <hid_dispatch+0x22>
    4a40:	f3dff0ef          	jal	ra,497c <fw_subcommand_dispatcher>
    4a44:	bfc5                	j	4a34 <hid_dispatch+0x22>
    4a46:	91dff0ef          	jal	ra,4362 <ns_cmd_subcommand_dispatcher>
    4a4a:	b7ed                	j	4a34 <hid_dispatch+0x22>
    4a4c:	903ff0ef          	jal	ra,434e <ns_rumble_handler>
    4a50:	b7d5                	j	4a34 <hid_dispatch+0x22>
    4a52:	94dff0ef          	jal	ra,439e <ns_mux_usb_handshake_handler>
    4a56:	bff9                	j	4a34 <hid_dispatch+0x22>

00004a58 <setup_exti>:
    4a58:	f18fb2ef          	jal	t0,170 <__riscv_save_0>
    4a5c:	1141                	addi	sp,sp,-16
    4a5e:	842a                	mv	s0,a0
    4a60:	4585                	li	a1,1
    4a62:	4505                	li	a0,1
    4a64:	c002                	sw	zero,0(sp)
    4a66:	c202                	sw	zero,4(sp)
    4a68:	c402                	sw	zero,8(sp)
    4a6a:	c602                	sw	zero,12(sp)
    4a6c:	334020ef          	jal	ra,6da0 <RCC_APB2PeriphClockCmd>
    4a70:	4585                	li	a1,1
    4a72:	4505                	li	a0,1
    4a74:	633010ef          	jal	ra,68a6 <GPIO_EXTILineConfig>
    4a78:	4911                	li	s2,4
    4a7a:	44b1                	li	s1,12
    4a7c:	4789                	li	a5,2
    4a7e:	850a                	mv	a0,sp
    4a80:	c03e                	sw	a5,0(sp)
    4a82:	c24a                	sw	s2,4(sp)
    4a84:	c426                	sw	s1,8(sp)
    4a86:	c622                	sw	s0,12(sp)
    4a88:	237010ef          	jal	ra,64be <EXTI_Init>
    4a8c:	45bd                	li	a1,15
    4a8e:	4509                	li	a0,2
    4a90:	617010ef          	jal	ra,68a6 <GPIO_EXTILineConfig>
    4a94:	67a1                	lui	a5,0x8
    4a96:	850a                	mv	a0,sp
    4a98:	c03e                	sw	a5,0(sp)
    4a9a:	c24a                	sw	s2,4(sp)
    4a9c:	c426                	sw	s1,8(sp)
    4a9e:	c622                	sw	s0,12(sp)
    4aa0:	21f010ef          	jal	ra,64be <EXTI_Init>
    4aa4:	4599                	li	a1,6
    4aa6:	4505                	li	a0,1
    4aa8:	5ff010ef          	jal	ra,68a6 <GPIO_EXTILineConfig>
    4aac:	04000793          	li	a5,64
    4ab0:	850a                	mv	a0,sp
    4ab2:	c03e                	sw	a5,0(sp)
    4ab4:	c24a                	sw	s2,4(sp)
    4ab6:	c426                	sw	s1,8(sp)
    4ab8:	c622                	sw	s0,12(sp)
    4aba:	205010ef          	jal	ra,64be <EXTI_Init>
    4abe:	459d                	li	a1,7
    4ac0:	4505                	li	a0,1
    4ac2:	5e5010ef          	jal	ra,68a6 <GPIO_EXTILineConfig>
    4ac6:	08000793          	li	a5,128
    4aca:	850a                	mv	a0,sp
    4acc:	c03e                	sw	a5,0(sp)
    4ace:	c24a                	sw	s2,4(sp)
    4ad0:	c426                	sw	s1,8(sp)
    4ad2:	c622                	sw	s0,12(sp)
    4ad4:	1eb010ef          	jal	ra,64be <EXTI_Init>
    4ad8:	45b9                	li	a1,14
    4ada:	4505                	li	a0,1
    4adc:	5cb010ef          	jal	ra,68a6 <GPIO_EXTILineConfig>
    4ae0:	6791                	lui	a5,0x4
    4ae2:	850a                	mv	a0,sp
    4ae4:	c03e                	sw	a5,0(sp)
    4ae6:	c24a                	sw	s2,4(sp)
    4ae8:	c426                	sw	s1,8(sp)
    4aea:	c622                	sw	s0,12(sp)
    4aec:	1d3010ef          	jal	ra,64be <EXTI_Init>
    4af0:	0141                	addi	sp,sp,16
    4af2:	ea2fb06f          	j	194 <__riscv_restore_0>

00004af6 <top_init>:
    4af6:	e7afb2ef          	jal	t0,170 <__riscv_save_0>
    4afa:	1141                	addi	sp,sp,-16
    4afc:	40011537          	lui	a0,0x40011
    4b00:	4791                	li	a5,4
    4b02:	004c                	addi	a1,sp,4
    4b04:	c0050513          	addi	a0,a0,-1024 # 40010c00 <_eusrstack+0x2000bc00>
    4b08:	c63e                	sw	a5,12(sp)
    4b0a:	00f11223          	sh	a5,4(sp)
    4b0e:	00011323          	sh	zero,6(sp)
    4b12:	00011423          	sh	zero,8(sp)
    4b16:	00011523          	sh	zero,10(sp)
    4b1a:	4bb010ef          	jal	ra,67d4 <GPIO_Init>
    4b1e:	0141                	addi	sp,sp,16
    4b20:	e74fb06f          	j	194 <__riscv_restore_0>

00004b24 <set_pwr_mode_stop>:
    4b24:	e4cfb2ef          	jal	t0,170 <__riscv_save_0>
    4b28:	4505                	li	a0,1
    4b2a:	f2fff0ef          	jal	ra,4a58 <setup_exti>
    4b2e:	4505                	li	a0,1
    4b30:	18e020ef          	jal	ra,6cbe <RCC_LSICmd>
    4b34:	4501                	li	a0,0
    4b36:	2ed5                	jal	4f2a <flush_rgb>
    4b38:	06400513          	li	a0,100
    4b3c:	6f8000ef          	jal	ra,5234 <Delay_Us>
    4b40:	06100513          	li	a0,97
    4b44:	2d4020ef          	jal	ra,6e18 <RCC_GetFlagStatus>
    4b48:	4785                	li	a5,1
    4b4a:	cd19                	beqz	a0,4b68 <set_pwr_mode_stop+0x44>
    4b4c:	4505                	li	a0,1
    4b4e:	706000ef          	jal	ra,5254 <Delay_Ms>
    4b52:	4589                	li	a1,2
    4b54:	4505                	li	a0,1
    4b56:	080020ef          	jal	ra,6bd6 <PWR_EnterSTOPMode>
    4b5a:	4505                	li	a0,1
    4b5c:	6f8000ef          	jal	ra,5254 <Delay_Ms>
    4b60:	4501                	li	a0,0
    4b62:	ef7ff0ef          	jal	ra,4a58 <setup_exti>
    4b66:	4781                	li	a5,0
    4b68:	853e                	mv	a0,a5
    4b6a:	e2afb06f          	j	194 <__riscv_restore_0>

00004b6e <ring_buffer_init>:
    4b6e:	04000793          	li	a5,64
    4b72:	02c7ee63          	bltu	a5,a2,4bae <ring_buffer_init+0x40>
    4b76:	de0fb2ef          	jal	t0,156 <__riscv_save_4>
    4b7a:	842a                	mv	s0,a0
    4b7c:	4505                	li	a0,1
    4b7e:	c415                	beqz	s0,4baa <ring_buffer_init+0x3c>
    4b80:	892e                	mv	s2,a1
    4b82:	c585                	beqz	a1,4baa <ring_buffer_init+0x3c>
    4b84:	84b2                	mv	s1,a2
    4b86:	4581                	li	a1,0
    4b88:	08c00613          	li	a2,140
    4b8c:	00440513          	addi	a0,s0,4
    4b90:	89b6                	mv	s3,a3
    4b92:	e24fb0ef          	jal	ra,1b6 <memset>
    4b96:	4785                	li	a5,1
    4b98:	01242023          	sw	s2,0(s0)
    4b9c:	08940323          	sb	s1,134(s0)
    4ba0:	08f40223          	sb	a5,132(s0)
    4ba4:	093406a3          	sb	s3,141(s0)
    4ba8:	4501                	li	a0,0
    4baa:	de0fb06f          	j	18a <__riscv_restore_4>
    4bae:	0ff00513          	li	a0,255
    4bb2:	8082                	ret

00004bb4 <ring_buffer_push>:
    4bb4:	da2fb2ef          	jal	t0,156 <__riscv_save_4>
    4bb8:	0ff00493          	li	s1,255
    4bbc:	c159                	beqz	a0,4c42 <ring_buffer_push+0x8e>
    4bbe:	c1d1                	beqz	a1,4c42 <ring_buffer_push+0x8e>
    4bc0:	411c                	lw	a5,0(a0)
    4bc2:	842a                	mv	s0,a0
    4bc4:	cfbd                	beqz	a5,4c42 <ring_buffer_push+0x8e>
    4bc6:	08c54483          	lbu	s1,140(a0)
    4bca:	ecbd                	bnez	s1,4c48 <ring_buffer_push+0x94>
    4bcc:	08654703          	lbu	a4,134(a0)
    4bd0:	08852783          	lw	a5,136(a0)
    4bd4:	06e7da63          	bge	a5,a4,4c48 <ring_buffer_push+0x94>
    4bd8:	08d54783          	lbu	a5,141(a0)
    4bdc:	89b6                	mv	s3,a3
    4bde:	0ff7f913          	zext.b	s2,a5
    4be2:	00f67463          	bgeu	a2,a5,4bea <ring_buffer_push+0x36>
    4be6:	0ff67913          	zext.b	s2,a2
    4bea:	08840793          	addi	a5,s0,136
    4bee:	4705                	li	a4,1
    4bf0:	00e7a72f          	amoadd.w	a4,a4,(a5)
    4bf4:	08842783          	lw	a5,136(s0)
    4bf8:	08544783          	lbu	a5,133(s0)
    4bfc:	08644703          	lbu	a4,134(s0)
    4c00:	0785                	addi	a5,a5,1 # 4001 <ns_subcommand_set_indicate_led+0xd>
    4c02:	0ff7f793          	zext.b	a5,a5
    4c06:	00e7e363          	bltu	a5,a4,4c0c <ring_buffer_push+0x58>
    4c0a:	4781                	li	a5,0
    4c0c:	08d44503          	lbu	a0,141(s0)
    4c10:	08f402a3          	sb	a5,133(s0)
    4c14:	864a                	mv	a2,s2
    4c16:	02f507b3          	mul	a5,a0,a5
    4c1a:	4008                	lw	a0,0(s0)
    4c1c:	953e                	add	a0,a0,a5
    4c1e:	d82fb0ef          	jal	ra,1a0 <memcpy>
    4c22:	08544783          	lbu	a5,133(s0)
    4c26:	97a2                	add	a5,a5,s0
    4c28:	01278223          	sb	s2,4(a5)
    4c2c:	05378223          	sb	s3,68(a5)
    4c30:	08644783          	lbu	a5,134(s0)
    4c34:	08842703          	lw	a4,136(s0)
    4c38:	00f74563          	blt	a4,a5,4c42 <ring_buffer_push+0x8e>
    4c3c:	4785                	li	a5,1
    4c3e:	08f40623          	sb	a5,140(s0)
    4c42:	8526                	mv	a0,s1
    4c44:	d46fb06f          	j	18a <__riscv_restore_4>
    4c48:	4485                	li	s1,1
    4c4a:	bfe5                	j	4c42 <ring_buffer_push+0x8e>

00004c4c <ring_buffer_pop>:
    4c4c:	87aa                	mv	a5,a0
    4c4e:	c921                	beqz	a0,4c9e <ring_buffer_pop+0x52>
    4c50:	4118                	lw	a4,0(a0)
    4c52:	0ff00513          	li	a0,255
    4c56:	c731                	beqz	a4,4ca2 <ring_buffer_pop+0x56>
    4c58:	0887a703          	lw	a4,136(a5)
    4c5c:	4501                	li	a0,0
    4c5e:	c331                	beqz	a4,4ca2 <ring_buffer_pop+0x56>
    4c60:	08878713          	addi	a4,a5,136
    4c64:	56fd                	li	a3,-1
    4c66:	00d726af          	amoadd.w	a3,a3,(a4)
    4c6a:	0887a703          	lw	a4,136(a5)
    4c6e:	0847c703          	lbu	a4,132(a5)
    4c72:	0867c683          	lbu	a3,134(a5)
    4c76:	0705                	addi	a4,a4,1
    4c78:	0ff77713          	zext.b	a4,a4
    4c7c:	00d76363          	bltu	a4,a3,4c82 <ring_buffer_pop+0x36>
    4c80:	4701                	li	a4,0
    4c82:	08e78223          	sb	a4,132(a5)
    4c86:	08c7c703          	lbu	a4,140(a5)
    4c8a:	cb09                	beqz	a4,4c9c <ring_buffer_pop+0x50>
    4c8c:	0887a703          	lw	a4,136(a5)
    4c90:	00d726b3          	slt	a3,a4,a3
    4c94:	0016c693          	xori	a3,a3,1
    4c98:	08d78623          	sb	a3,140(a5)
    4c9c:	8082                	ret
    4c9e:	0ff00513          	li	a0,255
    4ca2:	8082                	ret

00004ca4 <SPI_FullDuplex_Init>:
    4ca4:	cccfb2ef          	jal	t0,170 <__riscv_save_0>
    4ca8:	6505                	lui	a0,0x1
    4caa:	1101                	addi	sp,sp,-32
    4cac:	4585                	li	a1,1
    4cae:	0511                	addi	a0,a0,4 # 1004 <_flash_write+0x6>
    4cb0:	c002                	sw	zero,0(sp)
    4cb2:	c202                	sw	zero,4(sp)
    4cb4:	c402                	sw	zero,8(sp)
    4cb6:	c602                	sw	zero,12(sp)
    4cb8:	c802                	sw	zero,16(sp)
    4cba:	ca02                	sw	zero,20(sp)
    4cbc:	cc02                	sw	zero,24(sp)
    4cbe:	00011e23          	sh	zero,28(sp)
    4cc2:	0de020ef          	jal	ra,6da0 <RCC_APB2PeriphClockCmd>
    4cc6:	08000793          	li	a5,128
    4cca:	00f11023          	sh	a5,0(sp)
    4cce:	40011537          	lui	a0,0x40011
    4cd2:	47e1                	li	a5,24
    4cd4:	c43e                	sw	a5,8(sp)
    4cd6:	858a                	mv	a1,sp
    4cd8:	478d                	li	a5,3
    4cda:	80050513          	addi	a0,a0,-2048 # 40010800 <_eusrstack+0x2000b800>
    4cde:	c23e                	sw	a5,4(sp)
    4ce0:	2f5010ef          	jal	ra,67d4 <GPIO_Init>
    4ce4:	0104c7b7          	lui	a5,0x104c
    4ce8:	c63e                	sw	a5,12(sp)
    4cea:	020007b7          	lui	a5,0x2000
    4cee:	ca3e                	sw	a5,20(sp)
    4cf0:	02000793          	li	a5,32
    4cf4:	cc3e                	sw	a5,24(sp)
    4cf6:	006c                	addi	a1,sp,12
    4cf8:	479d                	li	a5,7
    4cfa:	40013537          	lui	a0,0x40013
    4cfe:	00f11e23          	sh	a5,28(sp)
    4d02:	c802                	sw	zero,16(sp)
    4d04:	142020ef          	jal	ra,6e46 <SPI_Init>
    4d08:	4605                	li	a2,1
    4d0a:	4589                	li	a1,2
    4d0c:	40013537          	lui	a0,0x40013
    4d10:	1ae020ef          	jal	ra,6ebe <SPI_I2S_DMACmd>
    4d14:	6105                	addi	sp,sp,32
    4d16:	c7efb06f          	j	194 <__riscv_restore_0>

00004d1a <spi_DMA_Tx_Init>:
    4d1a:	c3cfb2ef          	jal	t0,156 <__riscv_save_4>
    4d1e:	7179                	addi	sp,sp,-48
    4d20:	842a                	mv	s0,a0
    4d22:	89ae                	mv	s3,a1
    4d24:	8932                	mv	s2,a2
    4d26:	4581                	li	a1,0
    4d28:	02c00613          	li	a2,44
    4d2c:	0048                	addi	a0,sp,4
    4d2e:	84b6                	mv	s1,a3
    4d30:	c86fb0ef          	jal	ra,1b6 <memset>
    4d34:	4585                	li	a1,1
    4d36:	4505                	li	a0,1
    4d38:	04a020ef          	jal	ra,6d82 <RCC_AHBPeriphClockCmd>
    4d3c:	8522                	mv	a0,s0
    4d3e:	60a010ef          	jal	ra,6348 <DMA_DeInit>
    4d42:	47c1                	li	a5,16
    4d44:	c63e                	sw	a5,12(sp)
    4d46:	08000793          	li	a5,128
    4d4a:	cc3e                	sw	a5,24(sp)
    4d4c:	10000793          	li	a5,256
    4d50:	ce3e                	sw	a5,28(sp)
    4d52:	004c                	addi	a1,sp,4
    4d54:	6785                	lui	a5,0x1
    4d56:	8522                	mv	a0,s0
    4d58:	c24e                	sw	s3,4(sp)
    4d5a:	c44a                	sw	s2,8(sp)
    4d5c:	c826                	sw	s1,16(sp)
    4d5e:	d43e                	sw	a5,40(sp)
    4d60:	ca02                	sw	zero,20(sp)
    4d62:	d002                	sw	zero,32(sp)
    4d64:	d202                	sw	zero,36(sp)
    4d66:	d602                	sw	zero,44(sp)
    4d68:	6c0010ef          	jal	ra,6428 <DMA_Init>
    4d6c:	6145                	addi	sp,sp,48
    4d6e:	c1cfb06f          	j	18a <__riscv_restore_4>

00004d72 <rgb_spi_pkg_gen>:
    4d72:	010006b7          	lui	a3,0x1000
    4d76:	1141                	addi	sp,sp,-16
    4d78:	4701                	li	a4,0
    4d7a:	4781                	li	a5,0
    4d7c:	81018593          	addi	a1,gp,-2032 # 200018b8 <spi_rgb_trans>
    4d80:	16fd                	addi	a3,a3,-1 # ffffff <_data_lma+0xff441b>
    4d82:	4861                	li	a6,24
    4d84:	00157613          	andi	a2,a0,1
    4d88:	962e                	add	a2,a2,a1
    4d8a:	00064603          	lbu	a2,0(a2)
    4d8e:	8105                	srli	a0,a0,0x1
    4d90:	00e61633          	sll	a2,a2,a4
    4d94:	8fd1                	or	a5,a5,a2
    4d96:	070d                	addi	a4,a4,3
    4d98:	8ff5                	and	a5,a5,a3
    4d9a:	ff0715e3          	bne	a4,a6,4d84 <rgb_spi_pkg_gen+0x12>
    4d9e:	01079513          	slli	a0,a5,0x10
    4da2:	8141                	srli	a0,a0,0x10
    4da4:	9aa19c23          	sh	a0,-1608(gp) # 20001a60 <p.1>
    4da8:	83c1                	srli	a5,a5,0x10
    4daa:	0ff57513          	zext.b	a0,a0
    4dae:	9b818693          	addi	a3,gp,-1608 # 20001a60 <p.1>
    4db2:	00a68123          	sb	a0,2(a3)
    4db6:	9af18c23          	sb	a5,-1608(gp) # 20001a60 <p.1>
    4dba:	9b81d783          	lhu	a5,-1608(gp) # 20001a60 <p.1>
    4dbe:	0542                	slli	a0,a0,0x10
    4dc0:	8d5d                	or	a0,a0,a5
    4dc2:	0141                	addi	sp,sp,16
    4dc4:	8082                	ret

00004dc6 <set_led_rgb>:
    4dc6:	b90fb2ef          	jal	t0,156 <__riscv_save_4>
    4dca:	4a8d                	li	s5,3
    4dcc:	035504b3          	mul	s1,a0,s5
    4dd0:	20003437          	lui	s0,0x20003
    4dd4:	8532                	mv	a0,a2
    4dd6:	7bc40413          	addi	s0,s0,1980 # 200037bc <spi_tx_buf>
    4dda:	8a2e                	mv	s4,a1
    4ddc:	89b6                	mv	s3,a3
    4dde:	f95ff0ef          	jal	ra,4d72 <rgb_spi_pkg_gen>
    4de2:	00855793          	srli	a5,a0,0x8
    4de6:	00548913          	addi	s2,s1,5
    4dea:	03590933          	mul	s2,s2,s5
    4dee:	9922                	add	s2,s2,s0
    4df0:	00a90023          	sb	a0,0(s2)
    4df4:	8141                	srli	a0,a0,0x10
    4df6:	00f900a3          	sb	a5,1(s2)
    4dfa:	00a90123          	sb	a0,2(s2)
    4dfe:	00648913          	addi	s2,s1,6
    4e02:	03590933          	mul	s2,s2,s5
    4e06:	049d                	addi	s1,s1,7
    4e08:	8552                	mv	a0,s4
    4e0a:	f69ff0ef          	jal	ra,4d72 <rgb_spi_pkg_gen>
    4e0e:	00855793          	srli	a5,a0,0x8
    4e12:	035484b3          	mul	s1,s1,s5
    4e16:	9922                	add	s2,s2,s0
    4e18:	00a90023          	sb	a0,0(s2)
    4e1c:	8141                	srli	a0,a0,0x10
    4e1e:	00a90123          	sb	a0,2(s2)
    4e22:	854e                	mv	a0,s3
    4e24:	00f900a3          	sb	a5,1(s2)
    4e28:	f4bff0ef          	jal	ra,4d72 <rgb_spi_pkg_gen>
    4e2c:	00855793          	srli	a5,a0,0x8
    4e30:	9426                	add	s0,s0,s1
    4e32:	00a40023          	sb	a0,0(s0)
    4e36:	8141                	srli	a0,a0,0x10
    4e38:	00f400a3          	sb	a5,1(s0)
    4e3c:	00a40123          	sb	a0,2(s0)
    4e40:	b4afb06f          	j	18a <__riscv_restore_4>

00004e44 <flush_spi_tx_seq>:
    4e44:	b12fb2ef          	jal	t0,156 <__riscv_save_4>
    4e48:	892a                	mv	s2,a0
    4e4a:	20003537          	lui	a0,0x20003
    4e4e:	12300613          	li	a2,291
    4e52:	4581                	li	a1,0
    4e54:	7bc50513          	addi	a0,a0,1980 # 200037bc <spi_tx_buf>
    4e58:	20003437          	lui	s0,0x20003
    4e5c:	b5afb0ef          	jal	ra,1b6 <memset>
    4e60:	4981                	li	s3,0
    4e62:	4481                	li	s1,0
    4e64:	92c40413          	addi	s0,s0,-1748 # 2000292c <user_config>
    4e68:	4a0d                	li	s4,3
    4e6a:	02344783          	lbu	a5,35(s0)
    4e6e:	06f4cc63          	blt	s1,a5,4ee6 <flush_spi_tx_seq+0xa2>
    4e72:	06090863          	beqz	s2,4ee2 <flush_spi_tx_seq+0x9e>
    4e76:	200037b7          	lui	a5,0x20003
    4e7a:	7967c683          	lbu	a3,1942(a5) # 20003796 <connection_state+0x2>
    4e7e:	fc800793          	li	a5,-56
    4e82:	4511                	li	a0,4
    4e84:	02f686b3          	mul	a3,a3,a5
    4e88:	0ff6f693          	zext.b	a3,a3
    4e8c:	8636                	mv	a2,a3
    4e8e:	85b6                	mv	a1,a3
    4e90:	f37ff0ef          	jal	ra,4dc6 <set_led_rgb>
    4e94:	00044403          	lbu	s0,0(s0)
    4e98:	0c800693          	li	a3,200
    4e9c:	01841793          	slli	a5,s0,0x18
    4ea0:	87e1                	srai	a5,a5,0x18
    4ea2:	0007d363          	bgez	a5,4ea8 <flush_spi_tx_seq+0x64>
    4ea6:	4681                	li	a3,0
    4ea8:	8636                	mv	a2,a3
    4eaa:	85b6                	mv	a1,a3
    4eac:	4515                	li	a0,5
    4eae:	f19ff0ef          	jal	ra,4dc6 <set_led_rgb>
    4eb2:	02047413          	andi	s0,s0,32
    4eb6:	4681                	li	a3,0
    4eb8:	e019                	bnez	s0,4ebe <flush_spi_tx_seq+0x7a>
    4eba:	0c800693          	li	a3,200
    4ebe:	8636                	mv	a2,a3
    4ec0:	85b6                	mv	a1,a3
    4ec2:	4519                	li	a0,6
    4ec4:	f03ff0ef          	jal	ra,4dc6 <set_led_rgb>
    4ec8:	9b51c683          	lbu	a3,-1611(gp) # 20001a5d <force_esp32_active>
    4ecc:	fc800793          	li	a5,-56
    4ed0:	451d                	li	a0,7
    4ed2:	02f686b3          	mul	a3,a3,a5
    4ed6:	0ff6f693          	zext.b	a3,a3
    4eda:	8636                	mv	a2,a3
    4edc:	85b6                	mv	a1,a3
    4ede:	ee9ff0ef          	jal	ra,4dc6 <set_led_rgb>
    4ee2:	aa8fb06f          	j	18a <__riscv_restore_4>
    4ee6:	00044783          	lbu	a5,0(s0)
    4eea:	0ff4f513          	zext.b	a0,s1
    4eee:	8b89                	andi	a5,a5,2
    4ef0:	e399                	bnez	a5,4ef6 <flush_spi_tx_seq+0xb2>
    4ef2:	00091963          	bnez	s2,4f04 <flush_spi_tx_seq+0xc0>
    4ef6:	4681                	li	a3,0
    4ef8:	4601                	li	a2,0
    4efa:	4581                	li	a1,0
    4efc:	ecbff0ef          	jal	ra,4dc6 <set_led_rgb>
    4f00:	0485                	addi	s1,s1,1
    4f02:	b7a5                	j	4e6a <flush_spi_tx_seq+0x26>
    4f04:	034987b3          	mul	a5,s3,s4
    4f08:	97a2                	add	a5,a5,s0
    4f0a:	0267c683          	lbu	a3,38(a5)
    4f0e:	0257c603          	lbu	a2,37(a5)
    4f12:	0247c583          	lbu	a1,36(a5)
    4f16:	eb1ff0ef          	jal	ra,4dc6 <set_led_rgb>
    4f1a:	ffc48793          	addi	a5,s1,-4
    4f1e:	0047b793          	sltiu	a5,a5,4
    4f22:	0017c793          	xori	a5,a5,1
    4f26:	99be                	add	s3,s3,a5
    4f28:	bfe1                	j	4f00 <flush_spi_tx_seq+0xbc>

00004f2a <flush_rgb>:
    4f2a:	a46fb2ef          	jal	t0,170 <__riscv_save_0>
    4f2e:	f17ff0ef          	jal	ra,4e44 <flush_spi_tx_seq>
    4f32:	40020537          	lui	a0,0x40020
    4f36:	200037b7          	lui	a5,0x20003
    4f3a:	03050513          	addi	a0,a0,48 # 40020030 <_eusrstack+0x2001b030>
    4f3e:	7bc78793          	addi	a5,a5,1980 # 200037bc <spi_tx_buf>
    4f42:	c55c                	sw	a5,12(a0)
    4f44:	200037b7          	lui	a5,0x20003
    4f48:	94f7c783          	lbu	a5,-1713(a5) # 2000294f <user_config+0x23>
    4f4c:	470d                	li	a4,3
    4f4e:	4585                	li	a1,1
    4f50:	02e787b3          	mul	a5,a5,a4
    4f54:	07a9                	addi	a5,a5,10
    4f56:	02e787b3          	mul	a5,a5,a4
    4f5a:	c15c                	sw	a5,4(a0)
    4f5c:	504010ef          	jal	ra,6460 <DMA_Cmd>
    4f60:	4585                	li	a1,1
    4f62:	40013537          	lui	a0,0x40013
    4f66:	73b010ef          	jal	ra,6ea0 <SPI_Cmd>
    4f6a:	a2afb06f          	j	194 <__riscv_restore_0>

00004f6e <spi_init>:
    4f6e:	a02fb2ef          	jal	t0,170 <__riscv_save_0>
    4f72:	d33ff0ef          	jal	ra,4ca4 <SPI_FullDuplex_Init>
    4f76:	200037b7          	lui	a5,0x20003
    4f7a:	94f7c783          	lbu	a5,-1713(a5) # 2000294f <user_config+0x23>
    4f7e:	470d                	li	a4,3
    4f80:	468d                	li	a3,3
    4f82:	02e787b3          	mul	a5,a5,a4
    4f86:	20003637          	lui	a2,0x20003
    4f8a:	400135b7          	lui	a1,0x40013
    4f8e:	40020537          	lui	a0,0x40020
    4f92:	7bc60613          	addi	a2,a2,1980 # 200037bc <spi_tx_buf>
    4f96:	05b1                	addi	a1,a1,12 # 4001300c <_eusrstack+0x2000e00c>
    4f98:	03050513          	addi	a0,a0,48 # 40020030 <_eusrstack+0x2001b030>
    4f9c:	07a9                	addi	a5,a5,10
    4f9e:	02d786b3          	mul	a3,a5,a3
    4fa2:	d79ff0ef          	jal	ra,4d1a <spi_DMA_Tx_Init>
    4fa6:	4505                	li	a0,1
    4fa8:	f83ff0ef          	jal	ra,4f2a <flush_rgb>
    4fac:	4501                	li	a0,0
    4fae:	9e6fb06f          	j	194 <__riscv_restore_0>

00004fb2 <DMA1_Channel3_IRQHandler>:
    4fb2:	20000513          	li	a0,512
    4fb6:	500010ef          	jal	ra,64b6 <DMA_GetITStatus>
    4fba:	c10d                	beqz	a0,4fdc <DMA1_Channel3_IRQHandler+0x2a>
    4fbc:	10000513          	li	a0,256
    4fc0:	4fa010ef          	jal	ra,64ba <DMA_ClearITPendingBit>
    4fc4:	40020537          	lui	a0,0x40020
    4fc8:	4581                	li	a1,0
    4fca:	03050513          	addi	a0,a0,48 # 40020030 <_eusrstack+0x2001b030>
    4fce:	492010ef          	jal	ra,6460 <DMA_Cmd>
    4fd2:	4581                	li	a1,0
    4fd4:	40013537          	lui	a0,0x40013
    4fd8:	6c9010ef          	jal	ra,6ea0 <SPI_Cmd>
    4fdc:	30200073          	mret

00004fe0 <SetSysClockTo72_HSI>:
    4fe0:	400247b7          	lui	a5,0x40024
    4fe4:	80078793          	addi	a5,a5,-2048 # 40023800 <_eusrstack+0x2001e800>
    4fe8:	4398                	lw	a4,0(a5)
    4fea:	ffc106b7          	lui	a3,0xffc10
    4fee:	16fd                	addi	a3,a3,-1 # ffc0ffff <_eusrstack+0xdfc0afff>
    4ff0:	01076713          	ori	a4,a4,16
    4ff4:	c398                	sw	a4,0(a5)
    4ff6:	400227b7          	lui	a5,0x40022
    4ffa:	4398                	lw	a4,0(a5)
    4ffc:	01076713          	ori	a4,a4,16
    5000:	c398                	sw	a4,0(a5)
    5002:	4398                	lw	a4,0(a5)
    5004:	9b71                	andi	a4,a4,-4
    5006:	c398                	sw	a4,0(a5)
    5008:	4398                	lw	a4,0(a5)
    500a:	00276713          	ori	a4,a4,2
    500e:	c398                	sw	a4,0(a5)
    5010:	400217b7          	lui	a5,0x40021
    5014:	43d8                	lw	a4,4(a5)
    5016:	c3d8                	sw	a4,4(a5)
    5018:	43d8                	lw	a4,4(a5)
    501a:	c3d8                	sw	a4,4(a5)
    501c:	43d8                	lw	a4,4(a5)
    501e:	40076713          	ori	a4,a4,1024
    5022:	c3d8                	sw	a4,4(a5)
    5024:	43d8                	lw	a4,4(a5)
    5026:	8f75                	and	a4,a4,a3
    5028:	c3d8                	sw	a4,4(a5)
    502a:	43d8                	lw	a4,4(a5)
    502c:	001c06b7          	lui	a3,0x1c0
    5030:	8f55                	or	a4,a4,a3
    5032:	c3d8                	sw	a4,4(a5)
    5034:	4398                	lw	a4,0(a5)
    5036:	010006b7          	lui	a3,0x1000
    503a:	8f55                	or	a4,a4,a3
    503c:	c398                	sw	a4,0(a5)
    503e:	020006b7          	lui	a3,0x2000
    5042:	4398                	lw	a4,0(a5)
    5044:	8f75                	and	a4,a4,a3
    5046:	df75                	beqz	a4,5042 <SetSysClockTo72_HSI+0x62>
    5048:	43d8                	lw	a4,4(a5)
    504a:	400216b7          	lui	a3,0x40021
    504e:	9b71                	andi	a4,a4,-4
    5050:	c3d8                	sw	a4,4(a5)
    5052:	43d8                	lw	a4,4(a5)
    5054:	00276713          	ori	a4,a4,2
    5058:	c3d8                	sw	a4,4(a5)
    505a:	4721                	li	a4,8
    505c:	42dc                	lw	a5,4(a3)
    505e:	8bb1                	andi	a5,a5,12
    5060:	fee79ee3          	bne	a5,a4,505c <SetSysClockTo72_HSI+0x7c>
    5064:	8082                	ret

00005066 <SystemInit>:
    5066:	400217b7          	lui	a5,0x40021
    506a:	4398                	lw	a4,0(a5)
    506c:	f8ff06b7          	lui	a3,0xf8ff0
    5070:	00176713          	ori	a4,a4,1
    5074:	c398                	sw	a4,0(a5)
    5076:	43d8                	lw	a4,4(a5)
    5078:	8f75                	and	a4,a4,a3
    507a:	c3d8                	sw	a4,4(a5)
    507c:	4398                	lw	a4,0(a5)
    507e:	fef706b7          	lui	a3,0xfef70
    5082:	16fd                	addi	a3,a3,-1 # fef6ffff <_eusrstack+0xdef6afff>
    5084:	8f75                	and	a4,a4,a3
    5086:	c398                	sw	a4,0(a5)
    5088:	4398                	lw	a4,0(a5)
    508a:	fffc06b7          	lui	a3,0xfffc0
    508e:	16fd                	addi	a3,a3,-1 # fffbffff <_eusrstack+0xdffbafff>
    5090:	8f75                	and	a4,a4,a3
    5092:	c398                	sw	a4,0(a5)
    5094:	43d8                	lw	a4,4(a5)
    5096:	ff8106b7          	lui	a3,0xff810
    509a:	16fd                	addi	a3,a3,-1 # ff80ffff <_eusrstack+0xdf80afff>
    509c:	8f75                	and	a4,a4,a3
    509e:	c3d8                	sw	a4,4(a5)
    50a0:	009f0737          	lui	a4,0x9f0
    50a4:	c798                	sw	a4,8(a5)
    50a6:	f3bff06f          	j	4fe0 <SetSysClockTo72_HSI>

000050aa <SystemCoreClockUpdate>:
    50aa:	40021737          	lui	a4,0x40021
    50ae:	435c                	lw	a5,4(a4)
    50b0:	46a1                	li	a3,8
    50b2:	8bb1                	andi	a5,a5,12
    50b4:	06d79163          	bne	a5,a3,5116 <SystemCoreClockUpdate+0x6c>
    50b8:	435c                	lw	a5,4(a4)
    50ba:	4354                	lw	a3,4(a4)
    50bc:	6641                	lui	a2,0x10
    50be:	83c9                	srli	a5,a5,0x12
    50c0:	8bbd                	andi	a5,a5,15
    50c2:	8ef1                	and	a3,a3,a2
    50c4:	0789                	addi	a5,a5,2 # 40021002 <_eusrstack+0x2001c002>
    50c6:	ee81                	bnez	a3,50de <SystemCoreClockUpdate+0x34>
    50c8:	40024737          	lui	a4,0x40024
    50cc:	80072703          	lw	a4,-2048(a4) # 40023800 <_eusrstack+0x2001e800>
    50d0:	8b41                	andi	a4,a4,16
    50d2:	cb19                	beqz	a4,50e8 <SystemCoreClockUpdate+0x3e>
    50d4:	007a1737          	lui	a4,0x7a1
    50d8:	20070713          	addi	a4,a4,512 # 7a1200 <_data_lma+0x79561c>
    50dc:	a811                	j	50f0 <SystemCoreClockUpdate+0x46>
    50de:	4358                	lw	a4,4(a4)
    50e0:	000206b7          	lui	a3,0x20
    50e4:	8f75                	and	a4,a4,a3
    50e6:	d77d                	beqz	a4,50d4 <SystemCoreClockUpdate+0x2a>
    50e8:	003d1737          	lui	a4,0x3d1
    50ec:	90070713          	addi	a4,a4,-1792 # 3d0900 <_data_lma+0x3c4d1c>
    50f0:	02e787b3          	mul	a5,a5,a4
    50f4:	40021737          	lui	a4,0x40021
    50f8:	4354                	lw	a3,4(a4)
    50fa:	20001737          	lui	a4,0x20001
    50fe:	7f870713          	addi	a4,a4,2040 # 200017f8 <AHBPrescTable>
    5102:	8291                	srli	a3,a3,0x4
    5104:	8abd                	andi	a3,a3,15
    5106:	9736                	add	a4,a4,a3
    5108:	00074703          	lbu	a4,0(a4)
    510c:	00e7d7b3          	srl	a5,a5,a4
    5110:	80f1aa23          	sw	a5,-2028(gp) # 200018bc <SystemCoreClock>
    5114:	8082                	ret
    5116:	007a17b7          	lui	a5,0x7a1
    511a:	20078793          	addi	a5,a5,512 # 7a1200 <_data_lma+0x79561c>
    511e:	bfd9                	j	50f4 <SystemCoreClockUpdate+0x4a>

00005120 <SetSysClock>:
    5120:	ec1ff06f          	j	4fe0 <SetSysClockTo72_HSI>

00005124 <TIM2_IRQHandler>:
    5124:	4585                	li	a1,1
    5126:	40000537          	lui	a0,0x40000
    512a:	0b0020ef          	jal	ra,71da <TIM_GetFlagStatus>
    512e:	4785                	li	a5,1
    5130:	00f51c63          	bne	a0,a5,5148 <TIM2_IRQHandler+0x24>
    5134:	9c41a783          	lw	a5,-1596(gp) # 20001a6c <Systick_MS>
    5138:	4585                	li	a1,1
    513a:	40000537          	lui	a0,0x40000
    513e:	0785                	addi	a5,a5,1
    5140:	9cf1a223          	sw	a5,-1596(gp) # 20001a6c <Systick_MS>
    5144:	0be020ef          	jal	ra,7202 <TIM_ClearITPendingBit>
    5148:	30200073          	mret

0000514c <_systick_init>:
    514c:	824fb2ef          	jal	t0,170 <__riscv_save_0>
    5150:	1101                	addi	sp,sp,-32
    5152:	04700793          	li	a5,71
    5156:	ca3e                	sw	a5,20(sp)
    5158:	084c                	addi	a1,sp,20
    515a:	3e700793          	li	a5,999
    515e:	40000537          	lui	a0,0x40000
    5162:	cc3e                	sw	a5,24(sp)
    5164:	571010ef          	jal	ra,6ed4 <TIM_TimeBaseInit>
    5168:	4605                	li	a2,1
    516a:	4585                	li	a1,1
    516c:	40000537          	lui	a0,0x40000
    5170:	7c7010ef          	jal	ra,7136 <TIM_ITConfig>
    5174:	4585                	li	a1,1
    5176:	40000537          	lui	a0,0x40000
    517a:	78b010ef          	jal	ra,7104 <TIM_Cmd>
    517e:	12c00793          	li	a5,300
    5182:	00f11623          	sh	a5,12(sp)
    5186:	0068                	addi	a0,sp,12
    5188:	4785                	li	a5,1
    518a:	00f10723          	sb	a5,14(sp)
    518e:	c83e                	sw	a5,16(sp)
    5190:	1b5010ef          	jal	ra,6b44 <NVIC_Init>
    5194:	6795                	lui	a5,0x5
    5196:	e000e737          	lui	a4,0xe000e
    519a:	12478793          	addi	a5,a5,292 # 5124 <TIM2_IRQHandler>
    519e:	c37c                	sw	a5,68(a4)
    51a0:	07b2                	slli	a5,a5,0xc
    51a2:	2c0006b7          	lui	a3,0x2c000
    51a6:	83b1                	srli	a5,a5,0xc
    51a8:	8fd5                	or	a5,a5,a3
    51aa:	d37c                	sw	a5,100(a4)
    51ac:	6105                	addi	sp,sp,32
    51ae:	fe7fa06f          	j	194 <__riscv_restore_0>

000051b2 <SysTick_Init>:
    51b2:	9bc1a703          	lw	a4,-1604(gp) # 20001a64 <inited.0>
    51b6:	e711                	bnez	a4,51c2 <SysTick_Init+0x10>
    51b8:	4705                	li	a4,1
    51ba:	9ae1ae23          	sw	a4,-1604(gp) # 20001a64 <inited.0>
    51be:	f8fff06f          	j	514c <_systick_init>
    51c2:	8082                	ret

000051c4 <Get_Systick_US>:
    51c4:	9c41a783          	lw	a5,-1596(gp) # 20001a6c <Systick_MS>
    51c8:	3e800713          	li	a4,1000
    51cc:	02e787b3          	mul	a5,a5,a4
    51d0:	40000737          	lui	a4,0x40000
    51d4:	02475503          	lhu	a0,36(a4) # 40000024 <_eusrstack+0x1fffb024>
    51d8:	953e                	add	a0,a0,a5
    51da:	8082                	ret

000051dc <Get_Systick_MS>:
    51dc:	9c41a503          	lw	a0,-1596(gp) # 20001a6c <Systick_MS>
    51e0:	8082                	ret

000051e2 <HighPrecisionTimer_Init>:
    51e2:	8141a783          	lw	a5,-2028(gp) # 200018bc <SystemCoreClock>
    51e6:	007a1737          	lui	a4,0x7a1
    51ea:	20070713          	addi	a4,a4,512 # 7a1200 <_data_lma+0x79561c>
    51ee:	02e7d7b3          	divu	a5,a5,a4
    51f2:	9cf18023          	sb	a5,-1600(gp) # 20001a68 <p_us>
    51f6:	8082                	ret

000051f8 <wait_nonblocking_us>:
    51f8:	e519                	bnez	a0,5206 <wait_nonblocking_us+0xe>
    51fa:	4501                	li	a0,0
    51fc:	8082                	ret
    51fe:	4501                	li	a0,0
    5200:	0141                	addi	sp,sp,16
    5202:	f93fa06f          	j	194 <__riscv_restore_0>
    5206:	f6bfa2ef          	jal	t0,170 <__riscv_save_0>
    520a:	1141                	addi	sp,sp,-16
    520c:	842a                	mv	s0,a0
    520e:	84ae                	mv	s1,a1
    5210:	8932                	mv	s2,a2
    5212:	fb3ff0ef          	jal	ra,51c4 <Get_Systick_US>
    5216:	c62a                	sw	a0,12(sp)
    5218:	8526                	mv	a0,s1
    521a:	9402                	jalr	s0
    521c:	f16d                	bnez	a0,51fe <wait_nonblocking_us+0x6>
    521e:	fa7ff0ef          	jal	ra,51c4 <Get_Systick_US>
    5222:	47b2                	lw	a5,12(sp)
    5224:	8d1d                	sub	a0,a0,a5
    5226:	fea979e3          	bgeu	s2,a0,5218 <wait_nonblocking_us+0x20>
    522a:	8526                	mv	a0,s1
    522c:	9402                	jalr	s0
    522e:	00153513          	seqz	a0,a0
    5232:	b7f9                	j	5200 <wait_nonblocking_us+0x8>

00005234 <Delay_Us>:
    5234:	f3dfa2ef          	jal	t0,170 <__riscv_save_0>
    5238:	1141                	addi	sp,sp,-16
    523a:	842a                	mv	s0,a0
    523c:	f89ff0ef          	jal	ra,51c4 <Get_Systick_US>
    5240:	c62a                	sw	a0,12(sp)
    5242:	f83ff0ef          	jal	ra,51c4 <Get_Systick_US>
    5246:	47b2                	lw	a5,12(sp)
    5248:	8d1d                	sub	a0,a0,a5
    524a:	fea47ce3          	bgeu	s0,a0,5242 <Delay_Us+0xe>
    524e:	0141                	addi	sp,sp,16
    5250:	f45fa06f          	j	194 <__riscv_restore_0>

00005254 <Delay_Ms>:
    5254:	9c41a783          	lw	a5,-1596(gp) # 20001a6c <Systick_MS>
    5258:	1141                	addi	sp,sp,-16
    525a:	c63e                	sw	a5,12(sp)
    525c:	9c41a783          	lw	a5,-1596(gp) # 20001a6c <Systick_MS>
    5260:	46b2                	lw	a3,12(sp)
    5262:	8f95                	sub	a5,a5,a3
    5264:	fef57ce3          	bgeu	a0,a5,525c <Delay_Ms+0x8>
    5268:	0141                	addi	sp,sp,16
    526a:	8082                	ret

0000526c <decode_uart_pkt.part.0>:
    526c:	00254603          	lbu	a2,2(a0) # 40000002 <_eusrstack+0x1fffb002>
    5270:	00350693          	addi	a3,a0,3
    5274:	4701                	li	a4,0
    5276:	07f67613          	andi	a2,a2,127
    527a:	459d                	li	a1,7
    527c:	0006c803          	lbu	a6,0(a3) # 2c000000 <_eusrstack+0xbffb000>
    5280:	40e657b3          	sra	a5,a2,a4
    5284:	079e                	slli	a5,a5,0x7
    5286:	0107e7b3          	or	a5,a5,a6
    528a:	00f68023          	sb	a5,0(a3)
    528e:	0705                	addi	a4,a4,1
    5290:	0685                	addi	a3,a3,1
    5292:	feb715e3          	bne	a4,a1,527c <decode_uart_pkt.part.0+0x10>
    5296:	00154783          	lbu	a5,1(a0)
    529a:	00a54703          	lbu	a4,10(a0)
    529e:	8395                	srli	a5,a5,0x5
    52a0:	8b8d                	andi	a5,a5,3
    52a2:	00779693          	slli	a3,a5,0x7
    52a6:	8f55                	or	a4,a4,a3
    52a8:	00e50523          	sb	a4,10(a0)
    52ac:	00b54703          	lbu	a4,11(a0)
    52b0:	079a                	slli	a5,a5,0x6
    52b2:	f807f793          	andi	a5,a5,-128
    52b6:	8fd9                	or	a5,a5,a4
    52b8:	00f505a3          	sb	a5,11(a0)
    52bc:	8082                	ret

000052be <UART1_DMA_Init>:
    52be:	eb3fa2ef          	jal	t0,170 <__riscv_save_0>
    52c2:	7179                	addi	sp,sp,-48
    52c4:	02c00613          	li	a2,44
    52c8:	4581                	li	a1,0
    52ca:	0048                	addi	a0,sp,4
    52cc:	eebfa0ef          	jal	ra,1b6 <memset>
    52d0:	40020437          	lui	s0,0x40020
    52d4:	4581                	li	a1,0
    52d6:	04440513          	addi	a0,s0,68 # 40020044 <_eusrstack+0x2001b044>
    52da:	186010ef          	jal	ra,6460 <DMA_Cmd>
    52de:	04440513          	addi	a0,s0,68
    52e2:	066010ef          	jal	ra,6348 <DMA_DeInit>
    52e6:	400144b7          	lui	s1,0x40014
    52ea:	80448793          	addi	a5,s1,-2044 # 40013804 <_eusrstack+0x2000e804>
    52ee:	c23e                	sw	a5,4(sp)
    52f0:	47c1                	li	a5,16
    52f2:	c63e                	sw	a5,12(sp)
    52f4:	08000793          	li	a5,128
    52f8:	cc3e                	sw	a5,24(sp)
    52fa:	004c                	addi	a1,sp,4
    52fc:	6785                	lui	a5,0x1
    52fe:	04440513          	addi	a0,s0,68
    5302:	d43e                	sw	a5,40(sp)
    5304:	c402                	sw	zero,8(sp)
    5306:	c802                	sw	zero,16(sp)
    5308:	ca02                	sw	zero,20(sp)
    530a:	ce02                	sw	zero,28(sp)
    530c:	d002                	sw	zero,32(sp)
    530e:	d202                	sw	zero,36(sp)
    5310:	d602                	sw	zero,44(sp)
    5312:	116010ef          	jal	ra,6428 <DMA_Init>
    5316:	4581                	li	a1,0
    5318:	05840513          	addi	a0,s0,88
    531c:	144010ef          	jal	ra,6460 <DMA_Cmd>
    5320:	05840513          	addi	a0,s0,88
    5324:	024010ef          	jal	ra,6348 <DMA_DeInit>
    5328:	200047b7          	lui	a5,0x20004
    532c:	0a078793          	addi	a5,a5,160 # 200040a0 <UART1_RxBuffer>
    5330:	c43e                	sw	a5,8(sp)
    5332:	18000793          	li	a5,384
    5336:	c83e                	sw	a5,16(sp)
    5338:	02000793          	li	a5,32
    533c:	d23e                	sw	a5,36(sp)
    533e:	004c                	addi	a1,sp,4
    5340:	6789                	lui	a5,0x2
    5342:	05840513          	addi	a0,s0,88
    5346:	d43e                	sw	a5,40(sp)
    5348:	c602                	sw	zero,12(sp)
    534a:	0de010ef          	jal	ra,6428 <DMA_Init>
    534e:	05840513          	addi	a0,s0,88
    5352:	4585                	li	a1,1
    5354:	10c010ef          	jal	ra,6460 <DMA_Cmd>
    5358:	4605                	li	a2,1
    535a:	04000593          	li	a1,64
    535e:	80048513          	addi	a0,s1,-2048
    5362:	76d010ef          	jal	ra,72ce <USART_DMACmd>
    5366:	6145                	addi	sp,sp,48
    5368:	e2dfa06f          	j	194 <__riscv_restore_0>

0000536c <UART1_Init>:
    536c:	e05fa2ef          	jal	t0,170 <__riscv_save_0>
    5370:	1101                	addi	sp,sp,-32
    5372:	4585                	li	a1,1
    5374:	4511                	li	a0,4
    5376:	c202                	sw	zero,4(sp)
    5378:	c402                	sw	zero,8(sp)
    537a:	c602                	sw	zero,12(sp)
    537c:	c802                	sw	zero,16(sp)
    537e:	ca02                	sw	zero,20(sp)
    5380:	cc02                	sw	zero,24(sp)
    5382:	ce02                	sw	zero,28(sp)
    5384:	21d010ef          	jal	ra,6da0 <RCC_APB2PeriphClockCmd>
    5388:	4585                	li	a1,1
    538a:	6511                	lui	a0,0x4
    538c:	215010ef          	jal	ra,6da0 <RCC_APB2PeriphClockCmd>
    5390:	20000793          	li	a5,512
    5394:	00f11223          	sh	a5,4(sp)
    5398:	40011437          	lui	s0,0x40011
    539c:	478d                	li	a5,3
    539e:	c43e                	sw	a5,8(sp)
    53a0:	004c                	addi	a1,sp,4
    53a2:	47e1                	li	a5,24
    53a4:	80040513          	addi	a0,s0,-2048 # 40010800 <_eusrstack+0x2000b800>
    53a8:	c63e                	sw	a5,12(sp)
    53aa:	42a010ef          	jal	ra,67d4 <GPIO_Init>
    53ae:	40000793          	li	a5,1024
    53b2:	00f11223          	sh	a5,4(sp)
    53b6:	004c                	addi	a1,sp,4
    53b8:	04800793          	li	a5,72
    53bc:	80040513          	addi	a0,s0,-2048
    53c0:	c63e                	sw	a5,12(sp)
    53c2:	412010ef          	jal	ra,67d4 <GPIO_Init>
    53c6:	002dc7b7          	lui	a5,0x2dc
    53ca:	40014437          	lui	s0,0x40014
    53ce:	6c078793          	addi	a5,a5,1728 # 2dc6c0 <_data_lma+0x2d0adc>
    53d2:	c83e                	sw	a5,16(sp)
    53d4:	080c                	addi	a1,sp,16
    53d6:	000c07b7          	lui	a5,0xc0
    53da:	80040513          	addi	a0,s0,-2048 # 40013800 <_eusrstack+0x2000e800>
    53de:	cc3e                	sw	a5,24(sp)
    53e0:	ca02                	sw	zero,20(sp)
    53e2:	00011e23          	sh	zero,28(sp)
    53e6:	62b010ef          	jal	ra,7210 <USART_Init>
    53ea:	80040513          	addi	a0,s0,-2048
    53ee:	04000593          	li	a1,64
    53f2:	6ff010ef          	jal	ra,72f0 <USART_ClearFlag>
    53f6:	80040513          	addi	a0,s0,-2048
    53fa:	4585                	li	a1,1
    53fc:	6bb010ef          	jal	ra,72b6 <USART_Cmd>
    5400:	200045b7          	lui	a1,0x20004
    5404:	20004537          	lui	a0,0x20004
    5408:	46b5                	li	a3,13
    540a:	04000613          	li	a2,64
    540e:	d6058593          	addi	a1,a1,-672 # 20003d60 <uart_rx_rb_buf>
    5412:	99050513          	addi	a0,a0,-1648 # 20003990 <uart_rx_rb>
    5416:	f58ff0ef          	jal	ra,4b6e <ring_buffer_init>
    541a:	200045b7          	lui	a1,0x20004
    541e:	20004537          	lui	a0,0x20004
    5422:	46b5                	li	a3,13
    5424:	04000613          	li	a2,64
    5428:	a2058593          	addi	a1,a1,-1504 # 20003a20 <uart_tx_rb_buf>
    542c:	90050513          	addi	a0,a0,-1792 # 20003900 <uart_tx_rb>
    5430:	f3eff0ef          	jal	ra,4b6e <ring_buffer_init>
    5434:	6105                	addi	sp,sp,32
    5436:	d5ffa06f          	j	194 <__riscv_restore_0>

0000543a <UART1_DMA_Tx>:
    543a:	d1dfa2ef          	jal	t0,156 <__riscv_save_4>
    543e:	400149b7          	lui	s3,0x40014
    5442:	892a                	mv	s2,a0
    5444:	84ae                	mv	s1,a1
    5446:	80098513          	addi	a0,s3,-2048 # 40013800 <_eusrstack+0x2000e800>
    544a:	04000593          	li	a1,64
    544e:	40020437          	lui	s0,0x40020
    5452:	69f010ef          	jal	ra,72f0 <USART_ClearFlag>
    5456:	04440513          	addi	a0,s0,68 # 40020044 <_eusrstack+0x2001b044>
    545a:	4581                	li	a1,0
    545c:	004010ef          	jal	ra,6460 <DMA_Cmd>
    5460:	05242823          	sw	s2,80(s0)
    5464:	04440513          	addi	a0,s0,68
    5468:	c144                	sw	s1,4(a0)
    546a:	4585                	li	a1,1
    546c:	7f5000ef          	jal	ra,6460 <DMA_Cmd>
    5470:	4605                	li	a2,1
    5472:	08000593          	li	a1,128
    5476:	80098513          	addi	a0,s3,-2048
    547a:	655010ef          	jal	ra,72ce <USART_DMACmd>
    547e:	d0dfa06f          	j	18a <__riscv_restore_4>

00005482 <UART1_Tx_Service>:
    5482:	ceffa2ef          	jal	t0,170 <__riscv_save_0>
    5486:	9d21c783          	lbu	a5,-1582(gp) # 20001a7a <UART1_Tx_Flag>
    548a:	cb9d                	beqz	a5,54c0 <UART1_Tx_Service+0x3e>
    548c:	400144b7          	lui	s1,0x40014
    5490:	04000593          	li	a1,64
    5494:	80048513          	addi	a0,s1,-2048 # 40013800 <_eusrstack+0x2000e800>
    5498:	64d010ef          	jal	ra,72e4 <USART_GetFlagStatus>
    549c:	c105                	beqz	a0,54bc <UART1_Tx_Service+0x3a>
    549e:	04000593          	li	a1,64
    54a2:	80048513          	addi	a0,s1,-2048
    54a6:	64b010ef          	jal	ra,72f0 <USART_ClearFlag>
    54aa:	4601                	li	a2,0
    54ac:	08000593          	li	a1,128
    54b0:	80048513          	addi	a0,s1,-2048
    54b4:	61b010ef          	jal	ra,72ce <USART_DMACmd>
    54b8:	9c018923          	sb	zero,-1582(gp) # 20001a7a <UART1_Tx_Flag>
    54bc:	cd9fa06f          	j	194 <__riscv_restore_0>
    54c0:	200047b7          	lui	a5,0x20004
    54c4:	90078713          	addi	a4,a5,-1792 # 20003900 <uart_tx_rb>
    54c8:	08872583          	lw	a1,136(a4)
    54cc:	90078793          	addi	a5,a5,-1792
    54d0:	d5f5                	beqz	a1,54bc <UART1_Tx_Service+0x3a>
    54d2:	0847c603          	lbu	a2,132(a5)
    54d6:	4535                	li	a0,13
    54d8:	0857c803          	lbu	a6,133(a5)
    54dc:	02a60533          	mul	a0,a2,a0
    54e0:	20004737          	lui	a4,0x20004
    54e4:	a2070713          	addi	a4,a4,-1504 # 20003a20 <uart_tx_rb_buf>
    54e8:	0867c683          	lbu	a3,134(a5)
    54ec:	953a                	add	a0,a0,a4
    54ee:	00180713          	addi	a4,a6,1
    54f2:	02c87763          	bgeu	a6,a2,5520 <UART1_Tx_Service+0x9e>
    54f6:	8e91                	sub	a3,a3,a2
    54f8:	01069593          	slli	a1,a3,0x10
    54fc:	81c1                	srli	a1,a1,0x10
    54fe:	08e7a423          	sw	a4,136(a5)
    5502:	08078223          	sb	zero,132(a5)
    5506:	08078623          	sb	zero,140(a5)
    550a:	47b5                	li	a5,13
    550c:	02f585b3          	mul	a1,a1,a5
    5510:	05c2                	slli	a1,a1,0x10
    5512:	81c1                	srli	a1,a1,0x10
    5514:	f27ff0ef          	jal	ra,543a <UART1_DMA_Tx>
    5518:	4785                	li	a5,1
    551a:	9cf18923          	sb	a5,-1582(gp) # 20001a7a <UART1_Tx_Flag>
    551e:	bf79                	j	54bc <UART1_Tx_Service+0x3a>
    5520:	05c2                	slli	a1,a1,0x10
    5522:	0ff77713          	zext.b	a4,a4
    5526:	81c1                	srli	a1,a1,0x10
    5528:	00d76363          	bltu	a4,a3,552e <UART1_Tx_Service+0xac>
    552c:	4701                	li	a4,0
    552e:	08e78223          	sb	a4,132(a5)
    5532:	0807a423          	sw	zero,136(a5)
    5536:	bfc1                	j	5506 <UART1_Tx_Service+0x84>

00005538 <encode_uart_pkt>:
    5538:	c555                	beqz	a0,55e4 <encode_uart_pkt+0xac>
    553a:	4701                	li	a4,0
    553c:	4781                	li	a5,0
    553e:	461d                	li	a2,7
    5540:	00f506b3          	add	a3,a0,a5
    5544:	0036c683          	lbu	a3,3(a3)
    5548:	0077c593          	xori	a1,a5,7
    554c:	0785                	addi	a5,a5,1
    554e:	0806f693          	andi	a3,a3,128
    5552:	40b6d6b3          	sra	a3,a3,a1
    5556:	8f55                	or	a4,a4,a3
    5558:	07f77713          	andi	a4,a4,127
    555c:	fec792e3          	bne	a5,a2,5540 <encode_uart_pkt+0x8>
    5560:	00254783          	lbu	a5,2(a0)
    5564:	00c50693          	addi	a3,a0,12
    5568:	f807f793          	andi	a5,a5,-128
    556c:	8fd9                	or	a5,a5,a4
    556e:	00f50123          	sb	a5,2(a0)
    5572:	00b54783          	lbu	a5,11(a0)
    5576:	00a54703          	lbu	a4,10(a0)
    557a:	8799                	srai	a5,a5,0x6
    557c:	831d                	srli	a4,a4,0x7
    557e:	8b89                	andi	a5,a5,2
    5580:	8fd9                	or	a5,a5,a4
    5582:	00154703          	lbu	a4,1(a0)
    5586:	0796                	slli	a5,a5,0x5
    5588:	f9f77713          	andi	a4,a4,-97
    558c:	8fd9                	or	a5,a5,a4
    558e:	00f500a3          	sb	a5,1(a0)
    5592:	00350793          	addi	a5,a0,3
    5596:	0007c703          	lbu	a4,0(a5)
    559a:	0785                	addi	a5,a5,1
    559c:	07f77713          	andi	a4,a4,127
    55a0:	fee78fa3          	sb	a4,-1(a5)
    55a4:	fef699e3          	bne	a3,a5,5596 <encode_uart_pkt+0x5e>
    55a8:	00054783          	lbu	a5,0(a0)
    55ac:	4705                	li	a4,1
    55ae:	46b1                	li	a3,12
    55b0:	07f7f793          	andi	a5,a5,127
    55b4:	00e50633          	add	a2,a0,a4
    55b8:	00064603          	lbu	a2,0(a2) # 10000 <_data_lma+0x441c>
    55bc:	0705                	addi	a4,a4,1
    55be:	8fb1                	xor	a5,a5,a2
    55c0:	07f7f793          	andi	a5,a5,127
    55c4:	fed718e3          	bne	a4,a3,55b4 <encode_uart_pkt+0x7c>
    55c8:	00154703          	lbu	a4,1(a0)
    55cc:	00f50623          	sb	a5,12(a0)
    55d0:	07f77713          	andi	a4,a4,127
    55d4:	00e500a3          	sb	a4,1(a0)
    55d8:	00254703          	lbu	a4,2(a0)
    55dc:	07f77713          	andi	a4,a4,127
    55e0:	00e50123          	sb	a4,2(a0)
    55e4:	8082                	ret

000055e6 <check_uart_pkt>:
    55e6:	c51d                	beqz	a0,5614 <check_uart_pkt+0x2e>
    55e8:	00054783          	lbu	a5,0(a0)
    55ec:	4705                	li	a4,1
    55ee:	46b1                	li	a3,12
    55f0:	07f7f793          	andi	a5,a5,127
    55f4:	00e50633          	add	a2,a0,a4
    55f8:	00064603          	lbu	a2,0(a2)
    55fc:	0705                	addi	a4,a4,1
    55fe:	8fb1                	xor	a5,a5,a2
    5600:	fed71ae3          	bne	a4,a3,55f4 <check_uart_pkt+0xe>
    5604:	00c54503          	lbu	a0,12(a0)
    5608:	07f57513          	andi	a0,a0,127
    560c:	8d1d                	sub	a0,a0,a5
    560e:	00a03533          	snez	a0,a0
    5612:	8082                	ret
    5614:	0ff00513          	li	a0,255
    5618:	8082                	ret

0000561a <UART1_Rx_Service>:
    561a:	b2ffa2ef          	jal	t0,148 <__riscv_save_10>
    561e:	40020537          	lui	a0,0x40020
    5622:	05850513          	addi	a0,a0,88 # 40020058 <_eusrstack+0x2001b058>
    5626:	64f000ef          	jal	ra,6474 <DMA_GetCurrDataCounter>
    562a:	9ca19823          	sh	a0,-1584(gp) # 20001a78 <UART1_RX_CurCnt>
    562e:	9ce1d603          	lhu	a2,-1586(gp) # 20001a76 <UART1_RX_LastCnt>
    5632:	9d01d783          	lhu	a5,-1584(gp) # 20001a78 <UART1_RX_CurCnt>
    5636:	04f60063          	beq	a2,a5,5676 <UART1_Rx_Service+0x5c>
    563a:	9ce1d603          	lhu	a2,-1586(gp) # 20001a76 <UART1_RX_LastCnt>
    563e:	9d01d783          	lhu	a5,-1584(gp) # 20001a78 <UART1_RX_CurCnt>
    5642:	04c7ff63          	bgeu	a5,a2,56a0 <UART1_Rx_Service+0x86>
    5646:	9ce1d783          	lhu	a5,-1586(gp) # 20001a76 <UART1_RX_LastCnt>
    564a:	9d01d603          	lhu	a2,-1584(gp) # 20001a78 <UART1_RX_CurCnt>
    564e:	9d01d703          	lhu	a4,-1584(gp) # 20001a78 <UART1_RX_CurCnt>
    5652:	8f91                	sub	a5,a5,a2
    5654:	07c2                	slli	a5,a5,0x10
    5656:	0742                	slli	a4,a4,0x10
    5658:	8341                	srli	a4,a4,0x10
    565a:	9ce19723          	sh	a4,-1586(gp) # 20001a76 <UART1_RX_LastCnt>
    565e:	9cc1d703          	lhu	a4,-1588(gp) # 20001a74 <UART1_Rx_RemainLen>
    5662:	83c1                	srli	a5,a5,0x10
    5664:	18000693          	li	a3,384
    5668:	973e                	add	a4,a4,a5
    566a:	04e6d263          	bge	a3,a4,56ae <UART1_Rx_Service+0x94>
    566e:	9cd19623          	sh	a3,-1588(gp) # 20001a74 <UART1_Rx_RemainLen>
    5672:	9c019a23          	sh	zero,-1580(gp) # 20001a7c <UART1_TimeOut>
    5676:	200049b7          	lui	s3,0x20004
    567a:	20004ab7          	lui	s5,0x20004
    567e:	08100913          	li	s2,129
    5682:	0a098993          	addi	s3,s3,160 # 200040a0 <UART1_RxBuffer>
    5686:	8f0a8b13          	addi	s6,s5,-1808 # 200038f0 <rx_filter_buf>
    568a:	4b85                	li	s7,1
    568c:	9cc1d783          	lhu	a5,-1588(gp) # 20001a74 <UART1_Rx_RemainLen>
    5690:	c791                	beqz	a5,569c <UART1_Rx_Service+0x82>
    5692:	197d                	addi	s2,s2,-1
    5694:	0ff97913          	zext.b	s2,s2
    5698:	02091363          	bnez	s2,56be <UART1_Rx_Service+0xa4>
    569c:	ae5fa06f          	j	180 <__riscv_restore_10>
    56a0:	9ce1d783          	lhu	a5,-1586(gp) # 20001a76 <UART1_RX_LastCnt>
    56a4:	9d01d603          	lhu	a2,-1584(gp) # 20001a78 <UART1_RX_CurCnt>
    56a8:	18078793          	addi	a5,a5,384
    56ac:	b74d                	j	564e <UART1_Rx_Service+0x34>
    56ae:	9cc1d703          	lhu	a4,-1588(gp) # 20001a74 <UART1_Rx_RemainLen>
    56b2:	97ba                	add	a5,a5,a4
    56b4:	07c2                	slli	a5,a5,0x10
    56b6:	83c1                	srli	a5,a5,0x10
    56b8:	9cf19623          	sh	a5,-1588(gp) # 20001a74 <UART1_Rx_RemainLen>
    56bc:	bf5d                	j	5672 <UART1_Rx_Service+0x58>
    56be:	9ca1d783          	lhu	a5,-1590(gp) # 20001a72 <UART1_Rx_Deal_Ptr>
    56c2:	97ce                	add	a5,a5,s3
    56c4:	00078783          	lb	a5,0(a5)
    56c8:	0407d263          	bgez	a5,570c <UART1_Rx_Service+0xf2>
    56cc:	9ca1d783          	lhu	a5,-1590(gp) # 20001a72 <UART1_Rx_Deal_Ptr>
    56d0:	9d718423          	sb	s7,-1592(gp) # 20001a70 <rx_ptr>
    56d4:	97ce                	add	a5,a5,s3
    56d6:	0007c783          	lbu	a5,0(a5)
    56da:	00fb0023          	sb	a5,0(s6)
    56de:	9cc1d783          	lhu	a5,-1588(gp) # 20001a74 <UART1_Rx_RemainLen>
    56e2:	17fd                	addi	a5,a5,-1
    56e4:	07c2                	slli	a5,a5,0x10
    56e6:	83c1                	srli	a5,a5,0x10
    56e8:	9cf19623          	sh	a5,-1588(gp) # 20001a74 <UART1_Rx_RemainLen>
    56ec:	9ca1d783          	lhu	a5,-1590(gp) # 20001a72 <UART1_Rx_Deal_Ptr>
    56f0:	0785                	addi	a5,a5,1
    56f2:	07c2                	slli	a5,a5,0x10
    56f4:	83c1                	srli	a5,a5,0x10
    56f6:	9cf19523          	sh	a5,-1590(gp) # 20001a72 <UART1_Rx_Deal_Ptr>
    56fa:	9ca1d703          	lhu	a4,-1590(gp) # 20001a72 <UART1_Rx_Deal_Ptr>
    56fe:	17f00793          	li	a5,383
    5702:	f8e7f5e3          	bgeu	a5,a4,568c <UART1_Rx_Service+0x72>
    5706:	9c019523          	sh	zero,-1590(gp) # 20001a72 <UART1_Rx_Deal_Ptr>
    570a:	b749                	j	568c <UART1_Rx_Service+0x72>
    570c:	9c818783          	lb	a5,-1592(gp) # 20001a70 <rx_ptr>
    5710:	04f05863          	blez	a5,5760 <UART1_Rx_Service+0x146>
    5714:	9ca1d683          	lhu	a3,-1590(gp) # 20001a72 <UART1_Rx_Deal_Ptr>
    5718:	00178713          	addi	a4,a5,1
    571c:	0762                	slli	a4,a4,0x18
    571e:	96ce                	add	a3,a3,s3
    5720:	0006c683          	lbu	a3,0(a3)
    5724:	97da                	add	a5,a5,s6
    5726:	8761                	srai	a4,a4,0x18
    5728:	00d78023          	sb	a3,0(a5)
    572c:	9ce18423          	sb	a4,-1592(gp) # 20001a70 <rx_ptr>
    5730:	47b1                	li	a5,12
    5732:	fae7d6e3          	bge	a5,a4,56de <UART1_Rx_Service+0xc4>
    5736:	855a                	mv	a0,s6
    5738:	9c018423          	sb	zero,-1592(gp) # 20001a70 <rx_ptr>
    573c:	eabff0ef          	jal	ra,55e6 <check_uart_pkt>
    5740:	fd59                	bnez	a0,56de <UART1_Rx_Service+0xc4>
    5742:	8f0a8513          	addi	a0,s5,-1808
    5746:	b27ff0ef          	jal	ra,526c <decode_uart_pkt.part.0>
    574a:	20004537          	lui	a0,0x20004
    574e:	4681                	li	a3,0
    5750:	4635                	li	a2,13
    5752:	8f0a8593          	addi	a1,s5,-1808
    5756:	99050513          	addi	a0,a0,-1648 # 20003990 <uart_rx_rb>
    575a:	c5aff0ef          	jal	ra,4bb4 <ring_buffer_push>
    575e:	b741                	j	56de <UART1_Rx_Service+0xc4>
    5760:	9c018423          	sb	zero,-1592(gp) # 20001a70 <rx_ptr>
    5764:	bfad                	j	56de <UART1_Rx_Service+0xc4>

00005766 <send_uart_pkt>:
    5766:	c139                	beqz	a0,57ac <send_uart_pkt+0x46>
    5768:	a09fa2ef          	jal	t0,170 <__riscv_save_0>
    576c:	20004437          	lui	s0,0x20004
    5770:	85aa                	mv	a1,a0
    5772:	4635                	li	a2,13
    5774:	8e040513          	addi	a0,s0,-1824 # 200038e0 <send_buf>
    5778:	a29fa0ef          	jal	ra,1a0 <memcpy>
    577c:	8e040513          	addi	a0,s0,-1824
    5780:	db9ff0ef          	jal	ra,5538 <encode_uart_pkt>
    5784:	8e040493          	addi	s1,s0,-1824
    5788:	0004c783          	lbu	a5,0(s1)
    578c:	20004537          	lui	a0,0x20004
    5790:	4681                	li	a3,0
    5792:	f807e793          	ori	a5,a5,-128
    5796:	4635                	li	a2,13
    5798:	8e040593          	addi	a1,s0,-1824
    579c:	90050513          	addi	a0,a0,-1792 # 20003900 <uart_tx_rb>
    57a0:	00f48023          	sb	a5,0(s1)
    57a4:	c10ff0ef          	jal	ra,4bb4 <ring_buffer_push>
    57a8:	9edfa06f          	j	194 <__riscv_restore_0>
    57ac:	0fe00513          	li	a0,254
    57b0:	8082                	ret

000057b2 <uart_conf_write>:
    57b2:	9a5fa2ef          	jal	t0,156 <__riscv_save_4>
    57b6:	00c55793          	srli	a5,a0,0xc
    57ba:	6685                	lui	a3,0x1
    57bc:	80068693          	addi	a3,a3,-2048 # 800 <USBFS_IRQHandler+0x43a>
    57c0:	07f7f793          	andi	a5,a5,127
    57c4:	8fd5                	or	a5,a5,a3
    57c6:	6689                	lui	a3,0x2
    57c8:	20004737          	lui	a4,0x20004
    57cc:	f7f68693          	addi	a3,a3,-129 # 1f7f <push_waveform_into_buffer_task+0x7d>
    57d0:	8ff5                	and	a5,a5,a3
    57d2:	22075683          	lhu	a3,544(a4) # 20004220 <pkt>
    57d6:	89b2                	mv	s3,a2
    57d8:	7679                	lui	a2,0xffffe
    57da:	08060613          	addi	a2,a2,128 # ffffe080 <_eusrstack+0xdfff9080>
    57de:	8ef1                	and	a3,a3,a2
    57e0:	8fd5                	or	a5,a5,a3
    57e2:	892a                	mv	s2,a0
    57e4:	8a2e                	mv	s4,a1
    57e6:	22f71023          	sh	a5,544(a4)
    57ea:	4481                	li	s1,0
    57ec:	22070413          	addi	s0,a4,544
    57f0:	20004ab7          	lui	s5,0x20004
    57f4:	009a05b3          	add	a1,s4,s1
    57f8:	0134c463          	blt	s1,s3,5800 <uart_conf_write+0x4e>
    57fc:	98ffa06f          	j	18a <__riscv_restore_4>
    5800:	009907b3          	add	a5,s2,s1
    5804:	4621                	li	a2,8
    5806:	224a8513          	addi	a0,s5,548 # 20004224 <pkt+0x4>
    580a:	00f401a3          	sb	a5,3(s0)
    580e:	993fa0ef          	jal	ra,1a0 <memcpy>
    5812:	8522                	mv	a0,s0
    5814:	f53ff0ef          	jal	ra,5766 <send_uart_pkt>
    5818:	04a1                	addi	s1,s1,8
    581a:	bfe9                	j	57f4 <uart_conf_write+0x42>

0000581c <send_input_with_uart>:
    581c:	955fa2ef          	jal	t0,170 <__riscv_save_0>
    5820:	20004437          	lui	s0,0x20004
    5824:	22040513          	addi	a0,s0,544 # 20004220 <pkt>
    5828:	200045b7          	lui	a1,0x20004
    582c:	10100793          	li	a5,257
    5830:	00052023          	sw	zero,0(a0)
    5834:	4625                	li	a2,9
    5836:	27058593          	addi	a1,a1,624 # 20004270 <global_input_data>
    583a:	00052223          	sw	zero,4(a0)
    583e:	00052423          	sw	zero,8(a0)
    5842:	00050623          	sb	zero,12(a0)
    5846:	050d                	addi	a0,a0,3
    5848:	22f41023          	sh	a5,544(s0)
    584c:	955fa0ef          	jal	ra,1a0 <memcpy>
    5850:	22040513          	addi	a0,s0,544
    5854:	f13ff0ef          	jal	ra,5766 <send_uart_pkt>
    5858:	93dfa06f          	j	194 <__riscv_restore_0>

0000585c <start_connect>:
    585c:	8c41a783          	lw	a5,-1852(gp) # 2000196c <sts_button>
    5860:	c7a5                	beqz	a5,58c8 <start_connect+0x6c>
    5862:	90ffa2ef          	jal	t0,170 <__riscv_save_0>
    5866:	20003437          	lui	s0,0x20003
    586a:	79440793          	addi	a5,s0,1940 # 20003794 <connection_state>
    586e:	0057c783          	lbu	a5,5(a5)
    5872:	79440413          	addi	s0,s0,1940
    5876:	e7b9                	bnez	a5,58c4 <start_connect+0x68>
    5878:	965ff0ef          	jal	ra,51dc <Get_Systick_MS>
    587c:	7d000793          	li	a5,2000
    5880:	04a7f263          	bgeu	a5,a0,58c4 <start_connect+0x68>
    5884:	00044783          	lbu	a5,0(s0)
    5888:	c799                	beqz	a5,5896 <start_connect+0x3a>
    588a:	00344783          	lbu	a5,3(s0)
    588e:	00144703          	lbu	a4,1(s0)
    5892:	8fd9                	or	a5,a5,a4
    5894:	c781                	beqz	a5,589c <start_connect+0x40>
    5896:	00244783          	lbu	a5,2(s0)
    589a:	e78d                	bnez	a5,58c4 <start_connect+0x68>
    589c:	20004537          	lui	a0,0x20004
    58a0:	22052783          	lw	a5,544(a0) # 20004220 <pkt>
    58a4:	00ffe737          	lui	a4,0xffe
    58a8:	08070713          	addi	a4,a4,128 # ffe080 <_data_lma+0xff249c>
    58ac:	8ff9                	and	a5,a5,a4
    58ae:	01000737          	lui	a4,0x1000
    58b2:	30070713          	addi	a4,a4,768 # 1000300 <_data_lma+0xff471c>
    58b6:	8fd9                	or	a5,a5,a4
    58b8:	22f52023          	sw	a5,544(a0)
    58bc:	22050513          	addi	a0,a0,544
    58c0:	ea7ff0ef          	jal	ra,5766 <send_uart_pkt>
    58c4:	8d1fa06f          	j	194 <__riscv_restore_0>
    58c8:	8082                	ret

000058ca <wake_esp32>:
    58ca:	8a7fa2ef          	jal	t0,170 <__riscv_save_0>
    58ce:	20004437          	lui	s0,0x20004
    58d2:	22045783          	lhu	a5,544(s0) # 20004220 <pkt>
    58d6:	7779                	lui	a4,0xffffe
    58d8:	08070713          	addi	a4,a4,128 # ffffe080 <_eusrstack+0xdfff9080>
    58dc:	8ff9                	and	a5,a5,a4
    58de:	20004537          	lui	a0,0x20004
    58e2:	6017e793          	ori	a5,a5,1537
    58e6:	4625                	li	a2,9
    58e8:	55fd                	li	a1,-1
    58ea:	22350513          	addi	a0,a0,547 # 20004223 <pkt+0x3>
    58ee:	22f41023          	sh	a5,544(s0)
    58f2:	8c5fa0ef          	jal	ra,1b6 <memset>
    58f6:	22040513          	addi	a0,s0,544
    58fa:	e6dff0ef          	jal	ra,5766 <send_uart_pkt>
    58fe:	897fa06f          	j	194 <__riscv_restore_0>

00005902 <recv_esp32_connect_control>:
    5902:	200045b7          	lui	a1,0x20004
    5906:	22058793          	addi	a5,a1,544 # 20004220 <pkt>
    590a:	439c                	lw	a5,0(a5)
    590c:	473d                	li	a4,15
    590e:	07f7f793          	andi	a5,a5,127
    5912:	0cf76863          	bltu	a4,a5,59e2 <recv_esp32_connect_control+0xe0>
    5916:	85bfa2ef          	jal	t0,170 <__riscv_save_0>
    591a:	672d                	lui	a4,0xb
    591c:	078a                	slli	a5,a5,0x2
    591e:	78470713          	addi	a4,a4,1924 # b784 <_read+0xea>
    5922:	97ba                	add	a5,a5,a4
    5924:	439c                	lw	a5,0(a5)
    5926:	22058593          	addi	a1,a1,544
    592a:	8782                	jr	a5
    592c:	20003437          	lui	s0,0x20003
    5930:	79440413          	addi	s0,s0,1940 # 20003794 <connection_state>
    5934:	4619                	li	a2,6
    5936:	058d                	addi	a1,a1,3
    5938:	00640513          	addi	a0,s0,6
    593c:	865fa0ef          	jal	ra,1a0 <memcpy>
    5940:	4785                	li	a5,1
    5942:	00f40923          	sb	a5,18(s0)
    5946:	84ffa06f          	j	194 <__riscv_restore_0>
    594a:	87ae                	mv	a5,a1
    594c:	00958693          	addi	a3,a1,9
    5950:	0037c703          	lbu	a4,3(a5)
    5954:	0785                	addi	a5,a5,1
    5956:	faa74713          	xori	a4,a4,-86
    595a:	00e78123          	sb	a4,2(a5)
    595e:	fed799e3          	bne	a5,a3,5950 <recv_esp32_connect_control+0x4e>
    5962:	20003537          	lui	a0,0x20003
    5966:	4625                	li	a2,9
    5968:	058d                	addi	a1,a1,3
    596a:	7a850513          	addi	a0,a0,1960 # 200037a8 <connection_state+0x14>
    596e:	833fa0ef          	jal	ra,1a0 <memcpy>
    5972:	bfd1                	j	5946 <recv_esp32_connect_control+0x44>
    5974:	00758713          	addi	a4,a1,7
    5978:	0035c783          	lbu	a5,3(a1)
    597c:	0585                	addi	a1,a1,1
    597e:	faa7c793          	xori	a5,a5,-86
    5982:	00f58123          	sb	a5,2(a1)
    5986:	fee599e3          	bne	a1,a4,5978 <recv_esp32_connect_control+0x76>
    598a:	200045b7          	lui	a1,0x20004
    598e:	20003537          	lui	a0,0x20003
    5992:	461d                	li	a2,7
    5994:	22358593          	addi	a1,a1,547 # 20004223 <pkt+0x3>
    5998:	7b150513          	addi	a0,a0,1969 # 200037b1 <connection_state+0x1d>
    599c:	805fa0ef          	jal	ra,1a0 <memcpy>
    59a0:	200037b7          	lui	a5,0x20003
    59a4:	4705                	li	a4,1
    59a6:	7ae78c23          	sb	a4,1976(a5) # 200037b8 <connection_state+0x24>
    59aa:	bf71                	j	5946 <recv_esp32_connect_control+0x44>
    59ac:	200037b7          	lui	a5,0x20003
    59b0:	79478793          	addi	a5,a5,1940 # 20003794 <connection_state>
    59b4:	0017c503          	lbu	a0,1(a5)
    59b8:	0035c703          	lbu	a4,3(a1)
    59bc:	00153513          	seqz	a0,a0
    59c0:	00e78123          	sb	a4,2(a5)
    59c4:	d66ff0ef          	jal	ra,4f2a <flush_rgb>
    59c8:	bfbd                	j	5946 <recv_esp32_connect_control+0x44>
    59ca:	200037b7          	lui	a5,0x20003
    59ce:	7a0783a3          	sb	zero,1959(a5) # 200037a7 <connection_state+0x13>
    59d2:	bf95                	j	5946 <recv_esp32_connect_control+0x44>
    59d4:	0035c703          	lbu	a4,3(a1)
    59d8:	200037b7          	lui	a5,0x20003
    59dc:	78e78ba3          	sb	a4,1943(a5) # 20003797 <connection_state+0x3>
    59e0:	b79d                	j	5946 <recv_esp32_connect_control+0x44>
    59e2:	8082                	ret

000059e4 <recv_rumble_frame>:
    59e4:	200047b7          	lui	a5,0x20004
    59e8:	2207a783          	lw	a5,544(a5) # 20004220 <pkt>
    59ec:	07f7f793          	andi	a5,a5,127
    59f0:	eb99                	bnez	a5,5a06 <recv_rumble_frame+0x22>
    59f2:	200045b7          	lui	a1,0x20004
    59f6:	20004537          	lui	a0,0x20004
    59fa:	22758593          	addi	a1,a1,551 # 20004227 <pkt+0x7>
    59fe:	22350513          	addi	a0,a0,547 # 20004223 <pkt+0x3>
    5a02:	9befc06f          	j	1bc0 <decode_hd_rumble_multiformat_high_acc>
    5a06:	8082                	ret

00005a08 <recv_pwr_control>:
    5a08:	20004737          	lui	a4,0x20004
    5a0c:	22070713          	addi	a4,a4,544 # 20004220 <pkt>
    5a10:	431c                	lw	a5,0(a4)
    5a12:	4685                	li	a3,1
    5a14:	07f7f793          	andi	a5,a5,127
    5a18:	02d78163          	beq	a5,a3,5a3a <recv_pwr_control+0x32>
    5a1c:	f54fa2ef          	jal	t0,170 <__riscv_save_0>
    5a20:	4689                	li	a3,2
    5a22:	02d78163          	beq	a5,a3,5a44 <recv_pwr_control+0x3c>
    5a26:	eb81                	bnez	a5,5a36 <recv_pwr_control+0x2e>
    5a28:	00374703          	lbu	a4,3(a4)
    5a2c:	4505                	li	a0,1
    5a2e:	9ae18aa3          	sb	a4,-1611(gp) # 20001a5d <force_esp32_active>
    5a32:	cf8ff0ef          	jal	ra,4f2a <flush_rgb>
    5a36:	f5efa06f          	j	194 <__riscv_restore_0>
    5a3a:	20003737          	lui	a4,0x20003
    5a3e:	78f70aa3          	sb	a5,1941(a4) # 20003795 <connection_state+0x1>
    5a42:	8082                	ret
    5a44:	4501                	li	a0,0
    5a46:	ce4ff0ef          	jal	ra,4f2a <flush_rgb>
    5a4a:	4529                	li	a0,10
    5a4c:	809ff0ef          	jal	ra,5254 <Delay_Ms>
    5a50:	beef07b7          	lui	a5,0xbeef0
    5a54:	e000e737          	lui	a4,0xe000e
    5a58:	08078793          	addi	a5,a5,128 # beef0080 <_eusrstack+0x9eeeb080>
    5a5c:	c73c                	sw	a5,72(a4)
    5a5e:	bfe1                	j	5a36 <recv_pwr_control+0x2e>

00005a60 <recv_flash_operation>:
    5a60:	f10fa2ef          	jal	t0,170 <__riscv_save_0>
    5a64:	20004437          	lui	s0,0x20004
    5a68:	22040793          	addi	a5,s0,544 # 20004220 <pkt>
    5a6c:	0017c683          	lbu	a3,1(a5)
    5a70:	4721                	li	a4,8
    5a72:	01e6f613          	andi	a2,a3,30
    5a76:	04e61863          	bne	a2,a4,5ac6 <recv_flash_operation+0x66>
    5a7a:	4398                	lw	a4,0(a5)
    5a7c:	8afd                	andi	a3,a3,31
    5a7e:	07f77713          	andi	a4,a4,127
    5a82:	04c69d63          	bne	a3,a2,5adc <recv_flash_operation+0x7c>
    5a86:	04d70263          	beq	a4,a3,5aca <recv_flash_operation+0x6a>
    5a8a:	46bd                	li	a3,15
    5a8c:	00d70e63          	beq	a4,a3,5aa8 <recv_flash_operation+0x48>
    5a90:	4699                	li	a3,6
    5a92:	02d71663          	bne	a4,a3,5abe <recv_flash_operation+0x5e>
    5a96:	200045b7          	lui	a1,0x20004
    5a9a:	0037c503          	lbu	a0,3(a5)
    5a9e:	4621                	li	a2,8
    5aa0:	22458593          	addi	a1,a1,548 # 20004224 <pkt+0x4>
    5aa4:	6799                	lui	a5,0x6
    5aa6:	a809                	j	5ab8 <recv_flash_operation+0x58>
    5aa8:	200045b7          	lui	a1,0x20004
    5aac:	0037c503          	lbu	a0,3(a5) # 6003 <handle_reset+0x4b>
    5ab0:	4621                	li	a2,8
    5ab2:	22458593          	addi	a1,a1,548 # 20004224 <pkt+0x4>
    5ab6:	67bd                	lui	a5,0xf
    5ab8:	8d5d                	or	a0,a0,a5
    5aba:	f8dfa0ef          	jal	ra,a46 <conf_read>
    5abe:	22040513          	addi	a0,s0,544
    5ac2:	ca5ff0ef          	jal	ra,5766 <send_uart_pkt>
    5ac6:	ecefa06f          	j	194 <__riscv_restore_0>
    5aca:	200045b7          	lui	a1,0x20004
    5ace:	0037c503          	lbu	a0,3(a5) # f003 <_data_lma+0x341f>
    5ad2:	4621                	li	a2,8
    5ad4:	22458593          	addi	a1,a1,548 # 20004224 <pkt+0x4>
    5ad8:	67a1                	lui	a5,0x8
    5ada:	bff9                	j	5ab8 <recv_flash_operation+0x58>
    5adc:	04c70b63          	beq	a4,a2,5b32 <recv_flash_operation+0xd2>
    5ae0:	46bd                	li	a3,15
    5ae2:	02d70563          	beq	a4,a3,5b0c <recv_flash_operation+0xac>
    5ae6:	4699                	li	a3,6
    5ae8:	fcd71be3          	bne	a4,a3,5abe <recv_flash_operation+0x5e>
    5aec:	0037c483          	lbu	s1,3(a5) # 8003 <__divdf3+0xe1>
    5af0:	0b100593          	li	a1,177
    5af4:	4521                	li	a0,8
    5af6:	8d85                	sub	a1,a1,s1
    5af8:	de8fb0ef          	jal	ra,10e0 <i32_min>
    5afc:	200045b7          	lui	a1,0x20004
    5b00:	0ff57613          	zext.b	a2,a0
    5b04:	22458593          	addi	a1,a1,548 # 20004224 <pkt+0x4>
    5b08:	6519                	lui	a0,0x6
    5b0a:	a005                	j	5b2a <recv_flash_operation+0xca>
    5b0c:	0037c483          	lbu	s1,3(a5)
    5b10:	07c00593          	li	a1,124
    5b14:	4521                	li	a0,8
    5b16:	8d85                	sub	a1,a1,s1
    5b18:	dc8fb0ef          	jal	ra,10e0 <i32_min>
    5b1c:	200045b7          	lui	a1,0x20004
    5b20:	0ff57613          	zext.b	a2,a0
    5b24:	22458593          	addi	a1,a1,548 # 20004224 <pkt+0x4>
    5b28:	653d                	lui	a0,0xf
    5b2a:	8d45                	or	a0,a0,s1
    5b2c:	80efb0ef          	jal	ra,b3a <conf_write>
    5b30:	b779                	j	5abe <recv_flash_operation+0x5e>
    5b32:	0037c483          	lbu	s1,3(a5)
    5b36:	04800593          	li	a1,72
    5b3a:	4521                	li	a0,8
    5b3c:	8d85                	sub	a1,a1,s1
    5b3e:	da2fb0ef          	jal	ra,10e0 <i32_min>
    5b42:	200045b7          	lui	a1,0x20004
    5b46:	0ff57613          	zext.b	a2,a0
    5b4a:	22458593          	addi	a1,a1,548 # 20004224 <pkt+0x4>
    5b4e:	6521                	lui	a0,0x8
    5b50:	bfe9                	j	5b2a <recv_flash_operation+0xca>

00005b52 <recv_esp32_pkg>:
    5b52:	e1efa2ef          	jal	t0,170 <__riscv_save_0>
    5b56:	200047b7          	lui	a5,0x20004
    5b5a:	2207a783          	lw	a5,544(a5) # 20004220 <pkt>
    5b5e:	4719                	li	a4,6
    5b60:	83a1                	srli	a5,a5,0x8
    5b62:	8bfd                	andi	a5,a5,31
    5b64:	02e78a63          	beq	a5,a4,5b98 <recv_esp32_pkg+0x46>
    5b68:	00f76a63          	bltu	a4,a5,5b7c <recv_esp32_pkg+0x2a>
    5b6c:	470d                	li	a4,3
    5b6e:	00e78f63          	beq	a5,a4,5b8c <recv_esp32_pkg+0x3a>
    5b72:	4711                	li	a4,4
    5b74:	00e78f63          	beq	a5,a4,5b92 <recv_esp32_pkg+0x40>
    5b78:	e1cfa06f          	j	194 <__riscv_restore_0>
    5b7c:	07e1                	addi	a5,a5,24
    5b7e:	8bfd                	andi	a5,a5,31
    5b80:	4705                	li	a4,1
    5b82:	fef76be3          	bltu	a4,a5,5b78 <recv_esp32_pkg+0x26>
    5b86:	edbff0ef          	jal	ra,5a60 <recv_flash_operation>
    5b8a:	b7fd                	j	5b78 <recv_esp32_pkg+0x26>
    5b8c:	d77ff0ef          	jal	ra,5902 <recv_esp32_connect_control>
    5b90:	b7e5                	j	5b78 <recv_esp32_pkg+0x26>
    5b92:	e53ff0ef          	jal	ra,59e4 <recv_rumble_frame>
    5b96:	b7cd                	j	5b78 <recv_esp32_pkg+0x26>
    5b98:	e71ff0ef          	jal	ra,5a08 <recv_pwr_control>
    5b9c:	bff1                	j	5b78 <recv_esp32_pkg+0x26>

00005b9e <connection_state_handler>:
    5b9e:	dd2fa2ef          	jal	t0,170 <__riscv_save_0>
    5ba2:	cbbff0ef          	jal	ra,585c <start_connect>
    5ba6:	20003437          	lui	s0,0x20003
    5baa:	79440793          	addi	a5,s0,1940 # 20003794 <connection_state>
    5bae:	0047c703          	lbu	a4,4(a5)
    5bb2:	79440413          	addi	s0,s0,1940
    5bb6:	eb0d                	bnez	a4,5be8 <connection_state_handler+0x4a>
    5bb8:	0017c783          	lbu	a5,1(a5)
    5bbc:	c795                	beqz	a5,5be8 <connection_state_handler+0x4a>
    5bbe:	4501                	li	a0,0
    5bc0:	d55fd0ef          	jal	ra,3914 <set_peripherals_state>
    5bc4:	e8dfc0ef          	jal	ra,2a50 <set_imu_sleep>
    5bc8:	f5dfe0ef          	jal	ra,4b24 <set_pwr_mode_stop>
    5bcc:	c901                	beqz	a0,5bdc <connection_state_handler+0x3e>
    5bce:	beef07b7          	lui	a5,0xbeef0
    5bd2:	e000e737          	lui	a4,0xe000e
    5bd6:	08078793          	addi	a5,a5,128 # beef0080 <_eusrstack+0x9eeeb080>
    5bda:	c73c                	sw	a5,72(a4)
    5bdc:	dcbfd0ef          	jal	ra,39a6 <init_all>
    5be0:	cebff0ef          	jal	ra,58ca <wake_esp32>
    5be4:	db0fa06f          	j	194 <__riscv_restore_0>
    5be8:	00044783          	lbu	a5,0(s0)
    5bec:	dfe5                	beqz	a5,5be4 <connection_state_handler+0x46>
    5bee:	00144783          	lbu	a5,1(s0)
    5bf2:	fbed                	bnez	a5,5be4 <connection_state_handler+0x46>
    5bf4:	de8ff0ef          	jal	ra,51dc <Get_Systick_MS>
    5bf8:	9d81a783          	lw	a5,-1576(gp) # 20001a80 <input_update_tick>
    5bfc:	8d1d                	sub	a0,a0,a5
    5bfe:	4789                	li	a5,2
    5c00:	fea7f2e3          	bgeu	a5,a0,5be4 <connection_state_handler+0x46>
    5c04:	dd8ff0ef          	jal	ra,51dc <Get_Systick_MS>
    5c08:	01344783          	lbu	a5,19(s0)
    5c0c:	9ca1ac23          	sw	a0,-1576(gp) # 20001a80 <input_update_tick>
    5c10:	c3a1                	beqz	a5,5c50 <connection_state_handler+0xb2>
    5c12:	20004937          	lui	s2,0x20004
    5c16:	22090493          	addi	s1,s2,544 # 20004220 <pkt>
    5c1a:	0004c783          	lbu	a5,0(s1)
    5c1e:	20004537          	lui	a0,0x20004
    5c22:	462d                	li	a2,11
    5c24:	f807f793          	andi	a5,a5,-128
    5c28:	0037e793          	ori	a5,a5,3
    5c2c:	4581                	li	a1,0
    5c2e:	22150513          	addi	a0,a0,545 # 20004221 <pkt+0x1>
    5c32:	00f48023          	sb	a5,0(s1)
    5c36:	d80fa0ef          	jal	ra,1b6 <memset>
    5c3a:	4619                	li	a2,6
    5c3c:	00c40593          	addi	a1,s0,12
    5c40:	00348513          	addi	a0,s1,3
    5c44:	d5cfa0ef          	jal	ra,1a0 <memcpy>
    5c48:	22090513          	addi	a0,s2,544
    5c4c:	b1bff0ef          	jal	ra,5766 <send_uart_pkt>
    5c50:	00544783          	lbu	a5,5(s0)
    5c54:	ebb1                	bnez	a5,5ca8 <connection_state_handler+0x10a>
    5c56:	bc7ff0ef          	jal	ra,581c <send_input_with_uart>
    5c5a:	01244783          	lbu	a5,18(s0)
    5c5e:	e38d                	bnez	a5,5c80 <connection_state_handler+0xe2>
    5c60:	20004537          	lui	a0,0x20004
    5c64:	22055783          	lhu	a5,544(a0) # 20004220 <pkt>
    5c68:	7779                	lui	a4,0xffffe
    5c6a:	08070713          	addi	a4,a4,128 # ffffe080 <_eusrstack+0xdfff9080>
    5c6e:	8ff9                	and	a5,a5,a4
    5c70:	3017e793          	ori	a5,a5,769
    5c74:	22f51023          	sh	a5,544(a0)
    5c78:	22050513          	addi	a0,a0,544
    5c7c:	aebff0ef          	jal	ra,5766 <send_uart_pkt>
    5c80:	02444783          	lbu	a5,36(s0)
    5c84:	f3a5                	bnez	a5,5be4 <connection_state_handler+0x46>
    5c86:	20004537          	lui	a0,0x20004
    5c8a:	22055783          	lhu	a5,544(a0) # 20004220 <pkt>
    5c8e:	7779                	lui	a4,0xffffe
    5c90:	08070713          	addi	a4,a4,128 # ffffe080 <_eusrstack+0xdfff9080>
    5c94:	8ff9                	and	a5,a5,a4
    5c96:	3027e793          	ori	a5,a5,770
    5c9a:	22f51023          	sh	a5,544(a0)
    5c9e:	22050513          	addi	a0,a0,544
    5ca2:	ac5ff0ef          	jal	ra,5766 <send_uart_pkt>
    5ca6:	bf3d                	j	5be4 <connection_state_handler+0x46>
    5ca8:	00344783          	lbu	a5,3(s0)
    5cac:	8b85                	andi	a5,a5,1
    5cae:	db9d                	beqz	a5,5be4 <connection_state_handler+0x46>
    5cb0:	20004537          	lui	a0,0x20004
    5cb4:	22052783          	lw	a5,544(a0) # 20004220 <pkt>
    5cb8:	00ffe737          	lui	a4,0xffe
    5cbc:	08070713          	addi	a4,a4,128 # ffe080 <_data_lma+0xff249c>
    5cc0:	8ff9                	and	a5,a5,a4
    5cc2:	3007e793          	ori	a5,a5,768
    5cc6:	22f52023          	sw	a5,544(a0)
    5cca:	bfd1                	j	5c9e <connection_state_handler+0x100>

00005ccc <uart_com_task>:
    5ccc:	c8afa2ef          	jal	t0,156 <__riscv_save_4>
    5cd0:	200044b7          	lui	s1,0x20004
    5cd4:	20003937          	lui	s2,0x20003
    5cd8:	200049b7          	lui	s3,0x20004
    5cdc:	03300413          	li	s0,51
    5ce0:	99048493          	addi	s1,s1,-1648 # 20003990 <uart_rx_rb>
    5ce4:	79490913          	addi	s2,s2,1940 # 20003794 <connection_state>
    5ce8:	4a05                	li	s4,1
    5cea:	20004ab7          	lui	s5,0x20004
    5cee:	d6098993          	addi	s3,s3,-672 # 20003d60 <uart_rx_rb_buf>
    5cf2:	0884a783          	lw	a5,136(s1)
    5cf6:	c789                	beqz	a5,5d00 <uart_com_task+0x34>
    5cf8:	147d                	addi	s0,s0,-1
    5cfa:	0ff47413          	zext.b	s0,s0
    5cfe:	e409                	bnez	s0,5d08 <uart_com_task+0x3c>
    5d00:	e9fff0ef          	jal	ra,5b9e <connection_state_handler>
    5d04:	c86fa06f          	j	18a <__riscv_restore_4>
    5d08:	0844c583          	lbu	a1,132(s1)
    5d0c:	47b5                	li	a5,13
    5d0e:	4635                	li	a2,13
    5d10:	02f585b3          	mul	a1,a1,a5
    5d14:	220a8513          	addi	a0,s5,544 # 20004220 <pkt>
    5d18:	01490023          	sb	s4,0(s2)
    5d1c:	95ce                	add	a1,a1,s3
    5d1e:	c82fa0ef          	jal	ra,1a0 <memcpy>
    5d22:	8526                	mv	a0,s1
    5d24:	f29fe0ef          	jal	ra,4c4c <ring_buffer_pop>
    5d28:	e2bff0ef          	jal	ra,5b52 <recv_esp32_pkg>
    5d2c:	b7d9                	j	5cf2 <uart_com_task+0x26>

00005d2e <ns_set_peripheral_data_getter>:
    5d2e:	9ea1ac23          	sw	a0,-1544(gp) # 20001aa0 <get_peripheral_data>
    5d32:	8082                	ret

00005d34 <ns_hid_get_packet_timer>:
    5d34:	c3cfa2ef          	jal	t0,170 <__riscv_save_0>
    5d38:	200037b7          	lui	a5,0x20003
    5d3c:	9497c783          	lbu	a5,-1719(a5) # 20002949 <user_config+0x1d>
    5d40:	4705                	li	a4,1
    5d42:	00e78b63          	beq	a5,a4,5d58 <ns_hid_get_packet_timer+0x24>
    5d46:	4709                	li	a4,2
    5d48:	00e78d63          	beq	a5,a4,5d62 <ns_hid_get_packet_timer+0x2e>
    5d4c:	c90ff0ef          	jal	ra,51dc <Get_Systick_MS>
    5d50:	4795                	li	a5,5
    5d52:	02f55533          	divu	a0,a0,a5
    5d56:	a019                	j	5d5c <ns_hid_get_packet_timer+0x28>
    5d58:	c84ff0ef          	jal	ra,51dc <Get_Systick_MS>
    5d5c:	0ff57513          	zext.b	a0,a0
    5d60:	a039                	j	5d6e <ns_hid_get_packet_timer+0x3a>
    5d62:	9f41c503          	lbu	a0,-1548(gp) # 20001a9c <ns_hid_pkt_cnt>
    5d66:	00150713          	addi	a4,a0,1
    5d6a:	9ee18a23          	sb	a4,-1548(gp) # 20001a9c <ns_hid_pkt_cnt>
    5d6e:	c26fa06f          	j	194 <__riscv_restore_0>

00005d72 <rpt_warpper>:
    5d72:	bfefa2ef          	jal	t0,170 <__riscv_save_0>
    5d76:	842a                	mv	s0,a0
    5d78:	84ae                	mv	s1,a1
    5d7a:	8932                	mv	s2,a2
    5d7c:	4581                	li	a1,0
    5d7e:	03100613          	li	a2,49
    5d82:	0505                	addi	a0,a0,1
    5d84:	c32fa0ef          	jal	ra,1b6 <memset>
    5d88:	03000793          	li	a5,48
    5d8c:	00f40023          	sb	a5,0(s0)
    5d90:	cc89                	beqz	s1,5daa <rpt_warpper+0x38>
    5d92:	00090c63          	beqz	s2,5daa <rpt_warpper+0x38>
    5d96:	864a                	mv	a2,s2
    5d98:	85a6                	mv	a1,s1
    5d9a:	00d40513          	addi	a0,s0,13
    5d9e:	c02fa0ef          	jal	ra,1a0 <memcpy>
    5da2:	02100793          	li	a5,33
    5da6:	00f40023          	sb	a5,0(s0)
    5daa:	200045b7          	lui	a1,0x20004
    5dae:	4625                	li	a2,9
    5db0:	27058593          	addi	a1,a1,624 # 20004270 <global_input_data>
    5db4:	00340513          	addi	a0,s0,3
    5db8:	be8fa0ef          	jal	ra,1a0 <memcpy>
    5dbc:	f79ff0ef          	jal	ra,5d34 <ns_hid_get_packet_timer>
    5dc0:	f9100793          	li	a5,-111
    5dc4:	00f40123          	sb	a5,2(s0)
    5dc8:	f8000793          	li	a5,-128
    5dcc:	00a400a3          	sb	a0,1(s0)
    5dd0:	00f40623          	sb	a5,12(s0)
    5dd4:	bc0fa06f          	j	194 <__riscv_restore_0>

00005dd8 <set_imu_available>:
    5dd8:	9ea1a223          	sw	a0,-1564(gp) # 20001a8c <rep>
    5ddc:	8082                	ret

00005dde <hid_init>:
    5dde:	a081a783          	lw	a5,-1528(gp) # 20001ab0 <pEP1_RAM_Addr>
    5de2:	04078793          	addi	a5,a5,64
    5de6:	9ef1a423          	sw	a5,-1560(gp) # 20001a90 <rpt>
    5dea:	8082                	ret

00005dec <hid_tx_service>:
    5dec:	b6afa2ef          	jal	t0,156 <__riscv_save_4>
    5df0:	89018793          	addi	a5,gp,-1904 # 20001938 <USBFS_Endp_Busy>
    5df4:	0017c783          	lbu	a5,1(a5)
    5df8:	e7c1                	bnez	a5,5e80 <hid_tx_service+0x94>
    5dfa:	73418793          	addi	a5,gp,1844 # 200027dc <ns_usb_send_rb>
    5dfe:	0887a703          	lw	a4,136(a5)
    5e02:	89018913          	addi	s2,gp,-1904 # 20001938 <USBFS_Endp_Busy>
    5e06:	c371                	beqz	a4,5eca <hid_tx_service+0xde>
    5e08:	0847c683          	lbu	a3,132(a5)
    5e0c:	4398                	lw	a4,0(a5)
    5e0e:	00669613          	slli	a2,a3,0x6
    5e12:	9732                	add	a4,a4,a2
    5e14:	97b6                	add	a5,a5,a3
    5e16:	9ee1a823          	sw	a4,-1552(gp) # 20001a98 <pkg_ptr>
    5e1a:	0047c703          	lbu	a4,4(a5)
    5e1e:	0447c783          	lbu	a5,68(a5)
    5e22:	73418513          	addi	a0,gp,1844 # 200027dc <ns_usb_send_rb>
    5e26:	9ee186a3          	sb	a4,-1555(gp) # 20001a95 <pkg_len>
    5e2a:	9ef18623          	sb	a5,-1556(gp) # 20001a94 <pkg_typ>
    5e2e:	e1ffe0ef          	jal	ra,4c4c <ring_buffer_pop>
    5e32:	9ec1c783          	lbu	a5,-1556(gp) # 20001a94 <pkg_typ>
    5e36:	4709                	li	a4,2
    5e38:	04e78f63          	beq	a5,a4,5e96 <hid_tx_service+0xaa>
    5e3c:	00f76c63          	bltu	a4,a5,5e54 <hid_tx_service+0x68>
    5e40:	e3b1                	bnez	a5,5e84 <hid_tx_service+0x98>
    5e42:	9ed1c603          	lbu	a2,-1555(gp) # 20001a95 <pkg_len>
    5e46:	9f01a583          	lw	a1,-1552(gp) # 20001a98 <pkg_ptr>
    5e4a:	9e81a503          	lw	a0,-1560(gp) # 20001a90 <rpt>
    5e4e:	f25ff0ef          	jal	ra,5d72 <rpt_warpper>
    5e52:	a021                	j	5e5a <hid_tx_service+0x6e>
    5e54:	470d                	li	a4,3
    5e56:	04e78d63          	beq	a5,a4,5eb0 <hid_tx_service+0xc4>
    5e5a:	04000693          	li	a3,64
    5e5e:	400237b7          	lui	a5,0x40023
    5e62:	9ed186a3          	sb	a3,-1555(gp) # 20001a95 <pkg_len>
    5e66:	42d79a23          	sh	a3,1076(a5) # 40023434 <_eusrstack+0x2001e434>
    5e6a:	43478713          	addi	a4,a5,1076
    5e6e:	4785                	li	a5,1
    5e70:	00f900a3          	sb	a5,1(s2)
    5e74:	fffd07b7          	lui	a5,0xfffd0
    5e78:	17fd                	addi	a5,a5,-1 # fffcffff <_eusrstack+0xdffcafff>
    5e7a:	60f727af          	amoand.w	a5,a5,(a4)
    5e7e:	431c                	lw	a5,0(a4)
    5e80:	b0afa06f          	j	18a <__riscv_restore_4>
    5e84:	9ed1c603          	lbu	a2,-1555(gp) # 20001a95 <pkg_len>
    5e88:	9f01a583          	lw	a1,-1552(gp) # 20001a98 <pkg_ptr>
    5e8c:	9e81a503          	lw	a0,-1560(gp) # 20001a90 <rpt>
    5e90:	b10fa0ef          	jal	ra,1a0 <memcpy>
    5e94:	b7d9                	j	5e5a <hid_tx_service+0x6e>
    5e96:	9ed1c603          	lbu	a2,-1555(gp) # 20001a95 <pkg_len>
    5e9a:	9f01a583          	lw	a1,-1552(gp) # 20001a98 <pkg_ptr>
    5e9e:	9e81a503          	lw	a0,-1560(gp) # 20001a90 <rpt>
    5ea2:	ed1ff0ef          	jal	ra,5d72 <rpt_warpper>
    5ea6:	9e81a783          	lw	a5,-1560(gp) # 20001a90 <rpt>
    5eaa:	9ef1a823          	sw	a5,-1552(gp) # 20001a98 <pkg_ptr>
    5eae:	b775                	j	5e5a <hid_tx_service+0x6e>
    5eb0:	9e81a783          	lw	a5,-1560(gp) # 20001a90 <rpt>
    5eb4:	04000613          	li	a2,64
    5eb8:	4581                	li	a1,0
    5eba:	853e                	mv	a0,a5
    5ebc:	afafa0ef          	jal	ra,1b6 <memset>
    5ec0:	9ed1c603          	lbu	a2,-1555(gp) # 20001a95 <pkg_len>
    5ec4:	9f01a583          	lw	a1,-1552(gp) # 20001a98 <pkg_ptr>
    5ec8:	b7e1                	j	5e90 <hid_tx_service+0xa4>
    5eca:	9e81a503          	lw	a0,-1560(gp) # 20001a90 <rpt>
    5ece:	4601                	li	a2,0
    5ed0:	4581                	li	a1,0
    5ed2:	ea1ff0ef          	jal	ra,5d72 <rpt_warpper>
    5ed6:	97c1c783          	lbu	a5,-1668(gp) # 20001a24 <imu_mode>
    5eda:	d7f1                	beqz	a5,5ea6 <hid_tx_service+0xba>
    5edc:	9531c783          	lbu	a5,-1709(gp) # 200019fb <i2c_status>
    5ee0:	d3f9                	beqz	a5,5ea6 <hid_tx_service+0xba>
    5ee2:	9e41a583          	lw	a1,-1564(gp) # 20001a8c <rep>
    5ee6:	d1e1                	beqz	a1,5ea6 <hid_tx_service+0xba>
    5ee8:	9e81a503          	lw	a0,-1560(gp) # 20001a90 <rpt>
    5eec:	02500613          	li	a2,37
    5ef0:	0535                	addi	a0,a0,13
    5ef2:	aaefa0ef          	jal	ra,1a0 <memcpy>
    5ef6:	bf45                	j	5ea6 <hid_tx_service+0xba>

00005ef8 <hid_rx_service>:
    5ef8:	a78fa2ef          	jal	t0,170 <__riscv_save_0>
    5efc:	6a418793          	addi	a5,gp,1700 # 2000274c <ns_usb_recv_rb>
    5f00:	0887a703          	lw	a4,136(a5)
    5f04:	c339                	beqz	a4,5f4a <hid_rx_service+0x52>
    5f06:	0847c583          	lbu	a1,132(a5)
    5f0a:	20004537          	lui	a0,0x20004
    5f0e:	23050913          	addi	s2,a0,560 # 20004230 <usb_rx_buf>
    5f12:	97ae                	add	a5,a5,a1
    5f14:	0047c403          	lbu	s0,4(a5)
    5f18:	200027b7          	lui	a5,0x20002
    5f1c:	acc78793          	addi	a5,a5,-1332 # 20001acc <ns_usb_recv_buf>
    5f20:	059a                	slli	a1,a1,0x6
    5f22:	95be                	add	a1,a1,a5
    5f24:	8622                	mv	a2,s0
    5f26:	23050513          	addi	a0,a0,560
    5f2a:	a76fa0ef          	jal	ra,1a0 <memcpy>
    5f2e:	6a418513          	addi	a0,gp,1700 # 2000274c <ns_usb_recv_rb>
    5f32:	d1bfe0ef          	jal	ra,4c4c <ring_buffer_pop>
    5f36:	9dc18793          	addi	a5,gp,-1572 # 20001a84 <pkt.0>
    5f3a:	9dc18513          	addi	a0,gp,-1572 # 20001a84 <pkt.0>
    5f3e:	0127a023          	sw	s2,0(a5)
    5f42:	00878223          	sb	s0,4(a5)
    5f46:	acdfe0ef          	jal	ra,4a12 <hid_dispatch>
    5f4a:	a4afa06f          	j	194 <__riscv_restore_0>

00005f4e <soft_watchdog_feed>:
    5f4e:	a22fa2ef          	jal	t0,170 <__riscv_save_0>
    5f52:	a8aff0ef          	jal	ra,51dc <Get_Systick_MS>
    5f56:	a0a1a023          	sw	a0,-1536(gp) # 20001aa8 <last_feed_ms>
    5f5a:	a3afa06f          	j	194 <__riscv_restore_0>

00005f5e <TIM4_IRQHandler>:
    5f5e:	40001537          	lui	a0,0x40001
    5f62:	4585                	li	a1,1
    5f64:	80050513          	addi	a0,a0,-2048 # 40000800 <_eusrstack+0x1fffb800>
    5f68:	272010ef          	jal	ra,71da <TIM_GetFlagStatus>
    5f6c:	4785                	li	a5,1
    5f6e:	04f51263          	bne	a0,a5,5fb2 <TIM4_IRQHandler+0x54>
    5f72:	a6aff0ef          	jal	ra,51dc <Get_Systick_MS>
    5f76:	a001a783          	lw	a5,-1536(gp) # 20001aa8 <last_feed_ms>
    5f7a:	8d1d                	sub	a0,a0,a5
    5f7c:	3e800793          	li	a5,1000
    5f80:	02a7f263          	bgeu	a5,a0,5fa4 <TIM4_IRQHandler+0x46>
    5f84:	9fd1c783          	lbu	a5,-1539(gp) # 20001aa5 <watchdog_pos>
    5f88:	cf91                	beqz	a5,5fa4 <TIM4_IRQHandler+0x46>
    5f8a:	200035b7          	lui	a1,0x20003
    5f8e:	9a858713          	addi	a4,a1,-1624 # 200029a8 <user_calibration>
    5f92:	08000613          	li	a2,128
    5f96:	9a858593          	addi	a1,a1,-1624
    5f9a:	4501                	li	a0,0
    5f9c:	00f704a3          	sb	a5,9(a4)
    5fa0:	8b0fb0ef          	jal	ra,1050 <flash_write>
    5fa4:	40001537          	lui	a0,0x40001
    5fa8:	4585                	li	a1,1
    5faa:	80050513          	addi	a0,a0,-2048 # 40000800 <_eusrstack+0x1fffb800>
    5fae:	254010ef          	jal	ra,7202 <TIM_ClearITPendingBit>
    5fb2:	30200073          	mret

00005fb6 <ADC1_2_IRQHandler>:
    5fb6:	a001                	j	5fb6 <ADC1_2_IRQHandler>

00005fb8 <handle_reset>:
    5fb8:	1fffc197          	auipc	gp,0x1fffc
    5fbc:	0f018193          	addi	gp,gp,240 # 200020a8 <__global_pointer$>
    5fc0:	1ffff117          	auipc	sp,0x1ffff
    5fc4:	04010113          	addi	sp,sp,64 # 20005000 <_eusrstack>
    5fc8:	00006517          	auipc	a0,0x6
    5fcc:	c1c50513          	addi	a0,a0,-996 # bbe4 <_data_lma>
    5fd0:	1fffa597          	auipc	a1,0x1fffa
    5fd4:	03058593          	addi	a1,a1,48 # 20000000 <CommandTable>
    5fd8:	88818613          	addi	a2,gp,-1912 # 20001930 <EXC_PC>
    5fdc:	00c5fa63          	bgeu	a1,a2,5ff0 <handle_reset+0x38>
    5fe0:	00052283          	lw	t0,0(a0)
    5fe4:	0055a023          	sw	t0,0(a1)
    5fe8:	0511                	addi	a0,a0,4
    5fea:	0591                	addi	a1,a1,4
    5fec:	fec5eae3          	bltu	a1,a2,5fe0 <handle_reset+0x28>
    5ff0:	88818513          	addi	a0,gp,-1912 # 20001930 <EXC_PC>
    5ff4:	1fffe597          	auipc	a1,0x1fffe
    5ff8:	2c858593          	addi	a1,a1,712 # 200042bc <_ebss>
    5ffc:	00b57763          	bgeu	a0,a1,600a <handle_reset+0x52>
    6000:	00052023          	sw	zero,0(a0)
    6004:	0511                	addi	a0,a0,4
    6006:	feb56de3          	bltu	a0,a1,6000 <handle_reset+0x48>
    600a:	08800293          	li	t0,136
    600e:	30029073          	csrw	mstatus,t0
    6012:	ffffa297          	auipc	t0,0xffffa
    6016:	02628293          	addi	t0,t0,38 # 38 <_einit>
    601a:	0012e293          	ori	t0,t0,1
    601e:	30529073          	csrw	mtvec,t0
    6022:	844ff0ef          	jal	ra,5066 <SystemInit>
    6026:	ffffe297          	auipc	t0,0xffffe
    602a:	a5028293          	addi	t0,t0,-1456 # 3a76 <main>
    602e:	34129073          	csrw	mepc,t0
    6032:	30200073          	mret

00006036 <ADC_DeInit>:
    6036:	400127b7          	lui	a5,0x40012
    603a:	40078793          	addi	a5,a5,1024 # 40012400 <_eusrstack+0x2000d400>
    603e:	02f51063          	bne	a0,a5,605e <ADC_DeInit+0x28>
    6042:	92efa2ef          	jal	t0,170 <__riscv_save_0>
    6046:	4585                	li	a1,1
    6048:	20000513          	li	a0,512
    604c:	591000ef          	jal	ra,6ddc <RCC_APB2PeriphResetCmd>
    6050:	4581                	li	a1,0
    6052:	20000513          	li	a0,512
    6056:	587000ef          	jal	ra,6ddc <RCC_APB2PeriphResetCmd>
    605a:	93afa06f          	j	194 <__riscv_restore_0>
    605e:	8082                	ret

00006060 <ADC_Init>:
    6060:	4158                	lw	a4,4(a0)
    6062:	fff107b7          	lui	a5,0xfff10
    6066:	eff78793          	addi	a5,a5,-257 # fff0feff <_eusrstack+0xdff0aeff>
    606a:	8f7d                	and	a4,a4,a5
    606c:	41dc                	lw	a5,4(a1)
    606e:	4194                	lw	a3,0(a1)
    6070:	07a2                	slli	a5,a5,0x8
    6072:	8fd5                	or	a5,a5,a3
    6074:	8fd9                	or	a5,a5,a4
    6076:	c15c                	sw	a5,4(a0)
    6078:	4518                	lw	a4,8(a0)
    607a:	fff1f7b7          	lui	a5,0xfff1f
    607e:	7fd78793          	addi	a5,a5,2045 # fff1f7fd <_eusrstack+0xdff1a7fd>
    6082:	45d4                	lw	a3,12(a1)
    6084:	8f7d                	and	a4,a4,a5
    6086:	499c                	lw	a5,16(a1)
    6088:	8fd5                	or	a5,a5,a3
    608a:	4594                	lw	a3,8(a1)
    608c:	0686                	slli	a3,a3,0x1
    608e:	8fd5                	or	a5,a5,a3
    6090:	8fd9                	or	a5,a5,a4
    6092:	c51c                	sw	a5,8(a0)
    6094:	5558                	lw	a4,44(a0)
    6096:	ff1007b7          	lui	a5,0xff100
    609a:	17fd                	addi	a5,a5,-1 # ff0fffff <_eusrstack+0xdf0fafff>
    609c:	8f7d                	and	a4,a4,a5
    609e:	0145c783          	lbu	a5,20(a1)
    60a2:	17fd                	addi	a5,a5,-1
    60a4:	0ff7f793          	zext.b	a5,a5
    60a8:	07d2                	slli	a5,a5,0x14
    60aa:	8fd9                	or	a5,a5,a4
    60ac:	d55c                	sw	a5,44(a0)
    60ae:	8082                	ret

000060b0 <ADC_Cmd>:
    60b0:	451c                	lw	a5,8(a0)
    60b2:	c589                	beqz	a1,60bc <ADC_Cmd+0xc>
    60b4:	0017e793          	ori	a5,a5,1
    60b8:	c51c                	sw	a5,8(a0)
    60ba:	8082                	ret
    60bc:	9bf9                	andi	a5,a5,-2
    60be:	bfed                	j	60b8 <ADC_Cmd+0x8>

000060c0 <ADC_DMACmd>:
    60c0:	451c                	lw	a5,8(a0)
    60c2:	c589                	beqz	a1,60cc <ADC_DMACmd+0xc>
    60c4:	1007e793          	ori	a5,a5,256
    60c8:	c51c                	sw	a5,8(a0)
    60ca:	8082                	ret
    60cc:	eff7f793          	andi	a5,a5,-257
    60d0:	bfe5                	j	60c8 <ADC_DMACmd+0x8>

000060d2 <ADC_ResetCalibration>:
    60d2:	451c                	lw	a5,8(a0)
    60d4:	0087e793          	ori	a5,a5,8
    60d8:	c51c                	sw	a5,8(a0)
    60da:	8082                	ret

000060dc <ADC_GetResetCalibrationStatus>:
    60dc:	4508                	lw	a0,8(a0)
    60de:	810d                	srli	a0,a0,0x3
    60e0:	8905                	andi	a0,a0,1
    60e2:	8082                	ret

000060e4 <ADC_StartCalibration>:
    60e4:	451c                	lw	a5,8(a0)
    60e6:	0047e793          	ori	a5,a5,4
    60ea:	c51c                	sw	a5,8(a0)
    60ec:	8082                	ret

000060ee <ADC_GetCalibrationStatus>:
    60ee:	4508                	lw	a0,8(a0)
    60f0:	8109                	srli	a0,a0,0x2
    60f2:	8905                	andi	a0,a0,1
    60f4:	8082                	ret

000060f6 <ADC_SoftwareStartConvCmd>:
    60f6:	451c                	lw	a5,8(a0)
    60f8:	c591                	beqz	a1,6104 <ADC_SoftwareStartConvCmd+0xe>
    60fa:	00500737          	lui	a4,0x500
    60fe:	8fd9                	or	a5,a5,a4
    6100:	c51c                	sw	a5,8(a0)
    6102:	8082                	ret
    6104:	ffb00737          	lui	a4,0xffb00
    6108:	177d                	addi	a4,a4,-1 # ffafffff <_eusrstack+0xdfafafff>
    610a:	8ff9                	and	a5,a5,a4
    610c:	bfd5                	j	6100 <ADC_SoftwareStartConvCmd+0xa>

0000610e <ADC_RegularChannelConfig>:
    610e:	47a5                	li	a5,9
    6110:	04b7f763          	bgeu	a5,a1,615e <ADC_RegularChannelConfig+0x50>
    6114:	478d                	li	a5,3
    6116:	ff658713          	addi	a4,a1,-10
    611a:	02f70733          	mul	a4,a4,a5
    611e:	00c52803          	lw	a6,12(a0)
    6122:	479d                	li	a5,7
    6124:	00e797b3          	sll	a5,a5,a4
    6128:	fff7c793          	not	a5,a5
    612c:	0107f7b3          	and	a5,a5,a6
    6130:	00e696b3          	sll	a3,a3,a4
    6134:	8edd                	or	a3,a3,a5
    6136:	c554                	sw	a3,12(a0)
    6138:	4799                	li	a5,6
    613a:	04c7e363          	bltu	a5,a2,6180 <ADC_RegularChannelConfig+0x72>
    613e:	4795                	li	a5,5
    6140:	167d                	addi	a2,a2,-1
    6142:	02f60633          	mul	a2,a2,a5
    6146:	5958                	lw	a4,52(a0)
    6148:	47fd                	li	a5,31
    614a:	00c797b3          	sll	a5,a5,a2
    614e:	fff7c793          	not	a5,a5
    6152:	8ff9                	and	a5,a5,a4
    6154:	00c59633          	sll	a2,a1,a2
    6158:	8e5d                	or	a2,a2,a5
    615a:	d950                	sw	a2,52(a0)
    615c:	8082                	ret
    615e:	470d                	li	a4,3
    6160:	02e58733          	mul	a4,a1,a4
    6164:	01052803          	lw	a6,16(a0)
    6168:	479d                	li	a5,7
    616a:	00e797b3          	sll	a5,a5,a4
    616e:	fff7c793          	not	a5,a5
    6172:	0107f7b3          	and	a5,a5,a6
    6176:	00e696b3          	sll	a3,a3,a4
    617a:	8edd                	or	a3,a3,a5
    617c:	c914                	sw	a3,16(a0)
    617e:	bf6d                	j	6138 <ADC_RegularChannelConfig+0x2a>
    6180:	47b1                	li	a5,12
    6182:	02c7e263          	bltu	a5,a2,61a6 <ADC_RegularChannelConfig+0x98>
    6186:	4795                	li	a5,5
    6188:	1665                	addi	a2,a2,-7
    618a:	02f60633          	mul	a2,a2,a5
    618e:	5918                	lw	a4,48(a0)
    6190:	47fd                	li	a5,31
    6192:	00c797b3          	sll	a5,a5,a2
    6196:	fff7c793          	not	a5,a5
    619a:	8ff9                	and	a5,a5,a4
    619c:	00c59633          	sll	a2,a1,a2
    61a0:	8e5d                	or	a2,a2,a5
    61a2:	d910                	sw	a2,48(a0)
    61a4:	8082                	ret
    61a6:	4795                	li	a5,5
    61a8:	164d                	addi	a2,a2,-13
    61aa:	02f60633          	mul	a2,a2,a5
    61ae:	5558                	lw	a4,44(a0)
    61b0:	47fd                	li	a5,31
    61b2:	00c797b3          	sll	a5,a5,a2
    61b6:	fff7c793          	not	a5,a5
    61ba:	8ff9                	and	a5,a5,a4
    61bc:	00c595b3          	sll	a1,a1,a2
    61c0:	8ddd                	or	a1,a1,a5
    61c2:	d54c                	sw	a1,44(a0)
    61c4:	8082                	ret

000061c6 <Get_CalibrationValue>:
    61c6:	fabf92ef          	jal	t0,170 <__riscv_save_0>
    61ca:	1101                	addi	sp,sp,-32
    61cc:	842a                	mv	s0,a0
    61ce:	00010423          	sb	zero,8(sp)
    61d2:	44a5                	li	s1,9
    61d4:	00814783          	lbu	a5,8(sp)
    61d8:	04f4ff63          	bgeu	s1,a5,6236 <Get_CalibrationValue+0x70>
    61dc:	00010423          	sb	zero,8(sp)
    61e0:	46a5                	li	a3,9
    61e2:	4621                	li	a2,8
    61e4:	00814783          	lbu	a5,8(sp)
    61e8:	08f6f863          	bgeu	a3,a5,6278 <Get_CalibrationValue+0xb2>
    61ec:	00011523          	sh	zero,10(sp)
    61f0:	00010423          	sb	zero,8(sp)
    61f4:	4695                	li	a3,5
    61f6:	00814783          	lbu	a5,8(sp)
    61fa:	10f6ff63          	bgeu	a3,a5,6318 <Get_CalibrationValue+0x152>
    61fe:	00a15703          	lhu	a4,10(sp)
    6202:	00a15783          	lhu	a5,10(sp)
    6206:	4699                	li	a3,6
    6208:	460d                	li	a2,3
    620a:	02d7f7b3          	remu	a5,a5,a3
    620e:	6505                	lui	a0,0x1
    6210:	80050513          	addi	a0,a0,-2048 # 800 <USBFS_IRQHandler+0x43a>
    6214:	02c7d7b3          	divu	a5,a5,a2
    6218:	02d75733          	divu	a4,a4,a3
    621c:	97ba                	add	a5,a5,a4
    621e:	07c2                	slli	a5,a5,0x10
    6220:	83c1                	srli	a5,a5,0x10
    6222:	00f11523          	sh	a5,10(sp)
    6226:	00a15783          	lhu	a5,10(sp)
    622a:	6105                	addi	sp,sp,32
    622c:	8d1d                	sub	a0,a0,a5
    622e:	0542                	slli	a0,a0,0x10
    6230:	8541                	srai	a0,a0,0x10
    6232:	f63f906f          	j	194 <__riscv_restore_0>
    6236:	441c                	lw	a5,8(s0)
    6238:	0087e793          	ori	a5,a5,8
    623c:	c41c                	sw	a5,8(s0)
    623e:	8522                	mv	a0,s0
    6240:	e9dff0ef          	jal	ra,60dc <ADC_GetResetCalibrationStatus>
    6244:	fd6d                	bnez	a0,623e <Get_CalibrationValue+0x78>
    6246:	441c                	lw	a5,8(s0)
    6248:	0047e793          	ori	a5,a5,4
    624c:	c41c                	sw	a5,8(s0)
    624e:	8522                	mv	a0,s0
    6250:	e9fff0ef          	jal	ra,60ee <ADC_GetCalibrationStatus>
    6254:	fd6d                	bnez	a0,624e <Get_CalibrationValue+0x88>
    6256:	4478                	lw	a4,76(s0)
    6258:	00814783          	lbu	a5,8(sp)
    625c:	0786                	slli	a5,a5,0x1
    625e:	02078793          	addi	a5,a5,32
    6262:	978a                	add	a5,a5,sp
    6264:	fee79623          	sh	a4,-20(a5)
    6268:	00814783          	lbu	a5,8(sp)
    626c:	0785                	addi	a5,a5,1
    626e:	0ff7f793          	zext.b	a5,a5
    6272:	00f10423          	sb	a5,8(sp)
    6276:	bfb9                	j	61d4 <Get_CalibrationValue+0xe>
    6278:	000104a3          	sb	zero,9(sp)
    627c:	00914783          	lbu	a5,9(sp)
    6280:	00f67a63          	bgeu	a2,a5,6294 <Get_CalibrationValue+0xce>
    6284:	00814783          	lbu	a5,8(sp)
    6288:	0785                	addi	a5,a5,1
    628a:	0ff7f793          	zext.b	a5,a5
    628e:	00f10423          	sb	a5,8(sp)
    6292:	bf89                	j	61e4 <Get_CalibrationValue+0x1e>
    6294:	00914703          	lbu	a4,9(sp)
    6298:	00914783          	lbu	a5,9(sp)
    629c:	0706                	slli	a4,a4,0x1
    629e:	0785                	addi	a5,a5,1
    62a0:	0786                	slli	a5,a5,0x1
    62a2:	02070713          	addi	a4,a4,32
    62a6:	02078793          	addi	a5,a5,32
    62aa:	970a                	add	a4,a4,sp
    62ac:	978a                	add	a5,a5,sp
    62ae:	fec75703          	lhu	a4,-20(a4)
    62b2:	fec7d783          	lhu	a5,-20(a5)
    62b6:	04e7f963          	bgeu	a5,a4,6308 <Get_CalibrationValue+0x142>
    62ba:	00914783          	lbu	a5,9(sp)
    62be:	0786                	slli	a5,a5,0x1
    62c0:	02078793          	addi	a5,a5,32
    62c4:	978a                	add	a5,a5,sp
    62c6:	fec7d783          	lhu	a5,-20(a5)
    62ca:	00f11523          	sh	a5,10(sp)
    62ce:	00914783          	lbu	a5,9(sp)
    62d2:	00914703          	lbu	a4,9(sp)
    62d6:	0785                	addi	a5,a5,1
    62d8:	0786                	slli	a5,a5,0x1
    62da:	02078793          	addi	a5,a5,32
    62de:	978a                	add	a5,a5,sp
    62e0:	fec7d583          	lhu	a1,-20(a5)
    62e4:	00171793          	slli	a5,a4,0x1
    62e8:	02078793          	addi	a5,a5,32
    62ec:	978a                	add	a5,a5,sp
    62ee:	feb79623          	sh	a1,-20(a5)
    62f2:	00914783          	lbu	a5,9(sp)
    62f6:	00a15703          	lhu	a4,10(sp)
    62fa:	0785                	addi	a5,a5,1
    62fc:	0786                	slli	a5,a5,0x1
    62fe:	02078793          	addi	a5,a5,32
    6302:	978a                	add	a5,a5,sp
    6304:	fee79623          	sh	a4,-20(a5)
    6308:	00914783          	lbu	a5,9(sp)
    630c:	0785                	addi	a5,a5,1
    630e:	0ff7f793          	zext.b	a5,a5
    6312:	00f104a3          	sb	a5,9(sp)
    6316:	b79d                	j	627c <Get_CalibrationValue+0xb6>
    6318:	00814783          	lbu	a5,8(sp)
    631c:	00a15703          	lhu	a4,10(sp)
    6320:	0789                	addi	a5,a5,2
    6322:	0786                	slli	a5,a5,0x1
    6324:	02078793          	addi	a5,a5,32
    6328:	978a                	add	a5,a5,sp
    632a:	fec7d783          	lhu	a5,-20(a5)
    632e:	97ba                	add	a5,a5,a4
    6330:	07c2                	slli	a5,a5,0x10
    6332:	83c1                	srli	a5,a5,0x10
    6334:	00f11523          	sh	a5,10(sp)
    6338:	00814783          	lbu	a5,8(sp)
    633c:	0785                	addi	a5,a5,1
    633e:	0ff7f793          	zext.b	a5,a5
    6342:	00f10423          	sb	a5,8(sp)
    6346:	bd45                	j	61f6 <Get_CalibrationValue+0x30>

00006348 <DMA_DeInit>:
    6348:	411c                	lw	a5,0(a0)
    634a:	6741                	lui	a4,0x10
    634c:	1779                	addi	a4,a4,-2 # fffe <_data_lma+0x441a>
    634e:	8ff9                	and	a5,a5,a4
    6350:	c11c                	sw	a5,0(a0)
    6352:	00052023          	sw	zero,0(a0)
    6356:	00052223          	sw	zero,4(a0)
    635a:	00052423          	sw	zero,8(a0)
    635e:	400207b7          	lui	a5,0x40020
    6362:	00052623          	sw	zero,12(a0)
    6366:	00878713          	addi	a4,a5,8 # 40020008 <_eusrstack+0x2001b008>
    636a:	00e51763          	bne	a0,a4,6378 <DMA_DeInit+0x30>
    636e:	43d8                	lw	a4,4(a5)
    6370:	00f76713          	ori	a4,a4,15
    6374:	c3d8                	sw	a4,4(a5)
    6376:	8082                	ret
    6378:	01c78713          	addi	a4,a5,28
    637c:	00e51663          	bne	a0,a4,6388 <DMA_DeInit+0x40>
    6380:	43d8                	lw	a4,4(a5)
    6382:	0f076713          	ori	a4,a4,240
    6386:	b7fd                	j	6374 <DMA_DeInit+0x2c>
    6388:	03078713          	addi	a4,a5,48
    638c:	00e51763          	bne	a0,a4,639a <DMA_DeInit+0x52>
    6390:	6685                	lui	a3,0x1
    6392:	43d8                	lw	a4,4(a5)
    6394:	f0068693          	addi	a3,a3,-256 # f00 <conf_init+0x90>
    6398:	a03d                	j	63c6 <DMA_DeInit+0x7e>
    639a:	04478713          	addi	a4,a5,68
    639e:	00e51563          	bne	a0,a4,63a8 <DMA_DeInit+0x60>
    63a2:	43d8                	lw	a4,4(a5)
    63a4:	66bd                	lui	a3,0xf
    63a6:	a005                	j	63c6 <DMA_DeInit+0x7e>
    63a8:	05878713          	addi	a4,a5,88
    63ac:	00e51663          	bne	a0,a4,63b8 <DMA_DeInit+0x70>
    63b0:	43d8                	lw	a4,4(a5)
    63b2:	000f06b7          	lui	a3,0xf0
    63b6:	a801                	j	63c6 <DMA_DeInit+0x7e>
    63b8:	06c78713          	addi	a4,a5,108
    63bc:	00e51763          	bne	a0,a4,63ca <DMA_DeInit+0x82>
    63c0:	43d8                	lw	a4,4(a5)
    63c2:	00f006b7          	lui	a3,0xf00
    63c6:	8f55                	or	a4,a4,a3
    63c8:	b775                	j	6374 <DMA_DeInit+0x2c>
    63ca:	08078713          	addi	a4,a5,128
    63ce:	00e51663          	bne	a0,a4,63da <DMA_DeInit+0x92>
    63d2:	43d8                	lw	a4,4(a5)
    63d4:	0f0006b7          	lui	a3,0xf000
    63d8:	b7fd                	j	63c6 <DMA_DeInit+0x7e>
    63da:	40878713          	addi	a4,a5,1032
    63de:	00e51563          	bne	a0,a4,63e8 <DMA_DeInit+0xa0>
    63e2:	40078793          	addi	a5,a5,1024
    63e6:	b761                	j	636e <DMA_DeInit+0x26>
    63e8:	41c78713          	addi	a4,a5,1052
    63ec:	00e51563          	bne	a0,a4,63f6 <DMA_DeInit+0xae>
    63f0:	40078793          	addi	a5,a5,1024
    63f4:	b771                	j	6380 <DMA_DeInit+0x38>
    63f6:	43078793          	addi	a5,a5,1072
    63fa:	00f51763          	bne	a0,a5,6408 <DMA_DeInit+0xc0>
    63fe:	400207b7          	lui	a5,0x40020
    6402:	40078793          	addi	a5,a5,1024 # 40020400 <_eusrstack+0x2001b400>
    6406:	b769                	j	6390 <DMA_DeInit+0x48>
    6408:	400207b7          	lui	a5,0x40020
    640c:	44478713          	addi	a4,a5,1092 # 40020444 <_eusrstack+0x2001b444>
    6410:	00e51563          	bne	a0,a4,641a <DMA_DeInit+0xd2>
    6414:	40078793          	addi	a5,a5,1024
    6418:	b769                	j	63a2 <DMA_DeInit+0x5a>
    641a:	45878713          	addi	a4,a5,1112
    641e:	f4e51ce3          	bne	a0,a4,6376 <DMA_DeInit+0x2e>
    6422:	40078793          	addi	a5,a5,1024
    6426:	b769                	j	63b0 <DMA_DeInit+0x68>

00006428 <DMA_Init>:
    6428:	4118                	lw	a4,0(a0)
    642a:	77e1                	lui	a5,0xffff8
    642c:	07bd                	addi	a5,a5,15 # ffff800f <_eusrstack+0xdfff300f>
    642e:	5194                	lw	a3,32(a1)
    6430:	8f7d                	and	a4,a4,a5
    6432:	459c                	lw	a5,8(a1)
    6434:	8fd5                	or	a5,a5,a3
    6436:	4994                	lw	a3,16(a1)
    6438:	8fd5                	or	a5,a5,a3
    643a:	49d4                	lw	a3,20(a1)
    643c:	8fd5                	or	a5,a5,a3
    643e:	4d94                	lw	a3,24(a1)
    6440:	8fd5                	or	a5,a5,a3
    6442:	4dd4                	lw	a3,28(a1)
    6444:	8fd5                	or	a5,a5,a3
    6446:	51d4                	lw	a3,36(a1)
    6448:	8fd5                	or	a5,a5,a3
    644a:	5594                	lw	a3,40(a1)
    644c:	8fd5                	or	a5,a5,a3
    644e:	8fd9                	or	a5,a5,a4
    6450:	c11c                	sw	a5,0(a0)
    6452:	45dc                	lw	a5,12(a1)
    6454:	c15c                	sw	a5,4(a0)
    6456:	419c                	lw	a5,0(a1)
    6458:	c51c                	sw	a5,8(a0)
    645a:	41dc                	lw	a5,4(a1)
    645c:	c55c                	sw	a5,12(a0)
    645e:	8082                	ret

00006460 <DMA_Cmd>:
    6460:	411c                	lw	a5,0(a0)
    6462:	c589                	beqz	a1,646c <DMA_Cmd+0xc>
    6464:	0017e793          	ori	a5,a5,1
    6468:	c11c                	sw	a5,0(a0)
    646a:	8082                	ret
    646c:	6741                	lui	a4,0x10
    646e:	1779                	addi	a4,a4,-2 # fffe <_data_lma+0x441a>
    6470:	8ff9                	and	a5,a5,a4
    6472:	bfdd                	j	6468 <DMA_Cmd+0x8>

00006474 <DMA_GetCurrDataCounter>:
    6474:	4148                	lw	a0,4(a0)
    6476:	0542                	slli	a0,a0,0x10
    6478:	8141                	srli	a0,a0,0x10
    647a:	8082                	ret

0000647c <DMA_GetFlagStatus>:
    647c:	100007b7          	lui	a5,0x10000
    6480:	8fe9                	and	a5,a5,a0
    6482:	cb89                	beqz	a5,6494 <DMA_GetFlagStatus+0x18>
    6484:	400207b7          	lui	a5,0x40020
    6488:	4007a783          	lw	a5,1024(a5) # 40020400 <_eusrstack+0x2001b400>
    648c:	8d7d                	and	a0,a0,a5
    648e:	00a03533          	snez	a0,a0
    6492:	8082                	ret
    6494:	400207b7          	lui	a5,0x40020
    6498:	439c                	lw	a5,0(a5)
    649a:	bfcd                	j	648c <DMA_GetFlagStatus+0x10>

0000649c <DMA_ClearFlag>:
    649c:	100007b7          	lui	a5,0x10000
    64a0:	8fe9                	and	a5,a5,a0
    64a2:	c799                	beqz	a5,64b0 <DMA_ClearFlag+0x14>
    64a4:	400207b7          	lui	a5,0x40020
    64a8:	40078793          	addi	a5,a5,1024 # 40020400 <_eusrstack+0x2001b400>
    64ac:	c3c8                	sw	a0,4(a5)
    64ae:	8082                	ret
    64b0:	400207b7          	lui	a5,0x40020
    64b4:	bfe5                	j	64ac <DMA_ClearFlag+0x10>

000064b6 <DMA_GetITStatus>:
    64b6:	fc7ff06f          	j	647c <DMA_GetFlagStatus>

000064ba <DMA_ClearITPendingBit>:
    64ba:	fe3ff06f          	j	649c <DMA_ClearFlag>

000064be <EXTI_Init>:
    64be:	4158                	lw	a4,4(a0)
    64c0:	410c                	lw	a1,0(a0)
    64c2:	4550                	lw	a2,12(a0)
    64c4:	400107b7          	lui	a5,0x40010
    64c8:	40078793          	addi	a5,a5,1024 # 40010400 <_eusrstack+0x2000b400>
    64cc:	973e                	add	a4,a4,a5
    64ce:	fff5c693          	not	a3,a1
    64d2:	c239                	beqz	a2,6518 <EXTI_Init+0x5a>
    64d4:	4390                	lw	a2,0(a5)
    64d6:	8e75                	and	a2,a2,a3
    64d8:	c390                	sw	a2,0(a5)
    64da:	43d0                	lw	a2,4(a5)
    64dc:	8ef1                	and	a3,a3,a2
    64de:	c3d4                	sw	a3,4(a5)
    64e0:	4314                	lw	a3,0(a4)
    64e2:	8ecd                	or	a3,a3,a1
    64e4:	c314                	sw	a3,0(a4)
    64e6:	4118                	lw	a4,0(a0)
    64e8:	4790                	lw	a2,8(a5)
    64ea:	fff74693          	not	a3,a4
    64ee:	8e75                	and	a2,a2,a3
    64f0:	c790                	sw	a2,8(a5)
    64f2:	47d0                	lw	a2,12(a5)
    64f4:	8ef1                	and	a3,a3,a2
    64f6:	c7d4                	sw	a3,12(a5)
    64f8:	4514                	lw	a3,8(a0)
    64fa:	4641                	li	a2,16
    64fc:	00c69963          	bne	a3,a2,650e <EXTI_Init+0x50>
    6500:	4794                	lw	a3,8(a5)
    6502:	8ed9                	or	a3,a3,a4
    6504:	c794                	sw	a3,8(a5)
    6506:	47d4                	lw	a3,12(a5)
    6508:	8f55                	or	a4,a4,a3
    650a:	c7d8                	sw	a4,12(a5)
    650c:	8082                	ret
    650e:	97b6                	add	a5,a5,a3
    6510:	4394                	lw	a3,0(a5)
    6512:	8f55                	or	a4,a4,a3
    6514:	c398                	sw	a4,0(a5)
    6516:	8082                	ret
    6518:	431c                	lw	a5,0(a4)
    651a:	8ff5                	and	a5,a5,a3
    651c:	c31c                	sw	a5,0(a4)
    651e:	8082                	ret

00006520 <ROM_ERASE>:
    6520:	40000793          	li	a5,1024
    6524:	04f61463          	bne	a2,a5,656c <ROM_ERASE+0x4c>
    6528:	40022737          	lui	a4,0x40022
    652c:	4b1c                	lw	a5,16(a4)
    652e:	0027e793          	ori	a5,a5,2
    6532:	cb1c                	sw	a5,16(a4)
    6534:	400227b7          	lui	a5,0x40022
    6538:	cbc8                	sw	a0,20(a5)
    653a:	4b98                	lw	a4,16(a5)
    653c:	04076713          	ori	a4,a4,64
    6540:	cb98                	sw	a4,16(a5)
    6542:	47d8                	lw	a4,12(a5)
    6544:	8b05                	andi	a4,a4,1
    6546:	ff75                	bnez	a4,6542 <ROM_ERASE+0x22>
    6548:	ffc57713          	andi	a4,a0,-4
    654c:	6685                	lui	a3,0x1
    654e:	8f35                	xor	a4,a4,a3
    6550:	4318                	lw	a4,0(a4)
    6552:	15fd                	addi	a1,a1,-1
    6554:	dbd8                	sw	a4,52(a5)
    6556:	40000713          	li	a4,1024
    655a:	02e61463          	bne	a2,a4,6582 <ROM_ERASE+0x62>
    655e:	4b98                	lw	a4,16(a5)
    6560:	40050513          	addi	a0,a0,1024
    6564:	9b75                	andi	a4,a4,-3
    6566:	cb98                	sw	a4,16(a5)
    6568:	f1e1                	bnez	a1,6528 <ROM_ERASE+0x8>
    656a:	8082                	ret
    656c:	08000793          	li	a5,128
    6570:	fcf612e3          	bne	a2,a5,6534 <ROM_ERASE+0x14>
    6574:	40022737          	lui	a4,0x40022
    6578:	4b1c                	lw	a5,16(a4)
    657a:	000206b7          	lui	a3,0x20
    657e:	8fd5                	or	a5,a5,a3
    6580:	bf4d                	j	6532 <ROM_ERASE+0x12>
    6582:	08000713          	li	a4,128
    6586:	00e61b63          	bne	a2,a4,659c <ROM_ERASE+0x7c>
    658a:	4b98                	lw	a4,16(a5)
    658c:	7681                	lui	a3,0xfffe0
    658e:	16fd                	addi	a3,a3,-1 # fffdffff <_eusrstack+0xdffdafff>
    6590:	8f75                	and	a4,a4,a3
    6592:	cb98                	sw	a4,16(a5)
    6594:	08050513          	addi	a0,a0,128
    6598:	f9f1                	bnez	a1,656c <ROM_ERASE+0x4c>
    659a:	8082                	ret
    659c:	f9e1                	bnez	a1,656c <ROM_ERASE+0x4c>
    659e:	8082                	ret

000065a0 <FLASH_ROM_ERASE>:
    65a0:	f80007b7          	lui	a5,0xf8000
    65a4:	97aa                	add	a5,a5,a0
    65a6:	6741                	lui	a4,0x10
    65a8:	10e7f563          	bgeu	a5,a4,66b2 <FLASH_ROM_ERASE+0x112>
    65ac:	babf92ef          	jal	t0,156 <__riscv_save_4>
    65b0:	00b50733          	add	a4,a0,a1
    65b4:	080106b7          	lui	a3,0x8010
    65b8:	84aa                	mv	s1,a0
    65ba:	0fd00793          	li	a5,253
    65be:	0ee6e463          	bltu	a3,a4,66a6 <FLASH_ROM_ERASE+0x106>
    65c2:	00b569b3          	or	s3,a0,a1
    65c6:	07f9f993          	andi	s3,s3,127
    65ca:	0fe00793          	li	a5,254
    65ce:	0c099c63          	bnez	s3,66a6 <FLASH_ROM_ERASE+0x106>
    65d2:	c9f1                	beqz	a1,66a6 <FLASH_ROM_ERASE+0x106>
    65d4:	456706b7          	lui	a3,0x45670
    65d8:	400227b7          	lui	a5,0x40022
    65dc:	12368693          	addi	a3,a3,291 # 45670123 <_eusrstack+0x2566b123>
    65e0:	cdef9737          	lui	a4,0xcdef9
    65e4:	c3d4                	sw	a3,4(a5)
    65e6:	9ab70713          	addi	a4,a4,-1621 # cdef89ab <_eusrstack+0xadef39ab>
    65ea:	c3d8                	sw	a4,4(a5)
    65ec:	d3d4                	sw	a3,36(a5)
    65ee:	d3d8                	sw	a4,36(a5)
    65f0:	3ff00913          	li	s2,1023
    65f4:	04b97163          	bgeu	s2,a1,6636 <FLASH_ROM_ERASE+0x96>
    65f8:	3ff57693          	andi	a3,a0,1023
    65fc:	40000713          	li	a4,1024
    6600:	40d707b3          	sub	a5,a4,a3
    6604:	c0058593          	addi	a1,a1,-1024
    6608:	00f50a33          	add	s4,a0,a5
    660c:	00d58433          	add	s0,a1,a3
    6610:	02e78d63          	beq	a5,a4,664a <FLASH_ROM_ERASE+0xaa>
    6614:	89be                	mv	s3,a5
    6616:	04896163          	bltu	s2,s0,6658 <FLASH_ROM_ERASE+0xb8>
    661a:	08000613          	li	a2,128
    661e:	0077d593          	srli	a1,a5,0x7
    6622:	effff0ef          	jal	ra,6520 <ROM_ERASE>
    6626:	8ad2                	mv	s5,s4
    6628:	8922                	mv	s2,s0
    662a:	08000613          	li	a2,128
    662e:	00795593          	srli	a1,s2,0x7
    6632:	8556                	mv	a0,s5
    6634:	a801                	j	6644 <FLASH_ROM_ERASE+0xa4>
    6636:	07f00793          	li	a5,127
    663a:	04b7fb63          	bgeu	a5,a1,6690 <FLASH_ROM_ERASE+0xf0>
    663e:	08000613          	li	a2,128
    6642:	819d                	srli	a1,a1,0x7
    6644:	eddff0ef          	jal	ra,6520 <ROM_ERASE>
    6648:	a0a1                	j	6690 <FLASH_ROM_ERASE+0xf0>
    664a:	40000613          	li	a2,1024
    664e:	4585                	li	a1,1
    6650:	ed1ff0ef          	jal	ra,6520 <ROM_ERASE>
    6654:	04897c63          	bgeu	s2,s0,66ac <FLASH_ROM_ERASE+0x10c>
    6658:	008a07b3          	add	a5,s4,s0
    665c:	3ff7f913          	andi	s2,a5,1023
    6660:	8ad2                	mv	s5,s4
    6662:	00090463          	beqz	s2,666a <FLASH_ROM_ERASE+0xca>
    6666:	c007fa93          	andi	s5,a5,-1024
    666a:	412405b3          	sub	a1,s0,s2
    666e:	40000613          	li	a2,1024
    6672:	81a9                	srli	a1,a1,0xa
    6674:	8552                	mv	a0,s4
    6676:	eabff0ef          	jal	ra,6520 <ROM_ERASE>
    667a:	00098963          	beqz	s3,668c <FLASH_ROM_ERASE+0xec>
    667e:	08000613          	li	a2,128
    6682:	0079d593          	srli	a1,s3,0x7
    6686:	8526                	mv	a0,s1
    6688:	e99ff0ef          	jal	ra,6520 <ROM_ERASE>
    668c:	f8091fe3          	bnez	s2,662a <FLASH_ROM_ERASE+0x8a>
    6690:	400227b7          	lui	a5,0x40022
    6694:	4b98                	lw	a4,16(a5)
    6696:	66a1                	lui	a3,0x8
    6698:	8f55                	or	a4,a4,a3
    669a:	cb98                	sw	a4,16(a5)
    669c:	4b98                	lw	a4,16(a5)
    669e:	08076713          	ori	a4,a4,128
    66a2:	cb98                	sw	a4,16(a5)
    66a4:	4791                	li	a5,4
    66a6:	853e                	mv	a0,a5
    66a8:	ae3f906f          	j	18a <__riscv_restore_4>
    66ac:	8922                	mv	s2,s0
    66ae:	8ad2                	mv	s5,s4
    66b0:	bff1                	j	668c <FLASH_ROM_ERASE+0xec>
    66b2:	0ff00793          	li	a5,255
    66b6:	853e                	mv	a0,a5
    66b8:	8082                	ret

000066ba <FLASH_ROM_WRITE>:
    66ba:	f8000737          	lui	a4,0xf8000
    66be:	972a                	add	a4,a4,a0
    66c0:	66c1                	lui	a3,0x10
    66c2:	87aa                	mv	a5,a0
    66c4:	10d77563          	bgeu	a4,a3,67ce <FLASH_ROM_WRITE+0x114>
    66c8:	00c50733          	add	a4,a0,a2
    66cc:	080106b7          	lui	a3,0x8010
    66d0:	0fd00513          	li	a0,253
    66d4:	0ee6ef63          	bltu	a3,a4,67d2 <FLASH_ROM_WRITE+0x118>
    66d8:	00c7e733          	or	a4,a5,a2
    66dc:	07f77713          	andi	a4,a4,127
    66e0:	0fe00513          	li	a0,254
    66e4:	e77d                	bnez	a4,67d2 <FLASH_ROM_WRITE+0x118>
    66e6:	c675                	beqz	a2,67d2 <FLASH_ROM_WRITE+0x118>
    66e8:	45670537          	lui	a0,0x45670
    66ec:	40022737          	lui	a4,0x40022
    66f0:	12350513          	addi	a0,a0,291 # 45670123 <_eusrstack+0x2566b123>
    66f4:	cdef96b7          	lui	a3,0xcdef9
    66f8:	c348                	sw	a0,4(a4)
    66fa:	9ab68693          	addi	a3,a3,-1621 # cdef89ab <_eusrstack+0xadef39ab>
    66fe:	c354                	sw	a3,4(a4)
    6700:	d348                	sw	a0,36(a4)
    6702:	7841                	lui	a6,0xffff0
    6704:	821d                	srli	a2,a2,0x7
    6706:	d354                	sw	a3,36(a4)
    6708:	6e41                	lui	t3,0x10
    670a:	00080eb7          	lui	t4,0x80
    670e:	00040f37          	lui	t5,0x40
    6712:	6305                	lui	t1,0x1
    6714:	187d                	addi	a6,a6,-1 # fffeffff <_eusrstack+0xdffeafff>
    6716:	400226b7          	lui	a3,0x40022
    671a:	4a88                	lw	a0,16(a3)
    671c:	01c56533          	or	a0,a0,t3
    6720:	ca88                	sw	a0,16(a3)
    6722:	4a88                	lw	a0,16(a3)
    6724:	01d56533          	or	a0,a0,t4
    6728:	ca88                	sw	a0,16(a3)
    672a:	4754                	lw	a3,12(a4)
    672c:	8a85                	andi	a3,a3,1
    672e:	fef5                	bnez	a3,672a <FLASH_ROM_WRITE+0x70>
    6730:	852e                	mv	a0,a1
    6732:	86be                	mv	a3,a5
    6734:	08078f93          	addi	t6,a5,128 # 40022080 <_eusrstack+0x2001d080>
    6738:	00052883          	lw	a7,0(a0)
    673c:	0116a023          	sw	a7,0(a3) # 40022000 <_eusrstack+0x2001d000>
    6740:	00452883          	lw	a7,4(a0)
    6744:	0116a223          	sw	a7,4(a3)
    6748:	00852883          	lw	a7,8(a0)
    674c:	0116a423          	sw	a7,8(a3)
    6750:	00c52883          	lw	a7,12(a0)
    6754:	0116a623          	sw	a7,12(a3)
    6758:	01072883          	lw	a7,16(a4) # 40022010 <_eusrstack+0x2001d010>
    675c:	01e8e8b3          	or	a7,a7,t5
    6760:	01172823          	sw	a7,16(a4)
    6764:	00c72883          	lw	a7,12(a4)
    6768:	0018f893          	andi	a7,a7,1
    676c:	fe089ce3          	bnez	a7,6764 <FLASH_ROM_WRITE+0xaa>
    6770:	ffc6f893          	andi	a7,a3,-4
    6774:	0068c8b3          	xor	a7,a7,t1
    6778:	0008a883          	lw	a7,0(a7)
    677c:	06c1                	addi	a3,a3,16
    677e:	0541                	addi	a0,a0,16
    6780:	03172a23          	sw	a7,52(a4)
    6784:	fadf9ae3          	bne	t6,a3,6738 <FLASH_ROM_WRITE+0x7e>
    6788:	cb5c                	sw	a5,20(a4)
    678a:	4b14                	lw	a3,16(a4)
    678c:	08058593          	addi	a1,a1,128
    6790:	0406e693          	ori	a3,a3,64
    6794:	cb14                	sw	a3,16(a4)
    6796:	4754                	lw	a3,12(a4)
    6798:	8a85                	andi	a3,a3,1
    679a:	fef5                	bnez	a3,6796 <FLASH_ROM_WRITE+0xdc>
    679c:	4b14                	lw	a3,16(a4)
    679e:	9bf1                	andi	a5,a5,-4
    67a0:	0067c7b3          	xor	a5,a5,t1
    67a4:	0106f6b3          	and	a3,a3,a6
    67a8:	cb14                	sw	a3,16(a4)
    67aa:	439c                	lw	a5,0(a5)
    67ac:	167d                	addi	a2,a2,-1
    67ae:	db5c                	sw	a5,52(a4)
    67b0:	ee09                	bnez	a2,67ca <FLASH_ROM_WRITE+0x110>
    67b2:	400227b7          	lui	a5,0x40022
    67b6:	4b98                	lw	a4,16(a5)
    67b8:	66a1                	lui	a3,0x8
    67ba:	4511                	li	a0,4
    67bc:	8f55                	or	a4,a4,a3
    67be:	cb98                	sw	a4,16(a5)
    67c0:	4b98                	lw	a4,16(a5)
    67c2:	08076713          	ori	a4,a4,128
    67c6:	cb98                	sw	a4,16(a5)
    67c8:	8082                	ret
    67ca:	87fe                	mv	a5,t6
    67cc:	b7a9                	j	6716 <FLASH_ROM_WRITE+0x5c>
    67ce:	0ff00513          	li	a0,255
    67d2:	8082                	ret

000067d4 <GPIO_Init>:
    67d4:	459c                	lw	a5,8(a1)
    67d6:	0107f713          	andi	a4,a5,16
    67da:	00f7f813          	andi	a6,a5,15
    67de:	c701                	beqz	a4,67e6 <GPIO_Init+0x12>
    67e0:	41d8                	lw	a4,4(a1)
    67e2:	00e86833          	or	a6,a6,a4
    67e6:	0005d583          	lhu	a1,0(a1)
    67ea:	0ff5f713          	zext.b	a4,a1
    67ee:	c331                	beqz	a4,6832 <GPIO_Init+0x5e>
    67f0:	4118                	lw	a4,0(a0)
    67f2:	4681                	li	a3,0
    67f4:	4e05                	li	t3,1
    67f6:	02800e93          	li	t4,40
    67fa:	4f3d                	li	t5,15
    67fc:	04800f93          	li	t6,72
    6800:	4321                	li	t1,8
    6802:	00de1633          	sll	a2,t3,a3
    6806:	00c5f8b3          	and	a7,a1,a2
    680a:	03161063          	bne	a2,a7,682a <GPIO_Init+0x56>
    680e:	07d79a63          	bne	a5,t4,6882 <GPIO_Init+0xae>
    6812:	c950                	sw	a2,20(a0)
    6814:	00269613          	slli	a2,a3,0x2
    6818:	00cf18b3          	sll	a7,t5,a2
    681c:	fff8c893          	not	a7,a7
    6820:	00e8f733          	and	a4,a7,a4
    6824:	00c81633          	sll	a2,a6,a2
    6828:	8f51                	or	a4,a4,a2
    682a:	0685                	addi	a3,a3,1 # 8001 <__divdf3+0xdf>
    682c:	fc669be3          	bne	a3,t1,6802 <GPIO_Init+0x2e>
    6830:	c118                	sw	a4,0(a0)
    6832:	0ff00713          	li	a4,255
    6836:	04b77563          	bgeu	a4,a1,6880 <GPIO_Init+0xac>
    683a:	4154                	lw	a3,4(a0)
    683c:	4601                	li	a2,0
    683e:	4e05                	li	t3,1
    6840:	02800e93          	li	t4,40
    6844:	04800f13          	li	t5,72
    6848:	4321                	li	t1,8
    684a:	00860713          	addi	a4,a2,8
    684e:	00ee1733          	sll	a4,t3,a4
    6852:	00e5f8b3          	and	a7,a1,a4
    6856:	03171163          	bne	a4,a7,6878 <GPIO_Init+0xa4>
    685a:	03d79863          	bne	a5,t4,688a <GPIO_Init+0xb6>
    685e:	c958                	sw	a4,20(a0)
    6860:	00261893          	slli	a7,a2,0x2
    6864:	473d                	li	a4,15
    6866:	01171733          	sll	a4,a4,a7
    686a:	fff74713          	not	a4,a4
    686e:	8ef9                	and	a3,a3,a4
    6870:	011818b3          	sll	a7,a6,a7
    6874:	00d8e6b3          	or	a3,a7,a3
    6878:	0605                	addi	a2,a2,1
    687a:	fc6618e3          	bne	a2,t1,684a <GPIO_Init+0x76>
    687e:	c154                	sw	a3,4(a0)
    6880:	8082                	ret
    6882:	f9f799e3          	bne	a5,t6,6814 <GPIO_Init+0x40>
    6886:	c910                	sw	a2,16(a0)
    6888:	b771                	j	6814 <GPIO_Init+0x40>
    688a:	fde79be3          	bne	a5,t5,6860 <GPIO_Init+0x8c>
    688e:	c918                	sw	a4,16(a0)
    6890:	bfc1                	j	6860 <GPIO_Init+0x8c>

00006892 <GPIO_ReadInputDataBit>:
    6892:	451c                	lw	a5,8(a0)
    6894:	00f5f533          	and	a0,a1,a5
    6898:	00a03533          	snez	a0,a0
    689c:	8082                	ret

0000689e <GPIO_SetBits>:
    689e:	c90c                	sw	a1,16(a0)
    68a0:	8082                	ret

000068a2 <GPIO_ResetBits>:
    68a2:	c94c                	sw	a1,20(a0)
    68a4:	8082                	ret

000068a6 <GPIO_EXTILineConfig>:
    68a6:	0035f693          	andi	a3,a1,3
    68aa:	40010737          	lui	a4,0x40010
    68ae:	0fc5f593          	andi	a1,a1,252
    68b2:	972e                	add	a4,a4,a1
    68b4:	4710                	lw	a2,8(a4)
    68b6:	068a                	slli	a3,a3,0x2
    68b8:	47bd                	li	a5,15
    68ba:	00d797b3          	sll	a5,a5,a3
    68be:	fff7c793          	not	a5,a5
    68c2:	8ff1                	and	a5,a5,a2
    68c4:	c71c                	sw	a5,8(a4)
    68c6:	471c                	lw	a5,8(a4)
    68c8:	00d51533          	sll	a0,a0,a3
    68cc:	8d5d                	or	a0,a0,a5
    68ce:	c708                	sw	a0,8(a4)
    68d0:	8082                	ret

000068d2 <I2C_DeInit>:
    68d2:	89ff92ef          	jal	t0,170 <__riscv_save_0>
    68d6:	400057b7          	lui	a5,0x40005
    68da:	40078793          	addi	a5,a5,1024 # 40005400 <_eusrstack+0x20000400>
    68de:	4585                	li	a1,1
    68e0:	00f51b63          	bne	a0,a5,68f6 <I2C_DeInit+0x24>
    68e4:	00200537          	lui	a0,0x200
    68e8:	2b09                	jal	6dfa <RCC_APB1PeriphResetCmd>
    68ea:	4581                	li	a1,0
    68ec:	00200537          	lui	a0,0x200
    68f0:	2329                	jal	6dfa <RCC_APB1PeriphResetCmd>
    68f2:	8a3f906f          	j	194 <__riscv_restore_0>
    68f6:	00400537          	lui	a0,0x400
    68fa:	2301                	jal	6dfa <RCC_APB1PeriphResetCmd>
    68fc:	4581                	li	a1,0
    68fe:	00400537          	lui	a0,0x400
    6902:	b7fd                	j	68f0 <I2C_DeInit+0x1e>

00006904 <I2C_Init>:
    6904:	86df92ef          	jal	t0,170 <__riscv_save_0>
    6908:	1101                	addi	sp,sp,-32
    690a:	842a                	mv	s0,a0
    690c:	00455483          	lhu	s1,4(a0) # 400004 <_data_lma+0x3f4420>
    6910:	0068                	addi	a0,sp,12
    6912:	892e                	mv	s2,a1
    6914:	2e7d                	jal	6cd2 <RCC_GetClocksFreq>
    6916:	47d2                	lw	a5,20(sp)
    6918:	000f46b7          	lui	a3,0xf4
    691c:	24068693          	addi	a3,a3,576 # f4240 <_data_lma+0xe865c>
    6920:	02d7d6b3          	divu	a3,a5,a3
    6924:	04c2                	slli	s1,s1,0x10
    6926:	80c1                	srli	s1,s1,0x10
    6928:	fc04f493          	andi	s1,s1,-64
    692c:	04c2                	slli	s1,s1,0x10
    692e:	80c1                	srli	s1,s1,0x10
    6930:	65e1                	lui	a1,0x18
    6932:	6a058593          	addi	a1,a1,1696 # 186a0 <_data_lma+0xcabc>
    6936:	01069613          	slli	a2,a3,0x10
    693a:	8241                	srli	a2,a2,0x10
    693c:	8cd1                	or	s1,s1,a2
    693e:	00941223          	sh	s1,4(s0)
    6942:	00045703          	lhu	a4,0(s0)
    6946:	0742                	slli	a4,a4,0x10
    6948:	8341                	srli	a4,a4,0x10
    694a:	9b79                	andi	a4,a4,-2
    694c:	0742                	slli	a4,a4,0x10
    694e:	8341                	srli	a4,a4,0x10
    6950:	00e41023          	sh	a4,0(s0)
    6954:	00092703          	lw	a4,0(s2)
    6958:	06e5e363          	bltu	a1,a4,69be <I2C_Init+0xba>
    695c:	0706                	slli	a4,a4,0x1
    695e:	02e7d733          	divu	a4,a5,a4
    6962:	4691                	li	a3,4
    6964:	87ba                	mv	a5,a4
    6966:	0742                	slli	a4,a4,0x10
    6968:	8341                	srli	a4,a4,0x10
    696a:	00d77363          	bgeu	a4,a3,6970 <I2C_Init+0x6c>
    696e:	4791                	li	a5,4
    6970:	0605                	addi	a2,a2,1
    6972:	0642                	slli	a2,a2,0x10
    6974:	07c2                	slli	a5,a5,0x10
    6976:	8241                	srli	a2,a2,0x10
    6978:	83c1                	srli	a5,a5,0x10
    697a:	02c41023          	sh	a2,32(s0)
    697e:	00f41e23          	sh	a5,28(s0)
    6982:	00045783          	lhu	a5,0(s0)
    6986:	00495703          	lhu	a4,4(s2)
    698a:	00a95683          	lhu	a3,10(s2)
    698e:	0017e793          	ori	a5,a5,1
    6992:	00f41023          	sh	a5,0(s0)
    6996:	00045783          	lhu	a5,0(s0)
    699a:	8f55                	or	a4,a4,a3
    699c:	07c2                	slli	a5,a5,0x10
    699e:	83c1                	srli	a5,a5,0x10
    69a0:	bf57f793          	andi	a5,a5,-1035
    69a4:	8fd9                	or	a5,a5,a4
    69a6:	00f41023          	sh	a5,0(s0)
    69aa:	00895703          	lhu	a4,8(s2)
    69ae:	00c95783          	lhu	a5,12(s2)
    69b2:	8fd9                	or	a5,a5,a4
    69b4:	00f41423          	sh	a5,8(s0)
    69b8:	6105                	addi	sp,sp,32
    69ba:	fdaf906f          	j	194 <__riscv_restore_0>
    69be:	00695583          	lhu	a1,6(s2)
    69c2:	6631                	lui	a2,0xc
    69c4:	167d                	addi	a2,a2,-1 # bfff <_data_lma+0x41b>
    69c6:	02c59e63          	bne	a1,a2,6a02 <I2C_Init+0xfe>
    69ca:	460d                	li	a2,3
    69cc:	02c70733          	mul	a4,a4,a2
    69d0:	02e7d7b3          	divu	a5,a5,a4
    69d4:	07c2                	slli	a5,a5,0x10
    69d6:	83c1                	srli	a5,a5,0x10
    69d8:	01479713          	slli	a4,a5,0x14
    69dc:	e319                	bnez	a4,69e2 <I2C_Init+0xde>
    69de:	0017e793          	ori	a5,a5,1
    69e2:	6721                	lui	a4,0x8
    69e4:	8fd9                	or	a5,a5,a4
    69e6:	12c00713          	li	a4,300
    69ea:	02e686b3          	mul	a3,a3,a4
    69ee:	3e800713          	li	a4,1000
    69f2:	02e6c6b3          	div	a3,a3,a4
    69f6:	0685                	addi	a3,a3,1
    69f8:	06c2                	slli	a3,a3,0x10
    69fa:	82c1                	srli	a3,a3,0x10
    69fc:	02d41023          	sh	a3,32(s0)
    6a00:	bfbd                	j	697e <I2C_Init+0x7a>
    6a02:	4665                	li	a2,25
    6a04:	02c70733          	mul	a4,a4,a2
    6a08:	02e7d7b3          	divu	a5,a5,a4
    6a0c:	6711                	lui	a4,0x4
    6a0e:	07c2                	slli	a5,a5,0x10
    6a10:	83c1                	srli	a5,a5,0x10
    6a12:	8fd9                	or	a5,a5,a4
    6a14:	b7d1                	j	69d8 <I2C_Init+0xd4>

00006a16 <I2C_Cmd>:
    6a16:	00055783          	lhu	a5,0(a0)
    6a1a:	c591                	beqz	a1,6a26 <I2C_Cmd+0x10>
    6a1c:	0017e793          	ori	a5,a5,1
    6a20:	00f51023          	sh	a5,0(a0)
    6a24:	8082                	ret
    6a26:	07c2                	slli	a5,a5,0x10
    6a28:	83c1                	srli	a5,a5,0x10
    6a2a:	9bf9                	andi	a5,a5,-2
    6a2c:	07c2                	slli	a5,a5,0x10
    6a2e:	83c1                	srli	a5,a5,0x10
    6a30:	bfc5                	j	6a20 <I2C_Cmd+0xa>

00006a32 <I2C_GenerateSTART>:
    6a32:	00055783          	lhu	a5,0(a0)
    6a36:	c591                	beqz	a1,6a42 <I2C_GenerateSTART+0x10>
    6a38:	1007e793          	ori	a5,a5,256
    6a3c:	00f51023          	sh	a5,0(a0)
    6a40:	8082                	ret
    6a42:	07c2                	slli	a5,a5,0x10
    6a44:	83c1                	srli	a5,a5,0x10
    6a46:	eff7f793          	andi	a5,a5,-257
    6a4a:	07c2                	slli	a5,a5,0x10
    6a4c:	83c1                	srli	a5,a5,0x10
    6a4e:	b7fd                	j	6a3c <I2C_GenerateSTART+0xa>

00006a50 <I2C_GenerateSTOP>:
    6a50:	00055783          	lhu	a5,0(a0)
    6a54:	c591                	beqz	a1,6a60 <I2C_GenerateSTOP+0x10>
    6a56:	2007e793          	ori	a5,a5,512
    6a5a:	00f51023          	sh	a5,0(a0)
    6a5e:	8082                	ret
    6a60:	07c2                	slli	a5,a5,0x10
    6a62:	83c1                	srli	a5,a5,0x10
    6a64:	dff7f793          	andi	a5,a5,-513
    6a68:	07c2                	slli	a5,a5,0x10
    6a6a:	83c1                	srli	a5,a5,0x10
    6a6c:	b7fd                	j	6a5a <I2C_GenerateSTOP+0xa>

00006a6e <I2C_AcknowledgeConfig>:
    6a6e:	00055783          	lhu	a5,0(a0)
    6a72:	c591                	beqz	a1,6a7e <I2C_AcknowledgeConfig+0x10>
    6a74:	4007e793          	ori	a5,a5,1024
    6a78:	00f51023          	sh	a5,0(a0)
    6a7c:	8082                	ret
    6a7e:	07c2                	slli	a5,a5,0x10
    6a80:	83c1                	srli	a5,a5,0x10
    6a82:	bff7f793          	andi	a5,a5,-1025
    6a86:	07c2                	slli	a5,a5,0x10
    6a88:	83c1                	srli	a5,a5,0x10
    6a8a:	b7fd                	j	6a78 <I2C_AcknowledgeConfig+0xa>

00006a8c <I2C_SendData>:
    6a8c:	00b51823          	sh	a1,16(a0)
    6a90:	8082                	ret

00006a92 <I2C_ReceiveData>:
    6a92:	01055503          	lhu	a0,16(a0)
    6a96:	0ff57513          	zext.b	a0,a0
    6a9a:	8082                	ret

00006a9c <I2C_Send7bitAddress>:
    6a9c:	0fe5f793          	andi	a5,a1,254
    6aa0:	c219                	beqz	a2,6aa6 <I2C_Send7bitAddress+0xa>
    6aa2:	0015e793          	ori	a5,a1,1
    6aa6:	00f51823          	sh	a5,16(a0)
    6aaa:	8082                	ret

00006aac <I2C_SoftwareResetCmd>:
    6aac:	00055783          	lhu	a5,0(a0)
    6ab0:	c591                	beqz	a1,6abc <I2C_SoftwareResetCmd+0x10>
    6ab2:	6721                	lui	a4,0x8
    6ab4:	8fd9                	or	a5,a5,a4
    6ab6:	00f51023          	sh	a5,0(a0)
    6aba:	8082                	ret
    6abc:	07c6                	slli	a5,a5,0x11
    6abe:	83c5                	srli	a5,a5,0x11
    6ac0:	bfdd                	j	6ab6 <I2C_SoftwareResetCmd+0xa>

00006ac2 <I2C_NACKPositionConfig>:
    6ac2:	00055783          	lhu	a5,0(a0)
    6ac6:	80058593          	addi	a1,a1,-2048
    6aca:	e991                	bnez	a1,6ade <I2C_NACKPositionConfig+0x1c>
    6acc:	6705                	lui	a4,0x1
    6ace:	80070713          	addi	a4,a4,-2048 # 800 <USBFS_IRQHandler+0x43a>
    6ad2:	8fd9                	or	a5,a5,a4
    6ad4:	07c2                	slli	a5,a5,0x10
    6ad6:	83c1                	srli	a5,a5,0x10
    6ad8:	00f51023          	sh	a5,0(a0)
    6adc:	8082                	ret
    6ade:	777d                	lui	a4,0xfffff
    6ae0:	7ff70713          	addi	a4,a4,2047 # fffff7ff <_eusrstack+0xdfffa7ff>
    6ae4:	8ff9                	and	a5,a5,a4
    6ae6:	bfcd                	j	6ad8 <I2C_NACKPositionConfig+0x16>

00006ae8 <I2C_CheckEvent>:
    6ae8:	01455783          	lhu	a5,20(a0)
    6aec:	01855503          	lhu	a0,24(a0)
    6af0:	0542                	slli	a0,a0,0x10
    6af2:	8d5d                	or	a0,a0,a5
    6af4:	8d6d                	and	a0,a0,a1
    6af6:	0522                	slli	a0,a0,0x8
    6af8:	8121                	srli	a0,a0,0x8
    6afa:	8d0d                	sub	a0,a0,a1
    6afc:	00153513          	seqz	a0,a0
    6b00:	8082                	ret

00006b02 <I2C_GetFlagStatus>:
    6b02:	1141                	addi	sp,sp,-16
    6b04:	c402                	sw	zero,8(sp)
    6b06:	c602                	sw	zero,12(sp)
    6b08:	01c5d793          	srli	a5,a1,0x1c
    6b0c:	c62a                	sw	a0,12(sp)
    6b0e:	c43e                	sw	a5,8(sp)
    6b10:	47a2                	lw	a5,8(sp)
    6b12:	05a2                	slli	a1,a1,0x8
    6b14:	81a1                	srli	a1,a1,0x8
    6b16:	cb99                	beqz	a5,6b2c <I2C_GetFlagStatus+0x2a>
    6b18:	47b2                	lw	a5,12(sp)
    6b1a:	07d1                	addi	a5,a5,20
    6b1c:	c63e                	sw	a5,12(sp)
    6b1e:	47b2                	lw	a5,12(sp)
    6b20:	4388                	lw	a0,0(a5)
    6b22:	0141                	addi	sp,sp,16
    6b24:	8d6d                	and	a0,a0,a1
    6b26:	00a03533          	snez	a0,a0
    6b2a:	8082                	ret
    6b2c:	47b2                	lw	a5,12(sp)
    6b2e:	81c1                	srli	a1,a1,0x10
    6b30:	07e1                	addi	a5,a5,24
    6b32:	b7ed                	j	6b1c <I2C_GetFlagStatus+0x1a>

00006b34 <NVIC_PriorityGroupConfig>:
    6b34:	e000e7b7          	lui	a5,0xe000e
    6b38:	fa050737          	lui	a4,0xfa050
    6b3c:	c7b8                	sw	a4,72(a5)
    6b3e:	a0a1a223          	sw	a0,-1532(gp) # 20001aac <NVIC_Priority_Group>
    6b42:	8082                	ret

00006b44 <NVIC_Init>:
    6b44:	a041a683          	lw	a3,-1532(gp) # 20001aac <NVIC_Priority_Group>
    6b48:	4785                	li	a5,1
    6b4a:	00054703          	lbu	a4,0(a0)
    6b4e:	02f69263          	bne	a3,a5,6b72 <NVIC_Init+0x2e>
    6b52:	00154783          	lbu	a5,1(a0)
    6b56:	02d79d63          	bne	a5,a3,6b90 <NVIC_Init+0x4c>
    6b5a:	00254783          	lbu	a5,2(a0)
    6b5e:	0792                	slli	a5,a5,0x4
    6b60:	f807e793          	ori	a5,a5,-128
    6b64:	e000e6b7          	lui	a3,0xe000e
    6b68:	0ff7f793          	zext.b	a5,a5
    6b6c:	96ba                	add	a3,a3,a4
    6b6e:	40f68023          	sb	a5,1024(a3) # e000e400 <_eusrstack+0xc0009400>
    6b72:	4685                	li	a3,1
    6b74:	00575793          	srli	a5,a4,0x5
    6b78:	00e696b3          	sll	a3,a3,a4
    6b7c:	4158                	lw	a4,4(a0)
    6b7e:	cf11                	beqz	a4,6b9a <NVIC_Init+0x56>
    6b80:	04078793          	addi	a5,a5,64 # e000e040 <_eusrstack+0xc0009040>
    6b84:	078a                	slli	a5,a5,0x2
    6b86:	e000e737          	lui	a4,0xe000e
    6b8a:	97ba                	add	a5,a5,a4
    6b8c:	c394                	sw	a3,0(a5)
    6b8e:	8082                	ret
    6b90:	f3ed                	bnez	a5,6b72 <NVIC_Init+0x2e>
    6b92:	00254783          	lbu	a5,2(a0)
    6b96:	0792                	slli	a5,a5,0x4
    6b98:	b7f1                	j	6b64 <NVIC_Init+0x20>
    6b9a:	e000e737          	lui	a4,0xe000e
    6b9e:	06078793          	addi	a5,a5,96
    6ba2:	4330                	lw	a2,64(a4)
    6ba4:	45c1                	li	a1,16
    6ba6:	078a                	slli	a5,a5,0x2
    6ba8:	c32c                	sw	a1,64(a4)
    6baa:	97ba                	add	a5,a5,a4
    6bac:	c394                	sw	a3,0(a5)
    6bae:	c330                	sw	a2,64(a4)
    6bb0:	8082                	ret

00006bb2 <PWR_PVDCmd>:
    6bb2:	40007737          	lui	a4,0x40007
    6bb6:	431c                	lw	a5,0(a4)
    6bb8:	c509                	beqz	a0,6bc2 <PWR_PVDCmd+0x10>
    6bba:	0107e793          	ori	a5,a5,16
    6bbe:	c31c                	sw	a5,0(a4)
    6bc0:	8082                	ret
    6bc2:	9bbd                	andi	a5,a5,-17
    6bc4:	bfed                	j	6bbe <PWR_PVDCmd+0xc>

00006bc6 <PWR_PVDLevelConfig>:
    6bc6:	40007737          	lui	a4,0x40007
    6bca:	431c                	lw	a5,0(a4)
    6bcc:	f1f7f793          	andi	a5,a5,-225
    6bd0:	8fc9                	or	a5,a5,a0
    6bd2:	c31c                	sw	a5,0(a4)
    6bd4:	8082                	ret

00006bd6 <PWR_EnterSTOPMode>:
    6bd6:	40007737          	lui	a4,0x40007
    6bda:	431c                	lw	a5,0(a4)
    6bdc:	9bf1                	andi	a5,a5,-4
    6bde:	8fc9                	or	a5,a5,a0
    6be0:	c31c                	sw	a5,0(a4)
    6be2:	e000f7b7          	lui	a5,0xe000f
    6be6:	d107a703          	lw	a4,-752(a5) # e000ed10 <_eusrstack+0xc0009d10>
    6bea:	00476713          	ori	a4,a4,4
    6bee:	d0e7a823          	sw	a4,-752(a5)
    6bf2:	4705                	li	a4,1
    6bf4:	02e59163          	bne	a1,a4,6c16 <PWR_EnterSTOPMode+0x40>
    6bf8:	d107a703          	lw	a4,-752(a5)
    6bfc:	9b5d                	andi	a4,a4,-9
    6bfe:	d0e7a823          	sw	a4,-752(a5)
    6c02:	10500073          	wfi
    6c06:	e000f737          	lui	a4,0xe000f
    6c0a:	d1072783          	lw	a5,-752(a4) # e000ed10 <_eusrstack+0xc0009d10>
    6c0e:	9bed                	andi	a5,a5,-5
    6c10:	d0f72823          	sw	a5,-752(a4)
    6c14:	8082                	ret
    6c16:	d0078793          	addi	a5,a5,-768
    6c1a:	4b98                	lw	a4,16(a5)
    6c1c:	02876713          	ori	a4,a4,40
    6c20:	cb98                	sw	a4,16(a5)
    6c22:	4b98                	lw	a4,16(a5)
    6c24:	00876713          	ori	a4,a4,8
    6c28:	cb98                	sw	a4,16(a5)
    6c2a:	10500073          	wfi
    6c2e:	4b98                	lw	a4,16(a5)
    6c30:	00876713          	ori	a4,a4,8
    6c34:	cb98                	sw	a4,16(a5)
    6c36:	b7f1                	j	6c02 <PWR_EnterSTOPMode+0x2c>

00006c38 <PWR_GetFlagStatus>:
    6c38:	400077b7          	lui	a5,0x40007
    6c3c:	43dc                	lw	a5,4(a5)
    6c3e:	8d7d                	and	a0,a0,a5
    6c40:	00a03533          	snez	a0,a0
    6c44:	8082                	ret

00006c46 <PWR_VDD_SupplyVoltage>:
    6c46:	d2af92ef          	jal	t0,170 <__riscv_save_0>
    6c4a:	4585                	li	a1,1
    6c4c:	10000537          	lui	a0,0x10000
    6c50:	22bd                	jal	6dbe <RCC_APB1PeriphClockCmd>
    6c52:	0c000513          	li	a0,192
    6c56:	f71ff0ef          	jal	ra,6bc6 <PWR_PVDLevelConfig>
    6c5a:	40007737          	lui	a4,0x40007
    6c5e:	431c                	lw	a5,0(a4)
    6c60:	4529                	li	a0,10
    6c62:	0107e793          	ori	a5,a5,16
    6c66:	c31c                	sw	a5,0(a4)
    6c68:	dccfe0ef          	jal	ra,5234 <Delay_Us>
    6c6c:	4511                	li	a0,4
    6c6e:	fcbff0ef          	jal	ra,6c38 <PWR_GetFlagStatus>
    6c72:	842a                	mv	s0,a0
    6c74:	4501                	li	a0,0
    6c76:	f51ff0ef          	jal	ra,6bc6 <PWR_PVDLevelConfig>
    6c7a:	4501                	li	a0,0
    6c7c:	f37ff0ef          	jal	ra,6bb2 <PWR_PVDCmd>
    6c80:	00803533          	snez	a0,s0
    6c84:	d10f906f          	j	194 <__riscv_restore_0>

00006c88 <RCC_USBCLKConfig>:
    6c88:	c909                	beqz	a0,6c9a <RCC_USBCLKConfig+0x12>
    6c8a:	40021737          	lui	a4,0x40021
    6c8e:	435c                	lw	a5,4(a4)
    6c90:	004006b7          	lui	a3,0x400
    6c94:	8fd5                	or	a5,a5,a3
    6c96:	c35c                	sw	a5,4(a4)
    6c98:	8082                	ret
    6c9a:	400216b7          	lui	a3,0x40021
    6c9e:	42dc                	lw	a5,4(a3)
    6ca0:	ffc00737          	lui	a4,0xffc00
    6ca4:	177d                	addi	a4,a4,-1 # ffbfffff <_eusrstack+0xdfbfafff>
    6ca6:	8ff9                	and	a5,a5,a4
    6ca8:	c2dc                	sw	a5,4(a3)
    6caa:	8082                	ret

00006cac <RCC_ADCCLKConfig>:
    6cac:	400216b7          	lui	a3,0x40021
    6cb0:	42dc                	lw	a5,4(a3)
    6cb2:	7751                	lui	a4,0xffff4
    6cb4:	177d                	addi	a4,a4,-1 # ffff3fff <_eusrstack+0xdffeefff>
    6cb6:	8ff9                	and	a5,a5,a4
    6cb8:	8fc9                	or	a5,a5,a0
    6cba:	c2dc                	sw	a5,4(a3)
    6cbc:	8082                	ret

00006cbe <RCC_LSICmd>:
    6cbe:	40021737          	lui	a4,0x40021
    6cc2:	535c                	lw	a5,36(a4)
    6cc4:	c509                	beqz	a0,6cce <RCC_LSICmd+0x10>
    6cc6:	0017e793          	ori	a5,a5,1
    6cca:	d35c                	sw	a5,36(a4)
    6ccc:	8082                	ret
    6cce:	9bf9                	andi	a5,a5,-2
    6cd0:	bfed                	j	6cca <RCC_LSICmd+0xc>

00006cd2 <RCC_GetClocksFreq>:
    6cd2:	40021737          	lui	a4,0x40021
    6cd6:	435c                	lw	a5,4(a4)
    6cd8:	46a1                	li	a3,8
    6cda:	8bb1                	andi	a5,a5,12
    6cdc:	08d79e63          	bne	a5,a3,6d78 <RCC_GetClocksFreq+0xa6>
    6ce0:	435c                	lw	a5,4(a4)
    6ce2:	4354                	lw	a3,4(a4)
    6ce4:	6641                	lui	a2,0x10
    6ce6:	83c9                	srli	a5,a5,0x12
    6ce8:	8bbd                	andi	a5,a5,15
    6cea:	8ef1                	and	a3,a3,a2
    6cec:	0789                	addi	a5,a5,2 # 40007002 <_eusrstack+0x20002002>
    6cee:	ee81                	bnez	a3,6d06 <RCC_GetClocksFreq+0x34>
    6cf0:	40024737          	lui	a4,0x40024
    6cf4:	80072703          	lw	a4,-2048(a4) # 40023800 <_eusrstack+0x2001e800>
    6cf8:	8b41                	andi	a4,a4,16
    6cfa:	cb19                	beqz	a4,6d10 <RCC_GetClocksFreq+0x3e>
    6cfc:	007a1737          	lui	a4,0x7a1
    6d00:	20070713          	addi	a4,a4,512 # 7a1200 <_data_lma+0x79561c>
    6d04:	a811                	j	6d18 <RCC_GetClocksFreq+0x46>
    6d06:	4358                	lw	a4,4(a4)
    6d08:	000206b7          	lui	a3,0x20
    6d0c:	8f75                	and	a4,a4,a3
    6d0e:	d77d                	beqz	a4,6cfc <RCC_GetClocksFreq+0x2a>
    6d10:	003d1737          	lui	a4,0x3d1
    6d14:	90070713          	addi	a4,a4,-1792 # 3d0900 <_data_lma+0x3c4d1c>
    6d18:	02e787b3          	mul	a5,a5,a4
    6d1c:	c11c                	sw	a5,0(a0)
    6d1e:	40021637          	lui	a2,0x40021
    6d22:	4254                	lw	a3,4(a2)
    6d24:	20002737          	lui	a4,0x20002
    6d28:	83470713          	addi	a4,a4,-1996 # 20001834 <APBAHBPrescTable>
    6d2c:	8291                	srli	a3,a3,0x4
    6d2e:	8abd                	andi	a3,a3,15
    6d30:	96ba                	add	a3,a3,a4
    6d32:	0006c683          	lbu	a3,0(a3) # 20000 <_data_lma+0x1441c>
    6d36:	00d7d7b3          	srl	a5,a5,a3
    6d3a:	c15c                	sw	a5,4(a0)
    6d3c:	4254                	lw	a3,4(a2)
    6d3e:	82a1                	srli	a3,a3,0x8
    6d40:	8a9d                	andi	a3,a3,7
    6d42:	96ba                	add	a3,a3,a4
    6d44:	0006c683          	lbu	a3,0(a3)
    6d48:	00d7d6b3          	srl	a3,a5,a3
    6d4c:	c514                	sw	a3,8(a0)
    6d4e:	4254                	lw	a3,4(a2)
    6d50:	82ad                	srli	a3,a3,0xb
    6d52:	8a9d                	andi	a3,a3,7
    6d54:	9736                	add	a4,a4,a3
    6d56:	00074703          	lbu	a4,0(a4)
    6d5a:	81818693          	addi	a3,gp,-2024 # 200018c0 <ADCPrescTable>
    6d5e:	00e7d7b3          	srl	a5,a5,a4
    6d62:	c55c                	sw	a5,12(a0)
    6d64:	4258                	lw	a4,4(a2)
    6d66:	8339                	srli	a4,a4,0xe
    6d68:	8b0d                	andi	a4,a4,3
    6d6a:	9736                	add	a4,a4,a3
    6d6c:	00074703          	lbu	a4,0(a4)
    6d70:	02e7d7b3          	divu	a5,a5,a4
    6d74:	c91c                	sw	a5,16(a0)
    6d76:	8082                	ret
    6d78:	007a17b7          	lui	a5,0x7a1
    6d7c:	20078793          	addi	a5,a5,512 # 7a1200 <_data_lma+0x79561c>
    6d80:	bf71                	j	6d1c <RCC_GetClocksFreq+0x4a>

00006d82 <RCC_AHBPeriphClockCmd>:
    6d82:	c599                	beqz	a1,6d90 <RCC_AHBPeriphClockCmd+0xe>
    6d84:	40021737          	lui	a4,0x40021
    6d88:	4b5c                	lw	a5,20(a4)
    6d8a:	8fc9                	or	a5,a5,a0
    6d8c:	cb5c                	sw	a5,20(a4)
    6d8e:	8082                	ret
    6d90:	400217b7          	lui	a5,0x40021
    6d94:	4bd8                	lw	a4,20(a5)
    6d96:	fff54513          	not	a0,a0
    6d9a:	8d79                	and	a0,a0,a4
    6d9c:	cbc8                	sw	a0,20(a5)
    6d9e:	8082                	ret

00006da0 <RCC_APB2PeriphClockCmd>:
    6da0:	c599                	beqz	a1,6dae <RCC_APB2PeriphClockCmd+0xe>
    6da2:	40021737          	lui	a4,0x40021
    6da6:	4f1c                	lw	a5,24(a4)
    6da8:	8fc9                	or	a5,a5,a0
    6daa:	cf1c                	sw	a5,24(a4)
    6dac:	8082                	ret
    6dae:	400217b7          	lui	a5,0x40021
    6db2:	4f98                	lw	a4,24(a5)
    6db4:	fff54513          	not	a0,a0
    6db8:	8d79                	and	a0,a0,a4
    6dba:	cf88                	sw	a0,24(a5)
    6dbc:	8082                	ret

00006dbe <RCC_APB1PeriphClockCmd>:
    6dbe:	c599                	beqz	a1,6dcc <RCC_APB1PeriphClockCmd+0xe>
    6dc0:	40021737          	lui	a4,0x40021
    6dc4:	4f5c                	lw	a5,28(a4)
    6dc6:	8fc9                	or	a5,a5,a0
    6dc8:	cf5c                	sw	a5,28(a4)
    6dca:	8082                	ret
    6dcc:	400217b7          	lui	a5,0x40021
    6dd0:	4fd8                	lw	a4,28(a5)
    6dd2:	fff54513          	not	a0,a0
    6dd6:	8d79                	and	a0,a0,a4
    6dd8:	cfc8                	sw	a0,28(a5)
    6dda:	8082                	ret

00006ddc <RCC_APB2PeriphResetCmd>:
    6ddc:	c599                	beqz	a1,6dea <RCC_APB2PeriphResetCmd+0xe>
    6dde:	40021737          	lui	a4,0x40021
    6de2:	475c                	lw	a5,12(a4)
    6de4:	8fc9                	or	a5,a5,a0
    6de6:	c75c                	sw	a5,12(a4)
    6de8:	8082                	ret
    6dea:	400217b7          	lui	a5,0x40021
    6dee:	47d8                	lw	a4,12(a5)
    6df0:	fff54513          	not	a0,a0
    6df4:	8d79                	and	a0,a0,a4
    6df6:	c7c8                	sw	a0,12(a5)
    6df8:	8082                	ret

00006dfa <RCC_APB1PeriphResetCmd>:
    6dfa:	c599                	beqz	a1,6e08 <RCC_APB1PeriphResetCmd+0xe>
    6dfc:	40021737          	lui	a4,0x40021
    6e00:	4b1c                	lw	a5,16(a4)
    6e02:	8fc9                	or	a5,a5,a0
    6e04:	cb1c                	sw	a5,16(a4)
    6e06:	8082                	ret
    6e08:	400217b7          	lui	a5,0x40021
    6e0c:	4b98                	lw	a4,16(a5)
    6e0e:	fff54513          	not	a0,a0
    6e12:	8d79                	and	a0,a0,a4
    6e14:	cb88                	sw	a0,16(a5)
    6e16:	8082                	ret

00006e18 <RCC_GetFlagStatus>:
    6e18:	00555793          	srli	a5,a0,0x5
    6e1c:	4705                	li	a4,1
    6e1e:	00e79963          	bne	a5,a4,6e30 <RCC_GetFlagStatus+0x18>
    6e22:	400217b7          	lui	a5,0x40021
    6e26:	439c                	lw	a5,0(a5)
    6e28:	00a7d533          	srl	a0,a5,a0
    6e2c:	8905                	andi	a0,a0,1
    6e2e:	8082                	ret
    6e30:	4709                	li	a4,2
    6e32:	00e79663          	bne	a5,a4,6e3e <RCC_GetFlagStatus+0x26>
    6e36:	400217b7          	lui	a5,0x40021
    6e3a:	539c                	lw	a5,32(a5)
    6e3c:	b7f5                	j	6e28 <RCC_GetFlagStatus+0x10>
    6e3e:	400217b7          	lui	a5,0x40021
    6e42:	53dc                	lw	a5,36(a5)
    6e44:	b7d5                	j	6e28 <RCC_GetFlagStatus+0x10>

00006e46 <SPI_Init>:
    6e46:	00055783          	lhu	a5,0(a0) # 10000000 <_data_lma+0xfff441c>
    6e4a:	670d                	lui	a4,0x3
    6e4c:	04070713          	addi	a4,a4,64 # 3040 <_imu_update_quaternion+0x1dc>
    6e50:	0025d683          	lhu	a3,2(a1)
    6e54:	8f7d                	and	a4,a4,a5
    6e56:	0005d783          	lhu	a5,0(a1)
    6e5a:	8fd5                	or	a5,a5,a3
    6e5c:	0045d683          	lhu	a3,4(a1)
    6e60:	8fd5                	or	a5,a5,a3
    6e62:	0065d683          	lhu	a3,6(a1)
    6e66:	8fd5                	or	a5,a5,a3
    6e68:	0085d683          	lhu	a3,8(a1)
    6e6c:	8fd5                	or	a5,a5,a3
    6e6e:	00a5d683          	lhu	a3,10(a1)
    6e72:	8fd5                	or	a5,a5,a3
    6e74:	00c5d683          	lhu	a3,12(a1)
    6e78:	8fd5                	or	a5,a5,a3
    6e7a:	00e5d683          	lhu	a3,14(a1)
    6e7e:	8fd5                	or	a5,a5,a3
    6e80:	8fd9                	or	a5,a5,a4
    6e82:	00f51023          	sh	a5,0(a0)
    6e86:	01c55783          	lhu	a5,28(a0)
    6e8a:	777d                	lui	a4,0xfffff
    6e8c:	7ff70713          	addi	a4,a4,2047 # fffff7ff <_eusrstack+0xdfffa7ff>
    6e90:	8ff9                	and	a5,a5,a4
    6e92:	00f51e23          	sh	a5,28(a0)
    6e96:	0105d783          	lhu	a5,16(a1)
    6e9a:	00f51823          	sh	a5,16(a0)
    6e9e:	8082                	ret

00006ea0 <SPI_Cmd>:
    6ea0:	00055783          	lhu	a5,0(a0)
    6ea4:	c591                	beqz	a1,6eb0 <SPI_Cmd+0x10>
    6ea6:	0407e793          	ori	a5,a5,64
    6eaa:	00f51023          	sh	a5,0(a0)
    6eae:	8082                	ret
    6eb0:	07c2                	slli	a5,a5,0x10
    6eb2:	83c1                	srli	a5,a5,0x10
    6eb4:	fbf7f793          	andi	a5,a5,-65
    6eb8:	07c2                	slli	a5,a5,0x10
    6eba:	83c1                	srli	a5,a5,0x10
    6ebc:	b7fd                	j	6eaa <SPI_Cmd+0xa>

00006ebe <SPI_I2S_DMACmd>:
    6ebe:	00455783          	lhu	a5,4(a0)
    6ec2:	c609                	beqz	a2,6ecc <SPI_I2S_DMACmd+0xe>
    6ec4:	8fcd                	or	a5,a5,a1
    6ec6:	00f51223          	sh	a5,4(a0)
    6eca:	8082                	ret
    6ecc:	fff5c593          	not	a1,a1
    6ed0:	8fed                	and	a5,a5,a1
    6ed2:	bfd5                	j	6ec6 <SPI_I2S_DMACmd+0x8>

00006ed4 <TIM_TimeBaseInit>:
    6ed4:	00055783          	lhu	a5,0(a0)
    6ed8:	40013737          	lui	a4,0x40013
    6edc:	c0070713          	addi	a4,a4,-1024 # 40012c00 <_eusrstack+0x2000dc00>
    6ee0:	07c2                	slli	a5,a5,0x10
    6ee2:	83c1                	srli	a5,a5,0x10
    6ee4:	02e50063          	beq	a0,a4,6f04 <TIM_TimeBaseInit+0x30>
    6ee8:	40000737          	lui	a4,0x40000
    6eec:	00e50c63          	beq	a0,a4,6f04 <TIM_TimeBaseInit+0x30>
    6ef0:	40070713          	addi	a4,a4,1024 # 40000400 <_eusrstack+0x1fffb400>
    6ef4:	00e50863          	beq	a0,a4,6f04 <TIM_TimeBaseInit+0x30>
    6ef8:	40001737          	lui	a4,0x40001
    6efc:	80070713          	addi	a4,a4,-2048 # 40000800 <_eusrstack+0x1fffb800>
    6f00:	00e51763          	bne	a0,a4,6f0e <TIM_TimeBaseInit+0x3a>
    6f04:	0025d703          	lhu	a4,2(a1)
    6f08:	f8f7f793          	andi	a5,a5,-113
    6f0c:	8fd9                	or	a5,a5,a4
    6f0e:	0065d703          	lhu	a4,6(a1)
    6f12:	cff7f793          	andi	a5,a5,-769
    6f16:	07c2                	slli	a5,a5,0x10
    6f18:	83c1                	srli	a5,a5,0x10
    6f1a:	8fd9                	or	a5,a5,a4
    6f1c:	00f51023          	sh	a5,0(a0)
    6f20:	0045d783          	lhu	a5,4(a1)
    6f24:	02f51623          	sh	a5,44(a0)
    6f28:	0005d783          	lhu	a5,0(a1)
    6f2c:	02f51423          	sh	a5,40(a0)
    6f30:	400137b7          	lui	a5,0x40013
    6f34:	c0078793          	addi	a5,a5,-1024 # 40012c00 <_eusrstack+0x2000dc00>
    6f38:	00f51663          	bne	a0,a5,6f44 <TIM_TimeBaseInit+0x70>
    6f3c:	0085c783          	lbu	a5,8(a1)
    6f40:	02f51823          	sh	a5,48(a0)
    6f44:	4785                	li	a5,1
    6f46:	00f51a23          	sh	a5,20(a0)
    6f4a:	8082                	ret

00006f4c <TIM_OC1Init>:
    6f4c:	02055783          	lhu	a5,32(a0)
    6f50:	0005d603          	lhu	a2,0(a1)
    6f54:	0025d803          	lhu	a6,2(a1)
    6f58:	07c2                	slli	a5,a5,0x10
    6f5a:	83c1                	srli	a5,a5,0x10
    6f5c:	9bf9                	andi	a5,a5,-2
    6f5e:	07c2                	slli	a5,a5,0x10
    6f60:	83c1                	srli	a5,a5,0x10
    6f62:	02f51023          	sh	a5,32(a0)
    6f66:	02055783          	lhu	a5,32(a0)
    6f6a:	00455683          	lhu	a3,4(a0)
    6f6e:	01855703          	lhu	a4,24(a0)
    6f72:	07c2                	slli	a5,a5,0x10
    6f74:	83c1                	srli	a5,a5,0x10
    6f76:	0742                	slli	a4,a4,0x10
    6f78:	8341                	srli	a4,a4,0x10
    6f7a:	f8c77713          	andi	a4,a4,-116
    6f7e:	8f51                	or	a4,a4,a2
    6f80:	0085d603          	lhu	a2,8(a1)
    6f84:	9bf5                	andi	a5,a5,-3
    6f86:	06c2                	slli	a3,a3,0x10
    6f88:	01066633          	or	a2,a2,a6
    6f8c:	8fd1                	or	a5,a5,a2
    6f8e:	40013637          	lui	a2,0x40013
    6f92:	c0060613          	addi	a2,a2,-1024 # 40012c00 <_eusrstack+0x2000dc00>
    6f96:	82c1                	srli	a3,a3,0x10
    6f98:	02c51363          	bne	a0,a2,6fbe <TIM_OC1Init+0x72>
    6f9c:	00a5d603          	lhu	a2,10(a1)
    6fa0:	9bdd                	andi	a5,a5,-9
    6fa2:	00e5d803          	lhu	a6,14(a1)
    6fa6:	8fd1                	or	a5,a5,a2
    6fa8:	0045d603          	lhu	a2,4(a1)
    6fac:	9bed                	andi	a5,a5,-5
    6fae:	cff6f693          	andi	a3,a3,-769
    6fb2:	8fd1                	or	a5,a5,a2
    6fb4:	00c5d603          	lhu	a2,12(a1)
    6fb8:	01066633          	or	a2,a2,a6
    6fbc:	8ed1                	or	a3,a3,a2
    6fbe:	00d51223          	sh	a3,4(a0)
    6fc2:	00e51c23          	sh	a4,24(a0)
    6fc6:	0065d703          	lhu	a4,6(a1)
    6fca:	02e51a23          	sh	a4,52(a0)
    6fce:	02f51023          	sh	a5,32(a0)
    6fd2:	8082                	ret

00006fd4 <TIM_OC3Init>:
    6fd4:	02055783          	lhu	a5,32(a0)
    6fd8:	0005d683          	lhu	a3,0(a1)
    6fdc:	0085d803          	lhu	a6,8(a1)
    6fe0:	07c2                	slli	a5,a5,0x10
    6fe2:	83c1                	srli	a5,a5,0x10
    6fe4:	eff7f793          	andi	a5,a5,-257
    6fe8:	07c2                	slli	a5,a5,0x10
    6fea:	83c1                	srli	a5,a5,0x10
    6fec:	02f51023          	sh	a5,32(a0)
    6ff0:	02055783          	lhu	a5,32(a0)
    6ff4:	00455603          	lhu	a2,4(a0)
    6ff8:	01c55703          	lhu	a4,28(a0)
    6ffc:	07c2                	slli	a5,a5,0x10
    6ffe:	83c1                	srli	a5,a5,0x10
    7000:	0742                	slli	a4,a4,0x10
    7002:	8341                	srli	a4,a4,0x10
    7004:	f8c77713          	andi	a4,a4,-116
    7008:	8f55                	or	a4,a4,a3
    700a:	0025d683          	lhu	a3,2(a1)
    700e:	dff7f793          	andi	a5,a5,-513
    7012:	0642                	slli	a2,a2,0x10
    7014:	0106e6b3          	or	a3,a3,a6
    7018:	06a2                	slli	a3,a3,0x8
    701a:	8fd5                	or	a5,a5,a3
    701c:	400136b7          	lui	a3,0x40013
    7020:	07c2                	slli	a5,a5,0x10
    7022:	c0068693          	addi	a3,a3,-1024 # 40012c00 <_eusrstack+0x2000dc00>
    7026:	8241                	srli	a2,a2,0x10
    7028:	83c1                	srli	a5,a5,0x10
    702a:	04d51263          	bne	a0,a3,706e <TIM_OC3Init+0x9a>
    702e:	76fd                	lui	a3,0xfffff
    7030:	7ff68693          	addi	a3,a3,2047 # fffff7ff <_eusrstack+0xdfffa7ff>
    7034:	8ff5                	and	a5,a5,a3
    7036:	00a5d683          	lhu	a3,10(a1)
    703a:	00c5d803          	lhu	a6,12(a1)
    703e:	06a2                	slli	a3,a3,0x8
    7040:	8fd5                	or	a5,a5,a3
    7042:	0045d683          	lhu	a3,4(a1)
    7046:	07c2                	slli	a5,a5,0x10
    7048:	83c1                	srli	a5,a5,0x10
    704a:	06a2                	slli	a3,a3,0x8
    704c:	bff7f793          	andi	a5,a5,-1025
    7050:	8fd5                	or	a5,a5,a3
    7052:	76f5                	lui	a3,0xffffd
    7054:	16fd                	addi	a3,a3,-1 # ffffcfff <_eusrstack+0xdfff7fff>
    7056:	8ef1                	and	a3,a3,a2
    7058:	00e5d603          	lhu	a2,14(a1)
    705c:	07c2                	slli	a5,a5,0x10
    705e:	83c1                	srli	a5,a5,0x10
    7060:	01066633          	or	a2,a2,a6
    7064:	0612                	slli	a2,a2,0x4
    7066:	8ed1                	or	a3,a3,a2
    7068:	01069613          	slli	a2,a3,0x10
    706c:	8241                	srli	a2,a2,0x10
    706e:	00c51223          	sh	a2,4(a0)
    7072:	00e51e23          	sh	a4,28(a0)
    7076:	0065d703          	lhu	a4,6(a1)
    707a:	02e51e23          	sh	a4,60(a0)
    707e:	02f51023          	sh	a5,32(a0)
    7082:	8082                	ret

00007084 <TIM_OC4Init>:
    7084:	02055783          	lhu	a5,32(a0)
    7088:	777d                	lui	a4,0xfffff
    708a:	177d                	addi	a4,a4,-1 # ffffefff <_eusrstack+0xdfff9fff>
    708c:	8ff9                	and	a5,a5,a4
    708e:	02f51023          	sh	a5,32(a0)
    7092:	02055703          	lhu	a4,32(a0)
    7096:	00455783          	lhu	a5,4(a0)
    709a:	01c55683          	lhu	a3,28(a0)
    709e:	7665                	lui	a2,0xffff9
    70a0:	cff60613          	addi	a2,a2,-769 # ffff8cff <_eusrstack+0xdfff3cff>
    70a4:	8ef1                	and	a3,a3,a2
    70a6:	0005d603          	lhu	a2,0(a1)
    70aa:	0085d803          	lhu	a6,8(a1)
    70ae:	07c2                	slli	a5,a5,0x10
    70b0:	0622                	slli	a2,a2,0x8
    70b2:	8ed1                	or	a3,a3,a2
    70b4:	7679                	lui	a2,0xffffe
    70b6:	167d                	addi	a2,a2,-1 # ffffdfff <_eusrstack+0xdfff8fff>
    70b8:	8f71                	and	a4,a4,a2
    70ba:	0025d603          	lhu	a2,2(a1)
    70be:	06c2                	slli	a3,a3,0x10
    70c0:	83c1                	srli	a5,a5,0x10
    70c2:	01066633          	or	a2,a2,a6
    70c6:	0632                	slli	a2,a2,0xc
    70c8:	8f51                	or	a4,a4,a2
    70ca:	40013637          	lui	a2,0x40013
    70ce:	0742                	slli	a4,a4,0x10
    70d0:	c0060613          	addi	a2,a2,-1024 # 40012c00 <_eusrstack+0x2000dc00>
    70d4:	82c1                	srli	a3,a3,0x10
    70d6:	8341                	srli	a4,a4,0x10
    70d8:	00c51b63          	bne	a0,a2,70ee <TIM_OC4Init+0x6a>
    70dc:	7671                	lui	a2,0xffffc
    70de:	167d                	addi	a2,a2,-1 # ffffbfff <_eusrstack+0xdfff6fff>
    70e0:	8ff1                	and	a5,a5,a2
    70e2:	00c5d603          	lhu	a2,12(a1)
    70e6:	061a                	slli	a2,a2,0x6
    70e8:	8fd1                	or	a5,a5,a2
    70ea:	07c2                	slli	a5,a5,0x10
    70ec:	83c1                	srli	a5,a5,0x10
    70ee:	00f51223          	sh	a5,4(a0)
    70f2:	0065d783          	lhu	a5,6(a1)
    70f6:	00d51e23          	sh	a3,28(a0)
    70fa:	04f51023          	sh	a5,64(a0)
    70fe:	02e51023          	sh	a4,32(a0)
    7102:	8082                	ret

00007104 <TIM_Cmd>:
    7104:	00055783          	lhu	a5,0(a0)
    7108:	c591                	beqz	a1,7114 <TIM_Cmd+0x10>
    710a:	0017e793          	ori	a5,a5,1
    710e:	00f51023          	sh	a5,0(a0)
    7112:	8082                	ret
    7114:	07c2                	slli	a5,a5,0x10
    7116:	83c1                	srli	a5,a5,0x10
    7118:	9bf9                	andi	a5,a5,-2
    711a:	07c2                	slli	a5,a5,0x10
    711c:	83c1                	srli	a5,a5,0x10
    711e:	bfc5                	j	710e <TIM_Cmd+0xa>

00007120 <TIM_CtrlPWMOutputs>:
    7120:	04455783          	lhu	a5,68(a0)
    7124:	c591                	beqz	a1,7130 <TIM_CtrlPWMOutputs+0x10>
    7126:	6721                	lui	a4,0x8
    7128:	8fd9                	or	a5,a5,a4
    712a:	04f51223          	sh	a5,68(a0)
    712e:	8082                	ret
    7130:	07c6                	slli	a5,a5,0x11
    7132:	83c5                	srli	a5,a5,0x11
    7134:	bfdd                	j	712a <TIM_CtrlPWMOutputs+0xa>

00007136 <TIM_ITConfig>:
    7136:	00c55783          	lhu	a5,12(a0)
    713a:	c609                	beqz	a2,7144 <TIM_ITConfig+0xe>
    713c:	8fcd                	or	a5,a5,a1
    713e:	00f51623          	sh	a5,12(a0)
    7142:	8082                	ret
    7144:	fff5c593          	not	a1,a1
    7148:	8fed                	and	a5,a5,a1
    714a:	bfd5                	j	713e <TIM_ITConfig+0x8>

0000714c <TIM_ARRPreloadConfig>:
    714c:	00055783          	lhu	a5,0(a0)
    7150:	c591                	beqz	a1,715c <TIM_ARRPreloadConfig+0x10>
    7152:	0807e793          	ori	a5,a5,128
    7156:	00f51023          	sh	a5,0(a0)
    715a:	8082                	ret
    715c:	07c2                	slli	a5,a5,0x10
    715e:	83c1                	srli	a5,a5,0x10
    7160:	f7f7f793          	andi	a5,a5,-129
    7164:	07c2                	slli	a5,a5,0x10
    7166:	83c1                	srli	a5,a5,0x10
    7168:	b7fd                	j	7156 <TIM_ARRPreloadConfig+0xa>

0000716a <TIM_OC1PreloadConfig>:
    716a:	01855783          	lhu	a5,24(a0)
    716e:	07c2                	slli	a5,a5,0x10
    7170:	83c1                	srli	a5,a5,0x10
    7172:	9bdd                	andi	a5,a5,-9
    7174:	8fcd                	or	a5,a5,a1
    7176:	00f51c23          	sh	a5,24(a0)
    717a:	8082                	ret

0000717c <TIM_OC2PreloadConfig>:
    717c:	01855783          	lhu	a5,24(a0)
    7180:	777d                	lui	a4,0xfffff
    7182:	7ff70713          	addi	a4,a4,2047 # fffff7ff <_eusrstack+0xdfffa7ff>
    7186:	8ff9                	and	a5,a5,a4
    7188:	05a2                	slli	a1,a1,0x8
    718a:	8fcd                	or	a5,a5,a1
    718c:	07c2                	slli	a5,a5,0x10
    718e:	83c1                	srli	a5,a5,0x10
    7190:	00f51c23          	sh	a5,24(a0)
    7194:	8082                	ret

00007196 <TIM_OC3PreloadConfig>:
    7196:	01c55783          	lhu	a5,28(a0)
    719a:	07c2                	slli	a5,a5,0x10
    719c:	83c1                	srli	a5,a5,0x10
    719e:	9bdd                	andi	a5,a5,-9
    71a0:	8fcd                	or	a5,a5,a1
    71a2:	00f51e23          	sh	a5,28(a0)
    71a6:	8082                	ret

000071a8 <TIM_OC4PreloadConfig>:
    71a8:	01c55783          	lhu	a5,28(a0)
    71ac:	777d                	lui	a4,0xfffff
    71ae:	7ff70713          	addi	a4,a4,2047 # fffff7ff <_eusrstack+0xdfffa7ff>
    71b2:	8ff9                	and	a5,a5,a4
    71b4:	05a2                	slli	a1,a1,0x8
    71b6:	8fcd                	or	a5,a5,a1
    71b8:	07c2                	slli	a5,a5,0x10
    71ba:	83c1                	srli	a5,a5,0x10
    71bc:	00f51e23          	sh	a5,28(a0)
    71c0:	8082                	ret

000071c2 <TIM_SetCompare1>:
    71c2:	02b51a23          	sh	a1,52(a0)
    71c6:	8082                	ret

000071c8 <TIM_SetCompare2>:
    71c8:	02b51c23          	sh	a1,56(a0)
    71cc:	8082                	ret

000071ce <TIM_SetCompare3>:
    71ce:	02b51e23          	sh	a1,60(a0)
    71d2:	8082                	ret

000071d4 <TIM_SetCompare4>:
    71d4:	04b51023          	sh	a1,64(a0)
    71d8:	8082                	ret

000071da <TIM_GetFlagStatus>:
    71da:	01055503          	lhu	a0,16(a0)
    71de:	8d6d                	and	a0,a0,a1
    71e0:	00a03533          	snez	a0,a0
    71e4:	8082                	ret

000071e6 <TIM_GetITStatus>:
    71e6:	01055783          	lhu	a5,16(a0)
    71ea:	00c55503          	lhu	a0,12(a0)
    71ee:	8fed                	and	a5,a5,a1
    71f0:	0542                	slli	a0,a0,0x10
    71f2:	8141                	srli	a0,a0,0x10
    71f4:	c789                	beqz	a5,71fe <TIM_GetITStatus+0x18>
    71f6:	8d6d                	and	a0,a0,a1
    71f8:	00a03533          	snez	a0,a0
    71fc:	8082                	ret
    71fe:	4501                	li	a0,0
    7200:	8082                	ret

00007202 <TIM_ClearITPendingBit>:
    7202:	fff5c593          	not	a1,a1
    7206:	05c2                	slli	a1,a1,0x10
    7208:	81c1                	srli	a1,a1,0x10
    720a:	00b51823          	sh	a1,16(a0)
    720e:	8082                	ret

00007210 <USART_Init>:
    7210:	f61f82ef          	jal	t0,170 <__riscv_save_0>
    7214:	01055683          	lhu	a3,16(a0)
    7218:	77f5                	lui	a5,0xffffd
    721a:	17fd                	addi	a5,a5,-1 # ffffcfff <_eusrstack+0xdfff7fff>
    721c:	8efd                	and	a3,a3,a5
    721e:	0065d783          	lhu	a5,6(a1)
    7222:	00c5d703          	lhu	a4,12(a1)
    7226:	1101                	addi	sp,sp,-32
    7228:	8fd5                	or	a5,a5,a3
    722a:	00f51823          	sh	a5,16(a0)
    722e:	00c55683          	lhu	a3,12(a0)
    7232:	77fd                	lui	a5,0xfffff
    7234:	9f378793          	addi	a5,a5,-1549 # ffffe9f3 <_eusrstack+0xdfff99f3>
    7238:	8efd                	and	a3,a3,a5
    723a:	0045d783          	lhu	a5,4(a1)
    723e:	842a                	mv	s0,a0
    7240:	84ae                	mv	s1,a1
    7242:	8fd5                	or	a5,a5,a3
    7244:	0085d683          	lhu	a3,8(a1)
    7248:	8fd5                	or	a5,a5,a3
    724a:	00a5d683          	lhu	a3,10(a1)
    724e:	8fd5                	or	a5,a5,a3
    7250:	00f51623          	sh	a5,12(a0)
    7254:	01455783          	lhu	a5,20(a0)
    7258:	07c2                	slli	a5,a5,0x10
    725a:	83c1                	srli	a5,a5,0x10
    725c:	cff7f793          	andi	a5,a5,-769
    7260:	8fd9                	or	a5,a5,a4
    7262:	00f51a23          	sh	a5,20(a0)
    7266:	0068                	addi	a0,sp,12
    7268:	a6bff0ef          	jal	ra,6cd2 <RCC_GetClocksFreq>
    726c:	400147b7          	lui	a5,0x40014
    7270:	80078793          	addi	a5,a5,-2048 # 40013800 <_eusrstack+0x2000e800>
    7274:	02f41f63          	bne	s0,a5,72b2 <USART_Init+0xa2>
    7278:	47e2                	lw	a5,24(sp)
    727a:	4765                	li	a4,25
    727c:	02e787b3          	mul	a5,a5,a4
    7280:	4098                	lw	a4,0(s1)
    7282:	06400693          	li	a3,100
    7286:	070a                	slli	a4,a4,0x2
    7288:	02e7d7b3          	divu	a5,a5,a4
    728c:	02d7d733          	divu	a4,a5,a3
    7290:	02d7f7b3          	remu	a5,a5,a3
    7294:	0712                	slli	a4,a4,0x4
    7296:	0792                	slli	a5,a5,0x4
    7298:	03278793          	addi	a5,a5,50
    729c:	02d7d7b3          	divu	a5,a5,a3
    72a0:	8bbd                	andi	a5,a5,15
    72a2:	8fd9                	or	a5,a5,a4
    72a4:	07c2                	slli	a5,a5,0x10
    72a6:	83c1                	srli	a5,a5,0x10
    72a8:	00f41423          	sh	a5,8(s0)
    72ac:	6105                	addi	sp,sp,32
    72ae:	ee7f806f          	j	194 <__riscv_restore_0>
    72b2:	47d2                	lw	a5,20(sp)
    72b4:	b7d9                	j	727a <USART_Init+0x6a>

000072b6 <USART_Cmd>:
    72b6:	00c55783          	lhu	a5,12(a0)
    72ba:	c591                	beqz	a1,72c6 <USART_Cmd+0x10>
    72bc:	6709                	lui	a4,0x2
    72be:	8fd9                	or	a5,a5,a4
    72c0:	00f51623          	sh	a5,12(a0)
    72c4:	8082                	ret
    72c6:	7779                	lui	a4,0xffffe
    72c8:	177d                	addi	a4,a4,-1 # ffffdfff <_eusrstack+0xdfff8fff>
    72ca:	8ff9                	and	a5,a5,a4
    72cc:	bfd5                	j	72c0 <USART_Cmd+0xa>

000072ce <USART_DMACmd>:
    72ce:	01455783          	lhu	a5,20(a0)
    72d2:	c609                	beqz	a2,72dc <USART_DMACmd+0xe>
    72d4:	8fcd                	or	a5,a5,a1
    72d6:	00f51a23          	sh	a5,20(a0)
    72da:	8082                	ret
    72dc:	fff5c593          	not	a1,a1
    72e0:	8fed                	and	a5,a5,a1
    72e2:	bfd5                	j	72d6 <USART_DMACmd+0x8>

000072e4 <USART_GetFlagStatus>:
    72e4:	00055503          	lhu	a0,0(a0)
    72e8:	8d6d                	and	a0,a0,a1
    72ea:	00a03533          	snez	a0,a0
    72ee:	8082                	ret

000072f0 <USART_ClearFlag>:
    72f0:	fff5c593          	not	a1,a1
    72f4:	05c2                	slli	a1,a1,0x10
    72f6:	81c1                	srli	a1,a1,0x10
    72f8:	00b51023          	sh	a1,0(a0)
    72fc:	8082                	ret

000072fe <USART_printf_Init>:
    72fe:	8082                	ret

00007300 <_write>:
    7300:	8532                	mv	a0,a2
    7302:	8082                	ret

00007304 <_sbrk>:
    7304:	87aa                	mv	a5,a0
    7306:	81c1a503          	lw	a0,-2020(gp) # 200018c4 <curbrk.0>
    730a:	20004737          	lui	a4,0x20004
    730e:	2bc70713          	addi	a4,a4,700 # 200042bc <_ebss>
    7312:	97aa                	add	a5,a5,a0
    7314:	00e7eb63          	bltu	a5,a4,732a <_sbrk+0x26>
    7318:	20004737          	lui	a4,0x20004
    731c:	60070713          	addi	a4,a4,1536 # 20004600 <_heap_end>
    7320:	00f76563          	bltu	a4,a5,732a <_sbrk+0x26>
    7324:	80f1ae23          	sw	a5,-2020(gp) # 200018c4 <curbrk.0>
    7328:	8082                	ret
    732a:	557d                	li	a0,-1
    732c:	8082                	ret

0000732e <sqrtf>:
    732e:	1141                	addi	sp,sp,-16
    7330:	c422                	sw	s0,8(sp)
    7332:	c226                	sw	s1,4(sp)
    7334:	c606                	sw	ra,12(sp)
    7336:	84aa                	mv	s1,a0
    7338:	283d                	jal	7376 <__ieee754_sqrtf>
    733a:	842a                	mv	s0,a0
    733c:	85a6                	mv	a1,s1
    733e:	8526                	mv	a0,s1
    7340:	4d5020ef          	jal	ra,a014 <__unordsf2>
    7344:	e11d                	bnez	a0,736a <sqrtf+0x3c>
    7346:	00000593          	li	a1,0
    734a:	8526                	mv	a0,s1
    734c:	5cc020ef          	jal	ra,9918 <__lesf2>
    7350:	00055d63          	bgez	a0,736a <sqrtf+0x3c>
    7354:	002030ef          	jal	ra,a356 <__errno>
    7358:	02100793          	li	a5,33
    735c:	00000593          	li	a1,0
    7360:	c11c                	sw	a5,0(a0)
    7362:	852e                	mv	a0,a1
    7364:	234020ef          	jal	ra,9598 <__divsf3>
    7368:	842a                	mv	s0,a0
    736a:	40b2                	lw	ra,12(sp)
    736c:	8522                	mv	a0,s0
    736e:	4422                	lw	s0,8(sp)
    7370:	4492                	lw	s1,4(sp)
    7372:	0141                	addi	sp,sp,16
    7374:	8082                	ret

00007376 <__ieee754_sqrtf>:
    7376:	1101                	addi	sp,sp,-32
    7378:	00151793          	slli	a5,a0,0x1
    737c:	cc22                	sw	s0,24(sp)
    737e:	ce06                	sw	ra,28(sp)
    7380:	ca26                	sw	s1,20(sp)
    7382:	c84a                	sw	s2,16(sp)
    7384:	c64e                	sw	s3,12(sp)
    7386:	c452                	sw	s4,8(sp)
    7388:	8385                	srli	a5,a5,0x1
    738a:	7f8006b7          	lui	a3,0x7f800
    738e:	842a                	mv	s0,a0
    7390:	02d7e363          	bltu	a5,a3,73b6 <__ieee754_sqrtf+0x40>
    7394:	85aa                	mv	a1,a0
    7396:	61a020ef          	jal	ra,99b0 <__mulsf3>
    739a:	85aa                	mv	a1,a0
    739c:	8522                	mv	a0,s0
    739e:	693010ef          	jal	ra,9230 <__addsf3>
    73a2:	842a                	mv	s0,a0
    73a4:	40f2                	lw	ra,28(sp)
    73a6:	8522                	mv	a0,s0
    73a8:	4462                	lw	s0,24(sp)
    73aa:	44d2                	lw	s1,20(sp)
    73ac:	4942                	lw	s2,16(sp)
    73ae:	49b2                	lw	s3,12(sp)
    73b0:	4a22                	lw	s4,8(sp)
    73b2:	6105                	addi	sp,sp,32
    73b4:	8082                	ret
    73b6:	d7fd                	beqz	a5,73a4 <__ieee754_sqrtf+0x2e>
    73b8:	87aa                	mv	a5,a0
    73ba:	00055963          	bgez	a0,73cc <__ieee754_sqrtf+0x56>
    73be:	85aa                	mv	a1,a0
    73c0:	0c9020ef          	jal	ra,9c88 <__subsf3>
    73c4:	85aa                	mv	a1,a0
    73c6:	1d2020ef          	jal	ra,9598 <__divsf3>
    73ca:	bfe1                	j	73a2 <__ieee754_sqrtf+0x2c>
    73cc:	8ee9                	and	a3,a3,a0
    73ce:	41755713          	srai	a4,a0,0x17
    73d2:	c6cd                	beqz	a3,747c <__ieee754_sqrtf+0x106>
    73d4:	008006b7          	lui	a3,0x800
    73d8:	fff68613          	addi	a2,a3,-1 # 7fffff <_data_lma+0x7f441b>
    73dc:	f8170713          	addi	a4,a4,-127
    73e0:	8ff1                	and	a5,a5,a2
    73e2:	8fd5                	or	a5,a5,a3
    73e4:	00177693          	andi	a3,a4,1
    73e8:	c291                	beqz	a3,73ec <__ieee754_sqrtf+0x76>
    73ea:	0786                	slli	a5,a5,0x1
    73ec:	40175413          	srai	s0,a4,0x1
    73f0:	0786                	slli	a5,a5,0x1
    73f2:	4665                	li	a2,25
    73f4:	4481                	li	s1,0
    73f6:	4501                	li	a0,0
    73f8:	010006b7          	lui	a3,0x1000
    73fc:	00d505b3          	add	a1,a0,a3
    7400:	873e                	mv	a4,a5
    7402:	00b7c763          	blt	a5,a1,7410 <__ieee754_sqrtf+0x9a>
    7406:	00d58533          	add	a0,a1,a3
    740a:	40b78733          	sub	a4,a5,a1
    740e:	94b6                	add	s1,s1,a3
    7410:	167d                	addi	a2,a2,-1
    7412:	00171793          	slli	a5,a4,0x1
    7416:	8285                	srli	a3,a3,0x1
    7418:	f275                	bnez	a2,73fc <__ieee754_sqrtf+0x86>
    741a:	c331                	beqz	a4,745e <__ieee754_sqrtf+0xe8>
    741c:	82418913          	addi	s2,gp,-2012 # 200018cc <one>
    7420:	82018993          	addi	s3,gp,-2016 # 200018c8 <tiny>
    7424:	00092503          	lw	a0,0(s2)
    7428:	0009a583          	lw	a1,0(s3)
    742c:	00092a03          	lw	s4,0(s2)
    7430:	059020ef          	jal	ra,9c88 <__subsf3>
    7434:	85aa                	mv	a1,a0
    7436:	8552                	mv	a0,s4
    7438:	4e0020ef          	jal	ra,9918 <__lesf2>
    743c:	02a04163          	bgtz	a0,745e <__ieee754_sqrtf+0xe8>
    7440:	00092503          	lw	a0,0(s2)
    7444:	0009a583          	lw	a1,0(s3)
    7448:	00092903          	lw	s2,0(s2)
    744c:	5e5010ef          	jal	ra,9230 <__addsf3>
    7450:	85aa                	mv	a1,a0
    7452:	854a                	mv	a0,s2
    7454:	4c4020ef          	jal	ra,9918 <__lesf2>
    7458:	02055663          	bgez	a0,7484 <__ieee754_sqrtf+0x10e>
    745c:	0489                	addi	s1,s1,2
    745e:	8485                	srai	s1,s1,0x1
    7460:	3f0007b7          	lui	a5,0x3f000
    7464:	94be                	add	s1,s1,a5
    7466:	045e                	slli	s0,s0,0x17
    7468:	9426                	add	s0,s0,s1
    746a:	bf2d                	j	73a4 <__ieee754_sqrtf+0x2e>
    746c:	0786                	slli	a5,a5,0x1
    746e:	0685                	addi	a3,a3,1 # 1000001 <_data_lma+0xff441d>
    7470:	00b7f633          	and	a2,a5,a1
    7474:	de65                	beqz	a2,746c <__ieee754_sqrtf+0xf6>
    7476:	16fd                	addi	a3,a3,-1
    7478:	8f15                	sub	a4,a4,a3
    747a:	bfa9                	j	73d4 <__ieee754_sqrtf+0x5e>
    747c:	4681                	li	a3,0
    747e:	008005b7          	lui	a1,0x800
    7482:	b7fd                	j	7470 <__ieee754_sqrtf+0xfa>
    7484:	0485                	addi	s1,s1,1
    7486:	98f9                	andi	s1,s1,-2
    7488:	bfd9                	j	745e <__ieee754_sqrtf+0xe8>

0000748a <__udivdi3>:
    748a:	8832                	mv	a6,a2
    748c:	88aa                	mv	a7,a0
    748e:	872e                	mv	a4,a1
    7490:	eec5                	bnez	a3,7548 <__udivdi3+0xbe>
    7492:	10c5f363          	bgeu	a1,a2,7598 <__udivdi3+0x10e>
    7496:	67c1                	lui	a5,0x10
    7498:	1af66063          	bltu	a2,a5,7638 <__udivdi3+0x1ae>
    749c:	010007b7          	lui	a5,0x1000
    74a0:	00f637b3          	sltu	a5,a2,a5
    74a4:	40f007b3          	neg	a5,a5
    74a8:	9be1                	andi	a5,a5,-8
    74aa:	07e1                	addi	a5,a5,24 # 1000018 <_data_lma+0xff4434>
    74ac:	00f65333          	srl	t1,a2,a5
    74b0:	00004697          	auipc	a3,0x4
    74b4:	54068693          	addi	a3,a3,1344 # b9f0 <__clz_tab>
    74b8:	969a                	add	a3,a3,t1
    74ba:	0006c683          	lbu	a3,0(a3)
    74be:	02000313          	li	t1,32
    74c2:	97b6                	add	a5,a5,a3
    74c4:	40f306b3          	sub	a3,t1,a5
    74c8:	00f30b63          	beq	t1,a5,74de <__udivdi3+0x54>
    74cc:	00d59733          	sll	a4,a1,a3
    74d0:	00f557b3          	srl	a5,a0,a5
    74d4:	00d61833          	sll	a6,a2,a3
    74d8:	8f5d                	or	a4,a4,a5
    74da:	00d518b3          	sll	a7,a0,a3
    74de:	01085613          	srli	a2,a6,0x10
    74e2:	02c75533          	divu	a0,a4,a2
    74e6:	01081693          	slli	a3,a6,0x10
    74ea:	82c1                	srli	a3,a3,0x10
    74ec:	0108d793          	srli	a5,a7,0x10
    74f0:	02c77733          	remu	a4,a4,a2
    74f4:	02a685b3          	mul	a1,a3,a0
    74f8:	0742                	slli	a4,a4,0x10
    74fa:	8fd9                	or	a5,a5,a4
    74fc:	00b7fa63          	bgeu	a5,a1,7510 <__udivdi3+0x86>
    7500:	97c2                	add	a5,a5,a6
    7502:	fff50713          	addi	a4,a0,-1
    7506:	0107e463          	bltu	a5,a6,750e <__udivdi3+0x84>
    750a:	32b7e163          	bltu	a5,a1,782c <__udivdi3+0x3a2>
    750e:	853a                	mv	a0,a4
    7510:	8f8d                	sub	a5,a5,a1
    7512:	02c7d733          	divu	a4,a5,a2
    7516:	08c2                	slli	a7,a7,0x10
    7518:	0108d893          	srli	a7,a7,0x10
    751c:	02c7f7b3          	remu	a5,a5,a2
    7520:	02e686b3          	mul	a3,a3,a4
    7524:	07c2                	slli	a5,a5,0x10
    7526:	00f8e8b3          	or	a7,a7,a5
    752a:	00d8fb63          	bgeu	a7,a3,7540 <__udivdi3+0xb6>
    752e:	98c2                	add	a7,a7,a6
    7530:	fff70793          	addi	a5,a4,-1
    7534:	0108e563          	bltu	a7,a6,753e <__udivdi3+0xb4>
    7538:	1779                	addi	a4,a4,-2
    753a:	00d8e363          	bltu	a7,a3,7540 <__udivdi3+0xb6>
    753e:	873e                	mv	a4,a5
    7540:	0542                	slli	a0,a0,0x10
    7542:	8d59                	or	a0,a0,a4
    7544:	4581                	li	a1,0
    7546:	8082                	ret
    7548:	00d5f563          	bgeu	a1,a3,7552 <__udivdi3+0xc8>
    754c:	4581                	li	a1,0
    754e:	4501                	li	a0,0
    7550:	8082                	ret
    7552:	67c1                	lui	a5,0x10
    7554:	18f6ea63          	bltu	a3,a5,76e8 <__udivdi3+0x25e>
    7558:	010007b7          	lui	a5,0x1000
    755c:	00f6b7b3          	sltu	a5,a3,a5
    7560:	40f007b3          	neg	a5,a5
    7564:	9be1                	andi	a5,a5,-8
    7566:	07e1                	addi	a5,a5,24 # 1000018 <_data_lma+0xff4434>
    7568:	00f6d833          	srl	a6,a3,a5
    756c:	00004717          	auipc	a4,0x4
    7570:	48470713          	addi	a4,a4,1156 # b9f0 <__clz_tab>
    7574:	9742                	add	a4,a4,a6
    7576:	00074703          	lbu	a4,0(a4)
    757a:	02000893          	li	a7,32
    757e:	973e                	add	a4,a4,a5
    7580:	40e88833          	sub	a6,a7,a4
    7584:	18e89763          	bne	a7,a4,7712 <__udivdi3+0x288>
    7588:	28b6e463          	bltu	a3,a1,7810 <__udivdi3+0x386>
    758c:	00c53533          	sltu	a0,a0,a2
    7590:	00154513          	xori	a0,a0,1
    7594:	4581                	li	a1,0
    7596:	8082                	ret
    7598:	c655                	beqz	a2,7644 <__udivdi3+0x1ba>
    759a:	67c1                	lui	a5,0x10
    759c:	26f67263          	bgeu	a2,a5,7800 <__udivdi3+0x376>
    75a0:	10063713          	sltiu	a4,a2,256
    75a4:	00174713          	xori	a4,a4,1
    75a8:	070e                	slli	a4,a4,0x3
    75aa:	00e656b3          	srl	a3,a2,a4
    75ae:	00004797          	auipc	a5,0x4
    75b2:	44278793          	addi	a5,a5,1090 # b9f0 <__clz_tab>
    75b6:	97b6                	add	a5,a5,a3
    75b8:	0007c783          	lbu	a5,0(a5)
    75bc:	02000693          	li	a3,32
    75c0:	97ba                	add	a5,a5,a4
    75c2:	40f68eb3          	sub	t4,a3,a5
    75c6:	08f69f63          	bne	a3,a5,7664 <__udivdi3+0x1da>
    75ca:	40c587b3          	sub	a5,a1,a2
    75ce:	01065693          	srli	a3,a2,0x10
    75d2:	0642                	slli	a2,a2,0x10
    75d4:	8241                	srli	a2,a2,0x10
    75d6:	4585                	li	a1,1
    75d8:	02d7d533          	divu	a0,a5,a3
    75dc:	0108d713          	srli	a4,a7,0x10
    75e0:	02d7f7b3          	remu	a5,a5,a3
    75e4:	02c50333          	mul	t1,a0,a2
    75e8:	07c2                	slli	a5,a5,0x10
    75ea:	8fd9                	or	a5,a5,a4
    75ec:	0067fa63          	bgeu	a5,t1,7600 <__udivdi3+0x176>
    75f0:	97c2                	add	a5,a5,a6
    75f2:	fff50713          	addi	a4,a0,-1
    75f6:	0107e463          	bltu	a5,a6,75fe <__udivdi3+0x174>
    75fa:	2267e663          	bltu	a5,t1,7826 <__udivdi3+0x39c>
    75fe:	853a                	mv	a0,a4
    7600:	406787b3          	sub	a5,a5,t1
    7604:	02d7d733          	divu	a4,a5,a3
    7608:	08c2                	slli	a7,a7,0x10
    760a:	0108d893          	srli	a7,a7,0x10
    760e:	02d7f7b3          	remu	a5,a5,a3
    7612:	02c70633          	mul	a2,a4,a2
    7616:	07c2                	slli	a5,a5,0x10
    7618:	00f8e8b3          	or	a7,a7,a5
    761c:	00c8fb63          	bgeu	a7,a2,7632 <__udivdi3+0x1a8>
    7620:	98c2                	add	a7,a7,a6
    7622:	fff70793          	addi	a5,a4,-1
    7626:	0108e563          	bltu	a7,a6,7630 <__udivdi3+0x1a6>
    762a:	1779                	addi	a4,a4,-2
    762c:	00c8e363          	bltu	a7,a2,7632 <__udivdi3+0x1a8>
    7630:	873e                	mv	a4,a5
    7632:	0542                	slli	a0,a0,0x10
    7634:	8d59                	or	a0,a0,a4
    7636:	8082                	ret
    7638:	10063793          	sltiu	a5,a2,256
    763c:	0017c793          	xori	a5,a5,1
    7640:	078e                	slli	a5,a5,0x3
    7642:	b5ad                	j	74ac <__udivdi3+0x22>
    7644:	4681                	li	a3,0
    7646:	00004797          	auipc	a5,0x4
    764a:	3aa78793          	addi	a5,a5,938 # b9f0 <__clz_tab>
    764e:	97b6                	add	a5,a5,a3
    7650:	0007c783          	lbu	a5,0(a5)
    7654:	4701                	li	a4,0
    7656:	02000693          	li	a3,32
    765a:	97ba                	add	a5,a5,a4
    765c:	40f68eb3          	sub	t4,a3,a5
    7660:	f6f685e3          	beq	a3,a5,75ca <__udivdi3+0x140>
    7664:	01d61833          	sll	a6,a2,t4
    7668:	00f5d333          	srl	t1,a1,a5
    766c:	01085693          	srli	a3,a6,0x10
    7670:	02d35e33          	divu	t3,t1,a3
    7674:	01081613          	slli	a2,a6,0x10
    7678:	01d595b3          	sll	a1,a1,t4
    767c:	8241                	srli	a2,a2,0x10
    767e:	00f557b3          	srl	a5,a0,a5
    7682:	8fcd                	or	a5,a5,a1
    7684:	0107d713          	srli	a4,a5,0x10
    7688:	01d518b3          	sll	a7,a0,t4
    768c:	02d37333          	remu	t1,t1,a3
    7690:	03c605b3          	mul	a1,a2,t3
    7694:	0342                	slli	t1,t1,0x10
    7696:	00676733          	or	a4,a4,t1
    769a:	00b77b63          	bgeu	a4,a1,76b0 <__udivdi3+0x226>
    769e:	9742                	add	a4,a4,a6
    76a0:	fffe0513          	addi	a0,t3,-1 # ffff <_data_lma+0x441b>
    76a4:	17076d63          	bltu	a4,a6,781e <__udivdi3+0x394>
    76a8:	16b77b63          	bgeu	a4,a1,781e <__udivdi3+0x394>
    76ac:	1e79                	addi	t3,t3,-2
    76ae:	9742                	add	a4,a4,a6
    76b0:	8f0d                	sub	a4,a4,a1
    76b2:	02d75533          	divu	a0,a4,a3
    76b6:	07c2                	slli	a5,a5,0x10
    76b8:	83c1                	srli	a5,a5,0x10
    76ba:	02d77733          	remu	a4,a4,a3
    76be:	02a60333          	mul	t1,a2,a0
    76c2:	0742                	slli	a4,a4,0x10
    76c4:	8fd9                	or	a5,a5,a4
    76c6:	0067fb63          	bgeu	a5,t1,76dc <__udivdi3+0x252>
    76ca:	97c2                	add	a5,a5,a6
    76cc:	fff50713          	addi	a4,a0,-1
    76d0:	1507e363          	bltu	a5,a6,7816 <__udivdi3+0x38c>
    76d4:	1467f163          	bgeu	a5,t1,7816 <__udivdi3+0x38c>
    76d8:	1579                	addi	a0,a0,-2
    76da:	97c2                	add	a5,a5,a6
    76dc:	010e1593          	slli	a1,t3,0x10
    76e0:	406787b3          	sub	a5,a5,t1
    76e4:	8dc9                	or	a1,a1,a0
    76e6:	bdcd                	j	75d8 <__udivdi3+0x14e>
    76e8:	1006b793          	sltiu	a5,a3,256
    76ec:	0017c793          	xori	a5,a5,1
    76f0:	078e                	slli	a5,a5,0x3
    76f2:	00f6d833          	srl	a6,a3,a5
    76f6:	00004717          	auipc	a4,0x4
    76fa:	2fa70713          	addi	a4,a4,762 # b9f0 <__clz_tab>
    76fe:	9742                	add	a4,a4,a6
    7700:	00074703          	lbu	a4,0(a4)
    7704:	02000893          	li	a7,32
    7708:	973e                	add	a4,a4,a5
    770a:	40e88833          	sub	a6,a7,a4
    770e:	e6e88de3          	beq	a7,a4,7588 <__udivdi3+0xfe>
    7712:	00e65e33          	srl	t3,a2,a4
    7716:	010696b3          	sll	a3,a3,a6
    771a:	00de6e33          	or	t3,t3,a3
    771e:	00e5d8b3          	srl	a7,a1,a4
    7722:	010e5e93          	srli	t4,t3,0x10
    7726:	03d8d7b3          	divu	a5,a7,t4
    772a:	010e1313          	slli	t1,t3,0x10
    772e:	010595b3          	sll	a1,a1,a6
    7732:	01035313          	srli	t1,t1,0x10
    7736:	00e55733          	srl	a4,a0,a4
    773a:	8f4d                	or	a4,a4,a1
    773c:	01075693          	srli	a3,a4,0x10
    7740:	01061633          	sll	a2,a2,a6
    7744:	03d8f8b3          	remu	a7,a7,t4
    7748:	02f305b3          	mul	a1,t1,a5
    774c:	08c2                	slli	a7,a7,0x10
    774e:	0116e6b3          	or	a3,a3,a7
    7752:	00b6fb63          	bgeu	a3,a1,7768 <__udivdi3+0x2de>
    7756:	96f2                	add	a3,a3,t3
    7758:	fff78893          	addi	a7,a5,-1
    775c:	0dc6e363          	bltu	a3,t3,7822 <__udivdi3+0x398>
    7760:	0cb6f163          	bgeu	a3,a1,7822 <__udivdi3+0x398>
    7764:	17f9                	addi	a5,a5,-2
    7766:	96f2                	add	a3,a3,t3
    7768:	8e8d                	sub	a3,a3,a1
    776a:	03d6d5b3          	divu	a1,a3,t4
    776e:	0742                	slli	a4,a4,0x10
    7770:	8341                	srli	a4,a4,0x10
    7772:	03d6f6b3          	remu	a3,a3,t4
    7776:	02b308b3          	mul	a7,t1,a1
    777a:	06c2                	slli	a3,a3,0x10
    777c:	8f55                	or	a4,a4,a3
    777e:	01177b63          	bgeu	a4,a7,7794 <__udivdi3+0x30a>
    7782:	9772                	add	a4,a4,t3
    7784:	fff58693          	addi	a3,a1,-1 # 7fffff <_data_lma+0x7f441b>
    7788:	09c76963          	bltu	a4,t3,781a <__udivdi3+0x390>
    778c:	09177763          	bgeu	a4,a7,781a <__udivdi3+0x390>
    7790:	15f9                	addi	a1,a1,-2
    7792:	9772                	add	a4,a4,t3
    7794:	07c2                	slli	a5,a5,0x10
    7796:	6ec1                	lui	t4,0x10
    7798:	8fcd                	or	a5,a5,a1
    779a:	fffe8693          	addi	a3,t4,-1 # ffff <_data_lma+0x441b>
    779e:	00d7f5b3          	and	a1,a5,a3
    77a2:	0107d313          	srli	t1,a5,0x10
    77a6:	8ef1                	and	a3,a3,a2
    77a8:	8241                	srli	a2,a2,0x10
    77aa:	02d58e33          	mul	t3,a1,a3
    77ae:	41170733          	sub	a4,a4,a7
    77b2:	02d306b3          	mul	a3,t1,a3
    77b6:	010e5893          	srli	a7,t3,0x10
    77ba:	02c585b3          	mul	a1,a1,a2
    77be:	95b6                	add	a1,a1,a3
    77c0:	95c6                	add	a1,a1,a7
    77c2:	02c30333          	mul	t1,t1,a2
    77c6:	00d5f363          	bgeu	a1,a3,77cc <__udivdi3+0x342>
    77ca:	9376                	add	t1,t1,t4
    77cc:	0105d693          	srli	a3,a1,0x10
    77d0:	969a                	add	a3,a3,t1
    77d2:	02d76363          	bltu	a4,a3,77f8 <__udivdi3+0x36e>
    77d6:	00d70563          	beq	a4,a3,77e0 <__udivdi3+0x356>
    77da:	853e                	mv	a0,a5
    77dc:	4581                	li	a1,0
    77de:	8082                	ret
    77e0:	66c1                	lui	a3,0x10
    77e2:	16fd                	addi	a3,a3,-1 # ffff <_data_lma+0x441b>
    77e4:	00d5f733          	and	a4,a1,a3
    77e8:	0742                	slli	a4,a4,0x10
    77ea:	00de7e33          	and	t3,t3,a3
    77ee:	01051533          	sll	a0,a0,a6
    77f2:	9772                	add	a4,a4,t3
    77f4:	fee573e3          	bgeu	a0,a4,77da <__udivdi3+0x350>
    77f8:	fff78513          	addi	a0,a5,-1
    77fc:	4581                	li	a1,0
    77fe:	8082                	ret
    7800:	010007b7          	lui	a5,0x1000
    7804:	02f67763          	bgeu	a2,a5,7832 <__udivdi3+0x3a8>
    7808:	01065693          	srli	a3,a2,0x10
    780c:	4741                	li	a4,16
    780e:	b345                	j	75ae <__udivdi3+0x124>
    7810:	4581                	li	a1,0
    7812:	4505                	li	a0,1
    7814:	8082                	ret
    7816:	853a                	mv	a0,a4
    7818:	b5d1                	j	76dc <__udivdi3+0x252>
    781a:	85b6                	mv	a1,a3
    781c:	bfa5                	j	7794 <__udivdi3+0x30a>
    781e:	8e2a                	mv	t3,a0
    7820:	bd41                	j	76b0 <__udivdi3+0x226>
    7822:	87c6                	mv	a5,a7
    7824:	b791                	j	7768 <__udivdi3+0x2de>
    7826:	1579                	addi	a0,a0,-2
    7828:	97c2                	add	a5,a5,a6
    782a:	bbd9                	j	7600 <__udivdi3+0x176>
    782c:	1579                	addi	a0,a0,-2
    782e:	97c2                	add	a5,a5,a6
    7830:	b1c5                	j	7510 <__udivdi3+0x86>
    7832:	01865693          	srli	a3,a2,0x18
    7836:	4761                	li	a4,24
    7838:	bb9d                	j	75ae <__udivdi3+0x124>

0000783a <__adddf3>:
    783a:	001007b7          	lui	a5,0x100
    783e:	1101                	addi	sp,sp,-32
    7840:	17fd                	addi	a5,a5,-1 # fffff <_data_lma+0xf441b>
    7842:	00b7f833          	and	a6,a5,a1
    7846:	0146d893          	srli	a7,a3,0x14
    784a:	8ff5                	and	a5,a5,a3
    784c:	cc22                	sw	s0,24(sp)
    784e:	0145d413          	srli	s0,a1,0x14
    7852:	00379713          	slli	a4,a5,0x3
    7856:	080e                	slli	a6,a6,0x3
    7858:	c84a                	sw	s2,16(sp)
    785a:	c64e                	sw	s3,12(sp)
    785c:	01d65793          	srli	a5,a2,0x1d
    7860:	01d55993          	srli	s3,a0,0x1d
    7864:	01f5d913          	srli	s2,a1,0x1f
    7868:	7ff47413          	andi	s0,s0,2047
    786c:	7ff8f893          	andi	a7,a7,2047
    7870:	ce06                	sw	ra,28(sp)
    7872:	ca26                	sw	s1,20(sp)
    7874:	82fd                	srli	a3,a3,0x1f
    7876:	0109e9b3          	or	s3,s3,a6
    787a:	8fd9                	or	a5,a5,a4
    787c:	00351593          	slli	a1,a0,0x3
    7880:	00361813          	slli	a6,a2,0x3
    7884:	41140733          	sub	a4,s0,a7
    7888:	18d90463          	beq	s2,a3,7a10 <__adddf3+0x1d6>
    788c:	10e05e63          	blez	a4,79a8 <__adddf3+0x16e>
    7890:	20088863          	beqz	a7,7aa0 <__adddf3+0x266>
    7894:	7ff00693          	li	a3,2047
    7898:	52d40663          	beq	s0,a3,7dc4 <__adddf3+0x58a>
    789c:	03800693          	li	a3,56
    78a0:	4485                	li	s1,1
    78a2:	02e6c963          	blt	a3,a4,78d4 <__adddf3+0x9a>
    78a6:	008006b7          	lui	a3,0x800
    78aa:	8fd5                	or	a5,a5,a3
    78ac:	46fd                	li	a3,31
    78ae:	42e6c763          	blt	a3,a4,7cdc <__adddf3+0x4a2>
    78b2:	02000693          	li	a3,32
    78b6:	8e99                	sub	a3,a3,a4
    78b8:	00d794b3          	sll	s1,a5,a3
    78bc:	00e85633          	srl	a2,a6,a4
    78c0:	00d816b3          	sll	a3,a6,a3
    78c4:	8cd1                	or	s1,s1,a2
    78c6:	00d036b3          	snez	a3,a3
    78ca:	00e7d733          	srl	a4,a5,a4
    78ce:	8cd5                	or	s1,s1,a3
    78d0:	40e989b3          	sub	s3,s3,a4
    78d4:	409584b3          	sub	s1,a1,s1
    78d8:	0095b7b3          	sltu	a5,a1,s1
    78dc:	40f989b3          	sub	s3,s3,a5
    78e0:	008007b7          	lui	a5,0x800
    78e4:	00f9f733          	and	a4,s3,a5
    78e8:	24070863          	beqz	a4,7b38 <__adddf3+0x2fe>
    78ec:	17fd                	addi	a5,a5,-1 # 7fffff <_data_lma+0x7f441b>
    78ee:	00f9f9b3          	and	s3,s3,a5
    78f2:	2a098663          	beqz	s3,7b9e <__adddf3+0x364>
    78f6:	854e                	mv	a0,s3
    78f8:	1f1020ef          	jal	ra,a2e8 <__clzsi2>
    78fc:	ff850713          	addi	a4,a0,-8
    7900:	02000693          	li	a3,32
    7904:	40e687b3          	sub	a5,a3,a4
    7908:	00f4d7b3          	srl	a5,s1,a5
    790c:	00e999b3          	sll	s3,s3,a4
    7910:	0137e7b3          	or	a5,a5,s3
    7914:	00e494b3          	sll	s1,s1,a4
    7918:	32874563          	blt	a4,s0,7c42 <__adddf3+0x408>
    791c:	8f01                	sub	a4,a4,s0
    791e:	0705                	addi	a4,a4,1
    7920:	8e99                	sub	a3,a3,a4
    7922:	00d49633          	sll	a2,s1,a3
    7926:	00e4d9b3          	srl	s3,s1,a4
    792a:	00c03633          	snez	a2,a2
    792e:	01366633          	or	a2,a2,s3
    7932:	00d796b3          	sll	a3,a5,a3
    7936:	00c6e4b3          	or	s1,a3,a2
    793a:	00e7d9b3          	srl	s3,a5,a4
    793e:	4401                	li	s0,0
    7940:	0074f793          	andi	a5,s1,7
    7944:	cf81                	beqz	a5,795c <__adddf3+0x122>
    7946:	00f4f793          	andi	a5,s1,15
    794a:	4711                	li	a4,4
    794c:	00e78863          	beq	a5,a4,795c <__adddf3+0x122>
    7950:	00448793          	addi	a5,s1,4
    7954:	0097b4b3          	sltu	s1,a5,s1
    7958:	99a6                	add	s3,s3,s1
    795a:	84be                	mv	s1,a5
    795c:	008007b7          	lui	a5,0x800
    7960:	00f9f7b3          	and	a5,s3,a5
    7964:	28078763          	beqz	a5,7bf2 <__adddf3+0x3b8>
    7968:	0405                	addi	s0,s0,1
    796a:	7ff00793          	li	a5,2047
    796e:	1cf40063          	beq	s0,a5,7b2e <__adddf3+0x2f4>
    7972:	ff8007b7          	lui	a5,0xff800
    7976:	17fd                	addi	a5,a5,-1 # ff7fffff <_eusrstack+0xdf7fafff>
    7978:	00f9f7b3          	and	a5,s3,a5
    797c:	01d79713          	slli	a4,a5,0x1d
    7980:	808d                	srli	s1,s1,0x3
    7982:	07a6                	slli	a5,a5,0x9
    7984:	8f45                	or	a4,a4,s1
    7986:	83b1                	srli	a5,a5,0xc
    7988:	7ff47413          	andi	s0,s0,2047
    798c:	0452                	slli	s0,s0,0x14
    798e:	097e                	slli	s2,s2,0x1f
    7990:	8c5d                	or	s0,s0,a5
    7992:	01246433          	or	s0,s0,s2
    7996:	40f2                	lw	ra,28(sp)
    7998:	85a2                	mv	a1,s0
    799a:	4462                	lw	s0,24(sp)
    799c:	44d2                	lw	s1,20(sp)
    799e:	4942                	lw	s2,16(sp)
    79a0:	49b2                	lw	s3,12(sp)
    79a2:	853a                	mv	a0,a4
    79a4:	6105                	addi	sp,sp,32
    79a6:	8082                	ret
    79a8:	10070f63          	beqz	a4,7ac6 <__adddf3+0x28c>
    79ac:	40888733          	sub	a4,a7,s0
    79b0:	30041863          	bnez	s0,7cc0 <__adddf3+0x486>
    79b4:	00b9e533          	or	a0,s3,a1
    79b8:	26050e63          	beqz	a0,7c34 <__adddf3+0x3fa>
    79bc:	fff70513          	addi	a0,a4,-1
    79c0:	48050e63          	beqz	a0,7e5c <__adddf3+0x622>
    79c4:	7ff00313          	li	t1,2047
    79c8:	42670a63          	beq	a4,t1,7dfc <__adddf3+0x5c2>
    79cc:	03800713          	li	a4,56
    79d0:	4485                	li	s1,1
    79d2:	02a74663          	blt	a4,a0,79fe <__adddf3+0x1c4>
    79d6:	872a                	mv	a4,a0
    79d8:	467d                	li	a2,31
    79da:	44e64063          	blt	a2,a4,7e1a <__adddf3+0x5e0>
    79de:	02000613          	li	a2,32
    79e2:	8e19                	sub	a2,a2,a4
    79e4:	00c994b3          	sll	s1,s3,a2
    79e8:	00e5d533          	srl	a0,a1,a4
    79ec:	00c59633          	sll	a2,a1,a2
    79f0:	8cc9                	or	s1,s1,a0
    79f2:	00c03633          	snez	a2,a2
    79f6:	00e9d733          	srl	a4,s3,a4
    79fa:	8cd1                	or	s1,s1,a2
    79fc:	8f99                	sub	a5,a5,a4
    79fe:	409804b3          	sub	s1,a6,s1
    7a02:	00983833          	sltu	a6,a6,s1
    7a06:	410789b3          	sub	s3,a5,a6
    7a0a:	8446                	mv	s0,a7
    7a0c:	8936                	mv	s2,a3
    7a0e:	bdc9                	j	78e0 <__adddf3+0xa6>
    7a10:	12e05963          	blez	a4,7b42 <__adddf3+0x308>
    7a14:	10089063          	bnez	a7,7b14 <__adddf3+0x2da>
    7a18:	0107e6b3          	or	a3,a5,a6
    7a1c:	20068f63          	beqz	a3,7c3a <__adddf3+0x400>
    7a20:	fff70613          	addi	a2,a4,-1
    7a24:	36060563          	beqz	a2,7d8e <__adddf3+0x554>
    7a28:	7ff00693          	li	a3,2047
    7a2c:	44d70e63          	beq	a4,a3,7e88 <__adddf3+0x64e>
    7a30:	03800713          	li	a4,56
    7a34:	4685                	li	a3,1
    7a36:	02c74663          	blt	a4,a2,7a62 <__adddf3+0x228>
    7a3a:	8732                	mv	a4,a2
    7a3c:	46fd                	li	a3,31
    7a3e:	38e6cb63          	blt	a3,a4,7dd4 <__adddf3+0x59a>
    7a42:	02000613          	li	a2,32
    7a46:	8e19                	sub	a2,a2,a4
    7a48:	00c796b3          	sll	a3,a5,a2
    7a4c:	00e85533          	srl	a0,a6,a4
    7a50:	00c81633          	sll	a2,a6,a2
    7a54:	8ec9                	or	a3,a3,a0
    7a56:	00c03633          	snez	a2,a2
    7a5a:	00e7d733          	srl	a4,a5,a4
    7a5e:	8ed1                	or	a3,a3,a2
    7a60:	99ba                	add	s3,s3,a4
    7a62:	00b687b3          	add	a5,a3,a1
    7a66:	00d7b6b3          	sltu	a3,a5,a3
    7a6a:	84be                	mv	s1,a5
    7a6c:	99b6                	add	s3,s3,a3
    7a6e:	008007b7          	lui	a5,0x800
    7a72:	00f9f7b3          	and	a5,s3,a5
    7a76:	c3e9                	beqz	a5,7b38 <__adddf3+0x2fe>
    7a78:	0405                	addi	s0,s0,1
    7a7a:	7ff00793          	li	a5,2047
    7a7e:	0af40863          	beq	s0,a5,7b2e <__adddf3+0x2f4>
    7a82:	ff8007b7          	lui	a5,0xff800
    7a86:	17fd                	addi	a5,a5,-1 # ff7fffff <_eusrstack+0xdf7fafff>
    7a88:	00f9f7b3          	and	a5,s3,a5
    7a8c:	0014d713          	srli	a4,s1,0x1
    7a90:	8885                	andi	s1,s1,1
    7a92:	8f45                	or	a4,a4,s1
    7a94:	01f79493          	slli	s1,a5,0x1f
    7a98:	8cd9                	or	s1,s1,a4
    7a9a:	0017d993          	srli	s3,a5,0x1
    7a9e:	b54d                	j	7940 <__adddf3+0x106>
    7aa0:	0107e6b3          	or	a3,a5,a6
    7aa4:	18068b63          	beqz	a3,7c3a <__adddf3+0x400>
    7aa8:	fff70693          	addi	a3,a4,-1
    7aac:	30068163          	beqz	a3,7dae <__adddf3+0x574>
    7ab0:	7ff00613          	li	a2,2047
    7ab4:	14c70f63          	beq	a4,a2,7c12 <__adddf3+0x3d8>
    7ab8:	03800713          	li	a4,56
    7abc:	4485                	li	s1,1
    7abe:	e0d74be3          	blt	a4,a3,78d4 <__adddf3+0x9a>
    7ac2:	8736                	mv	a4,a3
    7ac4:	b3e5                	j	78ac <__adddf3+0x72>
    7ac6:	00140713          	addi	a4,s0,1
    7aca:	7fe77713          	andi	a4,a4,2046
    7ace:	1c071563          	bnez	a4,7c98 <__adddf3+0x45e>
    7ad2:	00b9e8b3          	or	a7,s3,a1
    7ad6:	0107e733          	or	a4,a5,a6
    7ada:	2a041063          	bnez	s0,7d7a <__adddf3+0x540>
    7ade:	38088b63          	beqz	a7,7e74 <__adddf3+0x63a>
    7ae2:	3a070c63          	beqz	a4,7e9a <__adddf3+0x660>
    7ae6:	410584b3          	sub	s1,a1,a6
    7aea:	0095b733          	sltu	a4,a1,s1
    7aee:	40f98633          	sub	a2,s3,a5
    7af2:	8e19                	sub	a2,a2,a4
    7af4:	00800737          	lui	a4,0x800
    7af8:	8f71                	and	a4,a4,a2
    7afa:	40070163          	beqz	a4,7efc <__adddf3+0x6c2>
    7afe:	40b805b3          	sub	a1,a6,a1
    7b02:	413787b3          	sub	a5,a5,s3
    7b06:	00b83833          	sltu	a6,a6,a1
    7b0a:	84ae                	mv	s1,a1
    7b0c:	410789b3          	sub	s3,a5,a6
    7b10:	8936                	mv	s2,a3
    7b12:	b53d                	j	7940 <__adddf3+0x106>
    7b14:	7ff00693          	li	a3,2047
    7b18:	0ed40d63          	beq	s0,a3,7c12 <__adddf3+0x3d8>
    7b1c:	03800613          	li	a2,56
    7b20:	4685                	li	a3,1
    7b22:	f4e640e3          	blt	a2,a4,7a62 <__adddf3+0x228>
    7b26:	008006b7          	lui	a3,0x800
    7b2a:	8fd5                	or	a5,a5,a3
    7b2c:	bf01                	j	7a3c <__adddf3+0x202>
    7b2e:	7ff00413          	li	s0,2047
    7b32:	4781                	li	a5,0
    7b34:	4701                	li	a4,0
    7b36:	bd99                	j	798c <__adddf3+0x152>
    7b38:	0074f713          	andi	a4,s1,7
    7b3c:	e00715e3          	bnez	a4,7946 <__adddf3+0x10c>
    7b40:	aa89                	j	7c92 <__adddf3+0x458>
    7b42:	10070763          	beqz	a4,7c50 <__adddf3+0x416>
    7b46:	40888733          	sub	a4,a7,s0
    7b4a:	1a040d63          	beqz	s0,7d04 <__adddf3+0x4ca>
    7b4e:	7ff00693          	li	a3,2047
    7b52:	2ad88d63          	beq	a7,a3,7e0c <__adddf3+0x5d2>
    7b56:	03800613          	li	a2,56
    7b5a:	4685                	li	a3,1
    7b5c:	02e64963          	blt	a2,a4,7b8e <__adddf3+0x354>
    7b60:	008006b7          	lui	a3,0x800
    7b64:	00d9e9b3          	or	s3,s3,a3
    7b68:	46fd                	li	a3,31
    7b6a:	36e6c663          	blt	a3,a4,7ed6 <__adddf3+0x69c>
    7b6e:	02000613          	li	a2,32
    7b72:	8e19                	sub	a2,a2,a4
    7b74:	00c996b3          	sll	a3,s3,a2
    7b78:	00e5d533          	srl	a0,a1,a4
    7b7c:	00c59633          	sll	a2,a1,a2
    7b80:	8ec9                	or	a3,a3,a0
    7b82:	00c03633          	snez	a2,a2
    7b86:	00e9d733          	srl	a4,s3,a4
    7b8a:	8ed1                	or	a3,a3,a2
    7b8c:	97ba                	add	a5,a5,a4
    7b8e:	9836                	add	a6,a6,a3
    7b90:	00d836b3          	sltu	a3,a6,a3
    7b94:	84c2                	mv	s1,a6
    7b96:	00f689b3          	add	s3,a3,a5
    7b9a:	8446                	mv	s0,a7
    7b9c:	bdc9                	j	7a6e <__adddf3+0x234>
    7b9e:	8526                	mv	a0,s1
    7ba0:	748020ef          	jal	ra,a2e8 <__clzsi2>
    7ba4:	01850713          	addi	a4,a0,24
    7ba8:	46fd                	li	a3,31
    7baa:	d4e6dbe3          	bge	a3,a4,7900 <__adddf3+0xc6>
    7bae:	ff850793          	addi	a5,a0,-8
    7bb2:	00f497b3          	sll	a5,s1,a5
    7bb6:	16874963          	blt	a4,s0,7d28 <__adddf3+0x4ee>
    7bba:	408704b3          	sub	s1,a4,s0
    7bbe:	00148713          	addi	a4,s1,1
    7bc2:	34e6db63          	bge	a3,a4,7f18 <__adddf3+0x6de>
    7bc6:	1485                	addi	s1,s1,-31
    7bc8:	02000693          	li	a3,32
    7bcc:	0097d4b3          	srl	s1,a5,s1
    7bd0:	00d70b63          	beq	a4,a3,7be6 <__adddf3+0x3ac>
    7bd4:	04000693          	li	a3,64
    7bd8:	40e68733          	sub	a4,a3,a4
    7bdc:	00e797b3          	sll	a5,a5,a4
    7be0:	00f037b3          	snez	a5,a5
    7be4:	8cdd                	or	s1,s1,a5
    7be6:	0074f713          	andi	a4,s1,7
    7bea:	4401                	li	s0,0
    7bec:	d4071de3          	bnez	a4,7946 <__adddf3+0x10c>
    7bf0:	a04d                	j	7c92 <__adddf3+0x458>
    7bf2:	0034d793          	srli	a5,s1,0x3
    7bf6:	01d99713          	slli	a4,s3,0x1d
    7bfa:	7ff00693          	li	a3,2047
    7bfe:	8f5d                	or	a4,a4,a5
    7c00:	0039d793          	srli	a5,s3,0x3
    7c04:	00d40f63          	beq	s0,a3,7c22 <__adddf3+0x3e8>
    7c08:	07b2                	slli	a5,a5,0xc
    7c0a:	83b1                	srli	a5,a5,0xc
    7c0c:	7ff47413          	andi	s0,s0,2047
    7c10:	bbb5                	j	798c <__adddf3+0x152>
    7c12:	050e                	slli	a0,a0,0x3
    7c14:	01d99793          	slli	a5,s3,0x1d
    7c18:	00355713          	srli	a4,a0,0x3
    7c1c:	8f5d                	or	a4,a4,a5
    7c1e:	0039d793          	srli	a5,s3,0x3
    7c22:	8f5d                	or	a4,a4,a5
    7c24:	d709                	beqz	a4,7b2e <__adddf3+0x2f4>
    7c26:	4901                	li	s2,0
    7c28:	7ff00413          	li	s0,2047
    7c2c:	000807b7          	lui	a5,0x80
    7c30:	4701                	li	a4,0
    7c32:	bba9                	j	798c <__adddf3+0x152>
    7c34:	85c2                	mv	a1,a6
    7c36:	89be                	mv	s3,a5
    7c38:	8936                	mv	s2,a3
    7c3a:	0035d793          	srli	a5,a1,0x3
    7c3e:	843a                	mv	s0,a4
    7c40:	bf5d                	j	7bf6 <__adddf3+0x3bc>
    7c42:	ff8009b7          	lui	s3,0xff800
    7c46:	19fd                	addi	s3,s3,-1 # ff7fffff <_eusrstack+0xdf7fafff>
    7c48:	8c19                	sub	s0,s0,a4
    7c4a:	0137f9b3          	and	s3,a5,s3
    7c4e:	b9cd                	j	7940 <__adddf3+0x106>
    7c50:	00140693          	addi	a3,s0,1
    7c54:	7fe6f713          	andi	a4,a3,2046
    7c58:	e36d                	bnez	a4,7d3a <__adddf3+0x500>
    7c5a:	00b9e733          	or	a4,s3,a1
    7c5e:	1e041163          	bnez	s0,7e40 <__adddf3+0x606>
    7c62:	24070a63          	beqz	a4,7eb6 <__adddf3+0x67c>
    7c66:	0107e733          	or	a4,a5,a6
    7c6a:	24070d63          	beqz	a4,7ec4 <__adddf3+0x68a>
    7c6e:	982e                	add	a6,a6,a1
    7c70:	97ce                	add	a5,a5,s3
    7c72:	00b835b3          	sltu	a1,a6,a1
    7c76:	00b789b3          	add	s3,a5,a1
    7c7a:	00800737          	lui	a4,0x800
    7c7e:	00e9f733          	and	a4,s3,a4
    7c82:	84c2                	mv	s1,a6
    7c84:	c719                	beqz	a4,7c92 <__adddf3+0x458>
    7c86:	ff8007b7          	lui	a5,0xff800
    7c8a:	17fd                	addi	a5,a5,-1 # ff7fffff <_eusrstack+0xdf7fafff>
    7c8c:	00f9f9b3          	and	s3,s3,a5
    7c90:	4405                	li	s0,1
    7c92:	85a6                	mv	a1,s1
    7c94:	8722                	mv	a4,s0
    7c96:	b755                	j	7c3a <__adddf3+0x400>
    7c98:	410584b3          	sub	s1,a1,a6
    7c9c:	0095b733          	sltu	a4,a1,s1
    7ca0:	40f98633          	sub	a2,s3,a5
    7ca4:	8e19                	sub	a2,a2,a4
    7ca6:	00800737          	lui	a4,0x800
    7caa:	8f71                	and	a4,a4,a2
    7cac:	ef45                	bnez	a4,7d64 <__adddf3+0x52a>
    7cae:	00c4e733          	or	a4,s1,a2
    7cb2:	89b2                	mv	s3,a2
    7cb4:	c2071fe3          	bnez	a4,78f2 <__adddf3+0xb8>
    7cb8:	4901                	li	s2,0
    7cba:	4401                	li	s0,0
    7cbc:	4781                	li	a5,0
    7cbe:	b1f9                	j	798c <__adddf3+0x152>
    7cc0:	7ff00513          	li	a0,2047
    7cc4:	12a88c63          	beq	a7,a0,7dfc <__adddf3+0x5c2>
    7cc8:	03800613          	li	a2,56
    7ccc:	4485                	li	s1,1
    7cce:	d2e648e3          	blt	a2,a4,79fe <__adddf3+0x1c4>
    7cd2:	00800637          	lui	a2,0x800
    7cd6:	00c9e9b3          	or	s3,s3,a2
    7cda:	b9fd                	j	79d8 <__adddf3+0x19e>
    7cdc:	fe070693          	addi	a3,a4,-32 # 7fffe0 <_data_lma+0x7f43fc>
    7ce0:	02000613          	li	a2,32
    7ce4:	00d7d6b3          	srl	a3,a5,a3
    7ce8:	00c70a63          	beq	a4,a2,7cfc <__adddf3+0x4c2>
    7cec:	04000613          	li	a2,64
    7cf0:	40e60733          	sub	a4,a2,a4
    7cf4:	00e797b3          	sll	a5,a5,a4
    7cf8:	00f86833          	or	a6,a6,a5
    7cfc:	010034b3          	snez	s1,a6
    7d00:	8cd5                	or	s1,s1,a3
    7d02:	bec9                	j	78d4 <__adddf3+0x9a>
    7d04:	00b9e6b3          	or	a3,s3,a1
    7d08:	1a068263          	beqz	a3,7eac <__adddf3+0x672>
    7d0c:	fff70513          	addi	a0,a4,-1
    7d10:	cd3d                	beqz	a0,7d8e <__adddf3+0x554>
    7d12:	7ff00693          	li	a3,2047
    7d16:	0ed70b63          	beq	a4,a3,7e0c <__adddf3+0x5d2>
    7d1a:	03800713          	li	a4,56
    7d1e:	4685                	li	a3,1
    7d20:	e6a747e3          	blt	a4,a0,7b8e <__adddf3+0x354>
    7d24:	872a                	mv	a4,a0
    7d26:	b589                	j	7b68 <__adddf3+0x32e>
    7d28:	ff8006b7          	lui	a3,0xff800
    7d2c:	16fd                	addi	a3,a3,-1 # ff7fffff <_eusrstack+0xdf7fafff>
    7d2e:	8ff5                	and	a5,a5,a3
    7d30:	8c19                	sub	s0,s0,a4
    7d32:	01d79713          	slli	a4,a5,0x1d
    7d36:	838d                	srli	a5,a5,0x3
    7d38:	bdc1                	j	7c08 <__adddf3+0x3ce>
    7d3a:	7ff00713          	li	a4,2047
    7d3e:	dee688e3          	beq	a3,a4,7b2e <__adddf3+0x2f4>
    7d42:	01058733          	add	a4,a1,a6
    7d46:	97ce                	add	a5,a5,s3
    7d48:	00b735b3          	sltu	a1,a4,a1
    7d4c:	97ae                	add	a5,a5,a1
    7d4e:	8305                	srli	a4,a4,0x1
    7d50:	01f79493          	slli	s1,a5,0x1f
    7d54:	8cd9                	or	s1,s1,a4
    7d56:	8b1d                	andi	a4,a4,7
    7d58:	0017d993          	srli	s3,a5,0x1
    7d5c:	8436                	mv	s0,a3
    7d5e:	be0714e3          	bnez	a4,7946 <__adddf3+0x10c>
    7d62:	bf05                	j	7c92 <__adddf3+0x458>
    7d64:	40b805b3          	sub	a1,a6,a1
    7d68:	413787b3          	sub	a5,a5,s3
    7d6c:	00b83833          	sltu	a6,a6,a1
    7d70:	84ae                	mv	s1,a1
    7d72:	410789b3          	sub	s3,a5,a6
    7d76:	8936                	mv	s2,a3
    7d78:	bead                	j	78f2 <__adddf3+0xb8>
    7d7a:	12089c63          	bnez	a7,7eb2 <__adddf3+0x678>
    7d7e:	18071563          	bnez	a4,7f08 <__adddf3+0x6ce>
    7d82:	4901                	li	s2,0
    7d84:	7ff00413          	li	s0,2047
    7d88:	000807b7          	lui	a5,0x80
    7d8c:	b101                	j	798c <__adddf3+0x152>
    7d8e:	982e                	add	a6,a6,a1
    7d90:	97ce                	add	a5,a5,s3
    7d92:	00b835b3          	sltu	a1,a6,a1
    7d96:	00b789b3          	add	s3,a5,a1
    7d9a:	008007b7          	lui	a5,0x800
    7d9e:	00f9f7b3          	and	a5,s3,a5
    7da2:	84c2                	mv	s1,a6
    7da4:	4405                	li	s0,1
    7da6:	d80789e3          	beqz	a5,7b38 <__adddf3+0x2fe>
    7daa:	4409                	li	s0,2
    7dac:	b9d9                	j	7a82 <__adddf3+0x248>
    7dae:	41058833          	sub	a6,a1,a6
    7db2:	40f987b3          	sub	a5,s3,a5
    7db6:	0105b5b3          	sltu	a1,a1,a6
    7dba:	84c2                	mv	s1,a6
    7dbc:	40b789b3          	sub	s3,a5,a1
    7dc0:	4405                	li	s0,1
    7dc2:	be39                	j	78e0 <__adddf3+0xa6>
    7dc4:	050e                	slli	a0,a0,0x3
    7dc6:	810d                	srli	a0,a0,0x3
    7dc8:	01d99713          	slli	a4,s3,0x1d
    7dcc:	8f49                	or	a4,a4,a0
    7dce:	0039d793          	srli	a5,s3,0x3
    7dd2:	bd81                	j	7c22 <__adddf3+0x3e8>
    7dd4:	fe070613          	addi	a2,a4,-32
    7dd8:	02000693          	li	a3,32
    7ddc:	00c7d633          	srl	a2,a5,a2
    7de0:	00d70a63          	beq	a4,a3,7df4 <__adddf3+0x5ba>
    7de4:	04000693          	li	a3,64
    7de8:	40e68733          	sub	a4,a3,a4
    7dec:	00e797b3          	sll	a5,a5,a4
    7df0:	00f86833          	or	a6,a6,a5
    7df4:	010036b3          	snez	a3,a6
    7df8:	8ed1                	or	a3,a3,a2
    7dfa:	b1a5                	j	7a62 <__adddf3+0x228>
    7dfc:	060e                	slli	a2,a2,0x3
    7dfe:	01d79713          	slli	a4,a5,0x1d
    7e02:	820d                	srli	a2,a2,0x3
    7e04:	8f51                	or	a4,a4,a2
    7e06:	838d                	srli	a5,a5,0x3
    7e08:	8936                	mv	s2,a3
    7e0a:	bd21                	j	7c22 <__adddf3+0x3e8>
    7e0c:	060e                	slli	a2,a2,0x3
    7e0e:	01d79713          	slli	a4,a5,0x1d
    7e12:	820d                	srli	a2,a2,0x3
    7e14:	8f51                	or	a4,a4,a2
    7e16:	838d                	srli	a5,a5,0x3
    7e18:	b529                	j	7c22 <__adddf3+0x3e8>
    7e1a:	fe070613          	addi	a2,a4,-32
    7e1e:	02000513          	li	a0,32
    7e22:	00c9d633          	srl	a2,s3,a2
    7e26:	00a70963          	beq	a4,a0,7e38 <__adddf3+0x5fe>
    7e2a:	04000513          	li	a0,64
    7e2e:	40e50733          	sub	a4,a0,a4
    7e32:	00e99733          	sll	a4,s3,a4
    7e36:	8dd9                	or	a1,a1,a4
    7e38:	00b034b3          	snez	s1,a1
    7e3c:	8cd1                	or	s1,s1,a2
    7e3e:	b6c1                	j	79fe <__adddf3+0x1c4>
    7e40:	d771                	beqz	a4,7e0c <__adddf3+0x5d2>
    7e42:	0107e833          	or	a6,a5,a6
    7e46:	de0810e3          	bnez	a6,7c26 <__adddf3+0x3ec>
    7e4a:	050e                	slli	a0,a0,0x3
    7e4c:	01d99793          	slli	a5,s3,0x1d
    7e50:	810d                	srli	a0,a0,0x3
    7e52:	00f56733          	or	a4,a0,a5
    7e56:	0039d793          	srli	a5,s3,0x3
    7e5a:	b3e1                	j	7c22 <__adddf3+0x3e8>
    7e5c:	40b805b3          	sub	a1,a6,a1
    7e60:	413787b3          	sub	a5,a5,s3
    7e64:	00b83833          	sltu	a6,a6,a1
    7e68:	84ae                	mv	s1,a1
    7e6a:	410789b3          	sub	s3,a5,a6
    7e6e:	8936                	mv	s2,a3
    7e70:	4405                	li	s0,1
    7e72:	b4bd                	j	78e0 <__adddf3+0xa6>
    7e74:	e40702e3          	beqz	a4,7cb8 <__adddf3+0x47e>
    7e78:	060e                	slli	a2,a2,0x3
    7e7a:	01d79713          	slli	a4,a5,0x1d
    7e7e:	820d                	srli	a2,a2,0x3
    7e80:	8f51                	or	a4,a4,a2
    7e82:	838d                	srli	a5,a5,0x3
    7e84:	8936                	mv	s2,a3
    7e86:	b349                	j	7c08 <__adddf3+0x3ce>
    7e88:	00351793          	slli	a5,a0,0x3
    7e8c:	838d                	srli	a5,a5,0x3
    7e8e:	01d99713          	slli	a4,s3,0x1d
    7e92:	8f5d                	or	a4,a4,a5
    7e94:	0039d793          	srli	a5,s3,0x3
    7e98:	b369                	j	7c22 <__adddf3+0x3e8>
    7e9a:	00351793          	slli	a5,a0,0x3
    7e9e:	838d                	srli	a5,a5,0x3
    7ea0:	01d99713          	slli	a4,s3,0x1d
    7ea4:	8f5d                	or	a4,a4,a5
    7ea6:	0039d793          	srli	a5,s3,0x3
    7eaa:	bbb9                	j	7c08 <__adddf3+0x3ce>
    7eac:	85c2                	mv	a1,a6
    7eae:	89be                	mv	s3,a5
    7eb0:	b369                	j	7c3a <__adddf3+0x400>
    7eb2:	df41                	beqz	a4,7e4a <__adddf3+0x610>
    7eb4:	bb8d                	j	7c26 <__adddf3+0x3ec>
    7eb6:	060e                	slli	a2,a2,0x3
    7eb8:	01d79713          	slli	a4,a5,0x1d
    7ebc:	820d                	srli	a2,a2,0x3
    7ebe:	8f51                	or	a4,a4,a2
    7ec0:	838d                	srli	a5,a5,0x3
    7ec2:	b399                	j	7c08 <__adddf3+0x3ce>
    7ec4:	050e                	slli	a0,a0,0x3
    7ec6:	01d99793          	slli	a5,s3,0x1d
    7eca:	810d                	srli	a0,a0,0x3
    7ecc:	00f56733          	or	a4,a0,a5
    7ed0:	0039d793          	srli	a5,s3,0x3
    7ed4:	bb15                	j	7c08 <__adddf3+0x3ce>
    7ed6:	fe070613          	addi	a2,a4,-32
    7eda:	02000693          	li	a3,32
    7ede:	00c9d633          	srl	a2,s3,a2
    7ee2:	00d70963          	beq	a4,a3,7ef4 <__adddf3+0x6ba>
    7ee6:	04000693          	li	a3,64
    7eea:	40e68733          	sub	a4,a3,a4
    7eee:	00e99733          	sll	a4,s3,a4
    7ef2:	8dd9                	or	a1,a1,a4
    7ef4:	00b036b3          	snez	a3,a1
    7ef8:	8ed1                	or	a3,a3,a2
    7efa:	b951                	j	7b8e <__adddf3+0x354>
    7efc:	00c4e733          	or	a4,s1,a2
    7f00:	89b2                	mv	s3,a2
    7f02:	d80718e3          	bnez	a4,7c92 <__adddf3+0x458>
    7f06:	bb4d                	j	7cb8 <__adddf3+0x47e>
    7f08:	060e                	slli	a2,a2,0x3
    7f0a:	01d79713          	slli	a4,a5,0x1d
    7f0e:	820d                	srli	a2,a2,0x3
    7f10:	8f51                	or	a4,a4,a2
    7f12:	838d                	srli	a5,a5,0x3
    7f14:	8936                	mv	s2,a3
    7f16:	b331                	j	7c22 <__adddf3+0x3e8>
    7f18:	02000693          	li	a3,32
    7f1c:	8e99                	sub	a3,a3,a4
    7f1e:	4601                	li	a2,0
    7f20:	b439                	j	792e <__adddf3+0xf4>

00007f22 <__divdf3>:
    7f22:	7179                	addi	sp,sp,-48
    7f24:	0145d793          	srli	a5,a1,0x14
    7f28:	d422                	sw	s0,40(sp)
    7f2a:	d226                	sw	s1,36(sp)
    7f2c:	d04a                	sw	s2,32(sp)
    7f2e:	ca56                	sw	s5,20(sp)
    7f30:	c65e                	sw	s7,12(sp)
    7f32:	00c59493          	slli	s1,a1,0xc
    7f36:	d606                	sw	ra,44(sp)
    7f38:	ce4e                	sw	s3,28(sp)
    7f3a:	cc52                	sw	s4,24(sp)
    7f3c:	c85a                	sw	s6,16(sp)
    7f3e:	c462                	sw	s8,8(sp)
    7f40:	7ff7f793          	andi	a5,a5,2047
    7f44:	842a                	mv	s0,a0
    7f46:	8bb2                	mv	s7,a2
    7f48:	8936                	mv	s2,a3
    7f4a:	80b1                	srli	s1,s1,0xc
    7f4c:	01f5da93          	srli	s5,a1,0x1f
    7f50:	10078c63          	beqz	a5,8068 <__divdf3+0x146>
    7f54:	7ff00713          	li	a4,2047
    7f58:	14e78763          	beq	a5,a4,80a6 <__divdf3+0x184>
    7f5c:	048e                	slli	s1,s1,0x3
    7f5e:	01d55b13          	srli	s6,a0,0x1d
    7f62:	009b6b33          	or	s6,s6,s1
    7f66:	00800737          	lui	a4,0x800
    7f6a:	00eb6b33          	or	s6,s6,a4
    7f6e:	00351a13          	slli	s4,a0,0x3
    7f72:	c0178993          	addi	s3,a5,-1023 # 7ffc01 <_data_lma+0x7f401d>
    7f76:	4481                	li	s1,0
    7f78:	4c01                	li	s8,0
    7f7a:	01495793          	srli	a5,s2,0x14
    7f7e:	00c91413          	slli	s0,s2,0xc
    7f82:	7ff7f793          	andi	a5,a5,2047
    7f86:	8031                	srli	s0,s0,0xc
    7f88:	01f95913          	srli	s2,s2,0x1f
    7f8c:	c3d5                	beqz	a5,8030 <__divdf3+0x10e>
    7f8e:	7ff00713          	li	a4,2047
    7f92:	08e78463          	beq	a5,a4,801a <__divdf3+0xf8>
    7f96:	040e                	slli	s0,s0,0x3
    7f98:	01dbd713          	srli	a4,s7,0x1d
    7f9c:	8f41                	or	a4,a4,s0
    7f9e:	c0178793          	addi	a5,a5,-1023
    7fa2:	00800437          	lui	s0,0x800
    7fa6:	8c59                	or	s0,s0,a4
    7fa8:	003b9893          	slli	a7,s7,0x3
    7fac:	40f989b3          	sub	s3,s3,a5
    7fb0:	4601                	li	a2,0
    7fb2:	473d                	li	a4,15
    7fb4:	012ac6b3          	xor	a3,s5,s2
    7fb8:	18976863          	bltu	a4,s1,8148 <__divdf3+0x226>
    7fbc:	00004717          	auipc	a4,0x4
    7fc0:	94c70713          	addi	a4,a4,-1716 # b908 <MyDevDescr+0x14>
    7fc4:	048a                	slli	s1,s1,0x2
    7fc6:	94ba                	add	s1,s1,a4
    7fc8:	409c                	lw	a5,0(s1)
    7fca:	97ba                	add	a5,a5,a4
    7fcc:	8782                	jr	a5
    7fce:	8f1d                	sub	a4,a4,a5
    7fd0:	03800613          	li	a2,56
    7fd4:	40e65c63          	bge	a2,a4,83ec <__divdf3+0x4ca>
    7fd8:	4781                	li	a5,0
    7fda:	4601                	li	a2,0
    7fdc:	4701                	li	a4,0
    7fde:	50b2                	lw	ra,44(sp)
    7fe0:	5422                	lw	s0,40(sp)
    7fe2:	07d2                	slli	a5,a5,0x14
    7fe4:	8fd1                	or	a5,a5,a2
    7fe6:	06fe                	slli	a3,a3,0x1f
    7fe8:	8fd5                	or	a5,a5,a3
    7fea:	5492                	lw	s1,36(sp)
    7fec:	5902                	lw	s2,32(sp)
    7fee:	49f2                	lw	s3,28(sp)
    7ff0:	4a62                	lw	s4,24(sp)
    7ff2:	4ad2                	lw	s5,20(sp)
    7ff4:	4b42                	lw	s6,16(sp)
    7ff6:	4bb2                	lw	s7,12(sp)
    7ff8:	4c22                	lw	s8,8(sp)
    7ffa:	853a                	mv	a0,a4
    7ffc:	85be                	mv	a1,a5
    7ffe:	6145                	addi	sp,sp,48
    8000:	8082                	ret
    8002:	7ff00793          	li	a5,2047
    8006:	4601                	li	a2,0
    8008:	4701                	li	a4,0
    800a:	bfd1                	j	7fde <__divdf3+0xbc>
    800c:	4681                	li	a3,0
    800e:	7ff00793          	li	a5,2047
    8012:	00080637          	lui	a2,0x80
    8016:	4701                	li	a4,0
    8018:	b7d9                	j	7fde <__divdf3+0xbc>
    801a:	017468b3          	or	a7,s0,s7
    801e:	80198993          	addi	s3,s3,-2047
    8022:	10089963          	bnez	a7,8134 <__divdf3+0x212>
    8026:	0024e493          	ori	s1,s1,2
    802a:	4401                	li	s0,0
    802c:	4609                	li	a2,2
    802e:	b751                	j	7fb2 <__divdf3+0x90>
    8030:	017468b3          	or	a7,s0,s7
    8034:	0e088b63          	beqz	a7,812a <__divdf3+0x208>
    8038:	36040663          	beqz	s0,83a4 <__divdf3+0x482>
    803c:	8522                	mv	a0,s0
    803e:	2aa020ef          	jal	ra,a2e8 <__clzsi2>
    8042:	87aa                	mv	a5,a0
    8044:	ff550693          	addi	a3,a0,-11
    8048:	4775                	li	a4,29
    804a:	ff878893          	addi	a7,a5,-8
    804e:	8f15                	sub	a4,a4,a3
    8050:	01141433          	sll	s0,s0,a7
    8054:	00ebd733          	srl	a4,s7,a4
    8058:	8c59                	or	s0,s0,a4
    805a:	011b98b3          	sll	a7,s7,a7
    805e:	97ce                	add	a5,a5,s3
    8060:	3f378993          	addi	s3,a5,1011
    8064:	4601                	li	a2,0
    8066:	b7b1                	j	7fb2 <__divdf3+0x90>
    8068:	00a4eb33          	or	s6,s1,a0
    806c:	0c0b0963          	beqz	s6,813e <__divdf3+0x21c>
    8070:	30048b63          	beqz	s1,8386 <__divdf3+0x464>
    8074:	8526                	mv	a0,s1
    8076:	272020ef          	jal	ra,a2e8 <__clzsi2>
    807a:	872a                	mv	a4,a0
    807c:	ff550693          	addi	a3,a0,-11
    8080:	47f5                	li	a5,29
    8082:	ff870a13          	addi	s4,a4,-8
    8086:	8f95                	sub	a5,a5,a3
    8088:	014494b3          	sll	s1,s1,s4
    808c:	00f457b3          	srl	a5,s0,a5
    8090:	0097eb33          	or	s6,a5,s1
    8094:	01441a33          	sll	s4,s0,s4
    8098:	c0d00793          	li	a5,-1011
    809c:	40e789b3          	sub	s3,a5,a4
    80a0:	4481                	li	s1,0
    80a2:	4c01                	li	s8,0
    80a4:	bdd9                	j	7f7a <__divdf3+0x58>
    80a6:	00a4eb33          	or	s6,s1,a0
    80aa:	060b1963          	bnez	s6,811c <__divdf3+0x1fa>
    80ae:	4a01                	li	s4,0
    80b0:	44a1                	li	s1,8
    80b2:	7ff00993          	li	s3,2047
    80b6:	4c09                	li	s8,2
    80b8:	b5c9                	j	7f7a <__divdf3+0x58>
    80ba:	8c32                	mv	s8,a2
    80bc:	4789                	li	a5,2
    80be:	3efc0263          	beq	s8,a5,84a2 <__divdf3+0x580>
    80c2:	478d                	li	a5,3
    80c4:	f4fc04e3          	beq	s8,a5,800c <__divdf3+0xea>
    80c8:	4785                	li	a5,1
    80ca:	86ca                	mv	a3,s2
    80cc:	f0fc06e3          	beq	s8,a5,7fd8 <__divdf3+0xb6>
    80d0:	3ff98793          	addi	a5,s3,1023
    80d4:	22f05063          	blez	a5,82f4 <__divdf3+0x3d2>
    80d8:	0078f713          	andi	a4,a7,7
    80dc:	3a071963          	bnez	a4,848e <__divdf3+0x56c>
    80e0:	01000737          	lui	a4,0x1000
    80e4:	8f61                	and	a4,a4,s0
    80e6:	c719                	beqz	a4,80f4 <__divdf3+0x1d2>
    80e8:	ff0007b7          	lui	a5,0xff000
    80ec:	17fd                	addi	a5,a5,-1 # feffffff <_eusrstack+0xdeffafff>
    80ee:	8c7d                	and	s0,s0,a5
    80f0:	40098793          	addi	a5,s3,1024
    80f4:	7fe00713          	li	a4,2046
    80f8:	f0f745e3          	blt	a4,a5,8002 <__divdf3+0xe0>
    80fc:	0038d893          	srli	a7,a7,0x3
    8100:	01d41713          	slli	a4,s0,0x1d
    8104:	00941613          	slli	a2,s0,0x9
    8108:	01176733          	or	a4,a4,a7
    810c:	8231                	srli	a2,a2,0xc
    810e:	7ff7f793          	andi	a5,a5,2047
    8112:	b5f1                	j	7fde <__divdf3+0xbc>
    8114:	8956                	mv	s2,s5
    8116:	845a                	mv	s0,s6
    8118:	88d2                	mv	a7,s4
    811a:	b74d                	j	80bc <__divdf3+0x19a>
    811c:	8b26                	mv	s6,s1
    811e:	8a2a                	mv	s4,a0
    8120:	44b1                	li	s1,12
    8122:	7ff00993          	li	s3,2047
    8126:	4c0d                	li	s8,3
    8128:	bd89                	j	7f7a <__divdf3+0x58>
    812a:	0014e493          	ori	s1,s1,1
    812e:	4401                	li	s0,0
    8130:	4605                	li	a2,1
    8132:	b541                	j	7fb2 <__divdf3+0x90>
    8134:	0034e493          	ori	s1,s1,3
    8138:	88de                	mv	a7,s7
    813a:	460d                	li	a2,3
    813c:	bd9d                	j	7fb2 <__divdf3+0x90>
    813e:	4a01                	li	s4,0
    8140:	4491                	li	s1,4
    8142:	4981                	li	s3,0
    8144:	4c05                	li	s8,1
    8146:	bd15                	j	7f7a <__divdf3+0x58>
    8148:	23646563          	bltu	s0,s6,8372 <__divdf3+0x450>
    814c:	228b0163          	beq	s6,s0,836e <__divdf3+0x44c>
    8150:	8352                	mv	t1,s4
    8152:	19fd                	addi	s3,s3,-1
    8154:	87da                	mv	a5,s6
    8156:	4a01                	li	s4,0
    8158:	00841713          	slli	a4,s0,0x8
    815c:	01075513          	srli	a0,a4,0x10
    8160:	02a7d433          	divu	s0,a5,a0
    8164:	0188d613          	srli	a2,a7,0x18
    8168:	8e59                	or	a2,a2,a4
    816a:	01061813          	slli	a6,a2,0x10
    816e:	01085813          	srli	a6,a6,0x10
    8172:	00889593          	slli	a1,a7,0x8
    8176:	01035713          	srli	a4,t1,0x10
    817a:	02a7f7b3          	remu	a5,a5,a0
    817e:	028808b3          	mul	a7,a6,s0
    8182:	07c2                	slli	a5,a5,0x10
    8184:	8fd9                	or	a5,a5,a4
    8186:	0117f863          	bgeu	a5,a7,8196 <__divdf3+0x274>
    818a:	97b2                	add	a5,a5,a2
    818c:	fff40713          	addi	a4,s0,-1 # 7fffff <_data_lma+0x7f441b>
    8190:	24c7f963          	bgeu	a5,a2,83e2 <__divdf3+0x4c0>
    8194:	843a                	mv	s0,a4
    8196:	411787b3          	sub	a5,a5,a7
    819a:	02a7d8b3          	divu	a7,a5,a0
    819e:	01031713          	slli	a4,t1,0x10
    81a2:	8341                	srli	a4,a4,0x10
    81a4:	02a7f7b3          	remu	a5,a5,a0
    81a8:	03180fb3          	mul	t6,a6,a7
    81ac:	07c2                	slli	a5,a5,0x10
    81ae:	8f5d                	or	a4,a4,a5
    81b0:	01f77863          	bgeu	a4,t6,81c0 <__divdf3+0x29e>
    81b4:	9732                	add	a4,a4,a2
    81b6:	fff88793          	addi	a5,a7,-1
    81ba:	20c77f63          	bgeu	a4,a2,83d8 <__divdf3+0x4b6>
    81be:	88be                	mv	a7,a5
    81c0:	0442                	slli	s0,s0,0x10
    81c2:	62c1                	lui	t0,0x10
    81c4:	01146433          	or	s0,s0,a7
    81c8:	fff28313          	addi	t1,t0,-1 # ffff <_data_lma+0x441b>
    81cc:	006478b3          	and	a7,s0,t1
    81d0:	01045e93          	srli	t4,s0,0x10
    81d4:	0105de13          	srli	t3,a1,0x10
    81d8:	0065f333          	and	t1,a1,t1
    81dc:	03130f33          	mul	t5,t1,a7
    81e0:	41f70733          	sub	a4,a4,t6
    81e4:	031e08b3          	mul	a7,t3,a7
    81e8:	010f5793          	srli	a5,t5,0x10
    81ec:	026e8fb3          	mul	t6,t4,t1
    81f0:	98fe                	add	a7,a7,t6
    81f2:	97c6                	add	a5,a5,a7
    81f4:	03ce8eb3          	mul	t4,t4,t3
    81f8:	01f7f363          	bgeu	a5,t6,81fe <__divdf3+0x2dc>
    81fc:	9e96                	add	t4,t4,t0
    81fe:	6fc1                	lui	t6,0x10
    8200:	1ffd                	addi	t6,t6,-1 # ffff <_data_lma+0x441b>
    8202:	0107d893          	srli	a7,a5,0x10
    8206:	01f7f7b3          	and	a5,a5,t6
    820a:	07c2                	slli	a5,a5,0x10
    820c:	01ff7f33          	and	t5,t5,t6
    8210:	98f6                	add	a7,a7,t4
    8212:	97fa                	add	a5,a5,t5
    8214:	13176b63          	bltu	a4,a7,834a <__divdf3+0x428>
    8218:	13170763          	beq	a4,a7,8346 <__divdf3+0x424>
    821c:	40fa07b3          	sub	a5,s4,a5
    8220:	41170733          	sub	a4,a4,a7
    8224:	00fa3a33          	sltu	s4,s4,a5
    8228:	41470733          	sub	a4,a4,s4
    822c:	24e60363          	beq	a2,a4,8472 <__divdf3+0x550>
    8230:	02a758b3          	divu	a7,a4,a0
    8234:	0107de93          	srli	t4,a5,0x10
    8238:	02a77733          	remu	a4,a4,a0
    823c:	03180f33          	mul	t5,a6,a7
    8240:	0742                	slli	a4,a4,0x10
    8242:	00eee733          	or	a4,t4,a4
    8246:	01e77b63          	bgeu	a4,t5,825c <__divdf3+0x33a>
    824a:	9732                	add	a4,a4,a2
    824c:	fff88e93          	addi	t4,a7,-1
    8250:	24c76763          	bltu	a4,a2,849e <__divdf3+0x57c>
    8254:	25e77563          	bgeu	a4,t5,849e <__divdf3+0x57c>
    8258:	18f9                	addi	a7,a7,-2
    825a:	9732                	add	a4,a4,a2
    825c:	41e70733          	sub	a4,a4,t5
    8260:	02a75eb3          	divu	t4,a4,a0
    8264:	07c2                	slli	a5,a5,0x10
    8266:	83c1                	srli	a5,a5,0x10
    8268:	02a77733          	remu	a4,a4,a0
    826c:	03d80833          	mul	a6,a6,t4
    8270:	0742                	slli	a4,a4,0x10
    8272:	8fd9                	or	a5,a5,a4
    8274:	0107fb63          	bgeu	a5,a6,828a <__divdf3+0x368>
    8278:	97b2                	add	a5,a5,a2
    827a:	fffe8713          	addi	a4,t4,-1
    827e:	20c7ee63          	bltu	a5,a2,849a <__divdf3+0x578>
    8282:	2107fc63          	bgeu	a5,a6,849a <__divdf3+0x578>
    8286:	1ef9                	addi	t4,t4,-2
    8288:	97b2                	add	a5,a5,a2
    828a:	08c2                	slli	a7,a7,0x10
    828c:	01d8e8b3          	or	a7,a7,t4
    8290:	01089513          	slli	a0,a7,0x10
    8294:	0108df13          	srli	t5,a7,0x10
    8298:	8141                	srli	a0,a0,0x10
    829a:	02650eb3          	mul	t4,a0,t1
    829e:	410787b3          	sub	a5,a5,a6
    82a2:	02ae0533          	mul	a0,t3,a0
    82a6:	010ed713          	srli	a4,t4,0x10
    82aa:	026f0333          	mul	t1,t5,t1
    82ae:	951a                	add	a0,a0,t1
    82b0:	972a                	add	a4,a4,a0
    82b2:	03ee0e33          	mul	t3,t3,t5
    82b6:	00677463          	bgeu	a4,t1,82be <__divdf3+0x39c>
    82ba:	6541                	lui	a0,0x10
    82bc:	9e2a                	add	t3,t3,a0
    82be:	6841                	lui	a6,0x10
    82c0:	187d                	addi	a6,a6,-1 # ffff <_data_lma+0x441b>
    82c2:	01075513          	srli	a0,a4,0x10
    82c6:	01077733          	and	a4,a4,a6
    82ca:	0742                	slli	a4,a4,0x10
    82cc:	010efeb3          	and	t4,t4,a6
    82d0:	9572                	add	a0,a0,t3
    82d2:	9776                	add	a4,a4,t4
    82d4:	0ea7f763          	bgeu	a5,a0,83c2 <__divdf3+0x4a0>
    82d8:	97b2                	add	a5,a5,a2
    82da:	fff88313          	addi	t1,a7,-1
    82de:	883e                	mv	a6,a5
    82e0:	16c7e763          	bltu	a5,a2,844e <__divdf3+0x52c>
    82e4:	1ca7e563          	bltu	a5,a0,84ae <__divdf3+0x58c>
    82e8:	1ca78e63          	beq	a5,a0,84c4 <__divdf3+0x5a2>
    82ec:	889a                	mv	a7,t1
    82ee:	0018e893          	ori	a7,a7,1
    82f2:	bbf9                	j	80d0 <__divdf3+0x1ae>
    82f4:	4705                	li	a4,1
    82f6:	cc079ce3          	bnez	a5,7fce <__divdf3+0xac>
    82fa:	41e98793          	addi	a5,s3,1054
    82fe:	00f89633          	sll	a2,a7,a5
    8302:	00c03633          	snez	a2,a2
    8306:	00f417b3          	sll	a5,s0,a5
    830a:	8fd1                	or	a5,a5,a2
    830c:	00e8d8b3          	srl	a7,a7,a4
    8310:	00f8e8b3          	or	a7,a7,a5
    8314:	0078f793          	andi	a5,a7,7
    8318:	00e45433          	srl	s0,s0,a4
    831c:	cf81                	beqz	a5,8334 <__divdf3+0x412>
    831e:	00f8f793          	andi	a5,a7,15
    8322:	4711                	li	a4,4
    8324:	00e78863          	beq	a5,a4,8334 <__divdf3+0x412>
    8328:	00488793          	addi	a5,a7,4
    832c:	0117b8b3          	sltu	a7,a5,a7
    8330:	9446                	add	s0,s0,a7
    8332:	88be                	mv	a7,a5
    8334:	008005b7          	lui	a1,0x800
    8338:	8de1                	and	a1,a1,s0
    833a:	4785                	li	a5,1
    833c:	4601                	li	a2,0
    833e:	4701                	li	a4,0
    8340:	c8059fe3          	bnez	a1,7fde <__divdf3+0xbc>
    8344:	a8d5                	j	8438 <__divdf3+0x516>
    8346:	ecfa7be3          	bgeu	s4,a5,821c <__divdf3+0x2fa>
    834a:	00ba0eb3          	add	t4,s4,a1
    834e:	014ebf33          	sltu	t5,t4,s4
    8352:	00cf0fb3          	add	t6,t5,a2
    8356:	977e                	add	a4,a4,t6
    8358:	8a76                	mv	s4,t4
    835a:	fff40f93          	addi	t6,s0,-1
    835e:	06e67763          	bgeu	a2,a4,83cc <__divdf3+0x4aa>
    8362:	11176063          	bltu	a4,a7,8462 <__divdf3+0x540>
    8366:	0ee88c63          	beq	a7,a4,845e <__divdf3+0x53c>
    836a:	847e                	mv	s0,t6
    836c:	bd45                	j	821c <__divdf3+0x2fa>
    836e:	df1a61e3          	bltu	s4,a7,8150 <__divdf3+0x22e>
    8372:	001a5713          	srli	a4,s4,0x1
    8376:	01fb1313          	slli	t1,s6,0x1f
    837a:	001b5793          	srli	a5,s6,0x1
    837e:	00e36333          	or	t1,t1,a4
    8382:	0a7e                	slli	s4,s4,0x1f
    8384:	bbd1                	j	8158 <__divdf3+0x236>
    8386:	763010ef          	jal	ra,a2e8 <__clzsi2>
    838a:	01550693          	addi	a3,a0,21 # 10015 <_data_lma+0x4431>
    838e:	47f1                	li	a5,28
    8390:	02050713          	addi	a4,a0,32
    8394:	ced7d6e3          	bge	a5,a3,8080 <__divdf3+0x15e>
    8398:	ff850793          	addi	a5,a0,-8
    839c:	00f41b33          	sll	s6,s0,a5
    83a0:	4a01                	li	s4,0
    83a2:	b9dd                	j	8098 <__divdf3+0x176>
    83a4:	855e                	mv	a0,s7
    83a6:	743010ef          	jal	ra,a2e8 <__clzsi2>
    83aa:	01550693          	addi	a3,a0,21
    83ae:	4771                	li	a4,28
    83b0:	02050793          	addi	a5,a0,32
    83b4:	c8d75ae3          	bge	a4,a3,8048 <__divdf3+0x126>
    83b8:	1561                	addi	a0,a0,-8
    83ba:	4881                	li	a7,0
    83bc:	00ab9433          	sll	s0,s7,a0
    83c0:	b979                	j	805e <__divdf3+0x13c>
    83c2:	f2a796e3          	bne	a5,a0,82ee <__divdf3+0x3cc>
    83c6:	d00705e3          	beqz	a4,80d0 <__divdf3+0x1ae>
    83ca:	b739                	j	82d8 <__divdf3+0x3b6>
    83cc:	f8e61fe3          	bne	a2,a4,836a <__divdf3+0x448>
    83d0:	f80f09e3          	beqz	t5,8362 <__divdf3+0x440>
    83d4:	847e                	mv	s0,t6
    83d6:	b599                	j	821c <__divdf3+0x2fa>
    83d8:	dff773e3          	bgeu	a4,t6,81be <__divdf3+0x29c>
    83dc:	18f9                	addi	a7,a7,-2
    83de:	9732                	add	a4,a4,a2
    83e0:	b3c5                	j	81c0 <__divdf3+0x29e>
    83e2:	db17f9e3          	bgeu	a5,a7,8194 <__divdf3+0x272>
    83e6:	1479                	addi	s0,s0,-2
    83e8:	97b2                	add	a5,a5,a2
    83ea:	b375                	j	8196 <__divdf3+0x274>
    83ec:	467d                	li	a2,31
    83ee:	f0e656e3          	bge	a2,a4,82fa <__divdf3+0x3d8>
    83f2:	5605                	li	a2,-31
    83f4:	8e1d                	sub	a2,a2,a5
    83f6:	02000793          	li	a5,32
    83fa:	00c45633          	srl	a2,s0,a2
    83fe:	00f70863          	beq	a4,a5,840e <__divdf3+0x4ec>
    8402:	43e98793          	addi	a5,s3,1086
    8406:	00f417b3          	sll	a5,s0,a5
    840a:	00f8e8b3          	or	a7,a7,a5
    840e:	011038b3          	snez	a7,a7
    8412:	00c8e8b3          	or	a7,a7,a2
    8416:	0078f713          	andi	a4,a7,7
    841a:	4601                	li	a2,0
    841c:	c31d                	beqz	a4,8442 <__divdf3+0x520>
    841e:	00f8f793          	andi	a5,a7,15
    8422:	4711                	li	a4,4
    8424:	4401                	li	s0,0
    8426:	00e78963          	beq	a5,a4,8438 <__divdf3+0x516>
    842a:	00488793          	addi	a5,a7,4
    842e:	0117b8b3          	sltu	a7,a5,a7
    8432:	01103433          	snez	s0,a7
    8436:	88be                	mv	a7,a5
    8438:	00941613          	slli	a2,s0,0x9
    843c:	01d41713          	slli	a4,s0,0x1d
    8440:	8231                	srli	a2,a2,0xc
    8442:	0038d893          	srli	a7,a7,0x3
    8446:	00e8e733          	or	a4,a7,a4
    844a:	4781                	li	a5,0
    844c:	be49                	j	7fde <__divdf3+0xbc>
    844e:	889a                	mv	a7,t1
    8450:	e8a81fe3          	bne	a6,a0,82ee <__divdf3+0x3cc>
    8454:	c6b70ee3          	beq	a4,a1,80d0 <__divdf3+0x1ae>
    8458:	0018e893          	ori	a7,a7,1
    845c:	b995                	j	80d0 <__divdf3+0x1ae>
    845e:	f0fef6e3          	bgeu	t4,a5,836a <__divdf3+0x448>
    8462:	9eae                	add	t4,t4,a1
    8464:	00bebf33          	sltu	t5,t4,a1
    8468:	9f32                	add	t5,t5,a2
    846a:	1479                	addi	s0,s0,-2
    846c:	8a76                	mv	s4,t4
    846e:	977a                	add	a4,a4,t5
    8470:	b375                	j	821c <__divdf3+0x2fa>
    8472:	c0200713          	li	a4,-1022
    8476:	3ff98793          	addi	a5,s3,1023
    847a:	58fd                	li	a7,-1
    847c:	e6e9cce3          	blt	s3,a4,82f4 <__divdf3+0x3d2>
    8480:	00488713          	addi	a4,a7,4
    8484:	011738b3          	sltu	a7,a4,a7
    8488:	9446                	add	s0,s0,a7
    848a:	88ba                	mv	a7,a4
    848c:	b991                	j	80e0 <__divdf3+0x1be>
    848e:	00f8f713          	andi	a4,a7,15
    8492:	4611                	li	a2,4
    8494:	c4c706e3          	beq	a4,a2,80e0 <__divdf3+0x1be>
    8498:	b7e5                	j	8480 <__divdf3+0x55e>
    849a:	8eba                	mv	t4,a4
    849c:	b3fd                	j	828a <__divdf3+0x368>
    849e:	88f6                	mv	a7,t4
    84a0:	bb75                	j	825c <__divdf3+0x33a>
    84a2:	86ca                	mv	a3,s2
    84a4:	7ff00793          	li	a5,2047
    84a8:	4601                	li	a2,0
    84aa:	4701                	li	a4,0
    84ac:	be0d                	j	7fde <__divdf3+0xbc>
    84ae:	00159313          	slli	t1,a1,0x1
    84b2:	00b33833          	sltu	a6,t1,a1
    84b6:	9832                	add	a6,a6,a2
    84b8:	983e                	add	a6,a6,a5
    84ba:	18f9                	addi	a7,a7,-2
    84bc:	859a                	mv	a1,t1
    84be:	f8a80be3          	beq	a6,a0,8454 <__divdf3+0x532>
    84c2:	b535                	j	82ee <__divdf3+0x3cc>
    84c4:	fee5e5e3          	bltu	a1,a4,84ae <__divdf3+0x58c>
    84c8:	889a                	mv	a7,t1
    84ca:	f8b717e3          	bne	a4,a1,8458 <__divdf3+0x536>
    84ce:	b109                	j	80d0 <__divdf3+0x1ae>

000084d0 <__muldf3>:
    84d0:	7139                	addi	sp,sp,-64
    84d2:	0145d793          	srli	a5,a1,0x14
    84d6:	dc22                	sw	s0,56(sp)
    84d8:	da26                	sw	s1,52(sp)
    84da:	d64e                	sw	s3,44(sp)
    84dc:	cc62                	sw	s8,24(sp)
    84de:	00c59493          	slli	s1,a1,0xc
    84e2:	de06                	sw	ra,60(sp)
    84e4:	d84a                	sw	s2,48(sp)
    84e6:	d452                	sw	s4,40(sp)
    84e8:	d256                	sw	s5,36(sp)
    84ea:	d05a                	sw	s6,32(sp)
    84ec:	ce5e                	sw	s7,28(sp)
    84ee:	7ff7f793          	andi	a5,a5,2047
    84f2:	842a                	mv	s0,a0
    84f4:	8c32                	mv	s8,a2
    84f6:	80b1                	srli	s1,s1,0xc
    84f8:	01f5d993          	srli	s3,a1,0x1f
    84fc:	16078663          	beqz	a5,8668 <__muldf3+0x198>
    8500:	7ff00813          	li	a6,2047
    8504:	1b078263          	beq	a5,a6,86a8 <__muldf3+0x1d8>
    8508:	048e                	slli	s1,s1,0x3
    850a:	01d55593          	srli	a1,a0,0x1d
    850e:	8dc5                	or	a1,a1,s1
    8510:	008004b7          	lui	s1,0x800
    8514:	8ccd                	or	s1,s1,a1
    8516:	00351a13          	slli	s4,a0,0x3
    851a:	c0178b93          	addi	s7,a5,-1023
    851e:	4b01                	li	s6,0
    8520:	4a81                	li	s5,0
    8522:	0146d793          	srli	a5,a3,0x14
    8526:	00c69813          	slli	a6,a3,0xc
    852a:	7ff7f793          	andi	a5,a5,2047
    852e:	8ee2                	mv	t4,s8
    8530:	00c85413          	srli	s0,a6,0xc
    8534:	01f6d913          	srli	s2,a3,0x1f
    8538:	c7f5                	beqz	a5,8624 <__muldf3+0x154>
    853a:	7ff00813          	li	a6,2047
    853e:	07078e63          	beq	a5,a6,85ba <__muldf3+0xea>
    8542:	00341693          	slli	a3,s0,0x3
    8546:	c0178793          	addi	a5,a5,-1023
    854a:	01dc5593          	srli	a1,s8,0x1d
    854e:	8dd5                	or	a1,a1,a3
    8550:	01778e33          	add	t3,a5,s7
    8554:	008006b7          	lui	a3,0x800
    8558:	47a9                	li	a5,10
    855a:	00d5e433          	or	s0,a1,a3
    855e:	003c1e93          	slli	t4,s8,0x3
    8562:	4501                	li	a0,0
    8564:	001e0313          	addi	t1,t3,1
    8568:	1967c663          	blt	a5,s6,86f4 <__muldf3+0x224>
    856c:	0129c833          	xor	a6,s3,s2
    8570:	86c2                	mv	a3,a6
    8572:	4609                	li	a2,2
    8574:	07664763          	blt	a2,s6,85e2 <__muldf3+0x112>
    8578:	fffb0893          	addi	a7,s6,-1
    857c:	4585                	li	a1,1
    857e:	1b15eb63          	bltu	a1,a7,8734 <__muldf3+0x264>
    8582:	12c50d63          	beq	a0,a2,86bc <__muldf3+0x1ec>
    8586:	4785                	li	a5,1
    8588:	8836                	mv	a6,a3
    858a:	06f51f63          	bne	a0,a5,8608 <__muldf3+0x138>
    858e:	4781                	li	a5,0
    8590:	4681                	li	a3,0
    8592:	4701                	li	a4,0
    8594:	50f2                	lw	ra,60(sp)
    8596:	5462                	lw	s0,56(sp)
    8598:	07d2                	slli	a5,a5,0x14
    859a:	8fd5                	or	a5,a5,a3
    859c:	087e                	slli	a6,a6,0x1f
    859e:	0107e7b3          	or	a5,a5,a6
    85a2:	54d2                	lw	s1,52(sp)
    85a4:	5942                	lw	s2,48(sp)
    85a6:	59b2                	lw	s3,44(sp)
    85a8:	5a22                	lw	s4,40(sp)
    85aa:	5a92                	lw	s5,36(sp)
    85ac:	5b02                	lw	s6,32(sp)
    85ae:	4bf2                	lw	s7,28(sp)
    85b0:	4c62                	lw	s8,24(sp)
    85b2:	853a                	mv	a0,a4
    85b4:	85be                	mv	a1,a5
    85b6:	6121                	addi	sp,sp,64
    85b8:	8082                	ret
    85ba:	01846733          	or	a4,s0,s8
    85be:	7ffb8e13          	addi	t3,s7,2047
    85c2:	10070963          	beqz	a4,86d4 <__muldf3+0x204>
    85c6:	6705                	lui	a4,0x1
    85c8:	0129c833          	xor	a6,s3,s2
    85cc:	80070713          	addi	a4,a4,-2048 # 800 <USBFS_IRQHandler+0x43a>
    85d0:	003b6b13          	ori	s6,s6,3
    85d4:	4629                	li	a2,10
    85d6:	86c2                	mv	a3,a6
    85d8:	00eb8333          	add	t1,s7,a4
    85dc:	43664363          	blt	a2,s6,8a02 <__muldf3+0x532>
    85e0:	450d                	li	a0,3
    85e2:	4605                	li	a2,1
    85e4:	01661633          	sll	a2,a2,s6
    85e8:	53067713          	andi	a4,a2,1328
    85ec:	c305                	beqz	a4,860c <__muldf3+0x13c>
    85ee:	4789                	li	a5,2
    85f0:	0cfa8663          	beq	s5,a5,86bc <__muldf3+0x1ec>
    85f4:	478d                	li	a5,3
    85f6:	12fa8863          	beq	s5,a5,8726 <__muldf3+0x256>
    85fa:	8556                	mv	a0,s5
    85fc:	4785                	li	a5,1
    85fe:	8426                	mv	s0,s1
    8600:	8ed2                	mv	t4,s4
    8602:	8836                	mv	a6,a3
    8604:	f8f505e3          	beq	a0,a5,858e <__muldf3+0xbe>
    8608:	8e1a                	mv	t3,t1
    860a:	a479                	j	8898 <__muldf3+0x3c8>
    860c:	24067793          	andi	a5,a2,576
    8610:	efc5                	bnez	a5,86c8 <__muldf3+0x1f8>
    8612:	08867613          	andi	a2,a2,136
    8616:	10060f63          	beqz	a2,8734 <__muldf3+0x264>
    861a:	86ca                	mv	a3,s2
    861c:	84a2                	mv	s1,s0
    861e:	8a76                	mv	s4,t4
    8620:	8aaa                	mv	s5,a0
    8622:	b7f1                	j	85ee <__muldf3+0x11e>
    8624:	018467b3          	or	a5,s0,s8
    8628:	c3fd                	beqz	a5,870e <__muldf3+0x23e>
    862a:	32040b63          	beqz	s0,8960 <__muldf3+0x490>
    862e:	8522                	mv	a0,s0
    8630:	4b9010ef          	jal	ra,a2e8 <__clzsi2>
    8634:	8e2a                	mv	t3,a0
    8636:	ff550713          	addi	a4,a0,-11
    863a:	47f5                	li	a5,29
    863c:	ff8e0e93          	addi	t4,t3,-8
    8640:	8f99                	sub	a5,a5,a4
    8642:	01d416b3          	sll	a3,s0,t4
    8646:	00fc57b3          	srl	a5,s8,a5
    864a:	00d7e433          	or	s0,a5,a3
    864e:	01dc1eb3          	sll	t4,s8,t4
    8652:	41cb8e33          	sub	t3,s7,t3
    8656:	c0de0e13          	addi	t3,t3,-1011
    865a:	47a9                	li	a5,10
    865c:	4501                	li	a0,0
    865e:	001e0313          	addi	t1,t3,1
    8662:	f167d5e3          	bge	a5,s6,856c <__muldf3+0x9c>
    8666:	a079                	j	86f4 <__muldf3+0x224>
    8668:	00a4ea33          	or	s4,s1,a0
    866c:	080a0c63          	beqz	s4,8704 <__muldf3+0x234>
    8670:	c636                	sw	a3,12(sp)
    8672:	2c048863          	beqz	s1,8942 <__muldf3+0x472>
    8676:	8526                	mv	a0,s1
    8678:	471010ef          	jal	ra,a2e8 <__clzsi2>
    867c:	46b2                	lw	a3,12(sp)
    867e:	872a                	mv	a4,a0
    8680:	ff550613          	addi	a2,a0,-11
    8684:	47f5                	li	a5,29
    8686:	ff870a13          	addi	s4,a4,-8
    868a:	8f91                	sub	a5,a5,a2
    868c:	014494b3          	sll	s1,s1,s4
    8690:	00f457b3          	srl	a5,s0,a5
    8694:	8cdd                	or	s1,s1,a5
    8696:	01441a33          	sll	s4,s0,s4
    869a:	c0d00793          	li	a5,-1011
    869e:	40e78bb3          	sub	s7,a5,a4
    86a2:	4b01                	li	s6,0
    86a4:	4a81                	li	s5,0
    86a6:	bdb5                	j	8522 <__muldf3+0x52>
    86a8:	00a4ea33          	or	s4,s1,a0
    86ac:	040a1663          	bnez	s4,86f8 <__muldf3+0x228>
    86b0:	4481                	li	s1,0
    86b2:	4b21                	li	s6,8
    86b4:	7ff00b93          	li	s7,2047
    86b8:	4a89                	li	s5,2
    86ba:	b5a5                	j	8522 <__muldf3+0x52>
    86bc:	8836                	mv	a6,a3
    86be:	7ff00793          	li	a5,2047
    86c2:	4681                	li	a3,0
    86c4:	4701                	li	a4,0
    86c6:	b5f9                	j	8594 <__muldf3+0xc4>
    86c8:	4801                	li	a6,0
    86ca:	7ff00793          	li	a5,2047
    86ce:	000806b7          	lui	a3,0x80
    86d2:	b5c9                	j	8594 <__muldf3+0xc4>
    86d4:	6785                	lui	a5,0x1
    86d6:	80078793          	addi	a5,a5,-2048 # 800 <USBFS_IRQHandler+0x43a>
    86da:	002b6b13          	ori	s6,s6,2
    86de:	46a9                	li	a3,10
    86e0:	00fb8333          	add	t1,s7,a5
    86e4:	2b66d263          	bge	a3,s6,8988 <__muldf3+0x4b8>
    86e8:	4e81                	li	t4,0
    86ea:	47b9                	li	a5,14
    86ec:	4509                	li	a0,2
    86ee:	46ad                	li	a3,11
    86f0:	30d78763          	beq	a5,a3,89fe <__muldf3+0x52e>
    86f4:	86ce                	mv	a3,s3
    86f6:	bde5                	j	85ee <__muldf3+0x11e>
    86f8:	8a2a                	mv	s4,a0
    86fa:	4b31                	li	s6,12
    86fc:	7ff00b93          	li	s7,2047
    8700:	4a8d                	li	s5,3
    8702:	b505                	j	8522 <__muldf3+0x52>
    8704:	4481                	li	s1,0
    8706:	4b11                	li	s6,4
    8708:	4b81                	li	s7,0
    870a:	4a85                	li	s5,1
    870c:	bd19                	j	8522 <__muldf3+0x52>
    870e:	8e5e                	mv	t3,s7
    8710:	001b6b13          	ori	s6,s6,1
    8714:	47a9                	li	a5,10
    8716:	4401                	li	s0,0
    8718:	4e81                	li	t4,0
    871a:	4505                	li	a0,1
    871c:	001e0313          	addi	t1,t3,1
    8720:	e567d6e3          	bge	a5,s6,856c <__muldf3+0x9c>
    8724:	bfc1                	j	86f4 <__muldf3+0x224>
    8726:	4801                	li	a6,0
    8728:	7ff00793          	li	a5,2047
    872c:	000806b7          	lui	a3,0x80
    8730:	4701                	li	a4,0
    8732:	b58d                	j	8594 <__muldf3+0xc4>
    8734:	65c1                	lui	a1,0x10
    8736:	fff58713          	addi	a4,a1,-1 # ffff <_data_lma+0x441b>
    873a:	010a5793          	srli	a5,s4,0x10
    873e:	010ed893          	srli	a7,t4,0x10
    8742:	00ea7a33          	and	s4,s4,a4
    8746:	00eefeb3          	and	t4,t4,a4
    874a:	03da0733          	mul	a4,s4,t4
    874e:	03d78633          	mul	a2,a5,t4
    8752:	01075513          	srli	a0,a4,0x10
    8756:	034886b3          	mul	a3,a7,s4
    875a:	96b2                	add	a3,a3,a2
    875c:	9536                	add	a0,a0,a3
    875e:	03178f33          	mul	t5,a5,a7
    8762:	00c57363          	bgeu	a0,a2,8768 <__muldf3+0x298>
    8766:	9f2e                	add	t5,t5,a1
    8768:	63c1                	lui	t2,0x10
    876a:	fff38613          	addi	a2,t2,-1 # ffff <_data_lma+0x441b>
    876e:	00c575b3          	and	a1,a0,a2
    8772:	00c476b3          	and	a3,s0,a2
    8776:	8f71                	and	a4,a4,a2
    8778:	01045f93          	srli	t6,s0,0x10
    877c:	05c2                	slli	a1,a1,0x10
    877e:	02da02b3          	mul	t0,s4,a3
    8782:	95ba                	add	a1,a1,a4
    8784:	8141                	srli	a0,a0,0x10
    8786:	02d78733          	mul	a4,a5,a3
    878a:	0102d613          	srli	a2,t0,0x10
    878e:	034f8a33          	mul	s4,t6,s4
    8792:	9a3a                	add	s4,s4,a4
    8794:	9652                	add	a2,a2,s4
    8796:	03f787b3          	mul	a5,a5,t6
    879a:	00e67363          	bgeu	a2,a4,87a0 <__muldf3+0x2d0>
    879e:	979e                	add	a5,a5,t2
    87a0:	6941                	lui	s2,0x10
    87a2:	fff90413          	addi	s0,s2,-1 # ffff <_data_lma+0x441b>
    87a6:	00867733          	and	a4,a2,s0
    87aa:	0104d393          	srli	t2,s1,0x10
    87ae:	0082f2b3          	and	t0,t0,s0
    87b2:	8ce1                	and	s1,s1,s0
    87b4:	0742                	slli	a4,a4,0x10
    87b6:	029e8433          	mul	s0,t4,s1
    87ba:	9716                	add	a4,a4,t0
    87bc:	8241                	srli	a2,a2,0x10
    87be:	963e                	add	a2,a2,a5
    87c0:	953a                	add	a0,a0,a4
    87c2:	029882b3          	mul	t0,a7,s1
    87c6:	01045793          	srli	a5,s0,0x10
    87ca:	03d38eb3          	mul	t4,t2,t4
    87ce:	92f6                	add	t0,t0,t4
    87d0:	9796                	add	a5,a5,t0
    87d2:	027888b3          	mul	a7,a7,t2
    87d6:	01d7f363          	bgeu	a5,t4,87dc <__muldf3+0x30c>
    87da:	98ca                	add	a7,a7,s2
    87dc:	6941                	lui	s2,0x10
    87de:	fff90e93          	addi	t4,s2,-1 # ffff <_data_lma+0x441b>
    87e2:	01d7f2b3          	and	t0,a5,t4
    87e6:	01d47eb3          	and	t4,s0,t4
    87ea:	02c2                	slli	t0,t0,0x10
    87ec:	83c1                	srli	a5,a5,0x10
    87ee:	97c6                	add	a5,a5,a7
    87f0:	02968433          	mul	s0,a3,s1
    87f4:	01d288b3          	add	a7,t0,t4
    87f8:	02d386b3          	mul	a3,t2,a3
    87fc:	01045293          	srli	t0,s0,0x10
    8800:	029f84b3          	mul	s1,t6,s1
    8804:	94b6                	add	s1,s1,a3
    8806:	92a6                	add	t0,t0,s1
    8808:	027f8eb3          	mul	t4,t6,t2
    880c:	00d2f363          	bgeu	t0,a3,8812 <__muldf3+0x342>
    8810:	9eca                	add	t4,t4,s2
    8812:	6fc1                	lui	t6,0x10
    8814:	1ffd                	addi	t6,t6,-1 # ffff <_data_lma+0x441b>
    8816:	01f2f6b3          	and	a3,t0,t6
    881a:	01f47433          	and	s0,s0,t6
    881e:	06c2                	slli	a3,a3,0x10
    8820:	957a                	add	a0,a0,t5
    8822:	96a2                	add	a3,a3,s0
    8824:	9636                	add	a2,a2,a3
    8826:	00e53733          	sltu	a4,a0,a4
    882a:	9732                	add	a4,a4,a2
    882c:	98aa                	add	a7,a7,a0
    882e:	97ba                	add	a5,a5,a4
    8830:	00a8b533          	sltu	a0,a7,a0
    8834:	953e                	add	a0,a0,a5
    8836:	00d636b3          	sltu	a3,a2,a3
    883a:	00c73633          	sltu	a2,a4,a2
    883e:	8ed1                	or	a3,a3,a2
    8840:	00e7b733          	sltu	a4,a5,a4
    8844:	0102d613          	srli	a2,t0,0x10
    8848:	00f537b3          	sltu	a5,a0,a5
    884c:	8f5d                	or	a4,a4,a5
    884e:	96b2                	add	a3,a3,a2
    8850:	9736                	add	a4,a4,a3
    8852:	9776                	add	a4,a4,t4
    8854:	00989e93          	slli	t4,a7,0x9
    8858:	01755793          	srli	a5,a0,0x17
    885c:	0726                	slli	a4,a4,0x9
    885e:	00beeeb3          	or	t4,t4,a1
    8862:	00f76433          	or	s0,a4,a5
    8866:	01d03eb3          	snez	t4,t4
    886a:	0178d793          	srli	a5,a7,0x17
    886e:	00feeeb3          	or	t4,t4,a5
    8872:	010007b7          	lui	a5,0x1000
    8876:	0526                	slli	a0,a0,0x9
    8878:	8fe1                	and	a5,a5,s0
    887a:	00aeeeb3          	or	t4,t4,a0
    887e:	cf89                	beqz	a5,8898 <__muldf3+0x3c8>
    8880:	001ed793          	srli	a5,t4,0x1
    8884:	001efe93          	andi	t4,t4,1
    8888:	01f41713          	slli	a4,s0,0x1f
    888c:	01d7e7b3          	or	a5,a5,t4
    8890:	00e7eeb3          	or	t4,a5,a4
    8894:	8005                	srli	s0,s0,0x1
    8896:	8e1a                	mv	t3,t1
    8898:	3ffe0793          	addi	a5,t3,1023
    889c:	04f05a63          	blez	a5,88f0 <__muldf3+0x420>
    88a0:	007ef713          	andi	a4,t4,7
    88a4:	cf01                	beqz	a4,88bc <__muldf3+0x3ec>
    88a6:	00fef713          	andi	a4,t4,15
    88aa:	4691                	li	a3,4
    88ac:	00d70863          	beq	a4,a3,88bc <__muldf3+0x3ec>
    88b0:	004e8713          	addi	a4,t4,4
    88b4:	01d73eb3          	sltu	t4,a4,t4
    88b8:	9476                	add	s0,s0,t4
    88ba:	8eba                	mv	t4,a4
    88bc:	01000737          	lui	a4,0x1000
    88c0:	8f61                	and	a4,a4,s0
    88c2:	c719                	beqz	a4,88d0 <__muldf3+0x400>
    88c4:	ff0007b7          	lui	a5,0xff000
    88c8:	17fd                	addi	a5,a5,-1 # feffffff <_eusrstack+0xdeffafff>
    88ca:	8c7d                	and	s0,s0,a5
    88cc:	400e0793          	addi	a5,t3,1024
    88d0:	7fe00713          	li	a4,2046
    88d4:	0af74563          	blt	a4,a5,897e <__muldf3+0x4ae>
    88d8:	003ede93          	srli	t4,t4,0x3
    88dc:	01d41713          	slli	a4,s0,0x1d
    88e0:	00941693          	slli	a3,s0,0x9
    88e4:	01d76733          	or	a4,a4,t4
    88e8:	82b1                	srli	a3,a3,0xc
    88ea:	7ff7f793          	andi	a5,a5,2047
    88ee:	b15d                	j	8594 <__muldf3+0xc4>
    88f0:	4705                	li	a4,1
    88f2:	e3d5                	bnez	a5,8996 <__muldf3+0x4c6>
    88f4:	41ee0e13          	addi	t3,t3,1054
    88f8:	01ce9633          	sll	a2,t4,t3
    88fc:	00c03633          	snez	a2,a2
    8900:	01c41e33          	sll	t3,s0,t3
    8904:	00eedeb3          	srl	t4,t4,a4
    8908:	01c66633          	or	a2,a2,t3
    890c:	01d66633          	or	a2,a2,t4
    8910:	00767793          	andi	a5,a2,7
    8914:	00e455b3          	srl	a1,s0,a4
    8918:	cf81                	beqz	a5,8930 <__muldf3+0x460>
    891a:	00f67793          	andi	a5,a2,15
    891e:	4711                	li	a4,4
    8920:	00e78863          	beq	a5,a4,8930 <__muldf3+0x460>
    8924:	00460793          	addi	a5,a2,4 # 80004 <_data_lma+0x74420>
    8928:	00c7b633          	sltu	a2,a5,a2
    892c:	95b2                	add	a1,a1,a2
    892e:	863e                	mv	a2,a5
    8930:	00800537          	lui	a0,0x800
    8934:	8d6d                	and	a0,a0,a1
    8936:	4785                	li	a5,1
    8938:	4681                	li	a3,0
    893a:	4701                	li	a4,0
    893c:	c4051ce3          	bnez	a0,8594 <__muldf3+0xc4>
    8940:	a075                	j	89ec <__muldf3+0x51c>
    8942:	1a7010ef          	jal	ra,a2e8 <__clzsi2>
    8946:	01550613          	addi	a2,a0,21 # 800015 <_data_lma+0x7f4431>
    894a:	47f1                	li	a5,28
    894c:	46b2                	lw	a3,12(sp)
    894e:	02050713          	addi	a4,a0,32
    8952:	d2c7d9e3          	bge	a5,a2,8684 <__muldf3+0x1b4>
    8956:	1561                	addi	a0,a0,-8
    8958:	4a01                	li	s4,0
    895a:	00a414b3          	sll	s1,s0,a0
    895e:	bb35                	j	869a <__muldf3+0x1ca>
    8960:	8562                	mv	a0,s8
    8962:	187010ef          	jal	ra,a2e8 <__clzsi2>
    8966:	01550713          	addi	a4,a0,21
    896a:	47f1                	li	a5,28
    896c:	02050e13          	addi	t3,a0,32
    8970:	cce7d5e3          	bge	a5,a4,863a <__muldf3+0x16a>
    8974:	1561                	addi	a0,a0,-8
    8976:	4e81                	li	t4,0
    8978:	00ac1433          	sll	s0,s8,a0
    897c:	b9d9                	j	8652 <__muldf3+0x182>
    897e:	7ff00793          	li	a5,2047
    8982:	4681                	li	a3,0
    8984:	4701                	li	a4,0
    8986:	b139                	j	8594 <__muldf3+0xc4>
    8988:	0129c833          	xor	a6,s3,s2
    898c:	86c2                	mv	a3,a6
    898e:	4401                	li	s0,0
    8990:	4e81                	li	t4,0
    8992:	4509                	li	a0,2
    8994:	bef9                	j	8572 <__muldf3+0xa2>
    8996:	8f1d                	sub	a4,a4,a5
    8998:	03800693          	li	a3,56
    899c:	bee6c9e3          	blt	a3,a4,858e <__muldf3+0xbe>
    89a0:	46fd                	li	a3,31
    89a2:	f4e6d9e3          	bge	a3,a4,88f4 <__muldf3+0x424>
    89a6:	5685                	li	a3,-31
    89a8:	40f687b3          	sub	a5,a3,a5
    89ac:	02000693          	li	a3,32
    89b0:	00f457b3          	srl	a5,s0,a5
    89b4:	00d70863          	beq	a4,a3,89c4 <__muldf3+0x4f4>
    89b8:	43ee0e13          	addi	t3,t3,1086
    89bc:	01c41e33          	sll	t3,s0,t3
    89c0:	01ceeeb3          	or	t4,t4,t3
    89c4:	01d03633          	snez	a2,t4
    89c8:	8e5d                	or	a2,a2,a5
    89ca:	00767713          	andi	a4,a2,7
    89ce:	4681                	li	a3,0
    89d0:	c31d                	beqz	a4,89f6 <__muldf3+0x526>
    89d2:	00f67793          	andi	a5,a2,15
    89d6:	4711                	li	a4,4
    89d8:	4581                	li	a1,0
    89da:	00e78963          	beq	a5,a4,89ec <__muldf3+0x51c>
    89de:	00460793          	addi	a5,a2,4
    89e2:	00c7b633          	sltu	a2,a5,a2
    89e6:	00c035b3          	snez	a1,a2
    89ea:	863e                	mv	a2,a5
    89ec:	00959693          	slli	a3,a1,0x9
    89f0:	01d59713          	slli	a4,a1,0x1d
    89f4:	82b1                	srli	a3,a3,0xc
    89f6:	820d                	srli	a2,a2,0x3
    89f8:	8f51                	or	a4,a4,a2
    89fa:	4781                	li	a5,0
    89fc:	be61                	j	8594 <__muldf3+0xc4>
    89fe:	843a                	mv	s0,a4
    8a00:	b929                	j	861a <__muldf3+0x14a>
    8a02:	473d                	li	a4,15
    8a04:	00eb1763          	bne	s6,a4,8a12 <__muldf3+0x542>
    8a08:	4801                	li	a6,0
    8a0a:	000806b7          	lui	a3,0x80
    8a0e:	4701                	li	a4,0
    8a10:	b651                	j	8594 <__muldf3+0xc4>
    8a12:	8722                	mv	a4,s0
    8a14:	47ad                	li	a5,11
    8a16:	450d                	li	a0,3
    8a18:	b9d9                	j	86ee <__muldf3+0x21e>

00008a1a <__subdf3>:
    8a1a:	001007b7          	lui	a5,0x100
    8a1e:	17fd                	addi	a5,a5,-1 # fffff <_data_lma+0xf441b>
    8a20:	1101                	addi	sp,sp,-32
    8a22:	00b7f8b3          	and	a7,a5,a1
    8a26:	0146d813          	srli	a6,a3,0x14
    8a2a:	8ff5                	and	a5,a5,a3
    8a2c:	088e                	slli	a7,a7,0x3
    8a2e:	00379713          	slli	a4,a5,0x3
    8a32:	cc22                	sw	s0,24(sp)
    8a34:	ca26                	sw	s1,20(sp)
    8a36:	0145d413          	srli	s0,a1,0x14
    8a3a:	c84a                	sw	s2,16(sp)
    8a3c:	01d65793          	srli	a5,a2,0x1d
    8a40:	01d55913          	srli	s2,a0,0x1d
    8a44:	ce06                	sw	ra,28(sp)
    8a46:	c64e                	sw	s3,12(sp)
    8a48:	7ff87813          	andi	a6,a6,2047
    8a4c:	7ff00313          	li	t1,2047
    8a50:	01f5d493          	srli	s1,a1,0x1f
    8a54:	01196933          	or	s2,s2,a7
    8a58:	7ff47413          	andi	s0,s0,2047
    8a5c:	00351893          	slli	a7,a0,0x3
    8a60:	82fd                	srli	a3,a3,0x1f
    8a62:	8fd9                	or	a5,a5,a4
    8a64:	00361593          	slli	a1,a2,0x3
    8a68:	1c680263          	beq	a6,t1,8c2c <__subdf3+0x212>
    8a6c:	0016c693          	xori	a3,a3,1
    8a70:	41040733          	sub	a4,s0,a6
    8a74:	12d48263          	beq	s1,a3,8b98 <__subdf3+0x17e>
    8a78:	68e05763          	blez	a4,9106 <__subdf3+0x6ec>
    8a7c:	1e080463          	beqz	a6,8c64 <__subdf3+0x24a>
    8a80:	52640c63          	beq	s0,t1,8fb8 <__subdf3+0x59e>
    8a84:	03800693          	li	a3,56
    8a88:	4985                	li	s3,1
    8a8a:	02e6cb63          	blt	a3,a4,8ac0 <__subdf3+0xa6>
    8a8e:	008006b7          	lui	a3,0x800
    8a92:	8fd5                	or	a5,a5,a3
    8a94:	46fd                	li	a3,31
    8a96:	3ee6c363          	blt	a3,a4,8e7c <__subdf3+0x462>
    8a9a:	02000693          	li	a3,32
    8a9e:	8e99                	sub	a3,a3,a4
    8aa0:	00d799b3          	sll	s3,a5,a3
    8aa4:	00e5d633          	srl	a2,a1,a4
    8aa8:	00d596b3          	sll	a3,a1,a3
    8aac:	00c9e9b3          	or	s3,s3,a2
    8ab0:	00d036b3          	snez	a3,a3
    8ab4:	00e7d733          	srl	a4,a5,a4
    8ab8:	00d9e9b3          	or	s3,s3,a3
    8abc:	40e90933          	sub	s2,s2,a4
    8ac0:	413889b3          	sub	s3,a7,s3
    8ac4:	0138b7b3          	sltu	a5,a7,s3
    8ac8:	40f90933          	sub	s2,s2,a5
    8acc:	008007b7          	lui	a5,0x800
    8ad0:	00f97733          	and	a4,s2,a5
    8ad4:	28070763          	beqz	a4,8d62 <__subdf3+0x348>
    8ad8:	17fd                	addi	a5,a5,-1 # 7fffff <_data_lma+0x7f441b>
    8ada:	00f97933          	and	s2,s2,a5
    8ade:	28090763          	beqz	s2,8d6c <__subdf3+0x352>
    8ae2:	854a                	mv	a0,s2
    8ae4:	005010ef          	jal	ra,a2e8 <__clzsi2>
    8ae8:	ff850713          	addi	a4,a0,-8
    8aec:	02000693          	li	a3,32
    8af0:	40e687b3          	sub	a5,a3,a4
    8af4:	00f9d7b3          	srl	a5,s3,a5
    8af8:	00e91933          	sll	s2,s2,a4
    8afc:	0127e7b3          	or	a5,a5,s2
    8b00:	00e999b3          	sll	s3,s3,a4
    8b04:	2e874c63          	blt	a4,s0,8dfc <__subdf3+0x3e2>
    8b08:	8f01                	sub	a4,a4,s0
    8b0a:	0705                	addi	a4,a4,1 # 1000001 <_data_lma+0xff441d>
    8b0c:	8e99                	sub	a3,a3,a4
    8b0e:	00d99633          	sll	a2,s3,a3
    8b12:	00e9d933          	srl	s2,s3,a4
    8b16:	00c03633          	snez	a2,a2
    8b1a:	00c96633          	or	a2,s2,a2
    8b1e:	00d796b3          	sll	a3,a5,a3
    8b22:	00c6e9b3          	or	s3,a3,a2
    8b26:	00e7d933          	srl	s2,a5,a4
    8b2a:	4401                	li	s0,0
    8b2c:	0079f793          	andi	a5,s3,7
    8b30:	cf81                	beqz	a5,8b48 <__subdf3+0x12e>
    8b32:	00f9f793          	andi	a5,s3,15
    8b36:	4711                	li	a4,4
    8b38:	00e78863          	beq	a5,a4,8b48 <__subdf3+0x12e>
    8b3c:	00498793          	addi	a5,s3,4
    8b40:	0137b9b3          	sltu	s3,a5,s3
    8b44:	994e                	add	s2,s2,s3
    8b46:	89be                	mv	s3,a5
    8b48:	008007b7          	lui	a5,0x800
    8b4c:	00f977b3          	and	a5,s2,a5
    8b50:	26078963          	beqz	a5,8dc2 <__subdf3+0x3a8>
    8b54:	0405                	addi	s0,s0,1
    8b56:	7ff00793          	li	a5,2047
    8b5a:	1ef40e63          	beq	s0,a5,8d56 <__subdf3+0x33c>
    8b5e:	ff8007b7          	lui	a5,0xff800
    8b62:	17fd                	addi	a5,a5,-1 # ff7fffff <_eusrstack+0xdf7fafff>
    8b64:	00f977b3          	and	a5,s2,a5
    8b68:	01d79713          	slli	a4,a5,0x1d
    8b6c:	0039d993          	srli	s3,s3,0x3
    8b70:	07a6                	slli	a5,a5,0x9
    8b72:	01376733          	or	a4,a4,s3
    8b76:	83b1                	srli	a5,a5,0xc
    8b78:	7ff47413          	andi	s0,s0,2047
    8b7c:	8885                	andi	s1,s1,1
    8b7e:	0452                	slli	s0,s0,0x14
    8b80:	04fe                	slli	s1,s1,0x1f
    8b82:	8c5d                	or	s0,s0,a5
    8b84:	8c45                	or	s0,s0,s1
    8b86:	40f2                	lw	ra,28(sp)
    8b88:	85a2                	mv	a1,s0
    8b8a:	4462                	lw	s0,24(sp)
    8b8c:	44d2                	lw	s1,20(sp)
    8b8e:	4942                	lw	s2,16(sp)
    8b90:	49b2                	lw	s3,12(sp)
    8b92:	853a                	mv	a0,a4
    8b94:	6105                	addi	sp,sp,32
    8b96:	8082                	ret
    8b98:	58e05b63          	blez	a4,912e <__subdf3+0x714>
    8b9c:	1a081263          	bnez	a6,8d40 <__subdf3+0x326>
    8ba0:	00b7e6b3          	or	a3,a5,a1
    8ba4:	24068863          	beqz	a3,8df4 <__subdf3+0x3da>
    8ba8:	fff70613          	addi	a2,a4,-1
    8bac:	3c060263          	beqz	a2,8f70 <__subdf3+0x556>
    8bb0:	44670363          	beq	a4,t1,8ff6 <__subdf3+0x5dc>
    8bb4:	03800713          	li	a4,56
    8bb8:	4685                	li	a3,1
    8bba:	02c74663          	blt	a4,a2,8be6 <__subdf3+0x1cc>
    8bbe:	8732                	mv	a4,a2
    8bc0:	46fd                	li	a3,31
    8bc2:	40e6c363          	blt	a3,a4,8fc8 <__subdf3+0x5ae>
    8bc6:	02000613          	li	a2,32
    8bca:	8e19                	sub	a2,a2,a4
    8bcc:	00c796b3          	sll	a3,a5,a2
    8bd0:	00e5d533          	srl	a0,a1,a4
    8bd4:	00c59633          	sll	a2,a1,a2
    8bd8:	8ec9                	or	a3,a3,a0
    8bda:	00c03633          	snez	a2,a2
    8bde:	00e7d733          	srl	a4,a5,a4
    8be2:	8ed1                	or	a3,a3,a2
    8be4:	993a                	add	s2,s2,a4
    8be6:	011687b3          	add	a5,a3,a7
    8bea:	00d7b6b3          	sltu	a3,a5,a3
    8bee:	89be                	mv	s3,a5
    8bf0:	9936                	add	s2,s2,a3
    8bf2:	008007b7          	lui	a5,0x800
    8bf6:	00f977b3          	and	a5,s2,a5
    8bfa:	16078463          	beqz	a5,8d62 <__subdf3+0x348>
    8bfe:	0405                	addi	s0,s0,1
    8c00:	7ff00793          	li	a5,2047
    8c04:	14f40963          	beq	s0,a5,8d56 <__subdf3+0x33c>
    8c08:	ff8007b7          	lui	a5,0xff800
    8c0c:	17fd                	addi	a5,a5,-1 # ff7fffff <_eusrstack+0xdf7fafff>
    8c0e:	00f977b3          	and	a5,s2,a5
    8c12:	0019d713          	srli	a4,s3,0x1
    8c16:	0019f993          	andi	s3,s3,1
    8c1a:	01376733          	or	a4,a4,s3
    8c1e:	01f79993          	slli	s3,a5,0x1f
    8c22:	00e9e9b3          	or	s3,s3,a4
    8c26:	0017d913          	srli	s2,a5,0x1
    8c2a:	b709                	j	8b2c <__subdf3+0x112>
    8c2c:	00b7e733          	or	a4,a5,a1
    8c30:	80140313          	addi	t1,s0,-2047
    8c34:	cb29                	beqz	a4,8c86 <__subdf3+0x26c>
    8c36:	04d48c63          	beq	s1,a3,8c8e <__subdf3+0x274>
    8c3a:	0a030c63          	beqz	t1,8cf2 <__subdf3+0x2d8>
    8c3e:	1a040363          	beqz	s0,8de4 <__subdf3+0x3ca>
    8c42:	060e                	slli	a2,a2,0x3
    8c44:	01d79713          	slli	a4,a5,0x1d
    8c48:	820d                	srli	a2,a2,0x3
    8c4a:	8f51                	or	a4,a4,a2
    8c4c:	838d                	srli	a5,a5,0x3
    8c4e:	84b6                	mv	s1,a3
    8c50:	8f5d                	or	a4,a4,a5
    8c52:	10070263          	beqz	a4,8d56 <__subdf3+0x33c>
    8c56:	4481                	li	s1,0
    8c58:	7ff00413          	li	s0,2047
    8c5c:	000807b7          	lui	a5,0x80
    8c60:	4701                	li	a4,0
    8c62:	bf31                	j	8b7e <__subdf3+0x164>
    8c64:	00b7e6b3          	or	a3,a5,a1
    8c68:	18068663          	beqz	a3,8df4 <__subdf3+0x3da>
    8c6c:	fff70693          	addi	a3,a4,-1
    8c70:	32068963          	beqz	a3,8fa2 <__subdf3+0x588>
    8c74:	30670e63          	beq	a4,t1,8f90 <__subdf3+0x576>
    8c78:	03800713          	li	a4,56
    8c7c:	4985                	li	s3,1
    8c7e:	e4d741e3          	blt	a4,a3,8ac0 <__subdf3+0xa6>
    8c82:	8736                	mv	a4,a3
    8c84:	bd01                	j	8a94 <__subdf3+0x7a>
    8c86:	0016c693          	xori	a3,a3,1
    8c8a:	fad498e3          	bne	s1,a3,8c3a <__subdf3+0x220>
    8c8e:	16030e63          	beqz	t1,8e0a <__subdf3+0x3f0>
    8c92:	26041463          	bnez	s0,8efa <__subdf3+0x4e0>
    8c96:	7ff00713          	li	a4,2047
    8c9a:	011966b3          	or	a3,s2,a7
    8c9e:	3c068863          	beqz	a3,906e <__subdf3+0x654>
    8ca2:	fff70693          	addi	a3,a4,-1
    8ca6:	2c068563          	beqz	a3,8f70 <__subdf3+0x556>
    8caa:	7ff00513          	li	a0,2047
    8cae:	24a70663          	beq	a4,a0,8efa <__subdf3+0x4e0>
    8cb2:	03800613          	li	a2,56
    8cb6:	4705                	li	a4,1
    8cb8:	02d64563          	blt	a2,a3,8ce2 <__subdf3+0x2c8>
    8cbc:	477d                	li	a4,31
    8cbe:	3ed74e63          	blt	a4,a3,90ba <__subdf3+0x6a0>
    8cc2:	02000613          	li	a2,32
    8cc6:	8e15                	sub	a2,a2,a3
    8cc8:	00c91733          	sll	a4,s2,a2
    8ccc:	00d8d533          	srl	a0,a7,a3
    8cd0:	00c89633          	sll	a2,a7,a2
    8cd4:	8f49                	or	a4,a4,a0
    8cd6:	00c03633          	snez	a2,a2
    8cda:	00d956b3          	srl	a3,s2,a3
    8cde:	8f51                	or	a4,a4,a2
    8ce0:	97b6                	add	a5,a5,a3
    8ce2:	95ba                	add	a1,a1,a4
    8ce4:	00e5b733          	sltu	a4,a1,a4
    8ce8:	89ae                	mv	s3,a1
    8cea:	00f70933          	add	s2,a4,a5
    8cee:	8442                	mv	s0,a6
    8cf0:	b709                	j	8bf2 <__subdf3+0x1d8>
    8cf2:	00140713          	addi	a4,s0,1
    8cf6:	7fe77713          	andi	a4,a4,2046
    8cfa:	14071d63          	bnez	a4,8e54 <__subdf3+0x43a>
    8cfe:	00b7e733          	or	a4,a5,a1
    8d02:	01196833          	or	a6,s2,a7
    8d06:	24041b63          	bnez	s0,8f5c <__subdf3+0x542>
    8d0a:	32080363          	beqz	a6,9030 <__subdf3+0x616>
    8d0e:	34070763          	beqz	a4,905c <__subdf3+0x642>
    8d12:	40b889b3          	sub	s3,a7,a1
    8d16:	0138b733          	sltu	a4,a7,s3
    8d1a:	40f90633          	sub	a2,s2,a5
    8d1e:	8e19                	sub	a2,a2,a4
    8d20:	00800737          	lui	a4,0x800
    8d24:	8f71                	and	a4,a4,a2
    8d26:	3c070563          	beqz	a4,90f0 <__subdf3+0x6d6>
    8d2a:	411588b3          	sub	a7,a1,a7
    8d2e:	412787b3          	sub	a5,a5,s2
    8d32:	0115b5b3          	sltu	a1,a1,a7
    8d36:	89c6                	mv	s3,a7
    8d38:	40b78933          	sub	s2,a5,a1
    8d3c:	84b6                	mv	s1,a3
    8d3e:	b3fd                	j	8b2c <__subdf3+0x112>
    8d40:	24640863          	beq	s0,t1,8f90 <__subdf3+0x576>
    8d44:	03800613          	li	a2,56
    8d48:	4685                	li	a3,1
    8d4a:	e8e64ee3          	blt	a2,a4,8be6 <__subdf3+0x1cc>
    8d4e:	008006b7          	lui	a3,0x800
    8d52:	8fd5                	or	a5,a5,a3
    8d54:	b5b5                	j	8bc0 <__subdf3+0x1a6>
    8d56:	8885                	andi	s1,s1,1
    8d58:	7ff00413          	li	s0,2047
    8d5c:	4781                	li	a5,0
    8d5e:	4701                	li	a4,0
    8d60:	bd39                	j	8b7e <__subdf3+0x164>
    8d62:	0079f713          	andi	a4,s3,7
    8d66:	dc0716e3          	bnez	a4,8b32 <__subdf3+0x118>
    8d6a:	a0d5                	j	8e4e <__subdf3+0x434>
    8d6c:	854e                	mv	a0,s3
    8d6e:	57a010ef          	jal	ra,a2e8 <__clzsi2>
    8d72:	01850713          	addi	a4,a0,24
    8d76:	46fd                	li	a3,31
    8d78:	d6e6dae3          	bge	a3,a4,8aec <__subdf3+0xd2>
    8d7c:	ff850793          	addi	a5,a0,-8
    8d80:	00f997b3          	sll	a5,s3,a5
    8d84:	18874263          	blt	a4,s0,8f08 <__subdf3+0x4ee>
    8d88:	408709b3          	sub	s3,a4,s0
    8d8c:	00198713          	addi	a4,s3,1
    8d90:	36e6d663          	bge	a3,a4,90fc <__subdf3+0x6e2>
    8d94:	1985                	addi	s3,s3,-31
    8d96:	02000693          	li	a3,32
    8d9a:	0137d9b3          	srl	s3,a5,s3
    8d9e:	00d70c63          	beq	a4,a3,8db6 <__subdf3+0x39c>
    8da2:	04000693          	li	a3,64
    8da6:	40e68733          	sub	a4,a3,a4
    8daa:	00e797b3          	sll	a5,a5,a4
    8dae:	00f037b3          	snez	a5,a5
    8db2:	00f9e9b3          	or	s3,s3,a5
    8db6:	0079f713          	andi	a4,s3,7
    8dba:	4401                	li	s0,0
    8dbc:	d6071be3          	bnez	a4,8b32 <__subdf3+0x118>
    8dc0:	a079                	j	8e4e <__subdf3+0x434>
    8dc2:	0039d793          	srli	a5,s3,0x3
    8dc6:	01d91713          	slli	a4,s2,0x1d
    8dca:	7ff00693          	li	a3,2047
    8dce:	8f5d                	or	a4,a4,a5
    8dd0:	00395793          	srli	a5,s2,0x3
    8dd4:	e6d40ee3          	beq	s0,a3,8c50 <__subdf3+0x236>
    8dd8:	07b2                	slli	a5,a5,0xc
    8dda:	83b1                	srli	a5,a5,0xc
    8ddc:	7ff47413          	andi	s0,s0,2047
    8de0:	8885                	andi	s1,s1,1
    8de2:	bb71                	j	8b7e <__subdf3+0x164>
    8de4:	7ff00713          	li	a4,2047
    8de8:	01196533          	or	a0,s2,a7
    8dec:	ed45                	bnez	a0,8ea4 <__subdf3+0x48a>
    8dee:	893e                	mv	s2,a5
    8df0:	88ae                	mv	a7,a1
    8df2:	84b6                	mv	s1,a3
    8df4:	0038d793          	srli	a5,a7,0x3
    8df8:	843a                	mv	s0,a4
    8dfa:	b7f1                	j	8dc6 <__subdf3+0x3ac>
    8dfc:	ff800937          	lui	s2,0xff800
    8e00:	197d                	addi	s2,s2,-1 # ff7fffff <_eusrstack+0xdf7fafff>
    8e02:	8c19                	sub	s0,s0,a4
    8e04:	0127f933          	and	s2,a5,s2
    8e08:	b315                	j	8b2c <__subdf3+0x112>
    8e0a:	00140693          	addi	a3,s0,1
    8e0e:	7fe6f713          	andi	a4,a3,2046
    8e12:	10071463          	bnez	a4,8f1a <__subdf3+0x500>
    8e16:	01196733          	or	a4,s2,a7
    8e1a:	1c041a63          	bnez	s0,8fee <__subdf3+0x5d4>
    8e1e:	26070663          	beqz	a4,908a <__subdf3+0x670>
    8e22:	00b7e733          	or	a4,a5,a1
    8e26:	28070163          	beqz	a4,90a8 <__subdf3+0x68e>
    8e2a:	95c6                	add	a1,a1,a7
    8e2c:	97ca                	add	a5,a5,s2
    8e2e:	0115b8b3          	sltu	a7,a1,a7
    8e32:	01178933          	add	s2,a5,a7
    8e36:	00800737          	lui	a4,0x800
    8e3a:	00e97733          	and	a4,s2,a4
    8e3e:	89ae                	mv	s3,a1
    8e40:	c719                	beqz	a4,8e4e <__subdf3+0x434>
    8e42:	ff8007b7          	lui	a5,0xff800
    8e46:	17fd                	addi	a5,a5,-1 # ff7fffff <_eusrstack+0xdf7fafff>
    8e48:	00f97933          	and	s2,s2,a5
    8e4c:	4405                	li	s0,1
    8e4e:	88ce                	mv	a7,s3
    8e50:	8722                	mv	a4,s0
    8e52:	b74d                	j	8df4 <__subdf3+0x3da>
    8e54:	40b889b3          	sub	s3,a7,a1
    8e58:	0138b733          	sltu	a4,a7,s3
    8e5c:	40f90633          	sub	a2,s2,a5
    8e60:	8e19                	sub	a2,a2,a4
    8e62:	00800737          	lui	a4,0x800
    8e66:	8f71                	and	a4,a4,a2
    8e68:	ef79                	bnez	a4,8f46 <__subdf3+0x52c>
    8e6a:	00c9e733          	or	a4,s3,a2
    8e6e:	8932                	mv	s2,a2
    8e70:	c60717e3          	bnez	a4,8ade <__subdf3+0xc4>
    8e74:	4481                	li	s1,0
    8e76:	4401                	li	s0,0
    8e78:	4781                	li	a5,0
    8e7a:	b311                	j	8b7e <__subdf3+0x164>
    8e7c:	fe070693          	addi	a3,a4,-32 # 7fffe0 <_data_lma+0x7f43fc>
    8e80:	02000613          	li	a2,32
    8e84:	00d7d6b3          	srl	a3,a5,a3
    8e88:	00c70963          	beq	a4,a2,8e9a <__subdf3+0x480>
    8e8c:	04000613          	li	a2,64
    8e90:	40e60733          	sub	a4,a2,a4
    8e94:	00e797b3          	sll	a5,a5,a4
    8e98:	8ddd                	or	a1,a1,a5
    8e9a:	00b039b3          	snez	s3,a1
    8e9e:	00d9e9b3          	or	s3,s3,a3
    8ea2:	b939                	j	8ac0 <__subdf3+0xa6>
    8ea4:	fff70513          	addi	a0,a4,-1
    8ea8:	18050e63          	beqz	a0,9044 <__subdf3+0x62a>
    8eac:	7ff00313          	li	t1,2047
    8eb0:	1e670463          	beq	a4,t1,9098 <__subdf3+0x67e>
    8eb4:	03800713          	li	a4,56
    8eb8:	84b6                	mv	s1,a3
    8eba:	4985                	li	s3,1
    8ebc:	02a74763          	blt	a4,a0,8eea <__subdf3+0x4d0>
    8ec0:	477d                	li	a4,31
    8ec2:	14a74363          	blt	a4,a0,9008 <__subdf3+0x5ee>
    8ec6:	02000713          	li	a4,32
    8eca:	8f09                	sub	a4,a4,a0
    8ecc:	00e919b3          	sll	s3,s2,a4
    8ed0:	00a8d6b3          	srl	a3,a7,a0
    8ed4:	00e89733          	sll	a4,a7,a4
    8ed8:	00d9e9b3          	or	s3,s3,a3
    8edc:	00e03733          	snez	a4,a4
    8ee0:	00a95533          	srl	a0,s2,a0
    8ee4:	00e9e9b3          	or	s3,s3,a4
    8ee8:	8f89                	sub	a5,a5,a0
    8eea:	413589b3          	sub	s3,a1,s3
    8eee:	0135b5b3          	sltu	a1,a1,s3
    8ef2:	40b78933          	sub	s2,a5,a1
    8ef6:	8442                	mv	s0,a6
    8ef8:	bed1                	j	8acc <__subdf3+0xb2>
    8efa:	060e                	slli	a2,a2,0x3
    8efc:	01d79713          	slli	a4,a5,0x1d
    8f00:	820d                	srli	a2,a2,0x3
    8f02:	8f51                	or	a4,a4,a2
    8f04:	838d                	srli	a5,a5,0x3
    8f06:	b3a9                	j	8c50 <__subdf3+0x236>
    8f08:	ff8006b7          	lui	a3,0xff800
    8f0c:	16fd                	addi	a3,a3,-1 # ff7fffff <_eusrstack+0xdf7fafff>
    8f0e:	8ff5                	and	a5,a5,a3
    8f10:	8c19                	sub	s0,s0,a4
    8f12:	01d79713          	slli	a4,a5,0x1d
    8f16:	838d                	srli	a5,a5,0x3
    8f18:	b5c1                	j	8dd8 <__subdf3+0x3be>
    8f1a:	7ff00713          	li	a4,2047
    8f1e:	e2e68ce3          	beq	a3,a4,8d56 <__subdf3+0x33c>
    8f22:	00b88733          	add	a4,a7,a1
    8f26:	97ca                	add	a5,a5,s2
    8f28:	011738b3          	sltu	a7,a4,a7
    8f2c:	97c6                	add	a5,a5,a7
    8f2e:	8305                	srli	a4,a4,0x1
    8f30:	01f79993          	slli	s3,a5,0x1f
    8f34:	00e9e9b3          	or	s3,s3,a4
    8f38:	8b1d                	andi	a4,a4,7
    8f3a:	0017d913          	srli	s2,a5,0x1
    8f3e:	8436                	mv	s0,a3
    8f40:	be0719e3          	bnez	a4,8b32 <__subdf3+0x118>
    8f44:	b729                	j	8e4e <__subdf3+0x434>
    8f46:	411588b3          	sub	a7,a1,a7
    8f4a:	412787b3          	sub	a5,a5,s2
    8f4e:	0115b5b3          	sltu	a1,a1,a7
    8f52:	89c6                	mv	s3,a7
    8f54:	40b78933          	sub	s2,a5,a1
    8f58:	84b6                	mv	s1,a3
    8f5a:	b651                	j	8ade <__subdf3+0xc4>
    8f5c:	10081c63          	bnez	a6,9074 <__subdf3+0x65a>
    8f60:	ce0711e3          	bnez	a4,8c42 <__subdf3+0x228>
    8f64:	4481                	li	s1,0
    8f66:	7ff00413          	li	s0,2047
    8f6a:	000807b7          	lui	a5,0x80
    8f6e:	b901                	j	8b7e <__subdf3+0x164>
    8f70:	95c6                	add	a1,a1,a7
    8f72:	97ca                	add	a5,a5,s2
    8f74:	0115b8b3          	sltu	a7,a1,a7
    8f78:	01178933          	add	s2,a5,a7
    8f7c:	008007b7          	lui	a5,0x800
    8f80:	00f977b3          	and	a5,s2,a5
    8f84:	89ae                	mv	s3,a1
    8f86:	4405                	li	s0,1
    8f88:	dc078de3          	beqz	a5,8d62 <__subdf3+0x348>
    8f8c:	4409                	li	s0,2
    8f8e:	b9ad                	j	8c08 <__subdf3+0x1ee>
    8f90:	050e                	slli	a0,a0,0x3
    8f92:	01d91793          	slli	a5,s2,0x1d
    8f96:	00355713          	srli	a4,a0,0x3
    8f9a:	8f5d                	or	a4,a4,a5
    8f9c:	00395793          	srli	a5,s2,0x3
    8fa0:	b945                	j	8c50 <__subdf3+0x236>
    8fa2:	40b885b3          	sub	a1,a7,a1
    8fa6:	40f907b3          	sub	a5,s2,a5
    8faa:	00b8b8b3          	sltu	a7,a7,a1
    8fae:	89ae                	mv	s3,a1
    8fb0:	41178933          	sub	s2,a5,a7
    8fb4:	4405                	li	s0,1
    8fb6:	be19                	j	8acc <__subdf3+0xb2>
    8fb8:	050e                	slli	a0,a0,0x3
    8fba:	01d91713          	slli	a4,s2,0x1d
    8fbe:	810d                	srli	a0,a0,0x3
    8fc0:	8f49                	or	a4,a4,a0
    8fc2:	00395793          	srli	a5,s2,0x3
    8fc6:	b169                	j	8c50 <__subdf3+0x236>
    8fc8:	fe070613          	addi	a2,a4,-32
    8fcc:	02000693          	li	a3,32
    8fd0:	00c7d633          	srl	a2,a5,a2
    8fd4:	00d70963          	beq	a4,a3,8fe6 <__subdf3+0x5cc>
    8fd8:	04000693          	li	a3,64
    8fdc:	40e68733          	sub	a4,a3,a4
    8fe0:	00e797b3          	sll	a5,a5,a4
    8fe4:	8ddd                	or	a1,a1,a5
    8fe6:	00b036b3          	snez	a3,a1
    8fea:	8ed1                	or	a3,a3,a2
    8fec:	beed                	j	8be6 <__subdf3+0x1cc>
    8fee:	cb6d                	beqz	a4,90e0 <__subdf3+0x6c6>
    8ff0:	8ddd                	or	a1,a1,a5
    8ff2:	c60592e3          	bnez	a1,8c56 <__subdf3+0x23c>
    8ff6:	050e                	slli	a0,a0,0x3
    8ff8:	01d91793          	slli	a5,s2,0x1d
    8ffc:	810d                	srli	a0,a0,0x3
    8ffe:	00f56733          	or	a4,a0,a5
    9002:	00395793          	srli	a5,s2,0x3
    9006:	b1a9                	j	8c50 <__subdf3+0x236>
    9008:	fe050713          	addi	a4,a0,-32
    900c:	02000693          	li	a3,32
    9010:	00e95733          	srl	a4,s2,a4
    9014:	00d50963          	beq	a0,a3,9026 <__subdf3+0x60c>
    9018:	04000693          	li	a3,64
    901c:	8e89                	sub	a3,a3,a0
    901e:	00d916b3          	sll	a3,s2,a3
    9022:	00d8e8b3          	or	a7,a7,a3
    9026:	011039b3          	snez	s3,a7
    902a:	00e9e9b3          	or	s3,s3,a4
    902e:	bd75                	j	8eea <__subdf3+0x4d0>
    9030:	e40702e3          	beqz	a4,8e74 <__subdf3+0x45a>
    9034:	060e                	slli	a2,a2,0x3
    9036:	01d79713          	slli	a4,a5,0x1d
    903a:	820d                	srli	a2,a2,0x3
    903c:	8f51                	or	a4,a4,a2
    903e:	838d                	srli	a5,a5,0x3
    9040:	84b6                	mv	s1,a3
    9042:	bb59                	j	8dd8 <__subdf3+0x3be>
    9044:	411588b3          	sub	a7,a1,a7
    9048:	412787b3          	sub	a5,a5,s2
    904c:	0115b5b3          	sltu	a1,a1,a7
    9050:	89c6                	mv	s3,a7
    9052:	40b78933          	sub	s2,a5,a1
    9056:	84b6                	mv	s1,a3
    9058:	4405                	li	s0,1
    905a:	bc8d                	j	8acc <__subdf3+0xb2>
    905c:	00351793          	slli	a5,a0,0x3
    9060:	838d                	srli	a5,a5,0x3
    9062:	01d91713          	slli	a4,s2,0x1d
    9066:	8f5d                	or	a4,a4,a5
    9068:	00395793          	srli	a5,s2,0x3
    906c:	b3b5                	j	8dd8 <__subdf3+0x3be>
    906e:	893e                	mv	s2,a5
    9070:	88ae                	mv	a7,a1
    9072:	b349                	j	8df4 <__subdf3+0x3da>
    9074:	be0711e3          	bnez	a4,8c56 <__subdf3+0x23c>
    9078:	00351793          	slli	a5,a0,0x3
    907c:	838d                	srli	a5,a5,0x3
    907e:	01d91713          	slli	a4,s2,0x1d
    9082:	8f5d                	or	a4,a4,a5
    9084:	00395793          	srli	a5,s2,0x3
    9088:	b6e1                	j	8c50 <__subdf3+0x236>
    908a:	060e                	slli	a2,a2,0x3
    908c:	01d79713          	slli	a4,a5,0x1d
    9090:	820d                	srli	a2,a2,0x3
    9092:	8f51                	or	a4,a4,a2
    9094:	838d                	srli	a5,a5,0x3
    9096:	b389                	j	8dd8 <__subdf3+0x3be>
    9098:	060e                	slli	a2,a2,0x3
    909a:	01d79713          	slli	a4,a5,0x1d
    909e:	820d                	srli	a2,a2,0x3
    90a0:	8f51                	or	a4,a4,a2
    90a2:	838d                	srli	a5,a5,0x3
    90a4:	84b6                	mv	s1,a3
    90a6:	b66d                	j	8c50 <__subdf3+0x236>
    90a8:	050e                	slli	a0,a0,0x3
    90aa:	01d91793          	slli	a5,s2,0x1d
    90ae:	810d                	srli	a0,a0,0x3
    90b0:	00f56733          	or	a4,a0,a5
    90b4:	00395793          	srli	a5,s2,0x3
    90b8:	b305                	j	8dd8 <__subdf3+0x3be>
    90ba:	fe068613          	addi	a2,a3,-32
    90be:	02000713          	li	a4,32
    90c2:	00c95633          	srl	a2,s2,a2
    90c6:	00e68963          	beq	a3,a4,90d8 <__subdf3+0x6be>
    90ca:	04000713          	li	a4,64
    90ce:	8f15                	sub	a4,a4,a3
    90d0:	00e91733          	sll	a4,s2,a4
    90d4:	00e8e8b3          	or	a7,a7,a4
    90d8:	01103733          	snez	a4,a7
    90dc:	8f51                	or	a4,a4,a2
    90de:	b111                	j	8ce2 <__subdf3+0x2c8>
    90e0:	060e                	slli	a2,a2,0x3
    90e2:	01d79713          	slli	a4,a5,0x1d
    90e6:	00365693          	srli	a3,a2,0x3
    90ea:	8f55                	or	a4,a4,a3
    90ec:	838d                	srli	a5,a5,0x3
    90ee:	b68d                	j	8c50 <__subdf3+0x236>
    90f0:	00c9e733          	or	a4,s3,a2
    90f4:	8932                	mv	s2,a2
    90f6:	d4071ce3          	bnez	a4,8e4e <__subdf3+0x434>
    90fa:	bbad                	j	8e74 <__subdf3+0x45a>
    90fc:	02000693          	li	a3,32
    9100:	8e99                	sub	a3,a3,a4
    9102:	4601                	li	a2,0
    9104:	bc19                	j	8b1a <__subdf3+0x100>
    9106:	be0706e3          	beqz	a4,8cf2 <__subdf3+0x2d8>
    910a:	40880533          	sub	a0,a6,s0
    910e:	872a                	mv	a4,a0
    9110:	cc040ce3          	beqz	s0,8de8 <__subdf3+0x3ce>
    9114:	03800713          	li	a4,56
    9118:	00a74863          	blt	a4,a0,9128 <__subdf3+0x70e>
    911c:	00800737          	lui	a4,0x800
    9120:	00e96933          	or	s2,s2,a4
    9124:	84b6                	mv	s1,a3
    9126:	bb69                	j	8ec0 <__subdf3+0x4a6>
    9128:	84b6                	mv	s1,a3
    912a:	4985                	li	s3,1
    912c:	bb7d                	j	8eea <__subdf3+0x4d0>
    912e:	cc070ee3          	beqz	a4,8e0a <__subdf3+0x3f0>
    9132:	408806b3          	sub	a3,a6,s0
    9136:	e019                	bnez	s0,913c <__subdf3+0x722>
    9138:	8736                	mv	a4,a3
    913a:	b685                	j	8c9a <__subdf3+0x280>
    913c:	03800613          	li	a2,56
    9140:	4705                	li	a4,1
    9142:	bad640e3          	blt	a2,a3,8ce2 <__subdf3+0x2c8>
    9146:	00800737          	lui	a4,0x800
    914a:	00e96933          	or	s2,s2,a4
    914e:	b6bd                	j	8cbc <__subdf3+0x2a2>

00009150 <__floatsidf>:
    9150:	1141                	addi	sp,sp,-16
    9152:	c606                	sw	ra,12(sp)
    9154:	c422                	sw	s0,8(sp)
    9156:	c226                	sw	s1,4(sp)
    9158:	cd15                	beqz	a0,9194 <__floatsidf+0x44>
    915a:	41f55713          	srai	a4,a0,0x1f
    915e:	00a744b3          	xor	s1,a4,a0
    9162:	8c99                	sub	s1,s1,a4
    9164:	87aa                	mv	a5,a0
    9166:	8526                	mv	a0,s1
    9168:	01f7d413          	srli	s0,a5,0x1f
    916c:	17c010ef          	jal	ra,a2e8 <__clzsi2>
    9170:	41e00793          	li	a5,1054
    9174:	8f89                	sub	a5,a5,a0
    9176:	4729                	li	a4,10
    9178:	7ff7f793          	andi	a5,a5,2047
    917c:	02a74b63          	blt	a4,a0,91b2 <__floatsidf+0x62>
    9180:	472d                	li	a4,11
    9182:	8f09                	sub	a4,a4,a0
    9184:	00e4d733          	srl	a4,s1,a4
    9188:	0555                	addi	a0,a0,21
    918a:	0732                	slli	a4,a4,0xc
    918c:	00a494b3          	sll	s1,s1,a0
    9190:	8331                	srli	a4,a4,0xc
    9192:	a029                	j	919c <__floatsidf+0x4c>
    9194:	4401                	li	s0,0
    9196:	4781                	li	a5,0
    9198:	4701                	li	a4,0
    919a:	4481                	li	s1,0
    919c:	07d2                	slli	a5,a5,0x14
    919e:	047e                	slli	s0,s0,0x1f
    91a0:	8fd9                	or	a5,a5,a4
    91a2:	40b2                	lw	ra,12(sp)
    91a4:	8fc1                	or	a5,a5,s0
    91a6:	4422                	lw	s0,8(sp)
    91a8:	8526                	mv	a0,s1
    91aa:	85be                	mv	a1,a5
    91ac:	4492                	lw	s1,4(sp)
    91ae:	0141                	addi	sp,sp,16
    91b0:	8082                	ret
    91b2:	1555                	addi	a0,a0,-11
    91b4:	00a49733          	sll	a4,s1,a0
    91b8:	0732                	slli	a4,a4,0xc
    91ba:	8331                	srli	a4,a4,0xc
    91bc:	4481                	li	s1,0
    91be:	bff9                	j	919c <__floatsidf+0x4c>

000091c0 <__floatunsidf>:
    91c0:	1141                	addi	sp,sp,-16
    91c2:	c422                	sw	s0,8(sp)
    91c4:	c606                	sw	ra,12(sp)
    91c6:	842a                	mv	s0,a0
    91c8:	cd05                	beqz	a0,9200 <__floatunsidf+0x40>
    91ca:	11e010ef          	jal	ra,a2e8 <__clzsi2>
    91ce:	41e00793          	li	a5,1054
    91d2:	8f89                	sub	a5,a5,a0
    91d4:	4729                	li	a4,10
    91d6:	7ff7f793          	andi	a5,a5,2047
    91da:	02a74d63          	blt	a4,a0,9214 <__floatunsidf+0x54>
    91de:	472d                	li	a4,11
    91e0:	8f09                	sub	a4,a4,a0
    91e2:	0555                	addi	a0,a0,21
    91e4:	00e45733          	srl	a4,s0,a4
    91e8:	00a41433          	sll	s0,s0,a0
    91ec:	40b2                	lw	ra,12(sp)
    91ee:	8522                	mv	a0,s0
    91f0:	0732                	slli	a4,a4,0xc
    91f2:	4422                	lw	s0,8(sp)
    91f4:	8331                	srli	a4,a4,0xc
    91f6:	07d2                	slli	a5,a5,0x14
    91f8:	8fd9                	or	a5,a5,a4
    91fa:	85be                	mv	a1,a5
    91fc:	0141                	addi	sp,sp,16
    91fe:	8082                	ret
    9200:	40b2                	lw	ra,12(sp)
    9202:	8522                	mv	a0,s0
    9204:	4781                	li	a5,0
    9206:	4422                	lw	s0,8(sp)
    9208:	4701                	li	a4,0
    920a:	07d2                	slli	a5,a5,0x14
    920c:	8fd9                	or	a5,a5,a4
    920e:	85be                	mv	a1,a5
    9210:	0141                	addi	sp,sp,16
    9212:	8082                	ret
    9214:	1555                	addi	a0,a0,-11
    9216:	00a41733          	sll	a4,s0,a0
    921a:	4401                	li	s0,0
    921c:	40b2                	lw	ra,12(sp)
    921e:	8522                	mv	a0,s0
    9220:	0732                	slli	a4,a4,0xc
    9222:	4422                	lw	s0,8(sp)
    9224:	8331                	srli	a4,a4,0xc
    9226:	07d2                	slli	a5,a5,0x14
    9228:	8fd9                	or	a5,a5,a4
    922a:	85be                	mv	a1,a5
    922c:	0141                	addi	sp,sp,16
    922e:	8082                	ret

00009230 <__addsf3>:
    9230:	00800737          	lui	a4,0x800
    9234:	1141                	addi	sp,sp,-16
    9236:	177d                	addi	a4,a4,-1 # 7fffff <_data_lma+0x7f441b>
    9238:	01755693          	srli	a3,a0,0x17
    923c:	0175d613          	srli	a2,a1,0x17
    9240:	00a777b3          	and	a5,a4,a0
    9244:	c226                	sw	s1,4(sp)
    9246:	8f6d                	and	a4,a4,a1
    9248:	c04a                	sw	s2,0(sp)
    924a:	0ff67613          	zext.b	a2,a2
    924e:	0ff6f913          	zext.b	s2,a3
    9252:	c606                	sw	ra,12(sp)
    9254:	c422                	sw	s0,8(sp)
    9256:	01f55493          	srli	s1,a0,0x1f
    925a:	81fd                	srli	a1,a1,0x1f
    925c:	078e                	slli	a5,a5,0x3
    925e:	070e                	slli	a4,a4,0x3
    9260:	40c906b3          	sub	a3,s2,a2
    9264:	04b48163          	beq	s1,a1,92a6 <__addsf3+0x76>
    9268:	00d05f63          	blez	a3,9286 <__addsf3+0x56>
    926c:	ee31                	bnez	a2,92c8 <__addsf3+0x98>
    926e:	12070163          	beqz	a4,9390 <__addsf3+0x160>
    9272:	fff68613          	addi	a2,a3,-1
    9276:	2a060e63          	beqz	a2,9532 <__addsf3+0x302>
    927a:	0ff00593          	li	a1,255
    927e:	16b68b63          	beq	a3,a1,93f4 <__addsf3+0x1c4>
    9282:	86b2                	mv	a3,a2
    9284:	a889                	j	92d6 <__addsf3+0xa6>
    9286:	c2f1                	beqz	a3,934a <__addsf3+0x11a>
    9288:	412606b3          	sub	a3,a2,s2
    928c:	1c091c63          	bnez	s2,9464 <__addsf3+0x234>
    9290:	cff5                	beqz	a5,938c <__addsf3+0x15c>
    9292:	fff68513          	addi	a0,a3,-1
    9296:	2c050963          	beqz	a0,9568 <__addsf3+0x338>
    929a:	0ff00813          	li	a6,255
    929e:	15068963          	beq	a3,a6,93f0 <__addsf3+0x1c0>
    92a2:	86aa                	mv	a3,a0
    92a4:	a2f9                	j	9472 <__addsf3+0x242>
    92a6:	8826                	mv	a6,s1
    92a8:	14d05863          	blez	a3,93f8 <__addsf3+0x1c8>
    92ac:	c669                	beqz	a2,9376 <__addsf3+0x146>
    92ae:	0ff00613          	li	a2,255
    92b2:	14c90163          	beq	s2,a2,93f4 <__addsf3+0x1c4>
    92b6:	04000637          	lui	a2,0x4000
    92ba:	8f51                	or	a4,a4,a2
    92bc:	466d                	li	a2,27
    92be:	1ed65963          	bge	a2,a3,94b0 <__addsf3+0x280>
    92c2:	0785                	addi	a5,a5,1 # 800001 <_data_lma+0x7f441d>
    92c4:	86ca                	mv	a3,s2
    92c6:	a089                	j	9308 <__addsf3+0xd8>
    92c8:	0ff00613          	li	a2,255
    92cc:	12c90463          	beq	s2,a2,93f4 <__addsf3+0x1c4>
    92d0:	04000637          	lui	a2,0x4000
    92d4:	8f51                	or	a4,a4,a2
    92d6:	45ed                	li	a1,27
    92d8:	4605                	li	a2,1
    92da:	00d5cd63          	blt	a1,a3,92f4 <__addsf3+0xc4>
    92de:	02000613          	li	a2,32
    92e2:	8e15                	sub	a2,a2,a3
    92e4:	00c71633          	sll	a2,a4,a2
    92e8:	00d756b3          	srl	a3,a4,a3
    92ec:	00c03733          	snez	a4,a2
    92f0:	00e6e633          	or	a2,a3,a4
    92f4:	8f91                	sub	a5,a5,a2
    92f6:	04000737          	lui	a4,0x4000
    92fa:	00e7f6b3          	and	a3,a5,a4
    92fe:	eacd                	bnez	a3,93b0 <__addsf3+0x180>
    9300:	0077f713          	andi	a4,a5,7
    9304:	86ca                	mv	a3,s2
    9306:	c749                	beqz	a4,9390 <__addsf3+0x160>
    9308:	00f7f713          	andi	a4,a5,15
    930c:	4611                	li	a2,4
    930e:	00c70363          	beq	a4,a2,9314 <__addsf3+0xe4>
    9312:	0791                	addi	a5,a5,4
    9314:	04000737          	lui	a4,0x4000
    9318:	8f7d                	and	a4,a4,a5
    931a:	cb3d                	beqz	a4,9390 <__addsf3+0x160>
    931c:	00168513          	addi	a0,a3,1
    9320:	0ff00713          	li	a4,255
    9324:	8826                	mv	a6,s1
    9326:	08e50163          	beq	a0,a4,93a8 <__addsf3+0x178>
    932a:	00679713          	slli	a4,a5,0x6
    932e:	0ff57513          	zext.b	a0,a0
    9332:	8325                	srli	a4,a4,0x9
    9334:	40b2                	lw	ra,12(sp)
    9336:	4422                	lw	s0,8(sp)
    9338:	055e                	slli	a0,a0,0x17
    933a:	8d59                	or	a0,a0,a4
    933c:	01f81793          	slli	a5,a6,0x1f
    9340:	4492                	lw	s1,4(sp)
    9342:	4902                	lw	s2,0(sp)
    9344:	8d5d                	or	a0,a0,a5
    9346:	0141                	addi	sp,sp,16
    9348:	8082                	ret
    934a:	00190613          	addi	a2,s2,1
    934e:	0fe67613          	andi	a2,a2,254
    9352:	14061463          	bnez	a2,949a <__addsf3+0x26a>
    9356:	08091a63          	bnez	s2,93ea <__addsf3+0x1ba>
    935a:	20078363          	beqz	a5,9560 <__addsf3+0x330>
    935e:	cb75                	beqz	a4,9452 <__addsf3+0x222>
    9360:	40e78533          	sub	a0,a5,a4
    9364:	04000637          	lui	a2,0x4000
    9368:	8e69                	and	a2,a2,a0
    936a:	22060363          	beqz	a2,9590 <__addsf3+0x360>
    936e:	40f707b3          	sub	a5,a4,a5
    9372:	84ae                	mv	s1,a1
    9374:	a0bd                	j	93e2 <__addsf3+0x1b2>
    9376:	cf09                	beqz	a4,9390 <__addsf3+0x160>
    9378:	fff68613          	addi	a2,a3,-1
    937c:	1a060363          	beqz	a2,9522 <__addsf3+0x2f2>
    9380:	0ff00593          	li	a1,255
    9384:	06b68863          	beq	a3,a1,93f4 <__addsf3+0x1c4>
    9388:	86b2                	mv	a3,a2
    938a:	bf0d                	j	92bc <__addsf3+0x8c>
    938c:	84ae                	mv	s1,a1
    938e:	87ba                	mv	a5,a4
    9390:	0ff00713          	li	a4,255
    9394:	838d                	srli	a5,a5,0x3
    9396:	0ce69063          	bne	a3,a4,9456 <__addsf3+0x226>
    939a:	cfc1                	beqz	a5,9432 <__addsf3+0x202>
    939c:	4801                	li	a6,0
    939e:	0ff00513          	li	a0,255
    93a2:	00400737          	lui	a4,0x400
    93a6:	b779                	j	9334 <__addsf3+0x104>
    93a8:	0ff00513          	li	a0,255
    93ac:	4701                	li	a4,0
    93ae:	b759                	j	9334 <__addsf3+0x104>
    93b0:	177d                	addi	a4,a4,-1 # 3fffff <_data_lma+0x3f441b>
    93b2:	00e7f433          	and	s0,a5,a4
    93b6:	8522                	mv	a0,s0
    93b8:	731000ef          	jal	ra,a2e8 <__clzsi2>
    93bc:	156d                	addi	a0,a0,-5
    93be:	00a41433          	sll	s0,s0,a0
    93c2:	07254163          	blt	a0,s2,9424 <__addsf3+0x1f4>
    93c6:	412506b3          	sub	a3,a0,s2
    93ca:	0685                	addi	a3,a3,1
    93cc:	02000793          	li	a5,32
    93d0:	8f95                	sub	a5,a5,a3
    93d2:	00f417b3          	sll	a5,s0,a5
    93d6:	00f037b3          	snez	a5,a5
    93da:	00d45433          	srl	s0,s0,a3
    93de:	8fc1                	or	a5,a5,s0
    93e0:	4681                	li	a3,0
    93e2:	0077f713          	andi	a4,a5,7
    93e6:	f30d                	bnez	a4,9308 <__addsf3+0xd8>
    93e8:	b735                	j	9314 <__addsf3+0xe4>
    93ea:	14079963          	bnez	a5,953c <__addsf3+0x30c>
    93ee:	d75d                	beqz	a4,939c <__addsf3+0x16c>
    93f0:	84ae                	mv	s1,a1
    93f2:	87ba                	mv	a5,a4
    93f4:	838d                	srli	a5,a5,0x3
    93f6:	b755                	j	939a <__addsf3+0x16a>
    93f8:	c2b1                	beqz	a3,943c <__addsf3+0x20c>
    93fa:	412606b3          	sub	a3,a2,s2
    93fe:	0e091963          	bnez	s2,94f0 <__addsf3+0x2c0>
    9402:	d7d1                	beqz	a5,938e <__addsf3+0x15e>
    9404:	fff68593          	addi	a1,a3,-1
    9408:	10058d63          	beqz	a1,9522 <__addsf3+0x2f2>
    940c:	0ff00513          	li	a0,255
    9410:	fea681e3          	beq	a3,a0,93f2 <__addsf3+0x1c2>
    9414:	86ae                	mv	a3,a1
    9416:	45ed                	li	a1,27
    9418:	12d5d663          	bge	a1,a3,9544 <__addsf3+0x314>
    941c:	00170793          	addi	a5,a4,1
    9420:	86b2                	mv	a3,a2
    9422:	b5dd                	j	9308 <__addsf3+0xd8>
    9424:	fc0007b7          	lui	a5,0xfc000
    9428:	17fd                	addi	a5,a5,-1 # fbffffff <_eusrstack+0xdbffafff>
    942a:	40a906b3          	sub	a3,s2,a0
    942e:	8fe1                	and	a5,a5,s0
    9430:	bf4d                	j	93e2 <__addsf3+0x1b2>
    9432:	8826                	mv	a6,s1
    9434:	0ff00513          	li	a0,255
    9438:	4701                	li	a4,0
    943a:	bded                	j	9334 <__addsf3+0x104>
    943c:	00190693          	addi	a3,s2,1
    9440:	0fe6f613          	andi	a2,a3,254
    9444:	ee55                	bnez	a2,9500 <__addsf3+0x2d0>
    9446:	0e091963          	bnez	s2,9538 <__addsf3+0x308>
    944a:	12078463          	beqz	a5,9572 <__addsf3+0x342>
    944e:	12071463          	bnez	a4,9576 <__addsf3+0x346>
    9452:	838d                	srli	a5,a5,0x3
    9454:	4681                	li	a3,0
    9456:	07a6                	slli	a5,a5,0x9
    9458:	0097d713          	srli	a4,a5,0x9
    945c:	0ff6f513          	zext.b	a0,a3
    9460:	8826                	mv	a6,s1
    9462:	bdc9                	j	9334 <__addsf3+0x104>
    9464:	0ff00513          	li	a0,255
    9468:	f8a604e3          	beq	a2,a0,93f0 <__addsf3+0x1c0>
    946c:	04000537          	lui	a0,0x4000
    9470:	8fc9                	or	a5,a5,a0
    9472:	486d                	li	a6,27
    9474:	4505                	li	a0,1
    9476:	00d84d63          	blt	a6,a3,9490 <__addsf3+0x260>
    947a:	02000513          	li	a0,32
    947e:	8d15                	sub	a0,a0,a3
    9480:	00a79533          	sll	a0,a5,a0
    9484:	00d7d6b3          	srl	a3,a5,a3
    9488:	00a037b3          	snez	a5,a0
    948c:	00f6e533          	or	a0,a3,a5
    9490:	40a707b3          	sub	a5,a4,a0
    9494:	8932                	mv	s2,a2
    9496:	84ae                	mv	s1,a1
    9498:	bdb9                	j	92f6 <__addsf3+0xc6>
    949a:	40e78433          	sub	s0,a5,a4
    949e:	040006b7          	lui	a3,0x4000
    94a2:	8ee1                	and	a3,a3,s0
    94a4:	eabd                	bnez	a3,951a <__addsf3+0x2ea>
    94a6:	f801                	bnez	s0,93b6 <__addsf3+0x186>
    94a8:	4801                	li	a6,0
    94aa:	4501                	li	a0,0
    94ac:	4701                	li	a4,0
    94ae:	b559                	j	9334 <__addsf3+0x104>
    94b0:	02000613          	li	a2,32
    94b4:	8e15                	sub	a2,a2,a3
    94b6:	00c71633          	sll	a2,a4,a2
    94ba:	00d75733          	srl	a4,a4,a3
    94be:	00c036b3          	snez	a3,a2
    94c2:	8f55                	or	a4,a4,a3
    94c4:	97ba                	add	a5,a5,a4
    94c6:	04000737          	lui	a4,0x4000
    94ca:	8f7d                	and	a4,a4,a5
    94cc:	e2070ae3          	beqz	a4,9300 <__addsf3+0xd0>
    94d0:	00190693          	addi	a3,s2,1
    94d4:	0ff00513          	li	a0,255
    94d8:	4701                	li	a4,0
    94da:	e4a68de3          	beq	a3,a0,9334 <__addsf3+0x104>
    94de:	7e000637          	lui	a2,0x7e000
    94e2:	0017d713          	srli	a4,a5,0x1
    94e6:	167d                	addi	a2,a2,-1 # 7dffffff <_eusrstack+0x5dffafff>
    94e8:	8b85                	andi	a5,a5,1
    94ea:	8f71                	and	a4,a4,a2
    94ec:	8fd9                	or	a5,a5,a4
    94ee:	bdd5                	j	93e2 <__addsf3+0x1b2>
    94f0:	0ff00593          	li	a1,255
    94f4:	eeb60fe3          	beq	a2,a1,93f2 <__addsf3+0x1c2>
    94f8:	040005b7          	lui	a1,0x4000
    94fc:	8fcd                	or	a5,a5,a1
    94fe:	bf21                	j	9416 <__addsf3+0x1e6>
    9500:	0ff00613          	li	a2,255
    9504:	eac682e3          	beq	a3,a2,93a8 <__addsf3+0x178>
    9508:	973e                	add	a4,a4,a5
    950a:	00175793          	srli	a5,a4,0x1
    950e:	0077f613          	andi	a2,a5,7
    9512:	de061be3          	bnez	a2,9308 <__addsf3+0xd8>
    9516:	838d                	srli	a5,a5,0x3
    9518:	bf3d                	j	9456 <__addsf3+0x226>
    951a:	40f70433          	sub	s0,a4,a5
    951e:	84ae                	mv	s1,a1
    9520:	bd59                	j	93b6 <__addsf3+0x186>
    9522:	97ba                	add	a5,a5,a4
    9524:	04000737          	lui	a4,0x4000
    9528:	8f7d                	and	a4,a4,a5
    952a:	4689                	li	a3,2
    952c:	4905                	li	s2,1
    952e:	fb45                	bnez	a4,94de <__addsf3+0x2ae>
    9530:	bbc1                	j	9300 <__addsf3+0xd0>
    9532:	8f99                	sub	a5,a5,a4
    9534:	4905                	li	s2,1
    9536:	b3c1                	j	92f6 <__addsf3+0xc6>
    9538:	ea078de3          	beqz	a5,93f2 <__addsf3+0x1c2>
    953c:	e60710e3          	bnez	a4,939c <__addsf3+0x16c>
    9540:	838d                	srli	a5,a5,0x3
    9542:	bda1                	j	939a <__addsf3+0x16a>
    9544:	02000593          	li	a1,32
    9548:	8d95                	sub	a1,a1,a3
    954a:	00b795b3          	sll	a1,a5,a1
    954e:	00d7d6b3          	srl	a3,a5,a3
    9552:	00b037b3          	snez	a5,a1
    9556:	8edd                	or	a3,a3,a5
    9558:	00e687b3          	add	a5,a3,a4
    955c:	8932                	mv	s2,a2
    955e:	b7a5                	j	94c6 <__addsf3+0x296>
    9560:	d721                	beqz	a4,94a8 <__addsf3+0x278>
    9562:	84ae                	mv	s1,a1
    9564:	87ba                	mv	a5,a4
    9566:	b5f5                	j	9452 <__addsf3+0x222>
    9568:	40f707b3          	sub	a5,a4,a5
    956c:	84ae                	mv	s1,a1
    956e:	4905                	li	s2,1
    9570:	b359                	j	92f6 <__addsf3+0xc6>
    9572:	87ba                	mv	a5,a4
    9574:	bdf9                	j	9452 <__addsf3+0x222>
    9576:	97ba                	add	a5,a5,a4
    9578:	04000637          	lui	a2,0x4000
    957c:	8e7d                	and	a2,a2,a5
    957e:	4681                	li	a3,0
    9580:	da59                	beqz	a2,9516 <__addsf3+0x2e6>
    9582:	fc000737          	lui	a4,0xfc000
    9586:	177d                	addi	a4,a4,-1 # fbffffff <_eusrstack+0xdbffafff>
    9588:	8ff9                	and	a5,a5,a4
    958a:	4685                	li	a3,1
    958c:	838d                	srli	a5,a5,0x3
    958e:	b5e1                	j	9456 <__addsf3+0x226>
    9590:	87aa                	mv	a5,a0
    9592:	d919                	beqz	a0,94a8 <__addsf3+0x278>
    9594:	838d                	srli	a5,a5,0x3
    9596:	b5c1                	j	9456 <__addsf3+0x226>

00009598 <__divsf3>:
    9598:	7179                	addi	sp,sp,-48
    959a:	01755793          	srli	a5,a0,0x17
    959e:	d04a                	sw	s2,32(sp)
    95a0:	ce4e                	sw	s3,28(sp)
    95a2:	d606                	sw	ra,44(sp)
    95a4:	00951993          	slli	s3,a0,0x9
    95a8:	d422                	sw	s0,40(sp)
    95aa:	d226                	sw	s1,36(sp)
    95ac:	cc52                	sw	s4,24(sp)
    95ae:	ca56                	sw	s5,20(sp)
    95b0:	c85a                	sw	s6,16(sp)
    95b2:	0ff7f793          	zext.b	a5,a5
    95b6:	0099d993          	srli	s3,s3,0x9
    95ba:	01f55913          	srli	s2,a0,0x1f
    95be:	cff1                	beqz	a5,969a <__divsf3+0x102>
    95c0:	0ff00713          	li	a4,255
    95c4:	0ee78163          	beq	a5,a4,96a6 <__divsf3+0x10e>
    95c8:	098e                	slli	s3,s3,0x3
    95ca:	04000737          	lui	a4,0x4000
    95ce:	00e9e9b3          	or	s3,s3,a4
    95d2:	f8178a93          	addi	s5,a5,-127
    95d6:	4401                	li	s0,0
    95d8:	4b01                	li	s6,0
    95da:	0175d793          	srli	a5,a1,0x17
    95de:	00959a13          	slli	s4,a1,0x9
    95e2:	0ff7f793          	zext.b	a5,a5
    95e6:	009a5a13          	srli	s4,s4,0x9
    95ea:	01f5d493          	srli	s1,a1,0x1f
    95ee:	c7c1                	beqz	a5,9676 <__divsf3+0xde>
    95f0:	0ff00713          	li	a4,255
    95f4:	0ce78063          	beq	a5,a4,96b4 <__divsf3+0x11c>
    95f8:	0a0e                	slli	s4,s4,0x3
    95fa:	04000737          	lui	a4,0x4000
    95fe:	00ea6a33          	or	s4,s4,a4
    9602:	f8178793          	addi	a5,a5,-127
    9606:	4601                	li	a2,0
    9608:	46bd                	li	a3,15
    960a:	00994733          	xor	a4,s2,s1
    960e:	40fa8ab3          	sub	s5,s5,a5
    9612:	1a86eb63          	bltu	a3,s0,97c8 <__divsf3+0x230>
    9616:	00002697          	auipc	a3,0x2
    961a:	33268693          	addi	a3,a3,818 # b948 <MyDevDescr+0x54>
    961e:	040a                	slli	s0,s0,0x2
    9620:	9436                	add	s0,s0,a3
    9622:	401c                	lw	a5,0(s0)
    9624:	97b6                	add	a5,a5,a3
    9626:	8782                	jr	a5
    9628:	0ff00793          	li	a5,255
    962c:	4681                	li	a3,0
    962e:	50b2                	lw	ra,44(sp)
    9630:	5422                	lw	s0,40(sp)
    9632:	01779513          	slli	a0,a5,0x17
    9636:	8d55                	or	a0,a0,a3
    9638:	077e                	slli	a4,a4,0x1f
    963a:	5492                	lw	s1,36(sp)
    963c:	5902                	lw	s2,32(sp)
    963e:	49f2                	lw	s3,28(sp)
    9640:	4a62                	lw	s4,24(sp)
    9642:	4ad2                	lw	s5,20(sp)
    9644:	4b42                	lw	s6,16(sp)
    9646:	8d59                	or	a0,a0,a4
    9648:	6145                	addi	sp,sp,48
    964a:	8082                	ret
    964c:	478d                	li	a5,3
    964e:	00fb0e63          	beq	s6,a5,966a <__divsf3+0xd2>
    9652:	4785                	li	a5,1
    9654:	0efb1563          	bne	s6,a5,973e <__divsf3+0x1a6>
    9658:	872a                	mv	a4,a0
    965a:	4781                	li	a5,0
    965c:	4681                	li	a3,0
    965e:	bfc1                	j	962e <__divsf3+0x96>
    9660:	478d                	li	a5,3
    9662:	8526                	mv	a0,s1
    9664:	89d2                	mv	s3,s4
    9666:	0cf61c63          	bne	a2,a5,973e <__divsf3+0x1a6>
    966a:	4701                	li	a4,0
    966c:	0ff00793          	li	a5,255
    9670:	004006b7          	lui	a3,0x400
    9674:	bf6d                	j	962e <__divsf3+0x96>
    9676:	080a1d63          	bnez	s4,9710 <__divsf3+0x178>
    967a:	00146413          	ori	s0,s0,1
    967e:	47b5                	li	a5,13
    9680:	00994733          	xor	a4,s2,s1
    9684:	fa87e2e3          	bltu	a5,s0,9628 <__divsf3+0x90>
    9688:	00002697          	auipc	a3,0x2
    968c:	30068693          	addi	a3,a3,768 # b988 <MyDevDescr+0x94>
    9690:	040a                	slli	s0,s0,0x2
    9692:	9436                	add	s0,s0,a3
    9694:	401c                	lw	a5,0(s0)
    9696:	97b6                	add	a5,a5,a3
    9698:	8782                	jr	a5
    969a:	04099b63          	bnez	s3,96f0 <__divsf3+0x158>
    969e:	4411                	li	s0,4
    96a0:	4a81                	li	s5,0
    96a2:	4b05                	li	s6,1
    96a4:	bf1d                	j	95da <__divsf3+0x42>
    96a6:	04099063          	bnez	s3,96e6 <__divsf3+0x14e>
    96aa:	4421                	li	s0,8
    96ac:	0ff00a93          	li	s5,255
    96b0:	4b09                	li	s6,2
    96b2:	b725                	j	95da <__divsf3+0x42>
    96b4:	020a1363          	bnez	s4,96da <__divsf3+0x142>
    96b8:	00246413          	ori	s0,s0,2
    96bc:	1475                	addi	s0,s0,-3
    96be:	46ad                	li	a3,11
    96c0:	00994733          	xor	a4,s2,s1
    96c4:	f886ebe3          	bltu	a3,s0,965a <__divsf3+0xc2>
    96c8:	00002617          	auipc	a2,0x2
    96cc:	2f860613          	addi	a2,a2,760 # b9c0 <MyDevDescr+0xcc>
    96d0:	040a                	slli	s0,s0,0x2
    96d2:	9432                	add	s0,s0,a2
    96d4:	4014                	lw	a3,0(s0)
    96d6:	96b2                	add	a3,a3,a2
    96d8:	8682                	jr	a3
    96da:	00346413          	ori	s0,s0,3
    96de:	0ff00793          	li	a5,255
    96e2:	460d                	li	a2,3
    96e4:	b715                	j	9608 <__divsf3+0x70>
    96e6:	4431                	li	s0,12
    96e8:	0ff00a93          	li	s5,255
    96ec:	4b0d                	li	s6,3
    96ee:	b5f5                	j	95da <__divsf3+0x42>
    96f0:	854e                	mv	a0,s3
    96f2:	c62e                	sw	a1,12(sp)
    96f4:	3f5000ef          	jal	ra,a2e8 <__clzsi2>
    96f8:	ffb50793          	addi	a5,a0,-5 # 3fffffb <_data_lma+0x3ff4417>
    96fc:	00f999b3          	sll	s3,s3,a5
    9700:	f8a00793          	li	a5,-118
    9704:	45b2                	lw	a1,12(sp)
    9706:	40a78ab3          	sub	s5,a5,a0
    970a:	4401                	li	s0,0
    970c:	4b01                	li	s6,0
    970e:	b5f1                	j	95da <__divsf3+0x42>
    9710:	8552                	mv	a0,s4
    9712:	3d7000ef          	jal	ra,a2e8 <__clzsi2>
    9716:	ffb50793          	addi	a5,a0,-5
    971a:	00fa1a33          	sll	s4,s4,a5
    971e:	f8a00793          	li	a5,-118
    9722:	8f89                	sub	a5,a5,a0
    9724:	4601                	li	a2,0
    9726:	b5cd                	j	9608 <__divsf3+0x70>
    9728:	f01a8a93          	addi	s5,s5,-255
    972c:	4789                	li	a5,2
    972e:	854a                	mv	a0,s2
    9730:	f0fb1ee3          	bne	s6,a5,964c <__divsf3+0xb4>
    9734:	872a                	mv	a4,a0
    9736:	0ff00793          	li	a5,255
    973a:	4681                	li	a3,0
    973c:	bdcd                	j	962e <__divsf3+0x96>
    973e:	872a                	mv	a4,a0
    9740:	07fa8793          	addi	a5,s5,127
    9744:	04f05163          	blez	a5,9786 <__divsf3+0x1ee>
    9748:	0079f693          	andi	a3,s3,7
    974c:	c699                	beqz	a3,975a <__divsf3+0x1c2>
    974e:	00f9f693          	andi	a3,s3,15
    9752:	4611                	li	a2,4
    9754:	00c68363          	beq	a3,a2,975a <__divsf3+0x1c2>
    9758:	0991                	addi	s3,s3,4
    975a:	080006b7          	lui	a3,0x8000
    975e:	00d9f6b3          	and	a3,s3,a3
    9762:	ca81                	beqz	a3,9772 <__divsf3+0x1da>
    9764:	f80007b7          	lui	a5,0xf8000
    9768:	17fd                	addi	a5,a5,-1 # f7ffffff <_eusrstack+0xd7ffafff>
    976a:	00f9f9b3          	and	s3,s3,a5
    976e:	080a8793          	addi	a5,s5,128
    9772:	0fe00693          	li	a3,254
    9776:	eaf6c9e3          	blt	a3,a5,9628 <__divsf3+0x90>
    977a:	00699693          	slli	a3,s3,0x6
    977e:	82a5                	srli	a3,a3,0x9
    9780:	0ff7f793          	zext.b	a5,a5
    9784:	b56d                	j	962e <__divsf3+0x96>
    9786:	4605                	li	a2,1
    9788:	c799                	beqz	a5,9796 <__divsf3+0x1fe>
    978a:	8e1d                	sub	a2,a2,a5
    978c:	45ed                	li	a1,27
    978e:	4781                	li	a5,0
    9790:	4681                	li	a3,0
    9792:	e8c5cee3          	blt	a1,a2,962e <__divsf3+0x96>
    9796:	09ea8693          	addi	a3,s5,158
    979a:	00d996b3          	sll	a3,s3,a3
    979e:	00d036b3          	snez	a3,a3
    97a2:	00c9d7b3          	srl	a5,s3,a2
    97a6:	8fd5                	or	a5,a5,a3
    97a8:	0077f693          	andi	a3,a5,7
    97ac:	c699                	beqz	a3,97ba <__divsf3+0x222>
    97ae:	00f7f693          	andi	a3,a5,15
    97b2:	4611                	li	a2,4
    97b4:	00c68363          	beq	a3,a2,97ba <__divsf3+0x222>
    97b8:	0791                	addi	a5,a5,4
    97ba:	040006b7          	lui	a3,0x4000
    97be:	8efd                	and	a3,a3,a5
    97c0:	cad5                	beqz	a3,9874 <__divsf3+0x2dc>
    97c2:	4785                	li	a5,1
    97c4:	4681                	li	a3,0
    97c6:	b5a5                	j	962e <__divsf3+0x96>
    97c8:	66c1                	lui	a3,0x10
    97ca:	005a1813          	slli	a6,s4,0x5
    97ce:	16fd                	addi	a3,a3,-1 # ffff <_data_lma+0x441b>
    97d0:	01085593          	srli	a1,a6,0x10
    97d4:	00d876b3          	and	a3,a6,a3
    97d8:	0749f863          	bgeu	s3,s4,9848 <__divsf3+0x2b0>
    97dc:	02b9d633          	divu	a2,s3,a1
    97e0:	87ce                	mv	a5,s3
    97e2:	1afd                	addi	s5,s5,-1
    97e4:	4981                	li	s3,0
    97e6:	02d60533          	mul	a0,a2,a3
    97ea:	02b7f7b3          	remu	a5,a5,a1
    97ee:	07c2                	slli	a5,a5,0x10
    97f0:	0137e7b3          	or	a5,a5,s3
    97f4:	00a7f863          	bgeu	a5,a0,9804 <__divsf3+0x26c>
    97f8:	97c2                	add	a5,a5,a6
    97fa:	fff60893          	addi	a7,a2,-1
    97fe:	0707f663          	bgeu	a5,a6,986a <__divsf3+0x2d2>
    9802:	8646                	mv	a2,a7
    9804:	8f89                	sub	a5,a5,a0
    9806:	02b7d533          	divu	a0,a5,a1
    980a:	02b7f7b3          	remu	a5,a5,a1
    980e:	02d506b3          	mul	a3,a0,a3
    9812:	07c2                	slli	a5,a5,0x10
    9814:	02d7f263          	bgeu	a5,a3,9838 <__divsf3+0x2a0>
    9818:	010785b3          	add	a1,a5,a6
    981c:	00f5b8b3          	sltu	a7,a1,a5
    9820:	fff50313          	addi	t1,a0,-1
    9824:	87ae                	mv	a5,a1
    9826:	00089863          	bnez	a7,9836 <__divsf3+0x29e>
    982a:	00d5f663          	bgeu	a1,a3,9836 <__divsf3+0x29e>
    982e:	1579                	addi	a0,a0,-2
    9830:	010587b3          	add	a5,a1,a6
    9834:	a011                	j	9838 <__divsf3+0x2a0>
    9836:	851a                	mv	a0,t1
    9838:	0642                	slli	a2,a2,0x10
    983a:	8f95                	sub	a5,a5,a3
    983c:	8e49                	or	a2,a2,a0
    983e:	00f037b3          	snez	a5,a5
    9842:	00f669b3          	or	s3,a2,a5
    9846:	bded                	j	9740 <__divsf3+0x1a8>
    9848:	0019d793          	srli	a5,s3,0x1
    984c:	02b7d633          	divu	a2,a5,a1
    9850:	09fe                	slli	s3,s3,0x1f
    9852:	0109d993          	srli	s3,s3,0x10
    9856:	02d60533          	mul	a0,a2,a3
    985a:	bf41                	j	97ea <__divsf3+0x252>
    985c:	8526                	mv	a0,s1
    985e:	872a                	mv	a4,a0
    9860:	bbed                	j	965a <__divsf3+0xc2>
    9862:	4701                	li	a4,0
    9864:	004006b7          	lui	a3,0x400
    9868:	b3d9                	j	962e <__divsf3+0x96>
    986a:	f8a7fce3          	bgeu	a5,a0,9802 <__divsf3+0x26a>
    986e:	1679                	addi	a2,a2,-2
    9870:	97c2                	add	a5,a5,a6
    9872:	bf49                	j	9804 <__divsf3+0x26c>
    9874:	079a                	slli	a5,a5,0x6
    9876:	0097d693          	srli	a3,a5,0x9
    987a:	4781                	li	a5,0
    987c:	bb4d                	j	962e <__divsf3+0x96>
    987e:	8526                	mv	a0,s1
    9880:	bd55                	j	9734 <__divsf3+0x19c>

00009882 <__gesf2>:
    9882:	01755613          	srli	a2,a0,0x17
    9886:	00800737          	lui	a4,0x800
    988a:	177d                	addi	a4,a4,-1 # 7fffff <_data_lma+0x7f441b>
    988c:	0175d693          	srli	a3,a1,0x17
    9890:	0ff67613          	zext.b	a2,a2
    9894:	0ff00813          	li	a6,255
    9898:	00a778b3          	and	a7,a4,a0
    989c:	01f55793          	srli	a5,a0,0x1f
    98a0:	8f6d                	and	a4,a4,a1
    98a2:	0ff6f513          	zext.b	a0,a3
    98a6:	81fd                	srli	a1,a1,0x1f
    98a8:	03060563          	beq	a2,a6,98d2 <__gesf2+0x50>
    98ac:	01050a63          	beq	a0,a6,98c0 <__gesf2+0x3e>
    98b0:	ea05                	bnez	a2,98e0 <__gesf2+0x5e>
    98b2:	e909                	bnez	a0,98c4 <__gesf2+0x42>
    98b4:	c339                	beqz	a4,98fa <__gesf2+0x78>
    98b6:	04089e63          	bnez	a7,9912 <__gesf2+0x90>
    98ba:	c9a1                	beqz	a1,990a <__gesf2+0x88>
    98bc:	852e                	mv	a0,a1
    98be:	8082                	ret
    98c0:	e739                	bnez	a4,990e <__gesf2+0x8c>
    98c2:	e219                	bnez	a2,98c8 <__gesf2+0x46>
    98c4:	fe088be3          	beqz	a7,98ba <__gesf2+0x38>
    98c8:	00b79963          	bne	a5,a1,98da <__gesf2+0x58>
    98cc:	cf9d                	beqz	a5,990a <__gesf2+0x88>
    98ce:	853e                	mv	a0,a5
    98d0:	8082                	ret
    98d2:	02089e63          	bnez	a7,990e <__gesf2+0x8c>
    98d6:	02c50563          	beq	a0,a2,9900 <__gesf2+0x7e>
    98da:	4505                	li	a0,1
    98dc:	e79d                	bnez	a5,990a <__gesf2+0x88>
    98de:	8082                	ret
    98e0:	dd6d                	beqz	a0,98da <__gesf2+0x58>
    98e2:	feb79ce3          	bne	a5,a1,98da <__gesf2+0x58>
    98e6:	fec54ae3          	blt	a0,a2,98da <__gesf2+0x58>
    98ea:	fea641e3          	blt	a2,a0,98cc <__gesf2+0x4a>
    98ee:	ff1766e3          	bltu	a4,a7,98da <__gesf2+0x58>
    98f2:	4501                	li	a0,0
    98f4:	fce8ece3          	bltu	a7,a4,98cc <__gesf2+0x4a>
    98f8:	8082                	ret
    98fa:	fe0890e3          	bnez	a7,98da <__gesf2+0x58>
    98fe:	8082                	ret
    9900:	e719                	bnez	a4,990e <__gesf2+0x8c>
    9902:	fcb79ce3          	bne	a5,a1,98da <__gesf2+0x58>
    9906:	4501                	li	a0,0
    9908:	8082                	ret
    990a:	557d                	li	a0,-1
    990c:	8082                	ret
    990e:	5579                	li	a0,-2
    9910:	8082                	ret
    9912:	fcb78ee3          	beq	a5,a1,98ee <__gesf2+0x6c>
    9916:	b7d1                	j	98da <__gesf2+0x58>

00009918 <__lesf2>:
    9918:	01755613          	srli	a2,a0,0x17
    991c:	00800737          	lui	a4,0x800
    9920:	177d                	addi	a4,a4,-1 # 7fffff <_data_lma+0x7f441b>
    9922:	0175d693          	srli	a3,a1,0x17
    9926:	0ff67613          	zext.b	a2,a2
    992a:	0ff00813          	li	a6,255
    992e:	00a778b3          	and	a7,a4,a0
    9932:	01f55793          	srli	a5,a0,0x1f
    9936:	8f6d                	and	a4,a4,a1
    9938:	0ff6f513          	zext.b	a0,a3
    993c:	81fd                	srli	a1,a1,0x1f
    993e:	03060663          	beq	a2,a6,996a <__lesf2+0x52>
    9942:	01050a63          	beq	a0,a6,9956 <__lesf2+0x3e>
    9946:	ee05                	bnez	a2,997e <__lesf2+0x66>
    9948:	e911                	bnez	a0,995c <__lesf2+0x44>
    994a:	cb29                	beqz	a4,999c <__lesf2+0x84>
    994c:	04089f63          	bnez	a7,99aa <__lesf2+0x92>
    9950:	c9b9                	beqz	a1,99a6 <__lesf2+0x8e>
    9952:	852e                	mv	a0,a1
    9954:	8082                	ret
    9956:	4509                	li	a0,2
    9958:	eb01                	bnez	a4,9968 <__lesf2+0x50>
    995a:	e219                	bnez	a2,9960 <__lesf2+0x48>
    995c:	fe088ae3          	beqz	a7,9950 <__lesf2+0x38>
    9960:	02b78b63          	beq	a5,a1,9996 <__lesf2+0x7e>
    9964:	4505                	li	a0,1
    9966:	e3a1                	bnez	a5,99a6 <__lesf2+0x8e>
    9968:	8082                	ret
    996a:	02089c63          	bnez	a7,99a2 <__lesf2+0x8a>
    996e:	fec51be3          	bne	a0,a2,9964 <__lesf2+0x4c>
    9972:	4509                	li	a0,2
    9974:	fb75                	bnez	a4,9968 <__lesf2+0x50>
    9976:	feb797e3          	bne	a5,a1,9964 <__lesf2+0x4c>
    997a:	4501                	li	a0,0
    997c:	8082                	ret
    997e:	d17d                	beqz	a0,9964 <__lesf2+0x4c>
    9980:	feb792e3          	bne	a5,a1,9964 <__lesf2+0x4c>
    9984:	fec540e3          	blt	a0,a2,9964 <__lesf2+0x4c>
    9988:	00a64763          	blt	a2,a0,9996 <__lesf2+0x7e>
    998c:	fd176ce3          	bltu	a4,a7,9964 <__lesf2+0x4c>
    9990:	4501                	li	a0,0
    9992:	fce8fbe3          	bgeu	a7,a4,9968 <__lesf2+0x50>
    9996:	cb81                	beqz	a5,99a6 <__lesf2+0x8e>
    9998:	853e                	mv	a0,a5
    999a:	8082                	ret
    999c:	fc0894e3          	bnez	a7,9964 <__lesf2+0x4c>
    99a0:	8082                	ret
    99a2:	4509                	li	a0,2
    99a4:	8082                	ret
    99a6:	557d                	li	a0,-1
    99a8:	8082                	ret
    99aa:	feb781e3          	beq	a5,a1,998c <__lesf2+0x74>
    99ae:	bf5d                	j	9964 <__lesf2+0x4c>

000099b0 <__mulsf3>:
    99b0:	7179                	addi	sp,sp,-48
    99b2:	01755793          	srli	a5,a0,0x17
    99b6:	cc52                	sw	s4,24(sp)
    99b8:	ca56                	sw	s5,20(sp)
    99ba:	00951713          	slli	a4,a0,0x9
    99be:	d606                	sw	ra,44(sp)
    99c0:	d422                	sw	s0,40(sp)
    99c2:	d226                	sw	s1,36(sp)
    99c4:	d04a                	sw	s2,32(sp)
    99c6:	ce4e                	sw	s3,28(sp)
    99c8:	c85a                	sw	s6,16(sp)
    99ca:	0ff7f793          	zext.b	a5,a5
    99ce:	00975a93          	srli	s5,a4,0x9
    99d2:	01f55a13          	srli	s4,a0,0x1f
    99d6:	10078b63          	beqz	a5,9aec <__mulsf3+0x13c>
    99da:	0ff00713          	li	a4,255
    99de:	10e78d63          	beq	a5,a4,9af8 <__mulsf3+0x148>
    99e2:	003a9713          	slli	a4,s5,0x3
    99e6:	040006b7          	lui	a3,0x4000
    99ea:	00d76ab3          	or	s5,a4,a3
    99ee:	f8178493          	addi	s1,a5,-127
    99f2:	4901                	li	s2,0
    99f4:	4b01                	li	s6,0
    99f6:	0175d793          	srli	a5,a1,0x17
    99fa:	00959413          	slli	s0,a1,0x9
    99fe:	0ff7f793          	zext.b	a5,a5
    9a02:	8025                	srli	s0,s0,0x9
    9a04:	01f5d993          	srli	s3,a1,0x1f
    9a08:	c7f9                	beqz	a5,9ad6 <__mulsf3+0x126>
    9a0a:	0ff00713          	li	a4,255
    9a0e:	06e78263          	beq	a5,a4,9a72 <__mulsf3+0xc2>
    9a12:	f8178793          	addi	a5,a5,-127
    9a16:	00978533          	add	a0,a5,s1
    9a1a:	040e                	slli	s0,s0,0x3
    9a1c:	04000737          	lui	a4,0x4000
    9a20:	47a9                	li	a5,10
    9a22:	8c59                	or	s0,s0,a4
    9a24:	4681                	li	a3,0
    9a26:	00150493          	addi	s1,a0,1
    9a2a:	0f27cf63          	blt	a5,s2,9b28 <__mulsf3+0x178>
    9a2e:	013a45b3          	xor	a1,s4,s3
    9a32:	4709                	li	a4,2
    9a34:	882e                	mv	a6,a1
    9a36:	05274c63          	blt	a4,s2,9a8e <__mulsf3+0xde>
    9a3a:	197d                	addi	s2,s2,-1
    9a3c:	4605                	li	a2,1
    9a3e:	13266c63          	bltu	a2,s2,9b76 <__mulsf3+0x1c6>
    9a42:	0ce68263          	beq	a3,a4,9b06 <__mulsf3+0x156>
    9a46:	4785                	li	a5,1
    9a48:	85c2                	mv	a1,a6
    9a4a:	06f69463          	bne	a3,a5,9ab2 <__mulsf3+0x102>
    9a4e:	4781                	li	a5,0
    9a50:	4701                	li	a4,0
    9a52:	50b2                	lw	ra,44(sp)
    9a54:	5422                	lw	s0,40(sp)
    9a56:	01779513          	slli	a0,a5,0x17
    9a5a:	8d59                	or	a0,a0,a4
    9a5c:	01f59793          	slli	a5,a1,0x1f
    9a60:	5492                	lw	s1,36(sp)
    9a62:	5902                	lw	s2,32(sp)
    9a64:	49f2                	lw	s3,28(sp)
    9a66:	4a62                	lw	s4,24(sp)
    9a68:	4ad2                	lw	s5,20(sp)
    9a6a:	4b42                	lw	s6,16(sp)
    9a6c:	8d5d                	or	a0,a0,a5
    9a6e:	6145                	addi	sp,sp,48
    9a70:	8082                	ret
    9a72:	0ff48513          	addi	a0,s1,255 # 8000ff <_data_lma+0x7f451b>
    9a76:	cc49                	beqz	s0,9b10 <__mulsf3+0x160>
    9a78:	013a45b3          	xor	a1,s4,s3
    9a7c:	00396913          	ori	s2,s2,3
    9a80:	4729                	li	a4,10
    9a82:	882e                	mv	a6,a1
    9a84:	10048493          	addi	s1,s1,256
    9a88:	1f274763          	blt	a4,s2,9c76 <__mulsf3+0x2c6>
    9a8c:	468d                	li	a3,3
    9a8e:	4705                	li	a4,1
    9a90:	01271733          	sll	a4,a4,s2
    9a94:	53077613          	andi	a2,a4,1328
    9a98:	ce19                	beqz	a2,9ab6 <__mulsf3+0x106>
    9a9a:	4789                	li	a5,2
    9a9c:	06fb0563          	beq	s6,a5,9b06 <__mulsf3+0x156>
    9aa0:	478d                	li	a5,3
    9aa2:	02fb0463          	beq	s6,a5,9aca <__mulsf3+0x11a>
    9aa6:	86da                	mv	a3,s6
    9aa8:	4785                	li	a5,1
    9aaa:	8456                	mv	s0,s5
    9aac:	85c2                	mv	a1,a6
    9aae:	faf680e3          	beq	a3,a5,9a4e <__mulsf3+0x9e>
    9ab2:	8526                	mv	a0,s1
    9ab4:	a235                	j	9be0 <__mulsf3+0x230>
    9ab6:	24077793          	andi	a5,a4,576
    9aba:	eb81                	bnez	a5,9aca <__mulsf3+0x11a>
    9abc:	08877713          	andi	a4,a4,136
    9ac0:	cb5d                	beqz	a4,9b76 <__mulsf3+0x1c6>
    9ac2:	884e                	mv	a6,s3
    9ac4:	8aa2                	mv	s5,s0
    9ac6:	8b36                	mv	s6,a3
    9ac8:	bfc9                	j	9a9a <__mulsf3+0xea>
    9aca:	4581                	li	a1,0
    9acc:	0ff00793          	li	a5,255
    9ad0:	00400737          	lui	a4,0x400
    9ad4:	bfbd                	j	9a52 <__mulsf3+0xa2>
    9ad6:	ec3d                	bnez	s0,9b54 <__mulsf3+0x1a4>
    9ad8:	8526                	mv	a0,s1
    9ada:	00196913          	ori	s2,s2,1
    9ade:	47a9                	li	a5,10
    9ae0:	4685                	li	a3,1
    9ae2:	00150493          	addi	s1,a0,1
    9ae6:	f527d4e3          	bge	a5,s2,9a2e <__mulsf3+0x7e>
    9aea:	a83d                	j	9b28 <__mulsf3+0x178>
    9aec:	040a9563          	bnez	s5,9b36 <__mulsf3+0x186>
    9af0:	4911                	li	s2,4
    9af2:	4481                	li	s1,0
    9af4:	4b05                	li	s6,1
    9af6:	b701                	j	99f6 <__mulsf3+0x46>
    9af8:	020a9a63          	bnez	s5,9b2c <__mulsf3+0x17c>
    9afc:	4921                	li	s2,8
    9afe:	0ff00493          	li	s1,255
    9b02:	4b09                	li	s6,2
    9b04:	bdcd                	j	99f6 <__mulsf3+0x46>
    9b06:	85c2                	mv	a1,a6
    9b08:	0ff00793          	li	a5,255
    9b0c:	4701                	li	a4,0
    9b0e:	b791                	j	9a52 <__mulsf3+0xa2>
    9b10:	00296913          	ori	s2,s2,2
    9b14:	47a9                	li	a5,10
    9b16:	10048493          	addi	s1,s1,256
    9b1a:	4739                	li	a4,14
    9b1c:	4689                	li	a3,2
    9b1e:	f127d8e3          	bge	a5,s2,9a2e <__mulsf3+0x7e>
    9b22:	47ad                	li	a5,11
    9b24:	f8f70fe3          	beq	a4,a5,9ac2 <__mulsf3+0x112>
    9b28:	8852                	mv	a6,s4
    9b2a:	bf85                	j	9a9a <__mulsf3+0xea>
    9b2c:	4931                	li	s2,12
    9b2e:	0ff00493          	li	s1,255
    9b32:	4b0d                	li	s6,3
    9b34:	b5c9                	j	99f6 <__mulsf3+0x46>
    9b36:	8556                	mv	a0,s5
    9b38:	c62e                	sw	a1,12(sp)
    9b3a:	277d                	jal	a2e8 <__clzsi2>
    9b3c:	ffb50793          	addi	a5,a0,-5
    9b40:	00fa9ab3          	sll	s5,s5,a5
    9b44:	f8a00793          	li	a5,-118
    9b48:	45b2                	lw	a1,12(sp)
    9b4a:	40a784b3          	sub	s1,a5,a0
    9b4e:	4901                	li	s2,0
    9b50:	4b01                	li	s6,0
    9b52:	b555                	j	99f6 <__mulsf3+0x46>
    9b54:	8522                	mv	a0,s0
    9b56:	2f49                	jal	a2e8 <__clzsi2>
    9b58:	40a487b3          	sub	a5,s1,a0
    9b5c:	ffb50713          	addi	a4,a0,-5
    9b60:	f8a78513          	addi	a0,a5,-118
    9b64:	47a9                	li	a5,10
    9b66:	00e41433          	sll	s0,s0,a4
    9b6a:	4681                	li	a3,0
    9b6c:	00150493          	addi	s1,a0,1
    9b70:	eb27dfe3          	bge	a5,s2,9a2e <__mulsf3+0x7e>
    9b74:	bf55                	j	9b28 <__mulsf3+0x178>
    9b76:	68c1                	lui	a7,0x10
    9b78:	fff88793          	addi	a5,a7,-1 # ffff <_data_lma+0x441b>
    9b7c:	010ad613          	srli	a2,s5,0x10
    9b80:	01045813          	srli	a6,s0,0x10
    9b84:	00fafab3          	and	s5,s5,a5
    9b88:	8fe1                	and	a5,a5,s0
    9b8a:	035786b3          	mul	a3,a5,s5
    9b8e:	02f607b3          	mul	a5,a2,a5
    9b92:	0106d713          	srli	a4,a3,0x10
    9b96:	03580ab3          	mul	s5,a6,s5
    9b9a:	9abe                	add	s5,s5,a5
    9b9c:	9756                	add	a4,a4,s5
    9b9e:	03060633          	mul	a2,a2,a6
    9ba2:	00f77363          	bgeu	a4,a5,9ba8 <__mulsf3+0x1f8>
    9ba6:	9646                	add	a2,a2,a7
    9ba8:	6841                	lui	a6,0x10
    9baa:	187d                	addi	a6,a6,-1 # ffff <_data_lma+0x441b>
    9bac:	010777b3          	and	a5,a4,a6
    9bb0:	0106f6b3          	and	a3,a3,a6
    9bb4:	07c2                	slli	a5,a5,0x10
    9bb6:	97b6                	add	a5,a5,a3
    9bb8:	00679693          	slli	a3,a5,0x6
    9bbc:	01075413          	srli	s0,a4,0x10
    9bc0:	83e9                	srli	a5,a5,0x1a
    9bc2:	00d03733          	snez	a4,a3
    9bc6:	9432                	add	s0,s0,a2
    9bc8:	8fd9                	or	a5,a5,a4
    9bca:	041a                	slli	s0,s0,0x6
    9bcc:	8c5d                	or	s0,s0,a5
    9bce:	080007b7          	lui	a5,0x8000
    9bd2:	8fe1                	and	a5,a5,s0
    9bd4:	c791                	beqz	a5,9be0 <__mulsf3+0x230>
    9bd6:	00145793          	srli	a5,s0,0x1
    9bda:	8805                	andi	s0,s0,1
    9bdc:	8c5d                	or	s0,s0,a5
    9bde:	8526                	mv	a0,s1
    9be0:	07f50793          	addi	a5,a0,127
    9be4:	02f05f63          	blez	a5,9c22 <__mulsf3+0x272>
    9be8:	00747713          	andi	a4,s0,7
    9bec:	c719                	beqz	a4,9bfa <__mulsf3+0x24a>
    9bee:	00f47713          	andi	a4,s0,15
    9bf2:	4691                	li	a3,4
    9bf4:	00d70363          	beq	a4,a3,9bfa <__mulsf3+0x24a>
    9bf8:	0411                	addi	s0,s0,4
    9bfa:	08000737          	lui	a4,0x8000
    9bfe:	8f61                	and	a4,a4,s0
    9c00:	c719                	beqz	a4,9c0e <__mulsf3+0x25e>
    9c02:	f80007b7          	lui	a5,0xf8000
    9c06:	17fd                	addi	a5,a5,-1 # f7ffffff <_eusrstack+0xd7ffafff>
    9c08:	8c7d                	and	s0,s0,a5
    9c0a:	08050793          	addi	a5,a0,128
    9c0e:	0fe00713          	li	a4,254
    9c12:	04f74963          	blt	a4,a5,9c64 <__mulsf3+0x2b4>
    9c16:	00641713          	slli	a4,s0,0x6
    9c1a:	8325                	srli	a4,a4,0x9
    9c1c:	0ff7f793          	zext.b	a5,a5
    9c20:	bd0d                	j	9a52 <__mulsf3+0xa2>
    9c22:	4685                	li	a3,1
    9c24:	c799                	beqz	a5,9c32 <__mulsf3+0x282>
    9c26:	8e9d                	sub	a3,a3,a5
    9c28:	466d                	li	a2,27
    9c2a:	4781                	li	a5,0
    9c2c:	4701                	li	a4,0
    9c2e:	e2d642e3          	blt	a2,a3,9a52 <__mulsf3+0xa2>
    9c32:	09e50713          	addi	a4,a0,158
    9c36:	00e41733          	sll	a4,s0,a4
    9c3a:	00e03733          	snez	a4,a4
    9c3e:	00d457b3          	srl	a5,s0,a3
    9c42:	8fd9                	or	a5,a5,a4
    9c44:	0077f713          	andi	a4,a5,7
    9c48:	c719                	beqz	a4,9c56 <__mulsf3+0x2a6>
    9c4a:	00f7f713          	andi	a4,a5,15
    9c4e:	4691                	li	a3,4
    9c50:	00d70363          	beq	a4,a3,9c56 <__mulsf3+0x2a6>
    9c54:	0791                	addi	a5,a5,4
    9c56:	04000737          	lui	a4,0x4000
    9c5a:	8f7d                	and	a4,a4,a5
    9c5c:	cb01                	beqz	a4,9c6c <__mulsf3+0x2bc>
    9c5e:	4785                	li	a5,1
    9c60:	4701                	li	a4,0
    9c62:	bbc5                	j	9a52 <__mulsf3+0xa2>
    9c64:	0ff00793          	li	a5,255
    9c68:	4701                	li	a4,0
    9c6a:	b3e5                	j	9a52 <__mulsf3+0xa2>
    9c6c:	079a                	slli	a5,a5,0x6
    9c6e:	0097d713          	srli	a4,a5,0x9
    9c72:	4781                	li	a5,0
    9c74:	bbf9                	j	9a52 <__mulsf3+0xa2>
    9c76:	46bd                	li	a3,15
    9c78:	4581                	li	a1,0
    9c7a:	00400737          	lui	a4,0x400
    9c7e:	dcd90ae3          	beq	s2,a3,9a52 <__mulsf3+0xa2>
    9c82:	472d                	li	a4,11
    9c84:	468d                	li	a3,3
    9c86:	bd71                	j	9b22 <__mulsf3+0x172>

00009c88 <__subsf3>:
    9c88:	008007b7          	lui	a5,0x800
    9c8c:	1141                	addi	sp,sp,-16
    9c8e:	17fd                	addi	a5,a5,-1 # 7fffff <_data_lma+0x7f441b>
    9c90:	0175d613          	srli	a2,a1,0x17
    9c94:	00a7f733          	and	a4,a5,a0
    9c98:	01755693          	srli	a3,a0,0x17
    9c9c:	8fed                	and	a5,a5,a1
    9c9e:	c226                	sw	s1,4(sp)
    9ca0:	c04a                	sw	s2,0(sp)
    9ca2:	01f55493          	srli	s1,a0,0x1f
    9ca6:	c606                	sw	ra,12(sp)
    9ca8:	c422                	sw	s0,8(sp)
    9caa:	0ff67613          	zext.b	a2,a2
    9cae:	0ff00513          	li	a0,255
    9cb2:	0ff6f913          	zext.b	s2,a3
    9cb6:	8826                	mv	a6,s1
    9cb8:	070e                	slli	a4,a4,0x3
    9cba:	81fd                	srli	a1,a1,0x1f
    9cbc:	00379693          	slli	a3,a5,0x3
    9cc0:	04a60363          	beq	a2,a0,9d06 <__subsf3+0x7e>
    9cc4:	0015c593          	xori	a1,a1,1
    9cc8:	40c907b3          	sub	a5,s2,a2
    9ccc:	00b48f63          	beq	s1,a1,9cea <__subsf3+0x62>
    9cd0:	30f05a63          	blez	a5,9fe4 <__subsf3+0x35c>
    9cd4:	e235                	bnez	a2,9d38 <__subsf3+0xb0>
    9cd6:	14068f63          	beqz	a3,9e34 <__subsf3+0x1ac>
    9cda:	fff78613          	addi	a2,a5,-1
    9cde:	2a060263          	beqz	a2,9f82 <__subsf3+0x2fa>
    9ce2:	02a78f63          	beq	a5,a0,9d20 <__subsf3+0x98>
    9ce6:	87b2                	mv	a5,a2
    9ce8:	a8a9                	j	9d42 <__subsf3+0xba>
    9cea:	30f05963          	blez	a5,9ffc <__subsf3+0x374>
    9cee:	ca7d                	beqz	a2,9de4 <__subsf3+0x15c>
    9cf0:	02a90863          	beq	s2,a0,9d20 <__subsf3+0x98>
    9cf4:	04000637          	lui	a2,0x4000
    9cf8:	8ed1                	or	a3,a3,a2
    9cfa:	466d                	li	a2,27
    9cfc:	14f65263          	bge	a2,a5,9e40 <__subsf3+0x1b8>
    9d00:	0705                	addi	a4,a4,1 # 400001 <_data_lma+0x3f441d>
    9d02:	87ca                	mv	a5,s2
    9d04:	a88d                	j	9d76 <__subsf3+0xee>
    9d06:	f0190793          	addi	a5,s2,-255
    9d0a:	e6d5                	bnez	a3,9db6 <__subsf3+0x12e>
    9d0c:	0015c593          	xori	a1,a1,1
    9d10:	0eb48363          	beq	s1,a1,9df6 <__subsf3+0x16e>
    9d14:	18078d63          	beqz	a5,9eae <__subsf3+0x226>
    9d18:	10090963          	beqz	s2,9e2a <__subsf3+0x1a2>
    9d1c:	84ae                	mv	s1,a1
    9d1e:	8736                	mv	a4,a3
    9d20:	830d                	srli	a4,a4,0x3
    9d22:	0014f813          	andi	a6,s1,1
    9d26:	0ff00513          	li	a0,255
    9d2a:	cb3d                	beqz	a4,9da0 <__subsf3+0x118>
    9d2c:	4801                	li	a6,0
    9d2e:	0ff00513          	li	a0,255
    9d32:	00400737          	lui	a4,0x400
    9d36:	a0ad                	j	9da0 <__subsf3+0x118>
    9d38:	fea904e3          	beq	s2,a0,9d20 <__subsf3+0x98>
    9d3c:	04000637          	lui	a2,0x4000
    9d40:	8ed1                	or	a3,a3,a2
    9d42:	45ed                	li	a1,27
    9d44:	4605                	li	a2,1
    9d46:	00f5cd63          	blt	a1,a5,9d60 <__subsf3+0xd8>
    9d4a:	02000613          	li	a2,32
    9d4e:	8e1d                	sub	a2,a2,a5
    9d50:	00c69633          	sll	a2,a3,a2
    9d54:	00f6d6b3          	srl	a3,a3,a5
    9d58:	00c037b3          	snez	a5,a2
    9d5c:	00f6e633          	or	a2,a3,a5
    9d60:	8f11                	sub	a4,a4,a2
    9d62:	040007b7          	lui	a5,0x4000
    9d66:	00f776b3          	and	a3,a4,a5
    9d6a:	10069463          	bnez	a3,9e72 <__subsf3+0x1ea>
    9d6e:	00777693          	andi	a3,a4,7
    9d72:	87ca                	mv	a5,s2
    9d74:	c2e1                	beqz	a3,9e34 <__subsf3+0x1ac>
    9d76:	00f77693          	andi	a3,a4,15
    9d7a:	4611                	li	a2,4
    9d7c:	00c68363          	beq	a3,a2,9d82 <__subsf3+0xfa>
    9d80:	0711                	addi	a4,a4,4 # 400004 <_data_lma+0x3f4420>
    9d82:	040006b7          	lui	a3,0x4000
    9d86:	8ef9                	and	a3,a3,a4
    9d88:	c6d5                	beqz	a3,9e34 <__subsf3+0x1ac>
    9d8a:	0785                	addi	a5,a5,1 # 4000001 <_data_lma+0x3ff441d>
    9d8c:	0ff00693          	li	a3,255
    9d90:	0014f813          	andi	a6,s1,1
    9d94:	0cd78b63          	beq	a5,a3,9e6a <__subsf3+0x1e2>
    9d98:	071a                	slli	a4,a4,0x6
    9d9a:	0ff7f513          	zext.b	a0,a5
    9d9e:	8325                	srli	a4,a4,0x9
    9da0:	40b2                	lw	ra,12(sp)
    9da2:	4422                	lw	s0,8(sp)
    9da4:	055e                	slli	a0,a0,0x17
    9da6:	8d59                	or	a0,a0,a4
    9da8:	01f81793          	slli	a5,a6,0x1f
    9dac:	4492                	lw	s1,4(sp)
    9dae:	4902                	lw	s2,0(sp)
    9db0:	8d5d                	or	a0,a0,a5
    9db2:	0141                	addi	sp,sp,16
    9db4:	8082                	ret
    9db6:	f4b49fe3          	bne	s1,a1,9d14 <__subsf3+0x8c>
    9dba:	c3b9                	beqz	a5,9e00 <__subsf3+0x178>
    9dbc:	1c091163          	bnez	s2,9f7e <__subsf3+0x2f6>
    9dc0:	0ff00793          	li	a5,255
    9dc4:	c73d                	beqz	a4,9e32 <__subsf3+0x1aa>
    9dc6:	fff78593          	addi	a1,a5,-1
    9dca:	12058963          	beqz	a1,9efc <__subsf3+0x274>
    9dce:	0ff00513          	li	a0,255
    9dd2:	1aa78663          	beq	a5,a0,9f7e <__subsf3+0x2f6>
    9dd6:	47ed                	li	a5,27
    9dd8:	1ab7db63          	bge	a5,a1,9f8e <__subsf3+0x306>
    9ddc:	00168713          	addi	a4,a3,1 # 4000001 <_data_lma+0x3ff441d>
    9de0:	87b2                	mv	a5,a2
    9de2:	bf51                	j	9d76 <__subsf3+0xee>
    9de4:	caa1                	beqz	a3,9e34 <__subsf3+0x1ac>
    9de6:	fff78613          	addi	a2,a5,-1
    9dea:	10060963          	beqz	a2,9efc <__subsf3+0x274>
    9dee:	f2a789e3          	beq	a5,a0,9d20 <__subsf3+0x98>
    9df2:	87b2                	mv	a5,a2
    9df4:	b719                	j	9cfa <__subsf3+0x72>
    9df6:	c789                	beqz	a5,9e00 <__subsf3+0x178>
    9df8:	fc0904e3          	beqz	s2,9dc0 <__subsf3+0x138>
    9dfc:	4701                	li	a4,0
    9dfe:	b70d                	j	9d20 <__subsf3+0x98>
    9e00:	00190793          	addi	a5,s2,1
    9e04:	0fe7f613          	andi	a2,a5,254
    9e08:	14061563          	bnez	a2,9f52 <__subsf3+0x2ca>
    9e0c:	16091863          	bnez	s2,9f7c <__subsf3+0x2f4>
    9e10:	1a070663          	beqz	a4,9fbc <__subsf3+0x334>
    9e14:	1a069663          	bnez	a3,9fc0 <__subsf3+0x338>
    9e18:	830d                	srli	a4,a4,0x3
    9e1a:	4781                	li	a5,0
    9e1c:	0726                	slli	a4,a4,0x9
    9e1e:	8325                	srli	a4,a4,0x9
    9e20:	0ff7f513          	zext.b	a0,a5
    9e24:	0014f813          	andi	a6,s1,1
    9e28:	bfa5                	j	9da0 <__subsf3+0x118>
    9e2a:	0ff00793          	li	a5,255
    9e2e:	eb65                	bnez	a4,9f1e <__subsf3+0x296>
    9e30:	84ae                	mv	s1,a1
    9e32:	8736                	mv	a4,a3
    9e34:	0ff00693          	li	a3,255
    9e38:	830d                	srli	a4,a4,0x3
    9e3a:	eed784e3          	beq	a5,a3,9d22 <__subsf3+0x9a>
    9e3e:	bff9                	j	9e1c <__subsf3+0x194>
    9e40:	02000613          	li	a2,32
    9e44:	8e1d                	sub	a2,a2,a5
    9e46:	00c69633          	sll	a2,a3,a2
    9e4a:	00c03633          	snez	a2,a2
    9e4e:	00f6d6b3          	srl	a3,a3,a5
    9e52:	8ed1                	or	a3,a3,a2
    9e54:	9736                	add	a4,a4,a3
    9e56:	040007b7          	lui	a5,0x4000
    9e5a:	8ff9                	and	a5,a5,a4
    9e5c:	db89                	beqz	a5,9d6e <__subsf3+0xe6>
    9e5e:	00190793          	addi	a5,s2,1
    9e62:	0ff00693          	li	a3,255
    9e66:	0ad79363          	bne	a5,a3,9f0c <__subsf3+0x284>
    9e6a:	0ff00513          	li	a0,255
    9e6e:	4701                	li	a4,0
    9e70:	bf05                	j	9da0 <__subsf3+0x118>
    9e72:	17fd                	addi	a5,a5,-1 # 3ffffff <_data_lma+0x3ff441b>
    9e74:	00f77433          	and	s0,a4,a5
    9e78:	8522                	mv	a0,s0
    9e7a:	21bd                	jal	a2e8 <__clzsi2>
    9e7c:	ffb50793          	addi	a5,a0,-5
    9e80:	00f41433          	sll	s0,s0,a5
    9e84:	0527ca63          	blt	a5,s2,9ed8 <__subsf3+0x250>
    9e88:	412787b3          	sub	a5,a5,s2
    9e8c:	0785                	addi	a5,a5,1
    9e8e:	02000713          	li	a4,32
    9e92:	8f1d                	sub	a4,a4,a5
    9e94:	00e41733          	sll	a4,s0,a4
    9e98:	00e03733          	snez	a4,a4
    9e9c:	00f45433          	srl	s0,s0,a5
    9ea0:	8f41                	or	a4,a4,s0
    9ea2:	4781                	li	a5,0
    9ea4:	00777693          	andi	a3,a4,7
    9ea8:	ec0697e3          	bnez	a3,9d76 <__subsf3+0xee>
    9eac:	bdd9                	j	9d82 <__subsf3+0xfa>
    9eae:	00190793          	addi	a5,s2,1
    9eb2:	0fe7f793          	andi	a5,a5,254
    9eb6:	eb85                	bnez	a5,9ee6 <__subsf3+0x25e>
    9eb8:	0a091a63          	bnez	s2,9f6c <__subsf3+0x2e4>
    9ebc:	cf65                	beqz	a4,9fb4 <__subsf3+0x32c>
    9ebe:	dea9                	beqz	a3,9e18 <__subsf3+0x190>
    9ec0:	40d707b3          	sub	a5,a4,a3
    9ec4:	04000637          	lui	a2,0x4000
    9ec8:	8e7d                	and	a2,a2,a5
    9eca:	10060863          	beqz	a2,9fda <__subsf3+0x352>
    9ece:	40e68733          	sub	a4,a3,a4
    9ed2:	4781                	li	a5,0
    9ed4:	84ae                	mv	s1,a1
    9ed6:	b7f9                	j	9ea4 <__subsf3+0x21c>
    9ed8:	fc000737          	lui	a4,0xfc000
    9edc:	177d                	addi	a4,a4,-1 # fbffffff <_eusrstack+0xdbffafff>
    9ede:	40f907b3          	sub	a5,s2,a5
    9ee2:	8f61                	and	a4,a4,s0
    9ee4:	b7c1                	j	9ea4 <__subsf3+0x21c>
    9ee6:	40d70433          	sub	s0,a4,a3
    9eea:	040007b7          	lui	a5,0x4000
    9eee:	8fe1                	and	a5,a5,s0
    9ef0:	e3d1                	bnez	a5,9f74 <__subsf3+0x2ec>
    9ef2:	f059                	bnez	s0,9e78 <__subsf3+0x1f0>
    9ef4:	4801                	li	a6,0
    9ef6:	4501                	li	a0,0
    9ef8:	4701                	li	a4,0
    9efa:	b55d                	j	9da0 <__subsf3+0x118>
    9efc:	9736                	add	a4,a4,a3
    9efe:	040006b7          	lui	a3,0x4000
    9f02:	8ef9                	and	a3,a3,a4
    9f04:	4789                	li	a5,2
    9f06:	4905                	li	s2,1
    9f08:	e60683e3          	beqz	a3,9d6e <__subsf3+0xe6>
    9f0c:	7e000637          	lui	a2,0x7e000
    9f10:	00175693          	srli	a3,a4,0x1
    9f14:	167d                	addi	a2,a2,-1 # 7dffffff <_eusrstack+0x5dffafff>
    9f16:	8b05                	andi	a4,a4,1
    9f18:	8ef1                	and	a3,a3,a2
    9f1a:	8f55                	or	a4,a4,a3
    9f1c:	b761                	j	9ea4 <__subsf3+0x21c>
    9f1e:	fff78513          	addi	a0,a5,-1 # 3ffffff <_data_lma+0x3ff441b>
    9f22:	c541                	beqz	a0,9faa <__subsf3+0x322>
    9f24:	0ff00813          	li	a6,255
    9f28:	84ae                	mv	s1,a1
    9f2a:	05078a63          	beq	a5,a6,9f7e <__subsf3+0x2f6>
    9f2e:	45ed                	li	a1,27
    9f30:	4785                	li	a5,1
    9f32:	00a5cc63          	blt	a1,a0,9f4a <__subsf3+0x2c2>
    9f36:	02000793          	li	a5,32
    9f3a:	8f89                	sub	a5,a5,a0
    9f3c:	00f717b3          	sll	a5,a4,a5
    9f40:	00a75533          	srl	a0,a4,a0
    9f44:	00f037b3          	snez	a5,a5
    9f48:	8fc9                	or	a5,a5,a0
    9f4a:	40f68733          	sub	a4,a3,a5
    9f4e:	8932                	mv	s2,a2
    9f50:	bd09                	j	9d62 <__subsf3+0xda>
    9f52:	0ff00613          	li	a2,255
    9f56:	f0c78ae3          	beq	a5,a2,9e6a <__subsf3+0x1e2>
    9f5a:	96ba                	add	a3,a3,a4
    9f5c:	0016d713          	srli	a4,a3,0x1
    9f60:	00777613          	andi	a2,a4,7
    9f64:	e00619e3          	bnez	a2,9d76 <__subsf3+0xee>
    9f68:	830d                	srli	a4,a4,0x3
    9f6a:	bd4d                	j	9e1c <__subsf3+0x194>
    9f6c:	ef11                	bnez	a4,9f88 <__subsf3+0x300>
    9f6e:	da068fe3          	beqz	a3,9d2c <__subsf3+0xa4>
    9f72:	b36d                	j	9d1c <__subsf3+0x94>
    9f74:	40e68433          	sub	s0,a3,a4
    9f78:	84ae                	mv	s1,a1
    9f7a:	bdfd                	j	9e78 <__subsf3+0x1f0>
    9f7c:	e711                	bnez	a4,9f88 <__subsf3+0x300>
    9f7e:	8736                	mv	a4,a3
    9f80:	b345                	j	9d20 <__subsf3+0x98>
    9f82:	8f15                	sub	a4,a4,a3
    9f84:	4905                	li	s2,1
    9f86:	bbf1                	j	9d62 <__subsf3+0xda>
    9f88:	d8068ce3          	beqz	a3,9d20 <__subsf3+0x98>
    9f8c:	b345                	j	9d2c <__subsf3+0xa4>
    9f8e:	02000793          	li	a5,32
    9f92:	8f8d                	sub	a5,a5,a1
    9f94:	00f717b3          	sll	a5,a4,a5
    9f98:	00b755b3          	srl	a1,a4,a1
    9f9c:	00f037b3          	snez	a5,a5
    9fa0:	8ddd                	or	a1,a1,a5
    9fa2:	00d58733          	add	a4,a1,a3
    9fa6:	8932                	mv	s2,a2
    9fa8:	b57d                	j	9e56 <__subsf3+0x1ce>
    9faa:	40e68733          	sub	a4,a3,a4
    9fae:	84ae                	mv	s1,a1
    9fb0:	4905                	li	s2,1
    9fb2:	bb45                	j	9d62 <__subsf3+0xda>
    9fb4:	d2a1                	beqz	a3,9ef4 <__subsf3+0x26c>
    9fb6:	84ae                	mv	s1,a1
    9fb8:	8736                	mv	a4,a3
    9fba:	bdb9                	j	9e18 <__subsf3+0x190>
    9fbc:	8736                	mv	a4,a3
    9fbe:	bda9                	j	9e18 <__subsf3+0x190>
    9fc0:	9736                	add	a4,a4,a3
    9fc2:	04000637          	lui	a2,0x4000
    9fc6:	8e79                	and	a2,a2,a4
    9fc8:	4781                	li	a5,0
    9fca:	de59                	beqz	a2,9f68 <__subsf3+0x2e0>
    9fcc:	fc0007b7          	lui	a5,0xfc000
    9fd0:	17fd                	addi	a5,a5,-1 # fbffffff <_eusrstack+0xdbffafff>
    9fd2:	8f7d                	and	a4,a4,a5
    9fd4:	830d                	srli	a4,a4,0x3
    9fd6:	4785                	li	a5,1
    9fd8:	b591                	j	9e1c <__subsf3+0x194>
    9fda:	df89                	beqz	a5,9ef4 <__subsf3+0x26c>
    9fdc:	873e                	mv	a4,a5
    9fde:	830d                	srli	a4,a4,0x3
    9fe0:	4781                	li	a5,0
    9fe2:	bd2d                	j	9e1c <__subsf3+0x194>
    9fe4:	ec0785e3          	beqz	a5,9eae <__subsf3+0x226>
    9fe8:	41260533          	sub	a0,a2,s2
    9fec:	87aa                	mv	a5,a0
    9fee:	e40900e3          	beqz	s2,9e2e <__subsf3+0x1a6>
    9ff2:	040007b7          	lui	a5,0x4000
    9ff6:	8f5d                	or	a4,a4,a5
    9ff8:	84ae                	mv	s1,a1
    9ffa:	bf15                	j	9f2e <__subsf3+0x2a6>
    9ffc:	e00782e3          	beqz	a5,9e00 <__subsf3+0x178>
    a000:	412605b3          	sub	a1,a2,s2
    a004:	00091463          	bnez	s2,a00c <__subsf3+0x384>
    a008:	87ae                	mv	a5,a1
    a00a:	bb6d                	j	9dc4 <__subsf3+0x13c>
    a00c:	040007b7          	lui	a5,0x4000
    a010:	8f5d                	or	a4,a4,a5
    a012:	b3d1                	j	9dd6 <__subsf3+0x14e>

0000a014 <__unordsf2>:
    a014:	01755693          	srli	a3,a0,0x17
    a018:	00800737          	lui	a4,0x800
    a01c:	177d                	addi	a4,a4,-1 # 7fffff <_data_lma+0x7f441b>
    a01e:	0175d613          	srli	a2,a1,0x17
    a022:	0ff6f693          	zext.b	a3,a3
    a026:	0ff00813          	li	a6,255
    a02a:	00a777b3          	and	a5,a4,a0
    a02e:	0ff67613          	zext.b	a2,a2
    a032:	8f6d                	and	a4,a4,a1
    a034:	01068b63          	beq	a3,a6,a04a <__unordsf2+0x36>
    a038:	0ff00793          	li	a5,255
    a03c:	4501                	li	a0,0
    a03e:	00f60363          	beq	a2,a5,a044 <__unordsf2+0x30>
    a042:	8082                	ret
    a044:	00e03533          	snez	a0,a4
    a048:	8082                	ret
    a04a:	4505                	li	a0,1
    a04c:	d7f5                	beqz	a5,a038 <__unordsf2+0x24>
    a04e:	8082                	ret

0000a050 <__fixsfsi>:
    a050:	00800637          	lui	a2,0x800
    a054:	01755713          	srli	a4,a0,0x17
    a058:	fff60793          	addi	a5,a2,-1 # 7fffff <_data_lma+0x7f441b>
    a05c:	0ff77713          	zext.b	a4,a4
    a060:	07e00593          	li	a1,126
    a064:	00a7f6b3          	and	a3,a5,a0
    a068:	01f55793          	srli	a5,a0,0x1f
    a06c:	00e5db63          	bge	a1,a4,a082 <__fixsfsi+0x32>
    a070:	09d00593          	li	a1,157
    a074:	00e5d963          	bge	a1,a4,a086 <__fixsfsi+0x36>
    a078:	80000537          	lui	a0,0x80000
    a07c:	157d                	addi	a0,a0,-1 # 7fffffff <_eusrstack+0x5fffafff>
    a07e:	953e                	add	a0,a0,a5
    a080:	8082                	ret
    a082:	4501                	li	a0,0
    a084:	8082                	ret
    a086:	09500593          	li	a1,149
    a08a:	8ed1                	or	a3,a3,a2
    a08c:	00e5cd63          	blt	a1,a4,a0a6 <__fixsfsi+0x56>
    a090:	09600613          	li	a2,150
    a094:	40e60733          	sub	a4,a2,a4
    a098:	00e6d6b3          	srl	a3,a3,a4
    a09c:	40d00533          	neg	a0,a3
    a0a0:	f3f5                	bnez	a5,a084 <__fixsfsi+0x34>
    a0a2:	8536                	mv	a0,a3
    a0a4:	8082                	ret
    a0a6:	f6a70713          	addi	a4,a4,-150
    a0aa:	00e696b3          	sll	a3,a3,a4
    a0ae:	b7fd                	j	a09c <__fixsfsi+0x4c>

0000a0b0 <__floatsisf>:
    a0b0:	1141                	addi	sp,sp,-16
    a0b2:	c606                	sw	ra,12(sp)
    a0b4:	c422                	sw	s0,8(sp)
    a0b6:	c226                	sw	s1,4(sp)
    a0b8:	cd15                	beqz	a0,a0f4 <__floatsisf+0x44>
    a0ba:	41f55713          	srai	a4,a0,0x1f
    a0be:	00a74433          	xor	s0,a4,a0
    a0c2:	8c19                	sub	s0,s0,a4
    a0c4:	87aa                	mv	a5,a0
    a0c6:	8522                	mv	a0,s0
    a0c8:	01f7d493          	srli	s1,a5,0x1f
    a0cc:	2c31                	jal	a2e8 <__clzsi2>
    a0ce:	09e00713          	li	a4,158
    a0d2:	40a707b3          	sub	a5,a4,a0
    a0d6:	09600713          	li	a4,150
    a0da:	02f74a63          	blt	a4,a5,a10e <__floatsisf+0x5e>
    a0de:	4721                	li	a4,8
    a0e0:	08e50863          	beq	a0,a4,a170 <__floatsisf+0xc0>
    a0e4:	1561                	addi	a0,a0,-8
    a0e6:	00a41733          	sll	a4,s0,a0
    a0ea:	0726                	slli	a4,a4,0x9
    a0ec:	8325                	srli	a4,a4,0x9
    a0ee:	0ff7f513          	zext.b	a0,a5
    a0f2:	a021                	j	a0fa <__floatsisf+0x4a>
    a0f4:	4481                	li	s1,0
    a0f6:	4501                	li	a0,0
    a0f8:	4701                	li	a4,0
    a0fa:	40b2                	lw	ra,12(sp)
    a0fc:	4422                	lw	s0,8(sp)
    a0fe:	055e                	slli	a0,a0,0x17
    a100:	01f49793          	slli	a5,s1,0x1f
    a104:	8d59                	or	a0,a0,a4
    a106:	4492                	lw	s1,4(sp)
    a108:	8d5d                	or	a0,a0,a5
    a10a:	0141                	addi	sp,sp,16
    a10c:	8082                	ret
    a10e:	09900713          	li	a4,153
    a112:	04f74363          	blt	a4,a5,a158 <__floatsisf+0xa8>
    a116:	4715                	li	a4,5
    a118:	ffb50693          	addi	a3,a0,-5
    a11c:	00e50463          	beq	a0,a4,a124 <__floatsisf+0x74>
    a120:	00d41433          	sll	s0,s0,a3
    a124:	fc0006b7          	lui	a3,0xfc000
    a128:	16fd                	addi	a3,a3,-1 # fbffffff <_eusrstack+0xdbffafff>
    a12a:	00747613          	andi	a2,s0,7
    a12e:	00d47733          	and	a4,s0,a3
    a132:	ce11                	beqz	a2,a14e <__floatsisf+0x9e>
    a134:	883d                	andi	s0,s0,15
    a136:	4611                	li	a2,4
    a138:	00c40b63          	beq	s0,a2,a14e <__floatsisf+0x9e>
    a13c:	0711                	addi	a4,a4,4
    a13e:	04000637          	lui	a2,0x4000
    a142:	8e79                	and	a2,a2,a4
    a144:	c609                	beqz	a2,a14e <__floatsisf+0x9e>
    a146:	09f00793          	li	a5,159
    a14a:	8f75                	and	a4,a4,a3
    a14c:	8f89                	sub	a5,a5,a0
    a14e:	071a                	slli	a4,a4,0x6
    a150:	8325                	srli	a4,a4,0x9
    a152:	0ff7f513          	zext.b	a0,a5
    a156:	b755                	j	a0fa <__floatsisf+0x4a>
    a158:	01b50713          	addi	a4,a0,27
    a15c:	4695                	li	a3,5
    a15e:	00e41733          	sll	a4,s0,a4
    a162:	8e89                	sub	a3,a3,a0
    a164:	00d45433          	srl	s0,s0,a3
    a168:	00e03733          	snez	a4,a4
    a16c:	8c59                	or	s0,s0,a4
    a16e:	bf5d                	j	a124 <__floatsisf+0x74>
    a170:	0426                	slli	s0,s0,0x9
    a172:	00945713          	srli	a4,s0,0x9
    a176:	09600513          	li	a0,150
    a17a:	b741                	j	a0fa <__floatsisf+0x4a>

0000a17c <__truncdfsf2>:
    a17c:	0145d793          	srli	a5,a1,0x14
    a180:	7ff7f793          	andi	a5,a5,2047
    a184:	00c59693          	slli	a3,a1,0xc
    a188:	00178613          	addi	a2,a5,1 # 4000001 <_data_lma+0x3ff441d>
    a18c:	82a5                	srli	a3,a3,0x9
    a18e:	01d55713          	srli	a4,a0,0x1d
    a192:	7fe67613          	andi	a2,a2,2046
    a196:	81fd                	srli	a1,a1,0x1f
    a198:	8ed9                	or	a3,a3,a4
    a19a:	00351813          	slli	a6,a0,0x3
    a19e:	c205                	beqz	a2,a1be <__truncdfsf2+0x42>
    a1a0:	c8078613          	addi	a2,a5,-896
    a1a4:	0fe00713          	li	a4,254
    a1a8:	04c75463          	bge	a4,a2,a1f0 <__truncdfsf2+0x74>
    a1ac:	0ff00793          	li	a5,255
    a1b0:	4701                	li	a4,0
    a1b2:	07de                	slli	a5,a5,0x17
    a1b4:	00e7e533          	or	a0,a5,a4
    a1b8:	05fe                	slli	a1,a1,0x1f
    a1ba:	8d4d                	or	a0,a0,a1
    a1bc:	8082                	ret
    a1be:	0106e733          	or	a4,a3,a6
    a1c2:	eb89                	bnez	a5,a1d4 <__truncdfsf2+0x58>
    a1c4:	4801                	li	a6,0
    a1c6:	cb2d                	beqz	a4,a238 <__truncdfsf2+0xbc>
    a1c8:	0826                	slli	a6,a6,0x9
    a1ca:	00985713          	srli	a4,a6,0x9
    a1ce:	0ff7f793          	zext.b	a5,a5
    a1d2:	b7c5                	j	a1b2 <__truncdfsf2+0x36>
    a1d4:	0ff00793          	li	a5,255
    a1d8:	df69                	beqz	a4,a1b2 <__truncdfsf2+0x36>
    a1da:	0ff00793          	li	a5,255
    a1de:	00400737          	lui	a4,0x400
    a1e2:	07de                	slli	a5,a5,0x17
    a1e4:	4581                	li	a1,0
    a1e6:	00e7e533          	or	a0,a5,a4
    a1ea:	05fe                	slli	a1,a1,0x1f
    a1ec:	8d4d                	or	a0,a0,a1
    a1ee:	8082                	ret
    a1f0:	04c05c63          	blez	a2,a248 <__truncdfsf2+0xcc>
    a1f4:	00651713          	slli	a4,a0,0x6
    a1f8:	00e03733          	snez	a4,a4
    a1fc:	068e                	slli	a3,a3,0x3
    a1fe:	01d85813          	srli	a6,a6,0x1d
    a202:	8f55                	or	a4,a4,a3
    a204:	01076733          	or	a4,a4,a6
    a208:	00777793          	andi	a5,a4,7
    a20c:	cbe9                	beqz	a5,a2de <__truncdfsf2+0x162>
    a20e:	00f77793          	andi	a5,a4,15
    a212:	4691                	li	a3,4
    a214:	0cd78563          	beq	a5,a3,a2de <__truncdfsf2+0x162>
    a218:	0711                	addi	a4,a4,4 # 400004 <_data_lma+0x3f4420>
    a21a:	040007b7          	lui	a5,0x4000
    a21e:	8ff9                	and	a5,a5,a4
    a220:	c7dd                	beqz	a5,a2ce <__truncdfsf2+0x152>
    a222:	00160793          	addi	a5,a2,1 # 4000001 <_data_lma+0x3ff441d>
    a226:	0ff7f793          	zext.b	a5,a5
    a22a:	4701                	li	a4,0
    a22c:	07de                	slli	a5,a5,0x17
    a22e:	00e7e533          	or	a0,a5,a4
    a232:	05fe                	slli	a1,a1,0x1f
    a234:	8d4d                	or	a0,a0,a1
    a236:	8082                	ret
    a238:	4781                	li	a5,0
    a23a:	4701                	li	a4,0
    a23c:	07de                	slli	a5,a5,0x17
    a23e:	00e7e533          	or	a0,a5,a4
    a242:	05fe                	slli	a1,a1,0x1f
    a244:	8d4d                	or	a0,a0,a1
    a246:	8082                	ret
    a248:	5725                	li	a4,-23
    a24a:	fee647e3          	blt	a2,a4,a238 <__truncdfsf2+0xbc>
    a24e:	4579                	li	a0,30
    a250:	008008b7          	lui	a7,0x800
    a254:	8d11                	sub	a0,a0,a2
    a256:	477d                	li	a4,31
    a258:	0116e6b3          	or	a3,a3,a7
    a25c:	04a75063          	bge	a4,a0,a29c <__truncdfsf2+0x120>
    a260:	5779                	li	a4,-2
    a262:	8f11                	sub	a4,a4,a2
    a264:	02000613          	li	a2,32
    a268:	00e6d733          	srl	a4,a3,a4
    a26c:	00c50863          	beq	a0,a2,a27c <__truncdfsf2+0x100>
    a270:	ca278793          	addi	a5,a5,-862 # 3fffca2 <_data_lma+0x3ff40be>
    a274:	00f696b3          	sll	a3,a3,a5
    a278:	00d86833          	or	a6,a6,a3
    a27c:	01003833          	snez	a6,a6
    a280:	00e86833          	or	a6,a6,a4
    a284:	00787793          	andi	a5,a6,7
    a288:	c7b9                	beqz	a5,a2d6 <__truncdfsf2+0x15a>
    a28a:	00f87793          	andi	a5,a6,15
    a28e:	4711                	li	a4,4
    a290:	02e79c63          	bne	a5,a4,a2c8 <__truncdfsf2+0x14c>
    a294:	00385813          	srli	a6,a6,0x3
    a298:	4781                	li	a5,0
    a29a:	b73d                	j	a1c8 <__truncdfsf2+0x4c>
    a29c:	c8278793          	addi	a5,a5,-894
    a2a0:	00f81733          	sll	a4,a6,a5
    a2a4:	00f696b3          	sll	a3,a3,a5
    a2a8:	00e03733          	snez	a4,a4
    a2ac:	00a85833          	srl	a6,a6,a0
    a2b0:	8f55                	or	a4,a4,a3
    a2b2:	00e86733          	or	a4,a6,a4
    a2b6:	00777793          	andi	a5,a4,7
    a2ba:	4601                	li	a2,0
    a2bc:	fba9                	bnez	a5,a20e <__truncdfsf2+0x92>
    a2be:	830d                	srli	a4,a4,0x3
    a2c0:	18fd                	addi	a7,a7,-1 # 7fffff <_data_lma+0x7f441b>
    a2c2:	01177733          	and	a4,a4,a7
    a2c6:	b5f5                	j	a1b2 <__truncdfsf2+0x36>
    a2c8:	00480713          	addi	a4,a6,4
    a2cc:	4601                	li	a2,0
    a2ce:	00375813          	srli	a6,a4,0x3
    a2d2:	87b2                	mv	a5,a2
    a2d4:	bdd5                	j	a1c8 <__truncdfsf2+0x4c>
    a2d6:	081a                	slli	a6,a6,0x6
    a2d8:	00985713          	srli	a4,a6,0x9
    a2dc:	bdd9                	j	a1b2 <__truncdfsf2+0x36>
    a2de:	071a                	slli	a4,a4,0x6
    a2e0:	8325                	srli	a4,a4,0x9
    a2e2:	0ff67793          	zext.b	a5,a2
    a2e6:	b5f1                	j	a1b2 <__truncdfsf2+0x36>

0000a2e8 <__clzsi2>:
    a2e8:	67c1                	lui	a5,0x10
    a2ea:	02f57663          	bgeu	a0,a5,a316 <__clzsi2+0x2e>
    a2ee:	10053793          	sltiu	a5,a0,256
    a2f2:	0017c793          	xori	a5,a5,1
    a2f6:	078e                	slli	a5,a5,0x3
    a2f8:	02000713          	li	a4,32
    a2fc:	8f1d                	sub	a4,a4,a5
    a2fe:	00f55533          	srl	a0,a0,a5
    a302:	00001797          	auipc	a5,0x1
    a306:	6ee78793          	addi	a5,a5,1774 # b9f0 <__clz_tab>
    a30a:	97aa                	add	a5,a5,a0
    a30c:	0007c503          	lbu	a0,0(a5)
    a310:	40a70533          	sub	a0,a4,a0
    a314:	8082                	ret
    a316:	010007b7          	lui	a5,0x1000
    a31a:	02f57063          	bgeu	a0,a5,a33a <__clzsi2+0x52>
    a31e:	47c1                	li	a5,16
    a320:	00f55533          	srl	a0,a0,a5
    a324:	00001797          	auipc	a5,0x1
    a328:	6cc78793          	addi	a5,a5,1740 # b9f0 <__clz_tab>
    a32c:	97aa                	add	a5,a5,a0
    a32e:	0007c503          	lbu	a0,0(a5)
    a332:	4741                	li	a4,16
    a334:	40a70533          	sub	a0,a4,a0
    a338:	8082                	ret
    a33a:	47e1                	li	a5,24
    a33c:	00f55533          	srl	a0,a0,a5
    a340:	00001797          	auipc	a5,0x1
    a344:	6b078793          	addi	a5,a5,1712 # b9f0 <__clz_tab>
    a348:	97aa                	add	a5,a5,a0
    a34a:	0007c503          	lbu	a0,0(a5)
    a34e:	4721                	li	a4,8
    a350:	40a70533          	sub	a0,a4,a0
    a354:	8082                	ret

0000a356 <__errno>:
    a356:	8281a503          	lw	a0,-2008(gp) # 200018d0 <_impure_ptr>
    a35a:	8082                	ret

0000a35c <iprintf>:
    a35c:	715d                	addi	sp,sp,-80
    a35e:	d422                	sw	s0,40(sp)
    a360:	d606                	sw	ra,44(sp)
    a362:	842a                	mv	s0,a0
    a364:	da2e                	sw	a1,52(sp)
    a366:	dc32                	sw	a2,56(sp)
    a368:	de36                	sw	a3,60(sp)
    a36a:	c0ba                	sw	a4,64(sp)
    a36c:	c2be                	sw	a5,68(sp)
    a36e:	c4c2                	sw	a6,72(sp)
    a370:	c6c6                	sw	a7,76(sp)
    a372:	8281a503          	lw	a0,-2008(gp) # 200018d0 <_impure_ptr>
    a376:	c511                	beqz	a0,a382 <iprintf+0x26>
    a378:	4d1c                	lw	a5,24(a0)
    a37a:	e781                	bnez	a5,a382 <iprintf+0x26>
    a37c:	c62a                	sw	a0,12(sp)
    a37e:	2bbd                	jal	a8fc <__sinit>
    a380:	4532                	lw	a0,12(sp)
    a382:	450c                	lw	a1,8(a0)
    a384:	1854                	addi	a3,sp,52
    a386:	8622                	mv	a2,s0
    a388:	ce36                	sw	a3,28(sp)
    a38a:	271000ef          	jal	ra,adfa <_vfiprintf_r>
    a38e:	50b2                	lw	ra,44(sp)
    a390:	5422                	lw	s0,40(sp)
    a392:	6161                	addi	sp,sp,80
    a394:	8082                	ret

0000a396 <_puts_r>:
    a396:	1101                	addi	sp,sp,-32
    a398:	ca26                	sw	s1,20(sp)
    a39a:	ce06                	sw	ra,28(sp)
    a39c:	cc22                	sw	s0,24(sp)
    a39e:	c84a                	sw	s2,16(sp)
    a3a0:	c64e                	sw	s3,12(sp)
    a3a2:	c452                	sw	s4,8(sp)
    a3a4:	84aa                	mv	s1,a0
    a3a6:	e119                	bnez	a0,a3ac <_puts_r+0x16>
    a3a8:	451c                	lw	a5,8(a0)
    a3aa:	9002                	ebreak
    a3ac:	4d1c                	lw	a5,24(a0)
    a3ae:	892e                	mv	s2,a1
    a3b0:	e7a5                	bnez	a5,a418 <_puts_r+0x82>
    a3b2:	23a9                	jal	a8fc <__sinit>
    a3b4:	4c9c                	lw	a5,24(s1)
    a3b6:	4480                	lw	s0,8(s1)
    a3b8:	c3b5                	beqz	a5,a41c <_puts_r+0x86>
    a3ba:	00001797          	auipc	a5,0x1
    a3be:	77678793          	addi	a5,a5,1910 # bb30 <__sf_fake_stdin>
    a3c2:	06f41063          	bne	s0,a5,a422 <_puts_r+0x8c>
    a3c6:	40c0                	lw	s0,4(s1)
    a3c8:	507c                	lw	a5,100(s0)
    a3ca:	8b85                	andi	a5,a5,1
    a3cc:	eb81                	bnez	a5,a3dc <_puts_r+0x46>
    a3ce:	00c45783          	lhu	a5,12(s0)
    a3d2:	2007f793          	andi	a5,a5,512
    a3d6:	e399                	bnez	a5,a3dc <_puts_r+0x46>
    a3d8:	4c28                	lw	a0,88(s0)
    a3da:	2d45                	jal	aa8a <__retarget_lock_acquire_recursive>
    a3dc:	00c45783          	lhu	a5,12(s0)
    a3e0:	8ba1                	andi	a5,a5,8
    a3e2:	c399                	beqz	a5,a3e8 <_puts_r+0x52>
    a3e4:	481c                	lw	a5,16(s0)
    a3e6:	e7c5                	bnez	a5,a48e <_puts_r+0xf8>
    a3e8:	85a2                	mv	a1,s0
    a3ea:	8526                	mv	a0,s1
    a3ec:	2249                	jal	a56e <__swsetup_r>
    a3ee:	c145                	beqz	a0,a48e <_puts_r+0xf8>
    a3f0:	54fd                	li	s1,-1
    a3f2:	507c                	lw	a5,100(s0)
    a3f4:	8b85                	andi	a5,a5,1
    a3f6:	eb81                	bnez	a5,a406 <_puts_r+0x70>
    a3f8:	00c45783          	lhu	a5,12(s0)
    a3fc:	2007f793          	andi	a5,a5,512
    a400:	e399                	bnez	a5,a406 <_puts_r+0x70>
    a402:	4c28                	lw	a0,88(s0)
    a404:	2561                	jal	aa8c <__retarget_lock_release_recursive>
    a406:	40f2                	lw	ra,28(sp)
    a408:	4462                	lw	s0,24(sp)
    a40a:	4942                	lw	s2,16(sp)
    a40c:	49b2                	lw	s3,12(sp)
    a40e:	4a22                	lw	s4,8(sp)
    a410:	8526                	mv	a0,s1
    a412:	44d2                	lw	s1,20(sp)
    a414:	6105                	addi	sp,sp,32
    a416:	8082                	ret
    a418:	4500                	lw	s0,8(a0)
    a41a:	b745                	j	a3ba <_puts_r+0x24>
    a41c:	8526                	mv	a0,s1
    a41e:	29f9                	jal	a8fc <__sinit>
    a420:	bf69                	j	a3ba <_puts_r+0x24>
    a422:	00001797          	auipc	a5,0x1
    a426:	6ee78793          	addi	a5,a5,1774 # bb10 <__sf_fake_stdout>
    a42a:	00f41463          	bne	s0,a5,a432 <_puts_r+0x9c>
    a42e:	4480                	lw	s0,8(s1)
    a430:	bf61                	j	a3c8 <_puts_r+0x32>
    a432:	00001797          	auipc	a5,0x1
    a436:	6be78793          	addi	a5,a5,1726 # baf0 <__sf_fake_stderr>
    a43a:	f8f417e3          	bne	s0,a5,a3c8 <_puts_r+0x32>
    a43e:	44c0                	lw	s0,12(s1)
    a440:	b761                	j	a3c8 <_puts_r+0x32>
    a442:	c41c                	sw	a5,8(s0)
    a444:	0905                	addi	s2,s2,1
    a446:	0207c963          	bltz	a5,a478 <_puts_r+0xe2>
    a44a:	401c                	lw	a5,0(s0)
    a44c:	00178713          	addi	a4,a5,1
    a450:	c018                	sw	a4,0(s0)
    a452:	00b78023          	sb	a1,0(a5)
    a456:	441c                	lw	a5,8(s0)
    a458:	00094583          	lbu	a1,0(s2)
    a45c:	17fd                	addi	a5,a5,-1
    a45e:	f1f5                	bnez	a1,a442 <_puts_r+0xac>
    a460:	c41c                	sw	a5,8(s0)
    a462:	0207d963          	bgez	a5,a494 <_puts_r+0xfe>
    a466:	8622                	mv	a2,s0
    a468:	45a9                	li	a1,10
    a46a:	8526                	mv	a0,s1
    a46c:	2089                	jal	a4ae <__swbuf_r>
    a46e:	57fd                	li	a5,-1
    a470:	f8f500e3          	beq	a0,a5,a3f0 <_puts_r+0x5a>
    a474:	44a9                	li	s1,10
    a476:	bfb5                	j	a3f2 <_puts_r+0x5c>
    a478:	4c18                	lw	a4,24(s0)
    a47a:	00e7c463          	blt	a5,a4,a482 <_puts_r+0xec>
    a47e:	fd4596e3          	bne	a1,s4,a44a <_puts_r+0xb4>
    a482:	8622                	mv	a2,s0
    a484:	8526                	mv	a0,s1
    a486:	2025                	jal	a4ae <__swbuf_r>
    a488:	fd3517e3          	bne	a0,s3,a456 <_puts_r+0xc0>
    a48c:	b795                	j	a3f0 <_puts_r+0x5a>
    a48e:	59fd                	li	s3,-1
    a490:	4a29                	li	s4,10
    a492:	b7d1                	j	a456 <_puts_r+0xc0>
    a494:	401c                	lw	a5,0(s0)
    a496:	00178713          	addi	a4,a5,1
    a49a:	c018                	sw	a4,0(s0)
    a49c:	4729                	li	a4,10
    a49e:	00e78023          	sb	a4,0(a5)
    a4a2:	bfc9                	j	a474 <_puts_r+0xde>

0000a4a4 <puts>:
    a4a4:	85aa                	mv	a1,a0
    a4a6:	8281a503          	lw	a0,-2008(gp) # 200018d0 <_impure_ptr>
    a4aa:	eedff06f          	j	a396 <_puts_r>

0000a4ae <__swbuf_r>:
    a4ae:	1101                	addi	sp,sp,-32
    a4b0:	cc22                	sw	s0,24(sp)
    a4b2:	ca26                	sw	s1,20(sp)
    a4b4:	c84a                	sw	s2,16(sp)
    a4b6:	ce06                	sw	ra,28(sp)
    a4b8:	c64e                	sw	s3,12(sp)
    a4ba:	84aa                	mv	s1,a0
    a4bc:	892e                	mv	s2,a1
    a4be:	8432                	mv	s0,a2
    a4c0:	c501                	beqz	a0,a4c8 <__swbuf_r+0x1a>
    a4c2:	4d1c                	lw	a5,24(a0)
    a4c4:	e391                	bnez	a5,a4c8 <__swbuf_r+0x1a>
    a4c6:	291d                	jal	a8fc <__sinit>
    a4c8:	00001797          	auipc	a5,0x1
    a4cc:	66878793          	addi	a5,a5,1640 # bb30 <__sf_fake_stdin>
    a4d0:	02f41863          	bne	s0,a5,a500 <__swbuf_r+0x52>
    a4d4:	40c0                	lw	s0,4(s1)
    a4d6:	4c1c                	lw	a5,24(s0)
    a4d8:	c41c                	sw	a5,8(s0)
    a4da:	00c45783          	lhu	a5,12(s0)
    a4de:	8ba1                	andi	a5,a5,8
    a4e0:	c399                	beqz	a5,a4e6 <__swbuf_r+0x38>
    a4e2:	481c                	lw	a5,16(s0)
    a4e4:	ef95                	bnez	a5,a520 <__swbuf_r+0x72>
    a4e6:	85a2                	mv	a1,s0
    a4e8:	8526                	mv	a0,s1
    a4ea:	2051                	jal	a56e <__swsetup_r>
    a4ec:	c915                	beqz	a0,a520 <__swbuf_r+0x72>
    a4ee:	597d                	li	s2,-1
    a4f0:	40f2                	lw	ra,28(sp)
    a4f2:	4462                	lw	s0,24(sp)
    a4f4:	44d2                	lw	s1,20(sp)
    a4f6:	49b2                	lw	s3,12(sp)
    a4f8:	854a                	mv	a0,s2
    a4fa:	4942                	lw	s2,16(sp)
    a4fc:	6105                	addi	sp,sp,32
    a4fe:	8082                	ret
    a500:	00001797          	auipc	a5,0x1
    a504:	61078793          	addi	a5,a5,1552 # bb10 <__sf_fake_stdout>
    a508:	00f41463          	bne	s0,a5,a510 <__swbuf_r+0x62>
    a50c:	4480                	lw	s0,8(s1)
    a50e:	b7e1                	j	a4d6 <__swbuf_r+0x28>
    a510:	00001797          	auipc	a5,0x1
    a514:	5e078793          	addi	a5,a5,1504 # baf0 <__sf_fake_stderr>
    a518:	faf41fe3          	bne	s0,a5,a4d6 <__swbuf_r+0x28>
    a51c:	44c0                	lw	s0,12(s1)
    a51e:	bf65                	j	a4d6 <__swbuf_r+0x28>
    a520:	481c                	lw	a5,16(s0)
    a522:	4008                	lw	a0,0(s0)
    a524:	0ff97993          	zext.b	s3,s2
    a528:	0ff97913          	zext.b	s2,s2
    a52c:	8d1d                	sub	a0,a0,a5
    a52e:	485c                	lw	a5,20(s0)
    a530:	00f54663          	blt	a0,a5,a53c <__swbuf_r+0x8e>
    a534:	85a2                	mv	a1,s0
    a536:	8526                	mv	a0,s1
    a538:	24a5                	jal	a7a0 <_fflush_r>
    a53a:	f955                	bnez	a0,a4ee <__swbuf_r+0x40>
    a53c:	441c                	lw	a5,8(s0)
    a53e:	0505                	addi	a0,a0,1
    a540:	17fd                	addi	a5,a5,-1
    a542:	c41c                	sw	a5,8(s0)
    a544:	401c                	lw	a5,0(s0)
    a546:	00178713          	addi	a4,a5,1
    a54a:	c018                	sw	a4,0(s0)
    a54c:	01378023          	sb	s3,0(a5)
    a550:	485c                	lw	a5,20(s0)
    a552:	00a78963          	beq	a5,a0,a564 <__swbuf_r+0xb6>
    a556:	00c45783          	lhu	a5,12(s0)
    a55a:	8b85                	andi	a5,a5,1
    a55c:	dbd1                	beqz	a5,a4f0 <__swbuf_r+0x42>
    a55e:	47a9                	li	a5,10
    a560:	f8f918e3          	bne	s2,a5,a4f0 <__swbuf_r+0x42>
    a564:	85a2                	mv	a1,s0
    a566:	8526                	mv	a0,s1
    a568:	2c25                	jal	a7a0 <_fflush_r>
    a56a:	d159                	beqz	a0,a4f0 <__swbuf_r+0x42>
    a56c:	b749                	j	a4ee <__swbuf_r+0x40>

0000a56e <__swsetup_r>:
    a56e:	1141                	addi	sp,sp,-16
    a570:	c422                	sw	s0,8(sp)
    a572:	c226                	sw	s1,4(sp)
    a574:	c04a                	sw	s2,0(sp)
    a576:	c606                	sw	ra,12(sp)
    a578:	8281a483          	lw	s1,-2008(gp) # 200018d0 <_impure_ptr>
    a57c:	892a                	mv	s2,a0
    a57e:	842e                	mv	s0,a1
    a580:	c489                	beqz	s1,a58a <__swsetup_r+0x1c>
    a582:	4c9c                	lw	a5,24(s1)
    a584:	e399                	bnez	a5,a58a <__swsetup_r+0x1c>
    a586:	8526                	mv	a0,s1
    a588:	2e95                	jal	a8fc <__sinit>
    a58a:	00001797          	auipc	a5,0x1
    a58e:	5a678793          	addi	a5,a5,1446 # bb30 <__sf_fake_stdin>
    a592:	02f41463          	bne	s0,a5,a5ba <__swsetup_r+0x4c>
    a596:	40c0                	lw	s0,4(s1)
    a598:	00c41783          	lh	a5,12(s0)
    a59c:	0087f713          	andi	a4,a5,8
    a5a0:	eb2d                	bnez	a4,a612 <__swsetup_r+0xa4>
    a5a2:	0107f713          	andi	a4,a5,16
    a5a6:	eb15                	bnez	a4,a5da <__swsetup_r+0x6c>
    a5a8:	4725                	li	a4,9
    a5aa:	00e92023          	sw	a4,0(s2)
    a5ae:	0407e793          	ori	a5,a5,64
    a5b2:	00f41623          	sh	a5,12(s0)
    a5b6:	557d                	li	a0,-1
    a5b8:	a859                	j	a64e <__swsetup_r+0xe0>
    a5ba:	00001797          	auipc	a5,0x1
    a5be:	55678793          	addi	a5,a5,1366 # bb10 <__sf_fake_stdout>
    a5c2:	00f41463          	bne	s0,a5,a5ca <__swsetup_r+0x5c>
    a5c6:	4480                	lw	s0,8(s1)
    a5c8:	bfc1                	j	a598 <__swsetup_r+0x2a>
    a5ca:	00001797          	auipc	a5,0x1
    a5ce:	52678793          	addi	a5,a5,1318 # baf0 <__sf_fake_stderr>
    a5d2:	fcf413e3          	bne	s0,a5,a598 <__swsetup_r+0x2a>
    a5d6:	44c0                	lw	s0,12(s1)
    a5d8:	b7c1                	j	a598 <__swsetup_r+0x2a>
    a5da:	8b91                	andi	a5,a5,4
    a5dc:	c78d                	beqz	a5,a606 <__swsetup_r+0x98>
    a5de:	584c                	lw	a1,52(s0)
    a5e0:	c989                	beqz	a1,a5f2 <__swsetup_r+0x84>
    a5e2:	04440793          	addi	a5,s0,68
    a5e6:	00f58463          	beq	a1,a5,a5ee <__swsetup_r+0x80>
    a5ea:	854a                	mv	a0,s2
    a5ec:	234d                	jal	ab8e <_free_r>
    a5ee:	02042a23          	sw	zero,52(s0)
    a5f2:	00c45783          	lhu	a5,12(s0)
    a5f6:	00042223          	sw	zero,4(s0)
    a5fa:	fdb7f793          	andi	a5,a5,-37
    a5fe:	00f41623          	sh	a5,12(s0)
    a602:	481c                	lw	a5,16(s0)
    a604:	c01c                	sw	a5,0(s0)
    a606:	00c45783          	lhu	a5,12(s0)
    a60a:	0087e793          	ori	a5,a5,8
    a60e:	00f41623          	sh	a5,12(s0)
    a612:	481c                	lw	a5,16(s0)
    a614:	ef81                	bnez	a5,a62c <__swsetup_r+0xbe>
    a616:	00c45783          	lhu	a5,12(s0)
    a61a:	20000713          	li	a4,512
    a61e:	2807f793          	andi	a5,a5,640
    a622:	00e78563          	beq	a5,a4,a62c <__swsetup_r+0xbe>
    a626:	85a2                	mv	a1,s0
    a628:	854a                	mv	a0,s2
    a62a:	21c1                	jal	aaea <__smakebuf_r>
    a62c:	00c41783          	lh	a5,12(s0)
    a630:	0017f713          	andi	a4,a5,1
    a634:	c31d                	beqz	a4,a65a <__swsetup_r+0xec>
    a636:	4858                	lw	a4,20(s0)
    a638:	00042423          	sw	zero,8(s0)
    a63c:	40e00733          	neg	a4,a4
    a640:	cc18                	sw	a4,24(s0)
    a642:	4818                	lw	a4,16(s0)
    a644:	4501                	li	a0,0
    a646:	e701                	bnez	a4,a64e <__swsetup_r+0xe0>
    a648:	0807f713          	andi	a4,a5,128
    a64c:	f32d                	bnez	a4,a5ae <__swsetup_r+0x40>
    a64e:	40b2                	lw	ra,12(sp)
    a650:	4422                	lw	s0,8(sp)
    a652:	4492                	lw	s1,4(sp)
    a654:	4902                	lw	s2,0(sp)
    a656:	0141                	addi	sp,sp,16
    a658:	8082                	ret
    a65a:	0027f713          	andi	a4,a5,2
    a65e:	4681                	li	a3,0
    a660:	e311                	bnez	a4,a664 <__swsetup_r+0xf6>
    a662:	4854                	lw	a3,20(s0)
    a664:	c414                	sw	a3,8(s0)
    a666:	bff1                	j	a642 <__swsetup_r+0xd4>

0000a668 <__sflush_r>:
    a668:	00c59783          	lh	a5,12(a1) # 400000c <_data_lma+0x3ff4428>
    a66c:	1101                	addi	sp,sp,-32
    a66e:	cc22                	sw	s0,24(sp)
    a670:	ca26                	sw	s1,20(sp)
    a672:	ce06                	sw	ra,28(sp)
    a674:	c84a                	sw	s2,16(sp)
    a676:	c64e                	sw	s3,12(sp)
    a678:	0087f713          	andi	a4,a5,8
    a67c:	84aa                	mv	s1,a0
    a67e:	842e                	mv	s0,a1
    a680:	e769                	bnez	a4,a74a <__sflush_r+0xe2>
    a682:	41d8                	lw	a4,4(a1)
    a684:	00e04563          	bgtz	a4,a68e <__sflush_r+0x26>
    a688:	41b8                	lw	a4,64(a1)
    a68a:	08e05863          	blez	a4,a71a <__sflush_r+0xb2>
    a68e:	5458                	lw	a4,44(s0)
    a690:	c749                	beqz	a4,a71a <__sflush_r+0xb2>
    a692:	83b1                	srli	a5,a5,0xc
    a694:	0004a903          	lw	s2,0(s1)
    a698:	8b85                	andi	a5,a5,1
    a69a:	0004a023          	sw	zero,0(s1)
    a69e:	500c                	lw	a1,32(s0)
    a6a0:	cbb9                	beqz	a5,a6f6 <__sflush_r+0x8e>
    a6a2:	4870                	lw	a2,84(s0)
    a6a4:	00c45783          	lhu	a5,12(s0)
    a6a8:	8b91                	andi	a5,a5,4
    a6aa:	c799                	beqz	a5,a6b8 <__sflush_r+0x50>
    a6ac:	405c                	lw	a5,4(s0)
    a6ae:	8e1d                	sub	a2,a2,a5
    a6b0:	585c                	lw	a5,52(s0)
    a6b2:	c399                	beqz	a5,a6b8 <__sflush_r+0x50>
    a6b4:	403c                	lw	a5,64(s0)
    a6b6:	8e1d                	sub	a2,a2,a5
    a6b8:	545c                	lw	a5,44(s0)
    a6ba:	500c                	lw	a1,32(s0)
    a6bc:	4681                	li	a3,0
    a6be:	8526                	mv	a0,s1
    a6c0:	9782                	jalr	a5
    a6c2:	57fd                	li	a5,-1
    a6c4:	04f50d63          	beq	a0,a5,a71e <__sflush_r+0xb6>
    a6c8:	481c                	lw	a5,16(s0)
    a6ca:	6705                	lui	a4,0x1
    a6cc:	00042223          	sw	zero,4(s0)
    a6d0:	c01c                	sw	a5,0(s0)
    a6d2:	00c45783          	lhu	a5,12(s0)
    a6d6:	8ff9                	and	a5,a5,a4
    a6d8:	c391                	beqz	a5,a6dc <__sflush_r+0x74>
    a6da:	c868                	sw	a0,84(s0)
    a6dc:	584c                	lw	a1,52(s0)
    a6de:	0124a023          	sw	s2,0(s1)
    a6e2:	cd85                	beqz	a1,a71a <__sflush_r+0xb2>
    a6e4:	04440793          	addi	a5,s0,68
    a6e8:	00f58463          	beq	a1,a5,a6f0 <__sflush_r+0x88>
    a6ec:	8526                	mv	a0,s1
    a6ee:	2145                	jal	ab8e <_free_r>
    a6f0:	02042a23          	sw	zero,52(s0)
    a6f4:	a01d                	j	a71a <__sflush_r+0xb2>
    a6f6:	4601                	li	a2,0
    a6f8:	4685                	li	a3,1
    a6fa:	8526                	mv	a0,s1
    a6fc:	9702                	jalr	a4
    a6fe:	57fd                	li	a5,-1
    a700:	862a                	mv	a2,a0
    a702:	faf511e3          	bne	a0,a5,a6a4 <__sflush_r+0x3c>
    a706:	409c                	lw	a5,0(s1)
    a708:	dfd1                	beqz	a5,a6a4 <__sflush_r+0x3c>
    a70a:	4775                	li	a4,29
    a70c:	00e78563          	beq	a5,a4,a716 <__sflush_r+0xae>
    a710:	4759                	li	a4,22
    a712:	06e79563          	bne	a5,a4,a77c <__sflush_r+0x114>
    a716:	0124a023          	sw	s2,0(s1)
    a71a:	4501                	li	a0,0
    a71c:	a0bd                	j	a78a <__sflush_r+0x122>
    a71e:	4098                	lw	a4,0(s1)
    a720:	00c41783          	lh	a5,12(s0)
    a724:	cf01                	beqz	a4,a73c <__sflush_r+0xd4>
    a726:	46f5                	li	a3,29
    a728:	00d70563          	beq	a4,a3,a732 <__sflush_r+0xca>
    a72c:	46d9                	li	a3,22
    a72e:	04d71963          	bne	a4,a3,a780 <__sflush_r+0x118>
    a732:	481c                	lw	a5,16(s0)
    a734:	00042223          	sw	zero,4(s0)
    a738:	c01c                	sw	a5,0(s0)
    a73a:	b74d                	j	a6dc <__sflush_r+0x74>
    a73c:	4818                	lw	a4,16(s0)
    a73e:	83b1                	srli	a5,a5,0xc
    a740:	00042223          	sw	zero,4(s0)
    a744:	c018                	sw	a4,0(s0)
    a746:	8b85                	andi	a5,a5,1
    a748:	bf41                	j	a6d8 <__sflush_r+0x70>
    a74a:	0105a983          	lw	s3,16(a1)
    a74e:	fc0986e3          	beqz	s3,a71a <__sflush_r+0xb2>
    a752:	0005a903          	lw	s2,0(a1)
    a756:	8b8d                	andi	a5,a5,3
    a758:	0135a023          	sw	s3,0(a1)
    a75c:	41390933          	sub	s2,s2,s3
    a760:	4701                	li	a4,0
    a762:	e391                	bnez	a5,a766 <__sflush_r+0xfe>
    a764:	49d8                	lw	a4,20(a1)
    a766:	c418                	sw	a4,8(s0)
    a768:	fb2059e3          	blez	s2,a71a <__sflush_r+0xb2>
    a76c:	541c                	lw	a5,40(s0)
    a76e:	500c                	lw	a1,32(s0)
    a770:	86ca                	mv	a3,s2
    a772:	864e                	mv	a2,s3
    a774:	8526                	mv	a0,s1
    a776:	9782                	jalr	a5
    a778:	02a04063          	bgtz	a0,a798 <__sflush_r+0x130>
    a77c:	00c41783          	lh	a5,12(s0)
    a780:	0407e793          	ori	a5,a5,64
    a784:	00f41623          	sh	a5,12(s0)
    a788:	557d                	li	a0,-1
    a78a:	40f2                	lw	ra,28(sp)
    a78c:	4462                	lw	s0,24(sp)
    a78e:	44d2                	lw	s1,20(sp)
    a790:	4942                	lw	s2,16(sp)
    a792:	49b2                	lw	s3,12(sp)
    a794:	6105                	addi	sp,sp,32
    a796:	8082                	ret
    a798:	99aa                	add	s3,s3,a0
    a79a:	40a90933          	sub	s2,s2,a0
    a79e:	b7e9                	j	a768 <__sflush_r+0x100>

0000a7a0 <_fflush_r>:
    a7a0:	499c                	lw	a5,16(a1)
    a7a2:	1141                	addi	sp,sp,-16
    a7a4:	c606                	sw	ra,12(sp)
    a7a6:	c422                	sw	s0,8(sp)
    a7a8:	c226                	sw	s1,4(sp)
    a7aa:	eb81                	bnez	a5,a7ba <_fflush_r+0x1a>
    a7ac:	4481                	li	s1,0
    a7ae:	40b2                	lw	ra,12(sp)
    a7b0:	4422                	lw	s0,8(sp)
    a7b2:	8526                	mv	a0,s1
    a7b4:	4492                	lw	s1,4(sp)
    a7b6:	0141                	addi	sp,sp,16
    a7b8:	8082                	ret
    a7ba:	84aa                	mv	s1,a0
    a7bc:	842e                	mv	s0,a1
    a7be:	c501                	beqz	a0,a7c6 <_fflush_r+0x26>
    a7c0:	4d1c                	lw	a5,24(a0)
    a7c2:	e391                	bnez	a5,a7c6 <_fflush_r+0x26>
    a7c4:	2a25                	jal	a8fc <__sinit>
    a7c6:	00001797          	auipc	a5,0x1
    a7ca:	36a78793          	addi	a5,a5,874 # bb30 <__sf_fake_stdin>
    a7ce:	02f41e63          	bne	s0,a5,a80a <_fflush_r+0x6a>
    a7d2:	40c0                	lw	s0,4(s1)
    a7d4:	00c41783          	lh	a5,12(s0)
    a7d8:	dbf1                	beqz	a5,a7ac <_fflush_r+0xc>
    a7da:	5078                	lw	a4,100(s0)
    a7dc:	8b05                	andi	a4,a4,1
    a7de:	e711                	bnez	a4,a7ea <_fflush_r+0x4a>
    a7e0:	2007f793          	andi	a5,a5,512
    a7e4:	e399                	bnez	a5,a7ea <_fflush_r+0x4a>
    a7e6:	4c28                	lw	a0,88(s0)
    a7e8:	244d                	jal	aa8a <__retarget_lock_acquire_recursive>
    a7ea:	8526                	mv	a0,s1
    a7ec:	85a2                	mv	a1,s0
    a7ee:	e7bff0ef          	jal	ra,a668 <__sflush_r>
    a7f2:	507c                	lw	a5,100(s0)
    a7f4:	84aa                	mv	s1,a0
    a7f6:	8b85                	andi	a5,a5,1
    a7f8:	fbdd                	bnez	a5,a7ae <_fflush_r+0xe>
    a7fa:	00c45783          	lhu	a5,12(s0)
    a7fe:	2007f793          	andi	a5,a5,512
    a802:	f7d5                	bnez	a5,a7ae <_fflush_r+0xe>
    a804:	4c28                	lw	a0,88(s0)
    a806:	2459                	jal	aa8c <__retarget_lock_release_recursive>
    a808:	b75d                	j	a7ae <_fflush_r+0xe>
    a80a:	00001797          	auipc	a5,0x1
    a80e:	30678793          	addi	a5,a5,774 # bb10 <__sf_fake_stdout>
    a812:	00f41463          	bne	s0,a5,a81a <_fflush_r+0x7a>
    a816:	4480                	lw	s0,8(s1)
    a818:	bf75                	j	a7d4 <_fflush_r+0x34>
    a81a:	00001797          	auipc	a5,0x1
    a81e:	2d678793          	addi	a5,a5,726 # baf0 <__sf_fake_stderr>
    a822:	faf419e3          	bne	s0,a5,a7d4 <_fflush_r+0x34>
    a826:	44c0                	lw	s0,12(s1)
    a828:	b775                	j	a7d4 <_fflush_r+0x34>

0000a82a <std>:
    a82a:	1141                	addi	sp,sp,-16
    a82c:	c422                	sw	s0,8(sp)
    a82e:	c606                	sw	ra,12(sp)
    a830:	842a                	mv	s0,a0
    a832:	00b51623          	sh	a1,12(a0)
    a836:	00c51723          	sh	a2,14(a0)
    a83a:	00052023          	sw	zero,0(a0)
    a83e:	00052223          	sw	zero,4(a0)
    a842:	00052423          	sw	zero,8(a0)
    a846:	06052223          	sw	zero,100(a0)
    a84a:	00052823          	sw	zero,16(a0)
    a84e:	00052a23          	sw	zero,20(a0)
    a852:	00052c23          	sw	zero,24(a0)
    a856:	4621                	li	a2,8
    a858:	4581                	li	a1,0
    a85a:	05c50513          	addi	a0,a0,92
    a85e:	959f50ef          	jal	ra,1b6 <memset>
    a862:	00001797          	auipc	a5,0x1
    a866:	89a78793          	addi	a5,a5,-1894 # b0fc <__sread>
    a86a:	d05c                	sw	a5,36(s0)
    a86c:	00001797          	auipc	a5,0x1
    a870:	8c078793          	addi	a5,a5,-1856 # b12c <__swrite>
    a874:	d41c                	sw	a5,40(s0)
    a876:	00001797          	auipc	a5,0x1
    a87a:	90478793          	addi	a5,a5,-1788 # b17a <__sseek>
    a87e:	d45c                	sw	a5,44(s0)
    a880:	00001797          	auipc	a5,0x1
    a884:	93078793          	addi	a5,a5,-1744 # b1b0 <__sclose>
    a888:	40b2                	lw	ra,12(sp)
    a88a:	d000                	sw	s0,32(s0)
    a88c:	d81c                	sw	a5,48(s0)
    a88e:	4422                	lw	s0,8(sp)
    a890:	0141                	addi	sp,sp,16
    a892:	8082                	ret

0000a894 <_cleanup_r>:
    a894:	00000597          	auipc	a1,0x0
    a898:	f0c58593          	addi	a1,a1,-244 # a7a0 <_fflush_r>
    a89c:	a249                	j	aa1e <_fwalk_reent>

0000a89e <__sfmoreglue>:
    a89e:	1141                	addi	sp,sp,-16
    a8a0:	c226                	sw	s1,4(sp)
    a8a2:	06800793          	li	a5,104
    a8a6:	fff58493          	addi	s1,a1,-1
    a8aa:	02f484b3          	mul	s1,s1,a5
    a8ae:	c04a                	sw	s2,0(sp)
    a8b0:	892e                	mv	s2,a1
    a8b2:	c422                	sw	s0,8(sp)
    a8b4:	c606                	sw	ra,12(sp)
    a8b6:	07448593          	addi	a1,s1,116
    a8ba:	26d9                	jal	ac80 <_malloc_r>
    a8bc:	842a                	mv	s0,a0
    a8be:	cd01                	beqz	a0,a8d6 <__sfmoreglue+0x38>
    a8c0:	00052023          	sw	zero,0(a0)
    a8c4:	01252223          	sw	s2,4(a0)
    a8c8:	0531                	addi	a0,a0,12
    a8ca:	c408                	sw	a0,8(s0)
    a8cc:	06848613          	addi	a2,s1,104
    a8d0:	4581                	li	a1,0
    a8d2:	8e5f50ef          	jal	ra,1b6 <memset>
    a8d6:	40b2                	lw	ra,12(sp)
    a8d8:	8522                	mv	a0,s0
    a8da:	4422                	lw	s0,8(sp)
    a8dc:	4492                	lw	s1,4(sp)
    a8de:	4902                	lw	s2,0(sp)
    a8e0:	0141                	addi	sp,sp,16
    a8e2:	8082                	ret

0000a8e4 <__sfp_lock_acquire>:
    a8e4:	a1018513          	addi	a0,gp,-1520 # 20001ab8 <__lock___sfp_recursive_mutex>
    a8e8:	a24d                	j	aa8a <__retarget_lock_acquire_recursive>

0000a8ea <__sfp_lock_release>:
    a8ea:	a1018513          	addi	a0,gp,-1520 # 20001ab8 <__lock___sfp_recursive_mutex>
    a8ee:	aa79                	j	aa8c <__retarget_lock_release_recursive>

0000a8f0 <__sinit_lock_acquire>:
    a8f0:	a1418513          	addi	a0,gp,-1516 # 20001abc <__lock___sinit_recursive_mutex>
    a8f4:	aa59                	j	aa8a <__retarget_lock_acquire_recursive>

0000a8f6 <__sinit_lock_release>:
    a8f6:	a1418513          	addi	a0,gp,-1516 # 20001abc <__lock___sinit_recursive_mutex>
    a8fa:	aa49                	j	aa8c <__retarget_lock_release_recursive>

0000a8fc <__sinit>:
    a8fc:	1141                	addi	sp,sp,-16
    a8fe:	c422                	sw	s0,8(sp)
    a900:	c606                	sw	ra,12(sp)
    a902:	842a                	mv	s0,a0
    a904:	fedff0ef          	jal	ra,a8f0 <__sinit_lock_acquire>
    a908:	4c1c                	lw	a5,24(s0)
    a90a:	c791                	beqz	a5,a916 <__sinit+0x1a>
    a90c:	4422                	lw	s0,8(sp)
    a90e:	40b2                	lw	ra,12(sp)
    a910:	0141                	addi	sp,sp,16
    a912:	fe5ff06f          	j	a8f6 <__sinit_lock_release>
    a916:	00000797          	auipc	a5,0x0
    a91a:	f7e78793          	addi	a5,a5,-130 # a894 <_cleanup_r>
    a91e:	d41c                	sw	a5,40(s0)
    a920:	04042423          	sw	zero,72(s0)
    a924:	04042623          	sw	zero,76(s0)
    a928:	04042823          	sw	zero,80(s0)
    a92c:	8841a783          	lw	a5,-1916(gp) # 2000192c <_global_impure_ptr>
    a930:	00879463          	bne	a5,s0,a938 <__sinit+0x3c>
    a934:	4785                	li	a5,1
    a936:	cc1c                	sw	a5,24(s0)
    a938:	8522                	mv	a0,s0
    a93a:	2815                	jal	a96e <__sfp>
    a93c:	c048                	sw	a0,4(s0)
    a93e:	8522                	mv	a0,s0
    a940:	203d                	jal	a96e <__sfp>
    a942:	c408                	sw	a0,8(s0)
    a944:	8522                	mv	a0,s0
    a946:	2025                	jal	a96e <__sfp>
    a948:	c448                	sw	a0,12(s0)
    a94a:	4048                	lw	a0,4(s0)
    a94c:	4601                	li	a2,0
    a94e:	4591                	li	a1,4
    a950:	edbff0ef          	jal	ra,a82a <std>
    a954:	4408                	lw	a0,8(s0)
    a956:	4605                	li	a2,1
    a958:	45a5                	li	a1,9
    a95a:	ed1ff0ef          	jal	ra,a82a <std>
    a95e:	4448                	lw	a0,12(s0)
    a960:	4609                	li	a2,2
    a962:	45c9                	li	a1,18
    a964:	ec7ff0ef          	jal	ra,a82a <std>
    a968:	4785                	li	a5,1
    a96a:	cc1c                	sw	a5,24(s0)
    a96c:	b745                	j	a90c <__sinit+0x10>

0000a96e <__sfp>:
    a96e:	1141                	addi	sp,sp,-16
    a970:	c226                	sw	s1,4(sp)
    a972:	c04a                	sw	s2,0(sp)
    a974:	c606                	sw	ra,12(sp)
    a976:	c422                	sw	s0,8(sp)
    a978:	892a                	mv	s2,a0
    a97a:	f6bff0ef          	jal	ra,a8e4 <__sfp_lock_acquire>
    a97e:	8841a483          	lw	s1,-1916(gp) # 2000192c <_global_impure_ptr>
    a982:	4c9c                	lw	a5,24(s1)
    a984:	e781                	bnez	a5,a98c <__sfp+0x1e>
    a986:	8526                	mv	a0,s1
    a988:	f75ff0ef          	jal	ra,a8fc <__sinit>
    a98c:	04848493          	addi	s1,s1,72
    a990:	4480                	lw	s0,8(s1)
    a992:	40dc                	lw	a5,4(s1)
    a994:	17fd                	addi	a5,a5,-1
    a996:	0007d663          	bgez	a5,a9a2 <__sfp+0x34>
    a99a:	409c                	lw	a5,0(s1)
    a99c:	c7a5                	beqz	a5,aa04 <__sfp+0x96>
    a99e:	4084                	lw	s1,0(s1)
    a9a0:	bfc5                	j	a990 <__sfp+0x22>
    a9a2:	00c41703          	lh	a4,12(s0)
    a9a6:	ef21                	bnez	a4,a9fe <__sfp+0x90>
    a9a8:	77c1                	lui	a5,0xffff0
    a9aa:	0785                	addi	a5,a5,1 # ffff0001 <_eusrstack+0xdffeb001>
    a9ac:	c45c                	sw	a5,12(s0)
    a9ae:	05840513          	addi	a0,s0,88
    a9b2:	06042223          	sw	zero,100(s0)
    a9b6:	28c9                	jal	aa88 <__retarget_lock_init_recursive>
    a9b8:	f33ff0ef          	jal	ra,a8ea <__sfp_lock_release>
    a9bc:	4621                	li	a2,8
    a9be:	00042023          	sw	zero,0(s0)
    a9c2:	00042423          	sw	zero,8(s0)
    a9c6:	00042223          	sw	zero,4(s0)
    a9ca:	00042823          	sw	zero,16(s0)
    a9ce:	00042a23          	sw	zero,20(s0)
    a9d2:	00042c23          	sw	zero,24(s0)
    a9d6:	4581                	li	a1,0
    a9d8:	05c40513          	addi	a0,s0,92
    a9dc:	fdaf50ef          	jal	ra,1b6 <memset>
    a9e0:	02042a23          	sw	zero,52(s0)
    a9e4:	02042c23          	sw	zero,56(s0)
    a9e8:	04042423          	sw	zero,72(s0)
    a9ec:	04042623          	sw	zero,76(s0)
    a9f0:	40b2                	lw	ra,12(sp)
    a9f2:	8522                	mv	a0,s0
    a9f4:	4422                	lw	s0,8(sp)
    a9f6:	4492                	lw	s1,4(sp)
    a9f8:	4902                	lw	s2,0(sp)
    a9fa:	0141                	addi	sp,sp,16
    a9fc:	8082                	ret
    a9fe:	06840413          	addi	s0,s0,104
    aa02:	bf49                	j	a994 <__sfp+0x26>
    aa04:	4591                	li	a1,4
    aa06:	854a                	mv	a0,s2
    aa08:	e97ff0ef          	jal	ra,a89e <__sfmoreglue>
    aa0c:	c088                	sw	a0,0(s1)
    aa0e:	842a                	mv	s0,a0
    aa10:	f559                	bnez	a0,a99e <__sfp+0x30>
    aa12:	ed9ff0ef          	jal	ra,a8ea <__sfp_lock_release>
    aa16:	47b1                	li	a5,12
    aa18:	00f92023          	sw	a5,0(s2)
    aa1c:	bfd1                	j	a9f0 <__sfp+0x82>

0000aa1e <_fwalk_reent>:
    aa1e:	7179                	addi	sp,sp,-48
    aa20:	d422                	sw	s0,40(sp)
    aa22:	d04a                	sw	s2,32(sp)
    aa24:	ce4e                	sw	s3,28(sp)
    aa26:	cc52                	sw	s4,24(sp)
    aa28:	c85a                	sw	s6,16(sp)
    aa2a:	c65e                	sw	s7,12(sp)
    aa2c:	d606                	sw	ra,44(sp)
    aa2e:	d226                	sw	s1,36(sp)
    aa30:	ca56                	sw	s5,20(sp)
    aa32:	892a                	mv	s2,a0
    aa34:	8a2e                	mv	s4,a1
    aa36:	04850413          	addi	s0,a0,72
    aa3a:	4981                	li	s3,0
    aa3c:	4b05                	li	s6,1
    aa3e:	5bfd                	li	s7,-1
    aa40:	4404                	lw	s1,8(s0)
    aa42:	00442a83          	lw	s5,4(s0)
    aa46:	1afd                	addi	s5,s5,-1
    aa48:	020ad063          	bgez	s5,aa68 <_fwalk_reent+0x4a>
    aa4c:	4000                	lw	s0,0(s0)
    aa4e:	f86d                	bnez	s0,aa40 <_fwalk_reent+0x22>
    aa50:	50b2                	lw	ra,44(sp)
    aa52:	5422                	lw	s0,40(sp)
    aa54:	5492                	lw	s1,36(sp)
    aa56:	5902                	lw	s2,32(sp)
    aa58:	4a62                	lw	s4,24(sp)
    aa5a:	4ad2                	lw	s5,20(sp)
    aa5c:	4b42                	lw	s6,16(sp)
    aa5e:	4bb2                	lw	s7,12(sp)
    aa60:	854e                	mv	a0,s3
    aa62:	49f2                	lw	s3,28(sp)
    aa64:	6145                	addi	sp,sp,48
    aa66:	8082                	ret
    aa68:	00c4d783          	lhu	a5,12(s1)
    aa6c:	00fb7b63          	bgeu	s6,a5,aa82 <_fwalk_reent+0x64>
    aa70:	00e49783          	lh	a5,14(s1)
    aa74:	01778763          	beq	a5,s7,aa82 <_fwalk_reent+0x64>
    aa78:	85a6                	mv	a1,s1
    aa7a:	854a                	mv	a0,s2
    aa7c:	9a02                	jalr	s4
    aa7e:	00a9e9b3          	or	s3,s3,a0
    aa82:	06848493          	addi	s1,s1,104
    aa86:	b7c1                	j	aa46 <_fwalk_reent+0x28>

0000aa88 <__retarget_lock_init_recursive>:
    aa88:	8082                	ret

0000aa8a <__retarget_lock_acquire_recursive>:
    aa8a:	8082                	ret

0000aa8c <__retarget_lock_release_recursive>:
    aa8c:	8082                	ret

0000aa8e <__swhatbuf_r>:
    aa8e:	7159                	addi	sp,sp,-112
    aa90:	d4a2                	sw	s0,104(sp)
    aa92:	842e                	mv	s0,a1
    aa94:	00e59583          	lh	a1,14(a1)
    aa98:	d2a6                	sw	s1,100(sp)
    aa9a:	d0ca                	sw	s2,96(sp)
    aa9c:	d686                	sw	ra,108(sp)
    aa9e:	84b2                	mv	s1,a2
    aaa0:	8936                	mv	s2,a3
    aaa2:	0205d363          	bgez	a1,aac8 <__swhatbuf_r+0x3a>
    aaa6:	00c45783          	lhu	a5,12(s0)
    aaaa:	0807f793          	andi	a5,a5,128
    aaae:	eb95                	bnez	a5,aae2 <__swhatbuf_r+0x54>
    aab0:	40000713          	li	a4,1024
    aab4:	50b6                	lw	ra,108(sp)
    aab6:	5426                	lw	s0,104(sp)
    aab8:	00f92023          	sw	a5,0(s2)
    aabc:	c098                	sw	a4,0(s1)
    aabe:	5906                	lw	s2,96(sp)
    aac0:	5496                	lw	s1,100(sp)
    aac2:	4501                	li	a0,0
    aac4:	6165                	addi	sp,sp,112
    aac6:	8082                	ret
    aac8:	0030                	addi	a2,sp,8
    aaca:	73e000ef          	jal	ra,b208 <_fstat_r>
    aace:	fc054ce3          	bltz	a0,aaa6 <__swhatbuf_r+0x18>
    aad2:	4732                	lw	a4,12(sp)
    aad4:	67bd                	lui	a5,0xf
    aad6:	8ff9                	and	a5,a5,a4
    aad8:	7779                	lui	a4,0xffffe
    aada:	97ba                	add	a5,a5,a4
    aadc:	0017b793          	seqz	a5,a5
    aae0:	bfc1                	j	aab0 <__swhatbuf_r+0x22>
    aae2:	4781                	li	a5,0
    aae4:	04000713          	li	a4,64
    aae8:	b7f1                	j	aab4 <__swhatbuf_r+0x26>

0000aaea <__smakebuf_r>:
    aaea:	00c5d783          	lhu	a5,12(a1)
    aaee:	7179                	addi	sp,sp,-48
    aaf0:	d422                	sw	s0,40(sp)
    aaf2:	d606                	sw	ra,44(sp)
    aaf4:	d226                	sw	s1,36(sp)
    aaf6:	d04a                	sw	s2,32(sp)
    aaf8:	ce4e                	sw	s3,28(sp)
    aafa:	8b89                	andi	a5,a5,2
    aafc:	842e                	mv	s0,a1
    aafe:	cf91                	beqz	a5,ab1a <__smakebuf_r+0x30>
    ab00:	04740793          	addi	a5,s0,71
    ab04:	c01c                	sw	a5,0(s0)
    ab06:	c81c                	sw	a5,16(s0)
    ab08:	4785                	li	a5,1
    ab0a:	c85c                	sw	a5,20(s0)
    ab0c:	50b2                	lw	ra,44(sp)
    ab0e:	5422                	lw	s0,40(sp)
    ab10:	5492                	lw	s1,36(sp)
    ab12:	5902                	lw	s2,32(sp)
    ab14:	49f2                	lw	s3,28(sp)
    ab16:	6145                	addi	sp,sp,48
    ab18:	8082                	ret
    ab1a:	0074                	addi	a3,sp,12
    ab1c:	0030                	addi	a2,sp,8
    ab1e:	84aa                	mv	s1,a0
    ab20:	f6fff0ef          	jal	ra,aa8e <__swhatbuf_r>
    ab24:	49a2                	lw	s3,8(sp)
    ab26:	892a                	mv	s2,a0
    ab28:	8526                	mv	a0,s1
    ab2a:	85ce                	mv	a1,s3
    ab2c:	2a91                	jal	ac80 <_malloc_r>
    ab2e:	ed01                	bnez	a0,ab46 <__smakebuf_r+0x5c>
    ab30:	00c41783          	lh	a5,12(s0)
    ab34:	2007f713          	andi	a4,a5,512
    ab38:	fb71                	bnez	a4,ab0c <__smakebuf_r+0x22>
    ab3a:	9bf1                	andi	a5,a5,-4
    ab3c:	0027e793          	ori	a5,a5,2
    ab40:	00f41623          	sh	a5,12(s0)
    ab44:	bf75                	j	ab00 <__smakebuf_r+0x16>
    ab46:	00000797          	auipc	a5,0x0
    ab4a:	d4e78793          	addi	a5,a5,-690 # a894 <_cleanup_r>
    ab4e:	d49c                	sw	a5,40(s1)
    ab50:	00c45783          	lhu	a5,12(s0)
    ab54:	c008                	sw	a0,0(s0)
    ab56:	c808                	sw	a0,16(s0)
    ab58:	0807e793          	ori	a5,a5,128
    ab5c:	00f41623          	sh	a5,12(s0)
    ab60:	47b2                	lw	a5,12(sp)
    ab62:	01342a23          	sw	s3,20(s0)
    ab66:	cf89                	beqz	a5,ab80 <__smakebuf_r+0x96>
    ab68:	00e41583          	lh	a1,14(s0)
    ab6c:	8526                	mv	a0,s1
    ab6e:	25c9                	jal	b230 <_isatty_r>
    ab70:	c901                	beqz	a0,ab80 <__smakebuf_r+0x96>
    ab72:	00c45783          	lhu	a5,12(s0)
    ab76:	9bf1                	andi	a5,a5,-4
    ab78:	0017e793          	ori	a5,a5,1
    ab7c:	00f41623          	sh	a5,12(s0)
    ab80:	00c45783          	lhu	a5,12(s0)
    ab84:	0127e533          	or	a0,a5,s2
    ab88:	00a41623          	sh	a0,12(s0)
    ab8c:	b741                	j	ab0c <__smakebuf_r+0x22>

0000ab8e <_free_r>:
    ab8e:	cdd1                	beqz	a1,ac2a <_free_r+0x9c>
    ab90:	ffc5a783          	lw	a5,-4(a1)
    ab94:	1101                	addi	sp,sp,-32
    ab96:	cc22                	sw	s0,24(sp)
    ab98:	ce06                	sw	ra,28(sp)
    ab9a:	ffc58413          	addi	s0,a1,-4
    ab9e:	0007d363          	bgez	a5,aba4 <_free_r+0x16>
    aba2:	943e                	add	s0,s0,a5
    aba4:	c62a                	sw	a0,12(sp)
    aba6:	2dd5                	jal	b29a <__malloc_lock>
    aba8:	a1c18713          	addi	a4,gp,-1508 # 20001ac4 <__malloc_free_list>
    abac:	431c                	lw	a5,0(a4)
    abae:	4532                	lw	a0,12(sp)
    abb0:	eb81                	bnez	a5,abc0 <_free_r+0x32>
    abb2:	00042223          	sw	zero,4(s0)
    abb6:	c300                	sw	s0,0(a4)
    abb8:	4462                	lw	s0,24(sp)
    abba:	40f2                	lw	ra,28(sp)
    abbc:	6105                	addi	sp,sp,32
    abbe:	a5d5                	j	b2a2 <__malloc_unlock>
    abc0:	00f47d63          	bgeu	s0,a5,abda <_free_r+0x4c>
    abc4:	4010                	lw	a2,0(s0)
    abc6:	00c406b3          	add	a3,s0,a2
    abca:	00d79663          	bne	a5,a3,abd6 <_free_r+0x48>
    abce:	4394                	lw	a3,0(a5)
    abd0:	43dc                	lw	a5,4(a5)
    abd2:	96b2                	add	a3,a3,a2
    abd4:	c014                	sw	a3,0(s0)
    abd6:	c05c                	sw	a5,4(s0)
    abd8:	bff9                	j	abb6 <_free_r+0x28>
    abda:	873e                	mv	a4,a5
    abdc:	43dc                	lw	a5,4(a5)
    abde:	c399                	beqz	a5,abe4 <_free_r+0x56>
    abe0:	fef47de3          	bgeu	s0,a5,abda <_free_r+0x4c>
    abe4:	4314                	lw	a3,0(a4)
    abe6:	00d70633          	add	a2,a4,a3
    abea:	00861f63          	bne	a2,s0,ac08 <_free_r+0x7a>
    abee:	4010                	lw	a2,0(s0)
    abf0:	96b2                	add	a3,a3,a2
    abf2:	c314                	sw	a3,0(a4)
    abf4:	00d70633          	add	a2,a4,a3
    abf8:	fcc790e3          	bne	a5,a2,abb8 <_free_r+0x2a>
    abfc:	4390                	lw	a2,0(a5)
    abfe:	43dc                	lw	a5,4(a5)
    ac00:	96b2                	add	a3,a3,a2
    ac02:	c314                	sw	a3,0(a4)
    ac04:	c35c                	sw	a5,4(a4)
    ac06:	bf4d                	j	abb8 <_free_r+0x2a>
    ac08:	00c47563          	bgeu	s0,a2,ac12 <_free_r+0x84>
    ac0c:	47b1                	li	a5,12
    ac0e:	c11c                	sw	a5,0(a0)
    ac10:	b765                	j	abb8 <_free_r+0x2a>
    ac12:	4010                	lw	a2,0(s0)
    ac14:	00c406b3          	add	a3,s0,a2
    ac18:	00d79663          	bne	a5,a3,ac24 <_free_r+0x96>
    ac1c:	4394                	lw	a3,0(a5)
    ac1e:	43dc                	lw	a5,4(a5)
    ac20:	96b2                	add	a3,a3,a2
    ac22:	c014                	sw	a3,0(s0)
    ac24:	c05c                	sw	a5,4(s0)
    ac26:	c340                	sw	s0,4(a4)
    ac28:	bf41                	j	abb8 <_free_r+0x2a>
    ac2a:	8082                	ret

0000ac2c <sbrk_aligned>:
    ac2c:	1141                	addi	sp,sp,-16
    ac2e:	c04a                	sw	s2,0(sp)
    ac30:	a1818913          	addi	s2,gp,-1512 # 20001ac0 <__malloc_sbrk_start>
    ac34:	00092783          	lw	a5,0(s2)
    ac38:	c422                	sw	s0,8(sp)
    ac3a:	c226                	sw	s1,4(sp)
    ac3c:	c606                	sw	ra,12(sp)
    ac3e:	84aa                	mv	s1,a0
    ac40:	842e                	mv	s0,a1
    ac42:	e789                	bnez	a5,ac4c <sbrk_aligned+0x20>
    ac44:	4581                	li	a1,0
    ac46:	2179                	jal	b0d4 <_sbrk_r>
    ac48:	00a92023          	sw	a0,0(s2)
    ac4c:	85a2                	mv	a1,s0
    ac4e:	8526                	mv	a0,s1
    ac50:	2151                	jal	b0d4 <_sbrk_r>
    ac52:	597d                	li	s2,-1
    ac54:	01251a63          	bne	a0,s2,ac68 <sbrk_aligned+0x3c>
    ac58:	547d                	li	s0,-1
    ac5a:	40b2                	lw	ra,12(sp)
    ac5c:	8522                	mv	a0,s0
    ac5e:	4422                	lw	s0,8(sp)
    ac60:	4492                	lw	s1,4(sp)
    ac62:	4902                	lw	s2,0(sp)
    ac64:	0141                	addi	sp,sp,16
    ac66:	8082                	ret
    ac68:	00350413          	addi	s0,a0,3
    ac6c:	9871                	andi	s0,s0,-4
    ac6e:	fe8506e3          	beq	a0,s0,ac5a <sbrk_aligned+0x2e>
    ac72:	40a405b3          	sub	a1,s0,a0
    ac76:	8526                	mv	a0,s1
    ac78:	29b1                	jal	b0d4 <_sbrk_r>
    ac7a:	ff2510e3          	bne	a0,s2,ac5a <sbrk_aligned+0x2e>
    ac7e:	bfe9                	j	ac58 <sbrk_aligned+0x2c>

0000ac80 <_malloc_r>:
    ac80:	1101                	addi	sp,sp,-32
    ac82:	ca26                	sw	s1,20(sp)
    ac84:	00358493          	addi	s1,a1,3
    ac88:	98f1                	andi	s1,s1,-4
    ac8a:	c84a                	sw	s2,16(sp)
    ac8c:	ce06                	sw	ra,28(sp)
    ac8e:	cc22                	sw	s0,24(sp)
    ac90:	c64e                	sw	s3,12(sp)
    ac92:	04a1                	addi	s1,s1,8
    ac94:	47b1                	li	a5,12
    ac96:	892a                	mv	s2,a0
    ac98:	06f4f563          	bgeu	s1,a5,ad02 <_malloc_r+0x82>
    ac9c:	44b1                	li	s1,12
    ac9e:	06b4e463          	bltu	s1,a1,ad06 <_malloc_r+0x86>
    aca2:	854a                	mv	a0,s2
    aca4:	2bdd                	jal	b29a <__malloc_lock>
    aca6:	a1c18993          	addi	s3,gp,-1508 # 20001ac4 <__malloc_free_list>
    acaa:	0009a783          	lw	a5,0(s3)
    acae:	843e                	mv	s0,a5
    acb0:	e435                	bnez	s0,ad1c <_malloc_r+0x9c>
    acb2:	85a6                	mv	a1,s1
    acb4:	854a                	mv	a0,s2
    acb6:	f77ff0ef          	jal	ra,ac2c <sbrk_aligned>
    acba:	57fd                	li	a5,-1
    acbc:	842a                	mv	s0,a0
    acbe:	0cf51563          	bne	a0,a5,ad88 <_malloc_r+0x108>
    acc2:	0009a403          	lw	s0,0(s3)
    acc6:	87a2                	mv	a5,s0
    acc8:	e7dd                	bnez	a5,ad76 <_malloc_r+0xf6>
    acca:	00042983          	lw	s3,0(s0)
    acce:	4581                	li	a1,0
    acd0:	854a                	mv	a0,s2
    acd2:	99a2                	add	s3,s3,s0
    acd4:	2101                	jal	b0d4 <_sbrk_r>
    acd6:	0aa99363          	bne	s3,a0,ad7c <_malloc_r+0xfc>
    acda:	401c                	lw	a5,0(s0)
    acdc:	048d                	addi	s1,s1,3
    acde:	8c9d                	sub	s1,s1,a5
    ace0:	98f1                	andi	s1,s1,-4
    ace2:	04a1                	addi	s1,s1,8
    ace4:	47b1                	li	a5,12
    ace6:	00f4f363          	bgeu	s1,a5,acec <_malloc_r+0x6c>
    acea:	44b1                	li	s1,12
    acec:	85a6                	mv	a1,s1
    acee:	854a                	mv	a0,s2
    acf0:	f3dff0ef          	jal	ra,ac2c <sbrk_aligned>
    acf4:	57fd                	li	a5,-1
    acf6:	08f50363          	beq	a0,a5,ad7c <_malloc_r+0xfc>
    acfa:	401c                	lw	a5,0(s0)
    acfc:	97a6                	add	a5,a5,s1
    acfe:	c01c                	sw	a5,0(s0)
    ad00:	a83d                	j	ad3e <_malloc_r+0xbe>
    ad02:	f804dee3          	bgez	s1,ac9e <_malloc_r+0x1e>
    ad06:	47b1                	li	a5,12
    ad08:	00f92023          	sw	a5,0(s2)
    ad0c:	4501                	li	a0,0
    ad0e:	40f2                	lw	ra,28(sp)
    ad10:	4462                	lw	s0,24(sp)
    ad12:	44d2                	lw	s1,20(sp)
    ad14:	4942                	lw	s2,16(sp)
    ad16:	49b2                	lw	s3,12(sp)
    ad18:	6105                	addi	sp,sp,32
    ad1a:	8082                	ret
    ad1c:	4014                	lw	a3,0(s0)
    ad1e:	8e85                	sub	a3,a3,s1
    ad20:	0406c863          	bltz	a3,ad70 <_malloc_r+0xf0>
    ad24:	472d                	li	a4,11
    ad26:	02d77d63          	bgeu	a4,a3,ad60 <_malloc_r+0xe0>
    ad2a:	c004                	sw	s1,0(s0)
    ad2c:	00940733          	add	a4,s0,s1
    ad30:	02879663          	bne	a5,s0,ad5c <_malloc_r+0xdc>
    ad34:	00e9a023          	sw	a4,0(s3)
    ad38:	405c                	lw	a5,4(s0)
    ad3a:	c314                	sw	a3,0(a4)
    ad3c:	c35c                	sw	a5,4(a4)
    ad3e:	854a                	mv	a0,s2
    ad40:	238d                	jal	b2a2 <__malloc_unlock>
    ad42:	00b40513          	addi	a0,s0,11
    ad46:	00440793          	addi	a5,s0,4
    ad4a:	9961                	andi	a0,a0,-8
    ad4c:	40f50733          	sub	a4,a0,a5
    ad50:	faf50fe3          	beq	a0,a5,ad0e <_malloc_r+0x8e>
    ad54:	943a                	add	s0,s0,a4
    ad56:	8f89                	sub	a5,a5,a0
    ad58:	c01c                	sw	a5,0(s0)
    ad5a:	bf55                	j	ad0e <_malloc_r+0x8e>
    ad5c:	c3d8                	sw	a4,4(a5)
    ad5e:	bfe9                	j	ad38 <_malloc_r+0xb8>
    ad60:	4058                	lw	a4,4(s0)
    ad62:	00879563          	bne	a5,s0,ad6c <_malloc_r+0xec>
    ad66:	00e9a023          	sw	a4,0(s3)
    ad6a:	bfd1                	j	ad3e <_malloc_r+0xbe>
    ad6c:	c3d8                	sw	a4,4(a5)
    ad6e:	bfc1                	j	ad3e <_malloc_r+0xbe>
    ad70:	87a2                	mv	a5,s0
    ad72:	4040                	lw	s0,4(s0)
    ad74:	bf35                	j	acb0 <_malloc_r+0x30>
    ad76:	843e                	mv	s0,a5
    ad78:	43dc                	lw	a5,4(a5)
    ad7a:	b7b9                	j	acc8 <_malloc_r+0x48>
    ad7c:	47b1                	li	a5,12
    ad7e:	00f92023          	sw	a5,0(s2)
    ad82:	854a                	mv	a0,s2
    ad84:	2b39                	jal	b2a2 <__malloc_unlock>
    ad86:	b759                	j	ad0c <_malloc_r+0x8c>
    ad88:	c104                	sw	s1,0(a0)
    ad8a:	bf55                	j	ad3e <_malloc_r+0xbe>

0000ad8c <__sfputc_r>:
    ad8c:	461c                	lw	a5,8(a2)
    ad8e:	17fd                	addi	a5,a5,-1
    ad90:	c61c                	sw	a5,8(a2)
    ad92:	0007da63          	bgez	a5,ada6 <__sfputc_r+0x1a>
    ad96:	4e18                	lw	a4,24(a2)
    ad98:	00e7c563          	blt	a5,a4,ada2 <__sfputc_r+0x16>
    ad9c:	47a9                	li	a5,10
    ad9e:	00f59463          	bne	a1,a5,ada6 <__sfputc_r+0x1a>
    ada2:	f0cff06f          	j	a4ae <__swbuf_r>
    ada6:	421c                	lw	a5,0(a2)
    ada8:	852e                	mv	a0,a1
    adaa:	00178713          	addi	a4,a5,1
    adae:	c218                	sw	a4,0(a2)
    adb0:	00b78023          	sb	a1,0(a5)
    adb4:	8082                	ret

0000adb6 <__sfputs_r>:
    adb6:	1101                	addi	sp,sp,-32
    adb8:	cc22                	sw	s0,24(sp)
    adba:	ca26                	sw	s1,20(sp)
    adbc:	c84a                	sw	s2,16(sp)
    adbe:	c64e                	sw	s3,12(sp)
    adc0:	c452                	sw	s4,8(sp)
    adc2:	ce06                	sw	ra,28(sp)
    adc4:	892a                	mv	s2,a0
    adc6:	89ae                	mv	s3,a1
    adc8:	8432                	mv	s0,a2
    adca:	00d604b3          	add	s1,a2,a3
    adce:	5a7d                	li	s4,-1
    add0:	00941463          	bne	s0,s1,add8 <__sfputs_r+0x22>
    add4:	4501                	li	a0,0
    add6:	a811                	j	adea <__sfputs_r+0x34>
    add8:	00044583          	lbu	a1,0(s0)
    addc:	864e                	mv	a2,s3
    adde:	854a                	mv	a0,s2
    ade0:	fadff0ef          	jal	ra,ad8c <__sfputc_r>
    ade4:	0405                	addi	s0,s0,1
    ade6:	ff4515e3          	bne	a0,s4,add0 <__sfputs_r+0x1a>
    adea:	40f2                	lw	ra,28(sp)
    adec:	4462                	lw	s0,24(sp)
    adee:	44d2                	lw	s1,20(sp)
    adf0:	4942                	lw	s2,16(sp)
    adf2:	49b2                	lw	s3,12(sp)
    adf4:	4a22                	lw	s4,8(sp)
    adf6:	6105                	addi	sp,sp,32
    adf8:	8082                	ret

0000adfa <_vfiprintf_r>:
    adfa:	7135                	addi	sp,sp,-160
    adfc:	cd22                	sw	s0,152(sp)
    adfe:	cb26                	sw	s1,148(sp)
    ae00:	c94a                	sw	s2,144(sp)
    ae02:	c74e                	sw	s3,140(sp)
    ae04:	cf06                	sw	ra,156(sp)
    ae06:	c552                	sw	s4,136(sp)
    ae08:	c356                	sw	s5,132(sp)
    ae0a:	c15a                	sw	s6,128(sp)
    ae0c:	dede                	sw	s7,124(sp)
    ae0e:	dce2                	sw	s8,120(sp)
    ae10:	dae6                	sw	s9,116(sp)
    ae12:	89aa                	mv	s3,a0
    ae14:	842e                	mv	s0,a1
    ae16:	8932                	mv	s2,a2
    ae18:	84b6                	mv	s1,a3
    ae1a:	c509                	beqz	a0,ae24 <_vfiprintf_r+0x2a>
    ae1c:	4d1c                	lw	a5,24(a0)
    ae1e:	e399                	bnez	a5,ae24 <_vfiprintf_r+0x2a>
    ae20:	addff0ef          	jal	ra,a8fc <__sinit>
    ae24:	00001797          	auipc	a5,0x1
    ae28:	d0c78793          	addi	a5,a5,-756 # bb30 <__sf_fake_stdin>
    ae2c:	04f41b63          	bne	s0,a5,ae82 <_vfiprintf_r+0x88>
    ae30:	0049a403          	lw	s0,4(s3)
    ae34:	507c                	lw	a5,100(s0)
    ae36:	8b85                	andi	a5,a5,1
    ae38:	eb89                	bnez	a5,ae4a <_vfiprintf_r+0x50>
    ae3a:	00c45783          	lhu	a5,12(s0)
    ae3e:	2007f793          	andi	a5,a5,512
    ae42:	e781                	bnez	a5,ae4a <_vfiprintf_r+0x50>
    ae44:	4c28                	lw	a0,88(s0)
    ae46:	c45ff0ef          	jal	ra,aa8a <__retarget_lock_acquire_recursive>
    ae4a:	00c45783          	lhu	a5,12(s0)
    ae4e:	8ba1                	andi	a5,a5,8
    ae50:	c399                	beqz	a5,ae56 <_vfiprintf_r+0x5c>
    ae52:	481c                	lw	a5,16(s0)
    ae54:	e3b5                	bnez	a5,aeb8 <_vfiprintf_r+0xbe>
    ae56:	85a2                	mv	a1,s0
    ae58:	854e                	mv	a0,s3
    ae5a:	f14ff0ef          	jal	ra,a56e <__swsetup_r>
    ae5e:	cd29                	beqz	a0,aeb8 <_vfiprintf_r+0xbe>
    ae60:	507c                	lw	a5,100(s0)
    ae62:	8b85                	andi	a5,a5,1
    ae64:	c3a9                	beqz	a5,aea6 <_vfiprintf_r+0xac>
    ae66:	557d                	li	a0,-1
    ae68:	40fa                	lw	ra,156(sp)
    ae6a:	446a                	lw	s0,152(sp)
    ae6c:	44da                	lw	s1,148(sp)
    ae6e:	494a                	lw	s2,144(sp)
    ae70:	49ba                	lw	s3,140(sp)
    ae72:	4a2a                	lw	s4,136(sp)
    ae74:	4a9a                	lw	s5,132(sp)
    ae76:	4b0a                	lw	s6,128(sp)
    ae78:	5bf6                	lw	s7,124(sp)
    ae7a:	5c66                	lw	s8,120(sp)
    ae7c:	5cd6                	lw	s9,116(sp)
    ae7e:	610d                	addi	sp,sp,160
    ae80:	8082                	ret
    ae82:	00001797          	auipc	a5,0x1
    ae86:	c8e78793          	addi	a5,a5,-882 # bb10 <__sf_fake_stdout>
    ae8a:	00f41563          	bne	s0,a5,ae94 <_vfiprintf_r+0x9a>
    ae8e:	0089a403          	lw	s0,8(s3)
    ae92:	b74d                	j	ae34 <_vfiprintf_r+0x3a>
    ae94:	00001797          	auipc	a5,0x1
    ae98:	c5c78793          	addi	a5,a5,-932 # baf0 <__sf_fake_stderr>
    ae9c:	f8f41ce3          	bne	s0,a5,ae34 <_vfiprintf_r+0x3a>
    aea0:	00c9a403          	lw	s0,12(s3)
    aea4:	bf41                	j	ae34 <_vfiprintf_r+0x3a>
    aea6:	00c45783          	lhu	a5,12(s0)
    aeaa:	2007f793          	andi	a5,a5,512
    aeae:	ffc5                	bnez	a5,ae66 <_vfiprintf_r+0x6c>
    aeb0:	4c28                	lw	a0,88(s0)
    aeb2:	bdbff0ef          	jal	ra,aa8c <__retarget_lock_release_recursive>
    aeb6:	bf45                	j	ae66 <_vfiprintf_r+0x6c>
    aeb8:	02000793          	li	a5,32
    aebc:	02f104a3          	sb	a5,41(sp)
    aec0:	03000793          	li	a5,48
    aec4:	d202                	sw	zero,36(sp)
    aec6:	02f10523          	sb	a5,42(sp)
    aeca:	c626                	sw	s1,12(sp)
    aecc:	02500b93          	li	s7,37
    aed0:	00001a97          	auipc	s5,0x1
    aed4:	c80a8a93          	addi	s5,s5,-896 # bb50 <__sf_fake_stdin+0x20>
    aed8:	4c05                	li	s8,1
    aeda:	4b29                	li	s6,10
    aedc:	84ca                	mv	s1,s2
    aede:	0004c783          	lbu	a5,0(s1)
    aee2:	c399                	beqz	a5,aee8 <_vfiprintf_r+0xee>
    aee4:	09779c63          	bne	a5,s7,af7c <_vfiprintf_r+0x182>
    aee8:	41248cb3          	sub	s9,s1,s2
    aeec:	01248e63          	beq	s1,s2,af08 <_vfiprintf_r+0x10e>
    aef0:	86e6                	mv	a3,s9
    aef2:	864a                	mv	a2,s2
    aef4:	85a2                	mv	a1,s0
    aef6:	854e                	mv	a0,s3
    aef8:	ebfff0ef          	jal	ra,adb6 <__sfputs_r>
    aefc:	57fd                	li	a5,-1
    aefe:	18f50e63          	beq	a0,a5,b09a <_vfiprintf_r+0x2a0>
    af02:	5792                	lw	a5,36(sp)
    af04:	97e6                	add	a5,a5,s9
    af06:	d23e                	sw	a5,36(sp)
    af08:	0004c783          	lbu	a5,0(s1)
    af0c:	18078763          	beqz	a5,b09a <_vfiprintf_r+0x2a0>
    af10:	57fd                	li	a5,-1
    af12:	00148913          	addi	s2,s1,1
    af16:	c802                	sw	zero,16(sp)
    af18:	ce02                	sw	zero,28(sp)
    af1a:	ca3e                	sw	a5,20(sp)
    af1c:	cc02                	sw	zero,24(sp)
    af1e:	040109a3          	sb	zero,83(sp)
    af22:	d482                	sw	zero,104(sp)
    af24:	00094583          	lbu	a1,0(s2)
    af28:	4615                	li	a2,5
    af2a:	8556                	mv	a0,s5
    af2c:	2e91                	jal	b280 <memchr>
    af2e:	47c2                	lw	a5,16(sp)
    af30:	00190493          	addi	s1,s2,1
    af34:	e531                	bnez	a0,af80 <_vfiprintf_r+0x186>
    af36:	0107f713          	andi	a4,a5,16
    af3a:	c709                	beqz	a4,af44 <_vfiprintf_r+0x14a>
    af3c:	02000713          	li	a4,32
    af40:	04e109a3          	sb	a4,83(sp)
    af44:	0087f713          	andi	a4,a5,8
    af48:	c709                	beqz	a4,af52 <_vfiprintf_r+0x158>
    af4a:	02b00713          	li	a4,43
    af4e:	04e109a3          	sb	a4,83(sp)
    af52:	00094683          	lbu	a3,0(s2)
    af56:	02a00713          	li	a4,42
    af5a:	02e68b63          	beq	a3,a4,af90 <_vfiprintf_r+0x196>
    af5e:	47f2                	lw	a5,28(sp)
    af60:	84ca                	mv	s1,s2
    af62:	4681                	li	a3,0
    af64:	4625                	li	a2,9
    af66:	0004c703          	lbu	a4,0(s1)
    af6a:	00148593          	addi	a1,s1,1
    af6e:	fd070713          	addi	a4,a4,-48 # ffffdfd0 <_eusrstack+0xdfff8fd0>
    af72:	06e67563          	bgeu	a2,a4,afdc <_vfiprintf_r+0x1e2>
    af76:	c68d                	beqz	a3,afa0 <_vfiprintf_r+0x1a6>
    af78:	ce3e                	sw	a5,28(sp)
    af7a:	a01d                	j	afa0 <_vfiprintf_r+0x1a6>
    af7c:	0485                	addi	s1,s1,1
    af7e:	b785                	j	aede <_vfiprintf_r+0xe4>
    af80:	41550533          	sub	a0,a0,s5
    af84:	00ac1533          	sll	a0,s8,a0
    af88:	8fc9                	or	a5,a5,a0
    af8a:	c83e                	sw	a5,16(sp)
    af8c:	8926                	mv	s2,s1
    af8e:	bf59                	j	af24 <_vfiprintf_r+0x12a>
    af90:	4732                	lw	a4,12(sp)
    af92:	00470693          	addi	a3,a4,4
    af96:	4318                	lw	a4,0(a4)
    af98:	c636                	sw	a3,12(sp)
    af9a:	02074a63          	bltz	a4,afce <_vfiprintf_r+0x1d4>
    af9e:	ce3a                	sw	a4,28(sp)
    afa0:	0004c703          	lbu	a4,0(s1)
    afa4:	02e00793          	li	a5,46
    afa8:	04f71e63          	bne	a4,a5,b004 <_vfiprintf_r+0x20a>
    afac:	0014c703          	lbu	a4,1(s1)
    afb0:	02a00793          	li	a5,42
    afb4:	02f71a63          	bne	a4,a5,afe8 <_vfiprintf_r+0x1ee>
    afb8:	47b2                	lw	a5,12(sp)
    afba:	0489                	addi	s1,s1,2
    afbc:	00478713          	addi	a4,a5,4
    afc0:	439c                	lw	a5,0(a5)
    afc2:	c63a                	sw	a4,12(sp)
    afc4:	0007d363          	bgez	a5,afca <_vfiprintf_r+0x1d0>
    afc8:	57fd                	li	a5,-1
    afca:	ca3e                	sw	a5,20(sp)
    afcc:	a825                	j	b004 <_vfiprintf_r+0x20a>
    afce:	40e00733          	neg	a4,a4
    afd2:	0027e793          	ori	a5,a5,2
    afd6:	ce3a                	sw	a4,28(sp)
    afd8:	c83e                	sw	a5,16(sp)
    afda:	b7d9                	j	afa0 <_vfiprintf_r+0x1a6>
    afdc:	036787b3          	mul	a5,a5,s6
    afe0:	84ae                	mv	s1,a1
    afe2:	4685                	li	a3,1
    afe4:	97ba                	add	a5,a5,a4
    afe6:	b741                	j	af66 <_vfiprintf_r+0x16c>
    afe8:	0485                	addi	s1,s1,1
    afea:	ca02                	sw	zero,20(sp)
    afec:	4681                	li	a3,0
    afee:	4781                	li	a5,0
    aff0:	4625                	li	a2,9
    aff2:	0004c703          	lbu	a4,0(s1)
    aff6:	00148593          	addi	a1,s1,1
    affa:	fd070713          	addi	a4,a4,-48
    affe:	06e67463          	bgeu	a2,a4,b066 <_vfiprintf_r+0x26c>
    b002:	f6e1                	bnez	a3,afca <_vfiprintf_r+0x1d0>
    b004:	0004c583          	lbu	a1,0(s1)
    b008:	460d                	li	a2,3
    b00a:	00001517          	auipc	a0,0x1
    b00e:	b4e50513          	addi	a0,a0,-1202 # bb58 <__sf_fake_stdin+0x28>
    b012:	24bd                	jal	b280 <memchr>
    b014:	cd11                	beqz	a0,b030 <_vfiprintf_r+0x236>
    b016:	00001797          	auipc	a5,0x1
    b01a:	b4278793          	addi	a5,a5,-1214 # bb58 <__sf_fake_stdin+0x28>
    b01e:	8d1d                	sub	a0,a0,a5
    b020:	47c2                	lw	a5,16(sp)
    b022:	04000713          	li	a4,64
    b026:	00a71733          	sll	a4,a4,a0
    b02a:	8fd9                	or	a5,a5,a4
    b02c:	0485                	addi	s1,s1,1
    b02e:	c83e                	sw	a5,16(sp)
    b030:	0004c583          	lbu	a1,0(s1)
    b034:	4619                	li	a2,6
    b036:	00001517          	auipc	a0,0x1
    b03a:	b2650513          	addi	a0,a0,-1242 # bb5c <__sf_fake_stdin+0x2c>
    b03e:	00148913          	addi	s2,s1,1
    b042:	02b10423          	sb	a1,40(sp)
    b046:	2c2d                	jal	b280 <memchr>
    b048:	cd25                	beqz	a0,b0c0 <_vfiprintf_r+0x2c6>
    b04a:	00000793          	li	a5,0
    b04e:	e795                	bnez	a5,b07a <_vfiprintf_r+0x280>
    b050:	4742                	lw	a4,16(sp)
    b052:	47b2                	lw	a5,12(sp)
    b054:	10077713          	andi	a4,a4,256
    b058:	cf09                	beqz	a4,b072 <_vfiprintf_r+0x278>
    b05a:	0791                	addi	a5,a5,4
    b05c:	c63e                	sw	a5,12(sp)
    b05e:	5792                	lw	a5,36(sp)
    b060:	97d2                	add	a5,a5,s4
    b062:	d23e                	sw	a5,36(sp)
    b064:	bda5                	j	aedc <_vfiprintf_r+0xe2>
    b066:	036787b3          	mul	a5,a5,s6
    b06a:	84ae                	mv	s1,a1
    b06c:	4685                	li	a3,1
    b06e:	97ba                	add	a5,a5,a4
    b070:	b749                	j	aff2 <_vfiprintf_r+0x1f8>
    b072:	079d                	addi	a5,a5,7
    b074:	9be1                	andi	a5,a5,-8
    b076:	07a1                	addi	a5,a5,8
    b078:	b7d5                	j	b05c <_vfiprintf_r+0x262>
    b07a:	0078                	addi	a4,sp,12
    b07c:	00000697          	auipc	a3,0x0
    b080:	d3a68693          	addi	a3,a3,-710 # adb6 <__sfputs_r>
    b084:	8622                	mv	a2,s0
    b086:	080c                	addi	a1,sp,16
    b088:	854e                	mv	a0,s3
    b08a:	00000097          	auipc	ra,0x0
    b08e:	000000e7          	jalr	zero # 0 <_sinit>
    b092:	57fd                	li	a5,-1
    b094:	8a2a                	mv	s4,a0
    b096:	fcf514e3          	bne	a0,a5,b05e <_vfiprintf_r+0x264>
    b09a:	507c                	lw	a5,100(s0)
    b09c:	8b85                	andi	a5,a5,1
    b09e:	eb89                	bnez	a5,b0b0 <_vfiprintf_r+0x2b6>
    b0a0:	00c45783          	lhu	a5,12(s0)
    b0a4:	2007f793          	andi	a5,a5,512
    b0a8:	e781                	bnez	a5,b0b0 <_vfiprintf_r+0x2b6>
    b0aa:	4c28                	lw	a0,88(s0)
    b0ac:	9e1ff0ef          	jal	ra,aa8c <__retarget_lock_release_recursive>
    b0b0:	00c45783          	lhu	a5,12(s0)
    b0b4:	0407f793          	andi	a5,a5,64
    b0b8:	da0797e3          	bnez	a5,ae66 <_vfiprintf_r+0x6c>
    b0bc:	5512                	lw	a0,36(sp)
    b0be:	b36d                	j	ae68 <_vfiprintf_r+0x6e>
    b0c0:	0078                	addi	a4,sp,12
    b0c2:	00000697          	auipc	a3,0x0
    b0c6:	cf468693          	addi	a3,a3,-780 # adb6 <__sfputs_r>
    b0ca:	8622                	mv	a2,s0
    b0cc:	080c                	addi	a1,sp,16
    b0ce:	854e                	mv	a0,s3
    b0d0:	24ed                	jal	b3ba <_printf_i>
    b0d2:	b7c1                	j	b092 <_vfiprintf_r+0x298>

0000b0d4 <_sbrk_r>:
    b0d4:	1141                	addi	sp,sp,-16
    b0d6:	c422                	sw	s0,8(sp)
    b0d8:	842a                	mv	s0,a0
    b0da:	852e                	mv	a0,a1
    b0dc:	a201a023          	sw	zero,-1504(gp) # 20001ac8 <errno>
    b0e0:	c606                	sw	ra,12(sp)
    b0e2:	a22fc0ef          	jal	ra,7304 <_sbrk>
    b0e6:	57fd                	li	a5,-1
    b0e8:	00f51663          	bne	a0,a5,b0f4 <_sbrk_r+0x20>
    b0ec:	a201a783          	lw	a5,-1504(gp) # 20001ac8 <errno>
    b0f0:	c391                	beqz	a5,b0f4 <_sbrk_r+0x20>
    b0f2:	c01c                	sw	a5,0(s0)
    b0f4:	40b2                	lw	ra,12(sp)
    b0f6:	4422                	lw	s0,8(sp)
    b0f8:	0141                	addi	sp,sp,16
    b0fa:	8082                	ret

0000b0fc <__sread>:
    b0fc:	1141                	addi	sp,sp,-16
    b0fe:	c422                	sw	s0,8(sp)
    b100:	842e                	mv	s0,a1
    b102:	00e59583          	lh	a1,14(a1)
    b106:	c606                	sw	ra,12(sp)
    b108:	2b25                	jal	b640 <_read_r>
    b10a:	00054963          	bltz	a0,b11c <__sread+0x20>
    b10e:	487c                	lw	a5,84(s0)
    b110:	97aa                	add	a5,a5,a0
    b112:	c87c                	sw	a5,84(s0)
    b114:	40b2                	lw	ra,12(sp)
    b116:	4422                	lw	s0,8(sp)
    b118:	0141                	addi	sp,sp,16
    b11a:	8082                	ret
    b11c:	00c45783          	lhu	a5,12(s0)
    b120:	777d                	lui	a4,0xfffff
    b122:	177d                	addi	a4,a4,-1 # ffffefff <_eusrstack+0xdfff9fff>
    b124:	8ff9                	and	a5,a5,a4
    b126:	00f41623          	sh	a5,12(s0)
    b12a:	b7ed                	j	b114 <__sread+0x18>

0000b12c <__swrite>:
    b12c:	00c5d783          	lhu	a5,12(a1)
    b130:	1101                	addi	sp,sp,-32
    b132:	cc22                	sw	s0,24(sp)
    b134:	ca26                	sw	s1,20(sp)
    b136:	c84a                	sw	s2,16(sp)
    b138:	c64e                	sw	s3,12(sp)
    b13a:	ce06                	sw	ra,28(sp)
    b13c:	1007f793          	andi	a5,a5,256
    b140:	84aa                	mv	s1,a0
    b142:	842e                	mv	s0,a1
    b144:	8932                	mv	s2,a2
    b146:	89b6                	mv	s3,a3
    b148:	c791                	beqz	a5,b154 <__swrite+0x28>
    b14a:	00e59583          	lh	a1,14(a1)
    b14e:	4689                	li	a3,2
    b150:	4601                	li	a2,0
    b152:	2211                	jal	b256 <_lseek_r>
    b154:	00c45783          	lhu	a5,12(s0)
    b158:	777d                	lui	a4,0xfffff
    b15a:	177d                	addi	a4,a4,-1 # ffffefff <_eusrstack+0xdfff9fff>
    b15c:	8ff9                	and	a5,a5,a4
    b15e:	00e41583          	lh	a1,14(s0)
    b162:	00f41623          	sh	a5,12(s0)
    b166:	4462                	lw	s0,24(sp)
    b168:	40f2                	lw	ra,28(sp)
    b16a:	86ce                	mv	a3,s3
    b16c:	864a                	mv	a2,s2
    b16e:	49b2                	lw	s3,12(sp)
    b170:	4942                	lw	s2,16(sp)
    b172:	8526                	mv	a0,s1
    b174:	44d2                	lw	s1,20(sp)
    b176:	6105                	addi	sp,sp,32
    b178:	a83d                	j	b1b6 <_write_r>

0000b17a <__sseek>:
    b17a:	1141                	addi	sp,sp,-16
    b17c:	c422                	sw	s0,8(sp)
    b17e:	842e                	mv	s0,a1
    b180:	00e59583          	lh	a1,14(a1)
    b184:	c606                	sw	ra,12(sp)
    b186:	28c1                	jal	b256 <_lseek_r>
    b188:	577d                	li	a4,-1
    b18a:	00c45783          	lhu	a5,12(s0)
    b18e:	00e51b63          	bne	a0,a4,b1a4 <__sseek+0x2a>
    b192:	777d                	lui	a4,0xfffff
    b194:	177d                	addi	a4,a4,-1 # ffffefff <_eusrstack+0xdfff9fff>
    b196:	8ff9                	and	a5,a5,a4
    b198:	00f41623          	sh	a5,12(s0)
    b19c:	40b2                	lw	ra,12(sp)
    b19e:	4422                	lw	s0,8(sp)
    b1a0:	0141                	addi	sp,sp,16
    b1a2:	8082                	ret
    b1a4:	6705                	lui	a4,0x1
    b1a6:	8fd9                	or	a5,a5,a4
    b1a8:	00f41623          	sh	a5,12(s0)
    b1ac:	c868                	sw	a0,84(s0)
    b1ae:	b7fd                	j	b19c <__sseek+0x22>

0000b1b0 <__sclose>:
    b1b0:	00e59583          	lh	a1,14(a1)
    b1b4:	a03d                	j	b1e2 <_close_r>

0000b1b6 <_write_r>:
    b1b6:	1141                	addi	sp,sp,-16
    b1b8:	c422                	sw	s0,8(sp)
    b1ba:	842a                	mv	s0,a0
    b1bc:	852e                	mv	a0,a1
    b1be:	85b2                	mv	a1,a2
    b1c0:	8636                	mv	a2,a3
    b1c2:	a201a023          	sw	zero,-1504(gp) # 20001ac8 <errno>
    b1c6:	c606                	sw	ra,12(sp)
    b1c8:	938fc0ef          	jal	ra,7300 <_write>
    b1cc:	57fd                	li	a5,-1
    b1ce:	00f51663          	bne	a0,a5,b1da <_write_r+0x24>
    b1d2:	a201a783          	lw	a5,-1504(gp) # 20001ac8 <errno>
    b1d6:	c391                	beqz	a5,b1da <_write_r+0x24>
    b1d8:	c01c                	sw	a5,0(s0)
    b1da:	40b2                	lw	ra,12(sp)
    b1dc:	4422                	lw	s0,8(sp)
    b1de:	0141                	addi	sp,sp,16
    b1e0:	8082                	ret

0000b1e2 <_close_r>:
    b1e2:	1141                	addi	sp,sp,-16
    b1e4:	c422                	sw	s0,8(sp)
    b1e6:	842a                	mv	s0,a0
    b1e8:	852e                	mv	a0,a1
    b1ea:	a201a023          	sw	zero,-1504(gp) # 20001ac8 <errno>
    b1ee:	c606                	sw	ra,12(sp)
    b1f0:	29ad                	jal	b66a <_close>
    b1f2:	57fd                	li	a5,-1
    b1f4:	00f51663          	bne	a0,a5,b200 <_close_r+0x1e>
    b1f8:	a201a783          	lw	a5,-1504(gp) # 20001ac8 <errno>
    b1fc:	c391                	beqz	a5,b200 <_close_r+0x1e>
    b1fe:	c01c                	sw	a5,0(s0)
    b200:	40b2                	lw	ra,12(sp)
    b202:	4422                	lw	s0,8(sp)
    b204:	0141                	addi	sp,sp,16
    b206:	8082                	ret

0000b208 <_fstat_r>:
    b208:	1141                	addi	sp,sp,-16
    b20a:	c422                	sw	s0,8(sp)
    b20c:	842a                	mv	s0,a0
    b20e:	852e                	mv	a0,a1
    b210:	85b2                	mv	a1,a2
    b212:	a201a023          	sw	zero,-1504(gp) # 20001ac8 <errno>
    b216:	c606                	sw	ra,12(sp)
    b218:	29b9                	jal	b676 <_fstat>
    b21a:	57fd                	li	a5,-1
    b21c:	00f51663          	bne	a0,a5,b228 <_fstat_r+0x20>
    b220:	a201a783          	lw	a5,-1504(gp) # 20001ac8 <errno>
    b224:	c391                	beqz	a5,b228 <_fstat_r+0x20>
    b226:	c01c                	sw	a5,0(s0)
    b228:	40b2                	lw	ra,12(sp)
    b22a:	4422                	lw	s0,8(sp)
    b22c:	0141                	addi	sp,sp,16
    b22e:	8082                	ret

0000b230 <_isatty_r>:
    b230:	1141                	addi	sp,sp,-16
    b232:	c422                	sw	s0,8(sp)
    b234:	842a                	mv	s0,a0
    b236:	852e                	mv	a0,a1
    b238:	a201a023          	sw	zero,-1504(gp) # 20001ac8 <errno>
    b23c:	c606                	sw	ra,12(sp)
    b23e:	2191                	jal	b682 <_isatty>
    b240:	57fd                	li	a5,-1
    b242:	00f51663          	bne	a0,a5,b24e <_isatty_r+0x1e>
    b246:	a201a783          	lw	a5,-1504(gp) # 20001ac8 <errno>
    b24a:	c391                	beqz	a5,b24e <_isatty_r+0x1e>
    b24c:	c01c                	sw	a5,0(s0)
    b24e:	40b2                	lw	ra,12(sp)
    b250:	4422                	lw	s0,8(sp)
    b252:	0141                	addi	sp,sp,16
    b254:	8082                	ret

0000b256 <_lseek_r>:
    b256:	1141                	addi	sp,sp,-16
    b258:	c422                	sw	s0,8(sp)
    b25a:	842a                	mv	s0,a0
    b25c:	852e                	mv	a0,a1
    b25e:	85b2                	mv	a1,a2
    b260:	8636                	mv	a2,a3
    b262:	a201a023          	sw	zero,-1504(gp) # 20001ac8 <errno>
    b266:	c606                	sw	ra,12(sp)
    b268:	211d                	jal	b68e <_lseek>
    b26a:	57fd                	li	a5,-1
    b26c:	00f51663          	bne	a0,a5,b278 <_lseek_r+0x22>
    b270:	a201a783          	lw	a5,-1504(gp) # 20001ac8 <errno>
    b274:	c391                	beqz	a5,b278 <_lseek_r+0x22>
    b276:	c01c                	sw	a5,0(s0)
    b278:	40b2                	lw	ra,12(sp)
    b27a:	4422                	lw	s0,8(sp)
    b27c:	0141                	addi	sp,sp,16
    b27e:	8082                	ret

0000b280 <memchr>:
    b280:	0ff5f593          	zext.b	a1,a1
    b284:	962a                	add	a2,a2,a0
    b286:	00c51463          	bne	a0,a2,b28e <memchr+0xe>
    b28a:	4501                	li	a0,0
    b28c:	8082                	ret
    b28e:	00054783          	lbu	a5,0(a0)
    b292:	feb78de3          	beq	a5,a1,b28c <memchr+0xc>
    b296:	0505                	addi	a0,a0,1
    b298:	b7fd                	j	b286 <memchr+0x6>

0000b29a <__malloc_lock>:
    b29a:	a0c18513          	addi	a0,gp,-1524 # 20001ab4 <__lock___malloc_recursive_mutex>
    b29e:	fecff06f          	j	aa8a <__retarget_lock_acquire_recursive>

0000b2a2 <__malloc_unlock>:
    b2a2:	a0c18513          	addi	a0,gp,-1524 # 20001ab4 <__lock___malloc_recursive_mutex>
    b2a6:	fe6ff06f          	j	aa8c <__retarget_lock_release_recursive>

0000b2aa <_printf_common>:
    b2aa:	7179                	addi	sp,sp,-48
    b2ac:	ca56                	sw	s5,20(sp)
    b2ae:	499c                	lw	a5,16(a1)
    b2b0:	8aba                	mv	s5,a4
    b2b2:	4598                	lw	a4,8(a1)
    b2b4:	d422                	sw	s0,40(sp)
    b2b6:	d04a                	sw	s2,32(sp)
    b2b8:	ce4e                	sw	s3,28(sp)
    b2ba:	cc52                	sw	s4,24(sp)
    b2bc:	d606                	sw	ra,44(sp)
    b2be:	d226                	sw	s1,36(sp)
    b2c0:	c85a                	sw	s6,16(sp)
    b2c2:	c65e                	sw	s7,12(sp)
    b2c4:	89aa                	mv	s3,a0
    b2c6:	842e                	mv	s0,a1
    b2c8:	8932                	mv	s2,a2
    b2ca:	8a36                	mv	s4,a3
    b2cc:	00e7d363          	bge	a5,a4,b2d2 <_printf_common+0x28>
    b2d0:	87ba                	mv	a5,a4
    b2d2:	00f92023          	sw	a5,0(s2)
    b2d6:	04344703          	lbu	a4,67(s0)
    b2da:	c701                	beqz	a4,b2e2 <_printf_common+0x38>
    b2dc:	0785                	addi	a5,a5,1
    b2de:	00f92023          	sw	a5,0(s2)
    b2e2:	401c                	lw	a5,0(s0)
    b2e4:	0207f793          	andi	a5,a5,32
    b2e8:	c791                	beqz	a5,b2f4 <_printf_common+0x4a>
    b2ea:	00092783          	lw	a5,0(s2)
    b2ee:	0789                	addi	a5,a5,2
    b2f0:	00f92023          	sw	a5,0(s2)
    b2f4:	4004                	lw	s1,0(s0)
    b2f6:	8899                	andi	s1,s1,6
    b2f8:	e891                	bnez	s1,b30c <_printf_common+0x62>
    b2fa:	01940b13          	addi	s6,s0,25
    b2fe:	5bfd                	li	s7,-1
    b300:	445c                	lw	a5,12(s0)
    b302:	00092703          	lw	a4,0(s2)
    b306:	8f99                	sub	a5,a5,a4
    b308:	04f4cc63          	blt	s1,a5,b360 <_printf_common+0xb6>
    b30c:	04344783          	lbu	a5,67(s0)
    b310:	00f036b3          	snez	a3,a5
    b314:	401c                	lw	a5,0(s0)
    b316:	0207f793          	andi	a5,a5,32
    b31a:	eba5                	bnez	a5,b38a <_printf_common+0xe0>
    b31c:	04340613          	addi	a2,s0,67
    b320:	85d2                	mv	a1,s4
    b322:	854e                	mv	a0,s3
    b324:	9a82                	jalr	s5
    b326:	57fd                	li	a5,-1
    b328:	04f50363          	beq	a0,a5,b36e <_printf_common+0xc4>
    b32c:	401c                	lw	a5,0(s0)
    b32e:	4711                	li	a4,4
    b330:	4481                	li	s1,0
    b332:	8b99                	andi	a5,a5,6
    b334:	00e79963          	bne	a5,a4,b346 <_printf_common+0x9c>
    b338:	4444                	lw	s1,12(s0)
    b33a:	00092783          	lw	a5,0(s2)
    b33e:	8c9d                	sub	s1,s1,a5
    b340:	0004d363          	bgez	s1,b346 <_printf_common+0x9c>
    b344:	4481                	li	s1,0
    b346:	441c                	lw	a5,8(s0)
    b348:	4818                	lw	a4,16(s0)
    b34a:	00f75463          	bge	a4,a5,b352 <_printf_common+0xa8>
    b34e:	8f99                	sub	a5,a5,a4
    b350:	94be                	add	s1,s1,a5
    b352:	4901                	li	s2,0
    b354:	0469                	addi	s0,s0,26
    b356:	5b7d                	li	s6,-1
    b358:	05249863          	bne	s1,s2,b3a8 <_printf_common+0xfe>
    b35c:	4501                	li	a0,0
    b35e:	a809                	j	b370 <_printf_common+0xc6>
    b360:	4685                	li	a3,1
    b362:	865a                	mv	a2,s6
    b364:	85d2                	mv	a1,s4
    b366:	854e                	mv	a0,s3
    b368:	9a82                	jalr	s5
    b36a:	01751e63          	bne	a0,s7,b386 <_printf_common+0xdc>
    b36e:	557d                	li	a0,-1
    b370:	50b2                	lw	ra,44(sp)
    b372:	5422                	lw	s0,40(sp)
    b374:	5492                	lw	s1,36(sp)
    b376:	5902                	lw	s2,32(sp)
    b378:	49f2                	lw	s3,28(sp)
    b37a:	4a62                	lw	s4,24(sp)
    b37c:	4ad2                	lw	s5,20(sp)
    b37e:	4b42                	lw	s6,16(sp)
    b380:	4bb2                	lw	s7,12(sp)
    b382:	6145                	addi	sp,sp,48
    b384:	8082                	ret
    b386:	0485                	addi	s1,s1,1
    b388:	bfa5                	j	b300 <_printf_common+0x56>
    b38a:	00d40733          	add	a4,s0,a3
    b38e:	03000613          	li	a2,48
    b392:	04c701a3          	sb	a2,67(a4) # 1043 <_flash_write+0x45>
    b396:	04544703          	lbu	a4,69(s0)
    b39a:	00168793          	addi	a5,a3,1
    b39e:	97a2                	add	a5,a5,s0
    b3a0:	0689                	addi	a3,a3,2
    b3a2:	04e781a3          	sb	a4,67(a5)
    b3a6:	bf9d                	j	b31c <_printf_common+0x72>
    b3a8:	4685                	li	a3,1
    b3aa:	8622                	mv	a2,s0
    b3ac:	85d2                	mv	a1,s4
    b3ae:	854e                	mv	a0,s3
    b3b0:	9a82                	jalr	s5
    b3b2:	fb650ee3          	beq	a0,s6,b36e <_printf_common+0xc4>
    b3b6:	0905                	addi	s2,s2,1
    b3b8:	b745                	j	b358 <_printf_common+0xae>

0000b3ba <_printf_i>:
    b3ba:	7179                	addi	sp,sp,-48
    b3bc:	d422                	sw	s0,40(sp)
    b3be:	d04a                	sw	s2,32(sp)
    b3c0:	ce4e                	sw	s3,28(sp)
    b3c2:	cc52                	sw	s4,24(sp)
    b3c4:	d606                	sw	ra,44(sp)
    b3c6:	d226                	sw	s1,36(sp)
    b3c8:	ca56                	sw	s5,20(sp)
    b3ca:	c85a                	sw	s6,16(sp)
    b3cc:	0185c803          	lbu	a6,24(a1)
    b3d0:	07800793          	li	a5,120
    b3d4:	892a                	mv	s2,a0
    b3d6:	842e                	mv	s0,a1
    b3d8:	89b2                	mv	s3,a2
    b3da:	8a36                	mv	s4,a3
    b3dc:	0307e263          	bltu	a5,a6,b400 <_printf_i+0x46>
    b3e0:	06200793          	li	a5,98
    b3e4:	04358693          	addi	a3,a1,67
    b3e8:	0307e163          	bltu	a5,a6,b40a <_printf_i+0x50>
    b3ec:	1e080163          	beqz	a6,b5ce <_printf_i+0x214>
    b3f0:	05800793          	li	a5,88
    b3f4:	00000617          	auipc	a2,0x0
    b3f8:	77060613          	addi	a2,a2,1904 # bb64 <__sf_fake_stdin+0x34>
    b3fc:	14f80b63          	beq	a6,a5,b552 <_printf_i+0x198>
    b400:	04240493          	addi	s1,s0,66
    b404:	05040123          	sb	a6,66(s0)
    b408:	a815                	j	b43c <_printf_i+0x82>
    b40a:	f9d80793          	addi	a5,a6,-99
    b40e:	0ff7f793          	zext.b	a5,a5
    b412:	4655                	li	a2,21
    b414:	fef666e3          	bltu	a2,a5,b400 <_printf_i+0x46>
    b418:	00000617          	auipc	a2,0x0
    b41c:	77460613          	addi	a2,a2,1908 # bb8c <__sf_fake_stdin+0x5c>
    b420:	078a                	slli	a5,a5,0x2
    b422:	97b2                	add	a5,a5,a2
    b424:	439c                	lw	a5,0(a5)
    b426:	97b2                	add	a5,a5,a2
    b428:	8782                	jr	a5
    b42a:	431c                	lw	a5,0(a4)
    b42c:	04258493          	addi	s1,a1,66
    b430:	00478693          	addi	a3,a5,4
    b434:	439c                	lw	a5,0(a5)
    b436:	c314                	sw	a3,0(a4)
    b438:	04f58123          	sb	a5,66(a1)
    b43c:	4785                	li	a5,1
    b43e:	aa55                	j	b5f2 <_printf_i+0x238>
    b440:	4190                	lw	a2,0(a1)
    b442:	431c                	lw	a5,0(a4)
    b444:	08067513          	andi	a0,a2,128
    b448:	00478593          	addi	a1,a5,4
    b44c:	c139                	beqz	a0,b492 <_printf_i+0xd8>
    b44e:	439c                	lw	a5,0(a5)
    b450:	c30c                	sw	a1,0(a4)
    b452:	4058                	lw	a4,4(s0)
    b454:	1407d363          	bgez	a5,b59a <_printf_i+0x1e0>
    b458:	02d00593          	li	a1,45
    b45c:	04b401a3          	sb	a1,67(s0)
    b460:	c418                	sw	a4,8(s0)
    b462:	04075063          	bgez	a4,b4a2 <_printf_i+0xe8>
    b466:	40f007b3          	neg	a5,a5
    b46a:	00000617          	auipc	a2,0x0
    b46e:	6fa60613          	addi	a2,a2,1786 # bb64 <__sf_fake_stdin+0x34>
    b472:	4829                	li	a6,10
    b474:	84b6                	mv	s1,a3
    b476:	0307f733          	remu	a4,a5,a6
    b47a:	14fd                	addi	s1,s1,-1
    b47c:	9732                	add	a4,a4,a2
    b47e:	00074703          	lbu	a4,0(a4)
    b482:	00e48023          	sb	a4,0(s1)
    b486:	873e                	mv	a4,a5
    b488:	0307d7b3          	divu	a5,a5,a6
    b48c:	ff0775e3          	bgeu	a4,a6,b476 <_printf_i+0xbc>
    b490:	a08d                	j	b4f2 <_printf_i+0x138>
    b492:	439c                	lw	a5,0(a5)
    b494:	04067513          	andi	a0,a2,64
    b498:	c30c                	sw	a1,0(a4)
    b49a:	dd45                	beqz	a0,b452 <_printf_i+0x98>
    b49c:	07c2                	slli	a5,a5,0x10
    b49e:	87c1                	srai	a5,a5,0x10
    b4a0:	bf4d                	j	b452 <_printf_i+0x98>
    b4a2:	9a6d                	andi	a2,a2,-5
    b4a4:	c010                	sw	a2,0(s0)
    b4a6:	b7c1                	j	b466 <_printf_i+0xac>
    b4a8:	4190                	lw	a2,0(a1)
    b4aa:	431c                	lw	a5,0(a4)
    b4ac:	08067513          	andi	a0,a2,128
    b4b0:	00478593          	addi	a1,a5,4
    b4b4:	c501                	beqz	a0,b4bc <_printf_i+0x102>
    b4b6:	c30c                	sw	a1,0(a4)
    b4b8:	439c                	lw	a5,0(a5)
    b4ba:	a039                	j	b4c8 <_printf_i+0x10e>
    b4bc:	04067613          	andi	a2,a2,64
    b4c0:	c30c                	sw	a1,0(a4)
    b4c2:	da7d                	beqz	a2,b4b8 <_printf_i+0xfe>
    b4c4:	0007d783          	lhu	a5,0(a5)
    b4c8:	06f00713          	li	a4,111
    b4cc:	00000617          	auipc	a2,0x0
    b4d0:	69860613          	addi	a2,a2,1688 # bb64 <__sf_fake_stdin+0x34>
    b4d4:	0ce81163          	bne	a6,a4,b596 <_printf_i+0x1dc>
    b4d8:	4821                	li	a6,8
    b4da:	040401a3          	sb	zero,67(s0)
    b4de:	4058                	lw	a4,4(s0)
    b4e0:	c418                	sw	a4,8(s0)
    b4e2:	f80749e3          	bltz	a4,b474 <_printf_i+0xba>
    b4e6:	400c                	lw	a1,0(s0)
    b4e8:	99ed                	andi	a1,a1,-5
    b4ea:	c00c                	sw	a1,0(s0)
    b4ec:	f7c1                	bnez	a5,b474 <_printf_i+0xba>
    b4ee:	84b6                	mv	s1,a3
    b4f0:	f351                	bnez	a4,b474 <_printf_i+0xba>
    b4f2:	47a1                	li	a5,8
    b4f4:	00f81e63          	bne	a6,a5,b510 <_printf_i+0x156>
    b4f8:	401c                	lw	a5,0(s0)
    b4fa:	8b85                	andi	a5,a5,1
    b4fc:	cb91                	beqz	a5,b510 <_printf_i+0x156>
    b4fe:	4058                	lw	a4,4(s0)
    b500:	481c                	lw	a5,16(s0)
    b502:	00e7c763          	blt	a5,a4,b510 <_printf_i+0x156>
    b506:	03000793          	li	a5,48
    b50a:	fef48fa3          	sb	a5,-1(s1)
    b50e:	14fd                	addi	s1,s1,-1
    b510:	8e85                	sub	a3,a3,s1
    b512:	c814                	sw	a3,16(s0)
    b514:	8752                	mv	a4,s4
    b516:	86ce                	mv	a3,s3
    b518:	0070                	addi	a2,sp,12
    b51a:	85a2                	mv	a1,s0
    b51c:	854a                	mv	a0,s2
    b51e:	d8dff0ef          	jal	ra,b2aa <_printf_common>
    b522:	5afd                	li	s5,-1
    b524:	0d551b63          	bne	a0,s5,b5fa <_printf_i+0x240>
    b528:	557d                	li	a0,-1
    b52a:	50b2                	lw	ra,44(sp)
    b52c:	5422                	lw	s0,40(sp)
    b52e:	5492                	lw	s1,36(sp)
    b530:	5902                	lw	s2,32(sp)
    b532:	49f2                	lw	s3,28(sp)
    b534:	4a62                	lw	s4,24(sp)
    b536:	4ad2                	lw	s5,20(sp)
    b538:	4b42                	lw	s6,16(sp)
    b53a:	6145                	addi	sp,sp,48
    b53c:	8082                	ret
    b53e:	419c                	lw	a5,0(a1)
    b540:	0207e793          	ori	a5,a5,32
    b544:	c19c                	sw	a5,0(a1)
    b546:	07800813          	li	a6,120
    b54a:	00000617          	auipc	a2,0x0
    b54e:	62e60613          	addi	a2,a2,1582 # bb78 <__sf_fake_stdin+0x48>
    b552:	050402a3          	sb	a6,69(s0)
    b556:	400c                	lw	a1,0(s0)
    b558:	431c                	lw	a5,0(a4)
    b55a:	0805f813          	andi	a6,a1,128
    b55e:	00478513          	addi	a0,a5,4
    b562:	00080563          	beqz	a6,b56c <_printf_i+0x1b2>
    b566:	c308                	sw	a0,0(a4)
    b568:	439c                	lw	a5,0(a5)
    b56a:	a801                	j	b57a <_printf_i+0x1c0>
    b56c:	0405f813          	andi	a6,a1,64
    b570:	c308                	sw	a0,0(a4)
    b572:	fe080be3          	beqz	a6,b568 <_printf_i+0x1ae>
    b576:	0007d783          	lhu	a5,0(a5)
    b57a:	0015f713          	andi	a4,a1,1
    b57e:	c701                	beqz	a4,b586 <_printf_i+0x1cc>
    b580:	0205e593          	ori	a1,a1,32
    b584:	c00c                	sw	a1,0(s0)
    b586:	c399                	beqz	a5,b58c <_printf_i+0x1d2>
    b588:	4841                	li	a6,16
    b58a:	bf81                	j	b4da <_printf_i+0x120>
    b58c:	4018                	lw	a4,0(s0)
    b58e:	fdf77713          	andi	a4,a4,-33
    b592:	c018                	sw	a4,0(s0)
    b594:	bfd5                	j	b588 <_printf_i+0x1ce>
    b596:	4829                	li	a6,10
    b598:	b789                	j	b4da <_printf_i+0x120>
    b59a:	00000617          	auipc	a2,0x0
    b59e:	5ca60613          	addi	a2,a2,1482 # bb64 <__sf_fake_stdin+0x34>
    b5a2:	4829                	li	a6,10
    b5a4:	bf2d                	j	b4de <_printf_i+0x124>
    b5a6:	4190                	lw	a2,0(a1)
    b5a8:	431c                	lw	a5,0(a4)
    b5aa:	49cc                	lw	a1,20(a1)
    b5ac:	08067813          	andi	a6,a2,128
    b5b0:	00478513          	addi	a0,a5,4
    b5b4:	00080663          	beqz	a6,b5c0 <_printf_i+0x206>
    b5b8:	c308                	sw	a0,0(a4)
    b5ba:	439c                	lw	a5,0(a5)
    b5bc:	c38c                	sw	a1,0(a5)
    b5be:	a801                	j	b5ce <_printf_i+0x214>
    b5c0:	c308                	sw	a0,0(a4)
    b5c2:	04067613          	andi	a2,a2,64
    b5c6:	439c                	lw	a5,0(a5)
    b5c8:	da75                	beqz	a2,b5bc <_printf_i+0x202>
    b5ca:	00b79023          	sh	a1,0(a5)
    b5ce:	00042823          	sw	zero,16(s0)
    b5d2:	84b6                	mv	s1,a3
    b5d4:	b781                	j	b514 <_printf_i+0x15a>
    b5d6:	431c                	lw	a5,0(a4)
    b5d8:	41d0                	lw	a2,4(a1)
    b5da:	4581                	li	a1,0
    b5dc:	00478693          	addi	a3,a5,4
    b5e0:	c314                	sw	a3,0(a4)
    b5e2:	4384                	lw	s1,0(a5)
    b5e4:	8526                	mv	a0,s1
    b5e6:	c9bff0ef          	jal	ra,b280 <memchr>
    b5ea:	c119                	beqz	a0,b5f0 <_printf_i+0x236>
    b5ec:	8d05                	sub	a0,a0,s1
    b5ee:	c048                	sw	a0,4(s0)
    b5f0:	405c                	lw	a5,4(s0)
    b5f2:	c81c                	sw	a5,16(s0)
    b5f4:	040401a3          	sb	zero,67(s0)
    b5f8:	bf31                	j	b514 <_printf_i+0x15a>
    b5fa:	4814                	lw	a3,16(s0)
    b5fc:	8626                	mv	a2,s1
    b5fe:	85ce                	mv	a1,s3
    b600:	854a                	mv	a0,s2
    b602:	9a02                	jalr	s4
    b604:	f35502e3          	beq	a0,s5,b528 <_printf_i+0x16e>
    b608:	401c                	lw	a5,0(s0)
    b60a:	8b89                	andi	a5,a5,2
    b60c:	e78d                	bnez	a5,b636 <_printf_i+0x27c>
    b60e:	47b2                	lw	a5,12(sp)
    b610:	4448                	lw	a0,12(s0)
    b612:	f0f55ce3          	bge	a0,a5,b52a <_printf_i+0x170>
    b616:	853e                	mv	a0,a5
    b618:	bf09                	j	b52a <_printf_i+0x170>
    b61a:	4685                	li	a3,1
    b61c:	8656                	mv	a2,s5
    b61e:	85ce                	mv	a1,s3
    b620:	854a                	mv	a0,s2
    b622:	9a02                	jalr	s4
    b624:	f16502e3          	beq	a0,s6,b528 <_printf_i+0x16e>
    b628:	0485                	addi	s1,s1,1
    b62a:	445c                	lw	a5,12(s0)
    b62c:	4732                	lw	a4,12(sp)
    b62e:	8f99                	sub	a5,a5,a4
    b630:	fef4c5e3          	blt	s1,a5,b61a <_printf_i+0x260>
    b634:	bfe9                	j	b60e <_printf_i+0x254>
    b636:	4481                	li	s1,0
    b638:	01940a93          	addi	s5,s0,25
    b63c:	5b7d                	li	s6,-1
    b63e:	b7f5                	j	b62a <_printf_i+0x270>

0000b640 <_read_r>:
    b640:	1141                	addi	sp,sp,-16
    b642:	c422                	sw	s0,8(sp)
    b644:	842a                	mv	s0,a0
    b646:	852e                	mv	a0,a1
    b648:	85b2                	mv	a1,a2
    b64a:	8636                	mv	a2,a3
    b64c:	a201a023          	sw	zero,-1504(gp) # 20001ac8 <errno>
    b650:	c606                	sw	ra,12(sp)
    b652:	20a1                	jal	b69a <_read>
    b654:	57fd                	li	a5,-1
    b656:	00f51663          	bne	a0,a5,b662 <_read_r+0x22>
    b65a:	a201a783          	lw	a5,-1504(gp) # 20001ac8 <errno>
    b65e:	c391                	beqz	a5,b662 <_read_r+0x22>
    b660:	c01c                	sw	a5,0(s0)
    b662:	40b2                	lw	ra,12(sp)
    b664:	4422                	lw	s0,8(sp)
    b666:	0141                	addi	sp,sp,16
    b668:	8082                	ret

0000b66a <_close>:
    b66a:	05800793          	li	a5,88
    b66e:	a2f1a023          	sw	a5,-1504(gp) # 20001ac8 <errno>
    b672:	557d                	li	a0,-1
    b674:	8082                	ret

0000b676 <_fstat>:
    b676:	05800793          	li	a5,88
    b67a:	a2f1a023          	sw	a5,-1504(gp) # 20001ac8 <errno>
    b67e:	557d                	li	a0,-1
    b680:	8082                	ret

0000b682 <_isatty>:
    b682:	05800793          	li	a5,88
    b686:	a2f1a023          	sw	a5,-1504(gp) # 20001ac8 <errno>
    b68a:	4501                	li	a0,0
    b68c:	8082                	ret

0000b68e <_lseek>:
    b68e:	05800793          	li	a5,88
    b692:	a2f1a023          	sw	a5,-1504(gp) # 20001ac8 <errno>
    b696:	557d                	li	a0,-1
    b698:	8082                	ret

0000b69a <_read>:
    b69a:	05800793          	li	a5,88
    b69e:	a2f1a023          	sw	a5,-1504(gp) # 20001ac8 <errno>
    b6a2:	557d                	li	a0,-1
    b6a4:	8082                	ret
    b6a6:	0000                	unimp
    b6a8:	2500                	.2byte	0x2500
    b6aa:	5008                	lw	a0,32(s0)
    b6ac:	6f72                	.2byte	0x6f72
    b6ae:	4320                	lw	s0,64(a4)
    b6b0:	72746e6f          	jal	t3,525d6 <_data_lma+0x469f2>
    b6b4:	656c6c6f          	jal	s8,d1d0a <_data_lma+0xc6126>
    b6b8:	0072                	c.slli	zero,0x1c
    b6ba:	0000                	unimp
    b6bc:	0000                	unimp
    b6be:	6800                	.2byte	0x6800
    b6c0:	05f8                	addi	a4,sp,716
    b6c2:	0000                	unimp
    b6c4:	067e                	slli	a2,a2,0x1f
    b6c6:	0000                	unimp
    b6c8:	0690                	addi	a2,sp,832
    b6ca:	0000                	unimp
    b6cc:	076c                	addi	a1,sp,908
    b6ce:	0000                	unimp
    b6d0:	076c                	addi	a1,sp,908
    b6d2:	0000                	unimp
    b6d4:	076c                	addi	a1,sp,908
    b6d6:	0000                	unimp
    b6d8:	076c                	addi	a1,sp,908
    b6da:	0000                	unimp
    b6dc:	076c                	addi	a1,sp,908
    b6de:	0000                	unimp
    b6e0:	0612                	slli	a2,a2,0x4
    b6e2:	0000                	unimp
    b6e4:	065a                	slli	a2,a2,0x16
    b6e6:	0000                	unimp
    b6e8:	066c                	addi	a1,sp,780
    b6ea:	0000                	unimp
    b6ec:	0928                	addi	a0,sp,152
    b6ee:	0000                	unimp
    b6f0:	0806                	slli	a6,a6,0x1
    b6f2:	0000                	unimp
    b6f4:	076c                	addi	a1,sp,908
    b6f6:	0000                	unimp
    b6f8:	088e                	slli	a7,a7,0x3
    b6fa:	0000                	unimp
    b6fc:	076c                	addi	a1,sp,908
    b6fe:	0000                	unimp
    b700:	07cc                	addi	a1,sp,964
    b702:	0000                	unimp
    b704:	06b8                	addi	a4,sp,840
    b706:	0000                	unimp
    b708:	076c                	addi	a1,sp,908
    b70a:	0000                	unimp
    b70c:	07da                	slli	a5,a5,0x16
    b70e:	0000                	unimp
    b710:	07f2                	slli	a5,a5,0x1c
    b712:	0000                	unimp
    b714:	0922                	slli	s2,s2,0x8
    b716:	0000                	unimp
    b718:	0612                	slli	a2,a2,0x4
    b71a:	0000                	unimp
    b71c:	6f74                	.2byte	0x6f74
    b71e:	2070                	.2byte	0x2070
    b720:	7270                	.2byte	0x7270
    b722:	7365                	lui	t1,0xffff9
    b724:	0d646573          	csrrsi	a0,0xd6,8
    b728:	0000                	unimp
    b72a:	0000                	unimp
    b72c:	0a0d                	addi	s4,s4,3
    b72e:	0a0d                	addi	s4,s4,3
    b730:	5250                	lw	a2,36(a2)
    b732:	4e4f434f          	.4byte	0x4e4f434f
    b736:	5020                	lw	s0,96(s0)
    b738:	4f52                	lw	t5,20(sp)
    b73a:	454a                	lw	a0,144(sp)
    b73c:	000d5443          	.4byte	0xd5443
    b740:	74737953          	.4byte	0x74737953
    b744:	6d65                	lui	s10,0x19
    b746:	3a6b6c43          	.4byte	0x3a6b6c43
    b74a:	6425                	lui	s0,0x9
    b74c:	0a0d                	addi	s4,s4,3
    b74e:	0000                	unimp
    b750:	43d2                	lw	t2,20(sp)
    b752:	0000                	unimp
    b754:	4404                	lw	s1,8(s0)
    b756:	0000                	unimp
    b758:	4412                	lw	s0,4(sp)
    b75a:	0000                	unimp
    b75c:	4418                	lw	a4,8(s0)
    b75e:	0000                	unimp
    b760:	441e                	lw	s0,196(sp)
    b762:	0000                	unimp
    b764:	4424                	lw	s1,72(s0)
    b766:	0000                	unimp
    b768:	49da                	lw	s3,148(sp)
    b76a:	0000                	unimp
    b76c:	49e0                	lw	s0,84(a1)
    b76e:	0000                	unimp
    b770:	49e6                	lw	s3,88(sp)
    b772:	0000                	unimp
    b774:	49ec                	lw	a1,84(a1)
    b776:	0000                	unimp
    b778:	49f2                	lw	s3,28(sp)
    b77a:	0000                	unimp
    b77c:	49d6                	lw	s3,84(sp)
    b77e:	0000                	unimp
    b780:	4a0a                	lw	s4,128(sp)
    b782:	0000                	unimp
    b784:	592c                	lw	a1,112(a0)
    b786:	0000                	unimp
    b788:	594a                	lw	s2,176(sp)
    b78a:	0000                	unimp
    b78c:	5974                	lw	a3,116(a0)
    b78e:	0000                	unimp
    b790:	5946                	lw	s2,112(sp)
    b792:	0000                	unimp
    b794:	5946                	lw	s2,112(sp)
    b796:	0000                	unimp
    b798:	5946                	lw	s2,112(sp)
    b79a:	0000                	unimp
    b79c:	5946                	lw	s2,112(sp)
    b79e:	0000                	unimp
    b7a0:	5946                	lw	s2,112(sp)
    b7a2:	0000                	unimp
    b7a4:	5946                	lw	s2,112(sp)
    b7a6:	0000                	unimp
    b7a8:	5946                	lw	s2,112(sp)
    b7aa:	0000                	unimp
    b7ac:	5946                	lw	s2,112(sp)
    b7ae:	0000                	unimp
    b7b0:	5946                	lw	s2,112(sp)
    b7b2:	0000                	unimp
    b7b4:	59ac                	lw	a1,112(a1)
    b7b6:	0000                	unimp
    b7b8:	5946                	lw	s2,112(sp)
    b7ba:	0000                	unimp
    b7bc:	59ca                	lw	s3,176(sp)
    b7be:	0000                	unimp
    b7c0:	59d4                	lw	a3,52(a1)
	...

0000b7c4 <MySerNumInfo>:
    b7c4:	0316 0030 0031 0032 0033 0034 0035 0036     ..0.1.2.3.4.5.6.
    b7d4:	0037 0038 0039 0000                         7.8.9...

0000b7dc <MyProdInfo>:
    b7dc:	032a 0053 006d 0061 0073 0068 0020 0050     *.S.m.a.s.h. .P.
    b7ec:	0072 006f 0020 0043 006f 006e 0074 0072     r.o. .C.o.n.t.r.
    b7fc:	006f 006c 006c 0065 0072 0000               o.l.l.e.r...

0000b808 <MyManuInfo>:
    b808:	030a 0052 0065 0065 0064 0000               ..R.e.e.d...

0000b814 <MyHIDReportDesc>:
    b814:	0105 0015 0409 01a1 3085 0105 0905 0119     .........0......
    b824:	0a29 0015 0125 0175 0a95 0055 0065 0281     )...%.u...U.e...
    b834:	0905 0b19 0e29 0015 0125 0175 0495 0281     ....)...%.u.....
    b844:	0175 0295 0381 010b 0100 a100 0b00 0030     u.............0.
    b854:	0001 310b 0100 0b00 0032 0001 350b 0100     ...1....2....5..
    b864:	1500 2700 ffff 0000 1075 0495 0281 0bc0     ...'....u.......
    b874:	0039 0001 0015 0725 0035 3b46 6501 7514     9.....%.5.F;.e.u
    b884:	9504 8101 0502 1909 290f 1512 2500 7501     .........)...%.u
    b894:	9501 8104 7502 9508 8134 0603 ff00 2185     .....u..4......!
    b8a4:	0109 0875 3f95 0381 8185 0209 0875 3f95     ..u..?......u..?
    b8b4:	0381 0185 0309 0875 3f95 8391 1085 0409     ......u..?......
    b8c4:	0875 3f95 8391 8085 0509 0875 3f95 8391     u..?......u..?..
    b8d4:	8285 0609 0875 3f95 8391 fe85 0709 0875     ....u..?......u.
    b8e4:	3f95 0281 fe85 0709 0875 3f95 8291 00c0     .?......u..?....

0000b8f4 <MyDevDescr>:
    b8f4:	0112 0002 0000 4000 057e 2009 0100 0201     .......@~.. ....
    b904:	0103 0000 c840 ffff c6fa ffff c6d0 ffff     ....@...........
    b914:	c7b2 ffff c6d0 ffff c704 ffff c6d0 ffff     ................
    b924:	c7b2 ffff c6fa ffff c6fa ffff c704 ffff     ................
    b934:	c7b2 ffff c80c ffff c80c ffff c80c ffff     ................
    b944:	c704 ffff de80 ffff dce0 ffff dd12 ffff     ................
    b954:	dd18 ffff dd12 ffff dd22 ffff dd12 ffff     ........".......
    b964:	dd18 ffff dce0 ffff dce0 ffff dd22 ffff     ............"...
    b974:	dd18 ffff dde4 ffff dde4 ffff dde4 ffff     ................
    b984:	dd22 ffff dca0 ffff dca0 ffff dcd2 ffff     "...............
    b994:	ded4 ffff dcd2 ffff dce2 ffff dcd2 ffff     ................
    b9a4:	ded4 ffff dca0 ffff dca0 ffff dce2 ffff     ................
    b9b4:	ded4 ffff dda4 ffff dda4 ffff debe ffff     ................
    b9c4:	dc9a ffff dea2 ffff dc9a ffff debe ffff     ................
    b9d4:	dc68 ffff dc68 ffff dea2 ffff debe ffff     h...h...........
    b9e4:	dd68 ffff dd68 ffff dd68 ffff               h...h...h...

0000b9f0 <__clz_tab>:
    b9f0:	0100 0202 0303 0303 0404 0404 0404 0404     ................
    ba00:	0505 0505 0505 0505 0505 0505 0505 0505     ................
    ba10:	0606 0606 0606 0606 0606 0606 0606 0606     ................
    ba20:	0606 0606 0606 0606 0606 0606 0606 0606     ................
    ba30:	0707 0707 0707 0707 0707 0707 0707 0707     ................
    ba40:	0707 0707 0707 0707 0707 0707 0707 0707     ................
    ba50:	0707 0707 0707 0707 0707 0707 0707 0707     ................
    ba60:	0707 0707 0707 0707 0707 0707 0707 0707     ................
    ba70:	0808 0808 0808 0808 0808 0808 0808 0808     ................
    ba80:	0808 0808 0808 0808 0808 0808 0808 0808     ................
    ba90:	0808 0808 0808 0808 0808 0808 0808 0808     ................
    baa0:	0808 0808 0808 0808 0808 0808 0808 0808     ................
    bab0:	0808 0808 0808 0808 0808 0808 0808 0808     ................
    bac0:	0808 0808 0808 0808 0808 0808 0808 0808     ................
    bad0:	0808 0808 0808 0808 0808 0808 0808 0808     ................
    bae0:	0808 0808 0808 0808 0808 0808 0808 0808     ................

0000baf0 <__sf_fake_stderr>:
	...

0000bb10 <__sf_fake_stdout>:
	...

0000bb30 <__sf_fake_stdin>:
	...
    bb50:	2d23 2b30 0020 0000 6c68 004c 6665 4567     #-0+ ...hlL.efgE
    bb60:	4746 0000 3130 3332 3534 3736 3938 4241     FG..0123456789AB
    bb70:	4443 4645 0000 0000 3130 3332 3534 3736     CDEF....01234567
    bb80:	3938 6261 6463 6665 0000 0000 f89e ffff     89abcdef........
    bb90:	f8b4 ffff f874 ffff f874 ffff f874 ffff     ....t...t...t...
    bba0:	f874 ffff f8b4 ffff f874 ffff f874 ffff     t.......t...t...
    bbb0:	f874 ffff f874 ffff fa1a ffff f91c ffff     t...t...........
    bbc0:	f9b2 ffff f874 ffff f874 ffff fa4a ffff     ....t...t...J...
    bbd0:	f874 ffff f91c ffff f874 ffff f874 ffff     t.......t...t...
    bbe0:	f9ba ffff                                   ....
